
decompilation/ST.EXE:     file format binary


Disassembly of section .data:

00000000 <.data>:
       0:	50532d58 	.word	0x582d5350
       4:	20455845 	.word	0x45584520
	...
      10:	20430180 	lb	at,17184(zero)
      14:	00000000 	nop
      18:	00100180 	lb	at,4096(zero)
      1c:	00780700 	sll	t7,a3,0x0
	...
      30:	f0ff1f80 	lb	ra,-16(zero)
	...
      4c:	536f6e79 	.word	0x796e6f53
      50:	20436f6d 	.word	0x6d6f4320
      54:	70757465 	.word	0x65747570
      58:	7220456e 	.word	0x6e452072
      5c:	74657274 	jalx	0x1c995d1
      60:	61696e6d 	.word	0x6d6e6961
      64:	656e7420 	addi	s4,v1,28261
      68:	496e632e 	sltiu	v1,s3,28233
      6c:	20666f72 	.word	0x726f6620
      70:	204e6f72 	.word	0x726f4e20
      74:	74682041 	.word	0x41206874
      78:	6d657269 	.word	0x6972656d
      7c:	63612061 	.word	0x61206163
      80:	72656100 	.word	0x616572
	...
     800:	5c4c4f41 	.word	0x414f4c5c
     804:	4430322e 	sltiu	s2,s1,12356
     808:	54494d3b 	xori	t5,k0,0x4954
     80c:	31000000 	.word	0x31
     810:	00100000 	sll	v0,zero,0x0
     814:	00000000 	nop
     818:	00100000 	sll	v0,zero,0x0
     81c:	00000000 	nop
     820:	00100000 	sll	v0,zero,0x0
	...
     834:	40000000 	ssnop
     838:	80000000 	sll	zero,zero,0x2
     83c:	c0000000 	ehb
     840:	00000000 	nop
     844:	00000300 	sll	zero,v1,0x0
     848:	00000600 	sll	zero,a2,0x0
     84c:	00000900 	sll	zero,t1,0x0
     850:	00000000 	nop
     854:	00002000 	.word	0x200000
     858:	00004000 	.word	0x400000
     85c:	00006000 	.word	0x600000
     860:	00008000 	.word	0x800000
     864:	0000a000 	.word	0xa00000
     868:	0000c000 	.word	0xc00000
     86c:	0000e000 	.word	0xe00000
     870:	40000000 	ssnop
     874:	40002000 	.word	0x200040
     878:	40004000 	.word	0x400040
     87c:	40006000 	.word	0x600040
     880:	40008000 	.word	0x800040
     884:	4000a000 	.word	0xa00040
     888:	4000c000 	.word	0xc00040
     88c:	4000e000 	.word	0xe00040
     890:	00000000 	nop
     894:	00000100 	sll	zero,at,0x0
     898:	00000200 	sll	zero,v0,0x0
     89c:	00000300 	sll	zero,v1,0x0
     8a0:	00000400 	sll	zero,a0,0x0
     8a4:	00000500 	sll	zero,a1,0x0
     8a8:	00000600 	sll	zero,a2,0x0
     8ac:	00000700 	sll	zero,a3,0x0
     8b0:	00000800 	sll	zero,t0,0x0
     8b4:	00000900 	sll	zero,t1,0x0
     8b8:	00000a00 	sll	zero,t2,0x0
     8bc:	00000b00 	sll	zero,t3,0x0
     8c0:	00000c00 	sll	zero,t4,0x0
     8c4:	00000d00 	sll	zero,t5,0x0
     8c8:	00000e00 	sll	zero,t6,0x0
     8cc:	00000f00 	sll	zero,t7,0x0
     8d0:	25002f00 	or	zero,at,t7
     8d4:	14001400 	.word	0x140014
     8d8:	1e002900 	.word	0x29001e
     8dc:	22002500 	sub	zero,at,a1
     8e0:	c4005e00 	.word	0x5e00c4
     8e4:	12015e00 	.word	0x5e0112
     8e8:	ac006800 	.word	0x6800ac
     8ec:	2a016800 	.word	0x68012a
	...
     8f8:	80400000 	sll	t0,zero,0x2
     8fc:	80400000 	sll	t0,zero,0x2
	...
     908:	00408000 	.word	0x804000
     90c:	00408000 	.word	0x804000
     910:	ff121915 	bne	t0,t9,0x5510
     914:	141314ff 	.word	0xff141314
     918:	191b1d20 	addi	sp,zero,6937
     91c:	1c181a17 	bne	t8,k0,0x6990
     920:	ff1319ff 	.word	0xff1913ff
     924:	1b0dff16 	bne	s7,ra,0x3d94
     928:	18171620 	addi	s6,zero,5912
     92c:	18ffffff 	.word	0xffffff18
     930:	200cffff 	.word	0xffff0c20
     934:	ff0b04ff 	.word	0xff040bff
     938:	ffffffff 	.word	0xffffffff
     93c:	ffffff00 	.word	0xffffff
     940:	00002a00 	.word	0x2a0000
     944:	23002a00 	subu	zero,at,t2
     948:	23001c00 	negu	zero,gp
     94c:	15001500 	.word	0x150015
     950:	2a001500 	slt	zero,zero,s5
     954:	23002300 	subu	zero,at,v1
     958:	0e000e00 	.word	0xe000e
     95c:	1c000000 	.word	0x1c
     960:	23002a00 	subu	zero,at,t2
     964:	00002300 	.word	0x230000
     968:	1c000000 	.word	0x1c
     96c:	1c002a00 	.word	0x2a001c
     970:	15002a00 	.word	0x2a0015
     974:	07002a00 	srav	zero,t2,at
     978:	00000000 	nop
     97c:	00002300 	.word	0x230000
     980:	15000000 	.word	0x15
     984:	00000000 	nop
     988:	23002a00 	subu	zero,at,t2
     98c:	00002a00 	.word	0x2a0000
     990:	00000000 	nop
     994:	30005400 	.word	0x540030
     998:	72005400 	.word	0x540072
     99c:	20005e00 	add	zero,v0,s8
     9a0:	82005e00 	.word	0x5e0082
     9a4:	0f000c00 	.word	0xc000f
     9a8:	0c001300 	syscall	0x4c00
     9ac:	13000500 	.word	0x50013
     9b0:	1a002400 	div	zero,at,a0
     9b4:	14001000 	.word	0x100014
     9b8:	14001000 	.word	0x100014
     9bc:	1b001400 	divu	zero,zero,s4
     9c0:	11001400 	.word	0x140011
     9c4:	22001000 	neg	zero,s0
     9c8:	0a002500 	.word	0x25000a
     9cc:	ffffffff 	.word	0xffffffff
     9d0:	00000000 	nop
     9d4:	05000000 	.word	0x5
     9d8:	02000000 	srl	zero,zero,0x0
	...
     9e8:	ffffffff 	.word	0xffffffff
     9ec:	04000000 	sllv	zero,zero,zero
     9f0:	04000000 	sllv	zero,zero,zero
     9f4:	03000000 	sra	zero,zero,0x0
     9f8:	01000000 	.word	0x1
     9fc:	01000000 	.word	0x1
     a00:	04000000 	sllv	zero,zero,zero
     a04:	06000000 	srlv	zero,zero,zero
     a08:	01000000 	.word	0x1
     a0c:	ffffffff 	.word	0xffffffff
     a10:	05000000 	.word	0x5
     a14:	02000000 	srl	zero,zero,0x0
     a18:	ffffffff 	.word	0xffffffff
     a1c:	02000000 	srl	zero,zero,0x0
     a20:	03000000 	sra	zero,zero,0x0
     a24:	ffffffff 	.word	0xffffffff
     a28:	06000000 	srlv	zero,zero,zero
     a2c:	02000000 	srl	zero,zero,0x0
     a30:	06000000 	srlv	zero,zero,zero
     a34:	06000000 	srlv	zero,zero,zero
     a38:	01000000 	.word	0x1
     a3c:	01000000 	.word	0x1
     a40:	ffffffff 	.word	0xffffffff
     a44:	ffffffff 	.word	0xffffffff
     a48:	ffffffff 	.word	0xffffffff
     a4c:	03000000 	sra	zero,zero,0x0
     a50:	01000000 	.word	0x1
     a54:	ffffffff 	.word	0xffffffff
     a58:	ffffffff 	.word	0xffffffff
     a5c:	ffffffff 	.word	0xffffffff
     a60:	03000000 	sra	zero,zero,0x0
     a64:	04000000 	sllv	zero,zero,zero
     a68:	ffffffff 	.word	0xffffffff
     a6c:	ffffffff 	.word	0xffffffff
     a70:	ffffffff 	.word	0xffffffff
     a74:	ffffffff 	.word	0xffffffff
     a78:	ffffffff 	.word	0xffffffff
     a7c:	ffffffff 	.word	0xffffffff
     a80:	ffffffff 	.word	0xffffffff
     a84:	ffffffff 	.word	0xffffffff
     a88:	ffffffff 	.word	0xffffffff
     a8c:	0e000b00 	.word	0xb000e
     a90:	38001c00 	.word	0x1c0038
     a94:	0e002800 	.word	0x28000e
     a98:	38001c00 	.word	0x1c0038
     a9c:	0e004500 	.word	0x45000e
     aa0:	38001c00 	.word	0x1c0038
     aa4:	0e006200 	.word	0x62000e
     aa8:	5c004900 	.word	0x49005c
     aac:	0e00ac00 	.word	0xac000e
     ab0:	38001c00 	.word	0x1c0038
     ab4:	0e00c900 	.word	0xc9000e
     ab8:	38001c00 	.word	0x1c0038
     abc:	48000f00 	.word	0xf0048
     ac0:	30001800 	.word	0x180030
     ac4:	82000b00 	srl	zero,t3,0x2
     ac8:	38001c00 	.word	0x1c0038
     acc:	82002800 	.word	0x280082
     ad0:	38001c00 	.word	0x1c0038
     ad4:	6c004500 	.word	0x45006c
     ad8:	64004100 	.word	0x410064
     adc:	6c008700 	.word	0x87006c
     ae0:	64004100 	.word	0x410064
     ae4:	8200c900 	.word	0xc90082
     ae8:	38001c00 	.word	0x1c0038
     aec:	c4000f00 	.word	0xf00c4
     af0:	30001800 	.word	0x180030
     af4:	f6000b00 	.word	0xb00f6
     af8:	38001c00 	.word	0x1c0038
     afc:	f6002800 	.word	0x2800f6
     b00:	38001c00 	.word	0x1c0038
     b04:	f6004500 	.word	0x4500f6
     b08:	38001c00 	.word	0x1c0038
     b0c:	d2006200 	.word	0x6200d2
     b10:	5c004900 	.word	0x49005c
     b14:	f600ac00 	.word	0xac00f6
     b18:	38001c00 	.word	0x1c0038
     b1c:	f600c900 	.word	0xc900f6
     b20:	38001c00 	.word	0x1c0038
     b24:	4800c900 	.word	0xc90048
     b28:	38001c00 	.word	0x1c0038
     b2c:	bc00c900 	.word	0xc900bc
     b30:	38001c00 	.word	0x1c0038
     b34:	e4029800 	.word	0x9802e4
     b38:	1c039800 	.word	0x98031c
     b3c:	54039800 	.word	0x980354
     b40:	a4030000 	.word	0x3a4
     b44:	8c039800 	syscall	0x2600e
     b48:	c4039800 	.word	0x9803c4
     b4c:	e4027c00 	.word	0x7c02e4
     b50:	e402b400 	.word	0xb402e4
     b54:	1c03b400 	.word	0xb4031c
     b58:	80027c00 	.word	0x7c0280
     b5c:	8002bd00 	.word	0xbd0280
     b60:	5403b400 	.word	0xb40354
     b64:	14037c00 	.word	0x7c0314
     b68:	8c03b400 	syscall	0x2d00e
     b6c:	c403b400 	.word	0xb403c4
     b70:	54039800 	.word	0x980354
     b74:	a4034900 	.word	0x4903a4
     b78:	1c03d000 	.word	0xd0031c
     b7c:	5403d000 	.word	0xd00354
     b80:	8c03d000 	syscall	0x3400e
     b84:	c403d000 	.word	0xd003c4
     b88:	71003a00 	.word	0x3a0071
     b8c:	24002400 	and	zero,at,a0
     b90:	3a008700 	.word	0x87003a
     b94:	a8009d00 	.word	0x9d00a8
     b98:	4500a800 	.word	0xa80045
     b9c:	50000000 	.word	0x50
     ba0:	3a000000 	.word	0x3a
     ba4:	45007100 	.word	0x710045
	...
     bb0:	a4690180 	lb	at,27044(zero)
     bb4:	a4690180 	lb	at,27044(zero)
     bb8:	f0690180 	lb	at,27120(zero)
     bbc:	f0690180 	lb	at,27120(zero)
     bc0:	f0690180 	lb	at,27120(zero)
     bc4:	a4690180 	lb	at,27044(zero)
     bc8:	f0690180 	lb	at,27120(zero)
     bcc:	f0690180 	lb	at,27120(zero)
     bd0:	f0690180 	lb	at,27120(zero)
     bd4:	f0690180 	lb	at,27120(zero)
     bd8:	f0690180 	lb	at,27120(zero)
     bdc:	f0690180 	lb	at,27120(zero)
     be0:	f0690180 	lb	at,27120(zero)
     be4:	f0690180 	lb	at,27120(zero)
     be8:	f0690180 	lb	at,27120(zero)
     bec:	f0690180 	lb	at,27120(zero)
     bf0:	f0690180 	lb	at,27120(zero)
     bf4:	f0690180 	lb	at,27120(zero)
     bf8:	f0690180 	lb	at,27120(zero)
     bfc:	f0690180 	lb	at,27120(zero)
     c00:	f0690180 	lb	at,27120(zero)
     c04:	f0690180 	lb	at,27120(zero)
     c08:	f0690180 	lb	at,27120(zero)
     c0c:	f0690180 	lb	at,27120(zero)
     c10:	f0690180 	lb	at,27120(zero)
     c14:	f0690180 	lb	at,27120(zero)
     c18:	f0690180 	lb	at,27120(zero)
     c1c:	f0690180 	lb	at,27120(zero)
     c20:	f0690180 	lb	at,27120(zero)
     c24:	f0690180 	lb	at,27120(zero)
     c28:	f0690180 	lb	at,27120(zero)
     c2c:	f0690180 	lb	at,27120(zero)
     c30:	a4690180 	lb	at,27044(zero)
     c34:	a4690180 	lb	at,27044(zero)
     c38:	f0690180 	lb	at,27120(zero)
     c3c:	f0690180 	lb	at,27120(zero)
     c40:	f0690180 	lb	at,27120(zero)
     c44:	f0690180 	lb	at,27120(zero)
     c48:	f0690180 	lb	at,27120(zero)
     c4c:	f0690180 	lb	at,27120(zero)
     c50:	f0690180 	lb	at,27120(zero)
     c54:	f0690180 	lb	at,27120(zero)
     c58:	f0690180 	lb	at,27120(zero)
     c5c:	f0690180 	lb	at,27120(zero)
     c60:	f0690180 	lb	at,27120(zero)
     c64:	f0690180 	lb	at,27120(zero)
     c68:	f0690180 	lb	at,27120(zero)
     c6c:	f0690180 	lb	at,27120(zero)
     c70:	e0690180 	lb	at,27104(zero)
     c74:	00000000 	nop
     c78:	7c550280 	lb	v0,21884(zero)
     c7c:	f4520280 	lb	v0,21236(zero)
     c80:	f4520280 	lb	v0,21236(zero)
     c84:	f4520280 	lb	v0,21236(zero)
     c88:	7c550280 	lb	v0,21884(zero)
     c8c:	f4520280 	lb	v0,21236(zero)
     c90:	7c880280 	lb	v0,-30596(zero)
     c94:	e0880280 	lb	v0,-30496(zero)
     c98:	7c890280 	lb	v0,-30340(zero)
     c9c:	088a0280 	lb	v0,-30200(zero)
     ca0:	148c0280 	lb	v0,-29676(zero)
     ca4:	b08a0280 	lb	v0,-30032(zero)
     ca8:	944a0380 	lb	v1,19092(zero)
     cac:	b04a0380 	lb	v1,19120(zero)
     cb0:	5c4d0380 	lb	v1,19804(zero)
     cb4:	944d0380 	lb	v1,19860(zero)
     cb8:	1c4e0380 	lb	v1,19996(zero)
     cbc:	1c4e0380 	lb	v1,19996(zero)
     cc0:	1c4e0380 	lb	v1,19996(zero)
     cc4:	1c4e0380 	lb	v1,19996(zero)
     cc8:	d04d0380 	lb	v1,19920(zero)
     ccc:	c8650380 	lb	v1,26056(zero)
     cd0:	e4690380 	lb	v1,27108(zero)
     cd4:	d87d0380 	lb	v1,32216(zero)
     cd8:	c0680380 	lb	v1,26816(zero)
     cdc:	e4690380 	lb	v1,27108(zero)
     ce0:	d87d0380 	lb	v1,32216(zero)
     ce4:	84690380 	lb	v1,27012(zero)
     ce8:	08670380 	lb	v1,26376(zero)
     cec:	d87d0380 	lb	v1,32216(zero)
     cf0:	e0680380 	lb	v1,26848(zero)
     cf4:	c8650380 	lb	v1,26056(zero)
     cf8:	d87d0380 	lb	v1,32216(zero)
     cfc:	34690380 	lb	v1,26932(zero)
     d00:	e4690380 	lb	v1,27108(zero)
     d04:	d87d0380 	lb	v1,32216(zero)
     d08:	b4690380 	lb	v1,27060(zero)
     d0c:	e4690380 	lb	v1,27108(zero)
     d10:	d87d0380 	lb	v1,32216(zero)
     d14:	d87d0380 	lb	v1,32216(zero)
     d18:	d87d0380 	lb	v1,32216(zero)
     d1c:	d87d0380 	lb	v1,32216(zero)
     d20:	d87d0380 	lb	v1,32216(zero)
     d24:	d87d0380 	lb	v1,32216(zero)
     d28:	d87d0380 	lb	v1,32216(zero)
     d2c:	d87d0380 	lb	v1,32216(zero)
     d30:	d87d0380 	lb	v1,32216(zero)
     d34:	d87d0380 	lb	v1,32216(zero)
     d38:	d87d0380 	lb	v1,32216(zero)
     d3c:	d87d0380 	lb	v1,32216(zero)
     d40:	d87d0380 	lb	v1,32216(zero)
     d44:	d87d0380 	lb	v1,32216(zero)
     d48:	d87d0380 	lb	v1,32216(zero)
     d4c:	d87d0380 	lb	v1,32216(zero)
     d50:	d87d0380 	lb	v1,32216(zero)
     d54:	d87d0380 	lb	v1,32216(zero)
     d58:	d87d0380 	lb	v1,32216(zero)
     d5c:	d87d0380 	lb	v1,32216(zero)
     d60:	d87d0380 	lb	v1,32216(zero)
     d64:	d87d0380 	lb	v1,32216(zero)
     d68:	d87d0380 	lb	v1,32216(zero)
     d6c:	d87d0380 	lb	v1,32216(zero)
     d70:	d87d0380 	lb	v1,32216(zero)
     d74:	d87d0380 	lb	v1,32216(zero)
     d78:	e06a0380 	lb	v1,27360(zero)
     d7c:	106b0380 	lb	v1,27408(zero)
     d80:	106b0380 	lb	v1,27408(zero)
     d84:	106b0380 	lb	v1,27408(zero)
     d88:	106b0380 	lb	v1,27408(zero)
     d8c:	986b0380 	lb	v1,27544(zero)
     d90:	c06d0380 	lb	v1,28096(zero)
     d94:	c06d0380 	lb	v1,28096(zero)
     d98:	c06d0380 	lb	v1,28096(zero)
     d9c:	c06d0380 	lb	v1,28096(zero)
     da0:	04700380 	lb	v1,28676(zero)
     da4:	c06d0380 	lb	v1,28096(zero)
     da8:	c06d0380 	lb	v1,28096(zero)
     dac:	986b0380 	lb	v1,27544(zero)
     db0:	c06d0380 	lb	v1,28096(zero)
     db4:	30740380 	lb	v1,29744(zero)
     db8:	d87d0380 	lb	v1,32216(zero)
     dbc:	c06d0380 	lb	v1,28096(zero)
     dc0:	9c710380 	lb	v1,29084(zero)
     dc4:	40740380 	lb	v1,29760(zero)
     dc8:	c06d0380 	lb	v1,28096(zero)
     dcc:	307a0380 	lb	v1,31280(zero)
     dd0:	40740380 	lb	v1,29760(zero)
     dd4:	c06d0380 	lb	v1,28096(zero)
     dd8:	c06d0380 	lb	v1,28096(zero)
     ddc:	d87d0380 	lb	v1,32216(zero)
     de0:	c06d0380 	lb	v1,28096(zero)
     de4:	9c710380 	lb	v1,29084(zero)
     de8:	c06d0380 	lb	v1,28096(zero)
     dec:	40740380 	lb	v1,29760(zero)
     df0:	c06d0380 	lb	v1,28096(zero)
     df4:	c06d0380 	lb	v1,28096(zero)
     df8:	c06d0380 	lb	v1,28096(zero)
     dfc:	d87d0380 	lb	v1,32216(zero)
     e00:	c06d0380 	lb	v1,28096(zero)
     e04:	d87d0380 	lb	v1,32216(zero)
     e08:	c06d0380 	lb	v1,28096(zero)
     e0c:	d87d0380 	lb	v1,32216(zero)
     e10:	c06d0380 	lb	v1,28096(zero)
     e14:	9c710380 	lb	v1,29084(zero)
     e18:	04700380 	lb	v1,28676(zero)
     e1c:	d87d0380 	lb	v1,32216(zero)
     e20:	f0760380 	lb	v1,30448(zero)
     e24:	c06d0380 	lb	v1,28096(zero)
     e28:	80750380 	lb	v1,30080(zero)
     e2c:	80750380 	lb	v1,30080(zero)
     e30:	80770380 	lb	v1,30592(zero)
     e34:	9c710380 	lb	v1,29084(zero)
     e38:	d87d0380 	lb	v1,32216(zero)
     e3c:	80750380 	lb	v1,30080(zero)
     e40:	24790380 	lb	v1,31012(zero)
     e44:	40740380 	lb	v1,29760(zero)
     e48:	c06d0380 	lb	v1,28096(zero)
     e4c:	c06d0380 	lb	v1,28096(zero)
     e50:	80750380 	lb	v1,30080(zero)
     e54:	80750380 	lb	v1,30080(zero)
     e58:	80750380 	lb	v1,30080(zero)
     e5c:	9c710380 	lb	v1,29084(zero)
     e60:	a0780380 	lb	v1,30880(zero)
     e64:	506c0380 	lb	v1,27728(zero)
     e68:	80750380 	lb	v1,30080(zero)
     e6c:	80750380 	lb	v1,30080(zero)
     e70:	50790380 	lb	v1,31056(zero)
     e74:	c06d0380 	lb	v1,28096(zero)
     e78:	c06d0380 	lb	v1,28096(zero)
     e7c:	40740380 	lb	v1,29760(zero)
     e80:	c06d0380 	lb	v1,28096(zero)
     e84:	c06d0380 	lb	v1,28096(zero)
     e88:	c06d0380 	lb	v1,28096(zero)
     e8c:	c06d0380 	lb	v1,28096(zero)
     e90:	40740380 	lb	v1,29760(zero)
     e94:	c06d0380 	lb	v1,28096(zero)
     e98:	c06d0380 	lb	v1,28096(zero)
     e9c:	80750380 	lb	v1,30080(zero)
     ea0:	a0780380 	lb	v1,30880(zero)
     ea4:	f8790380 	lb	v1,31224(zero)
     ea8:	a0780380 	lb	v1,30880(zero)
     eac:	147b0380 	lb	v1,31508(zero)
     eb0:	147b0380 	lb	v1,31508(zero)
     eb4:	40740380 	lb	v1,29760(zero)
     eb8:	c06d0380 	lb	v1,28096(zero)
     ebc:	bc7b0380 	lb	v1,31676(zero)
     ec0:	086d0380 	lb	v1,27912(zero)
     ec4:	60720380 	lb	v1,29280(zero)
     ec8:	c06d0380 	lb	v1,28096(zero)
     ecc:	a0780380 	lb	v1,30880(zero)
     ed0:	60720380 	lb	v1,29280(zero)
     ed4:	04700380 	lb	v1,28676(zero)
     ed8:	bc7b0380 	lb	v1,31676(zero)
     edc:	bc7b0380 	lb	v1,31676(zero)
     ee0:	c06d0380 	lb	v1,28096(zero)
     ee4:	9c710380 	lb	v1,29084(zero)
     ee8:	c06d0380 	lb	v1,28096(zero)
     eec:	307a0380 	lb	v1,31280(zero)
     ef0:	40740380 	lb	v1,29760(zero)
     ef4:	60720380 	lb	v1,29280(zero)
     ef8:	307a0380 	lb	v1,31280(zero)
     efc:	80750380 	lb	v1,30080(zero)
     f00:	04700380 	lb	v1,28676(zero)
     f04:	bc7b0380 	lb	v1,31676(zero)
     f08:	c06d0380 	lb	v1,28096(zero)
     f0c:	c06d0380 	lb	v1,28096(zero)
     f10:	bc7b0380 	lb	v1,31676(zero)
     f14:	c06d0380 	lb	v1,28096(zero)
     f18:	40740380 	lb	v1,29760(zero)
     f1c:	c06d0380 	lb	v1,28096(zero)
     f20:	80750380 	lb	v1,30080(zero)
     f24:	bc7b0380 	lb	v1,31676(zero)
     f28:	10780380 	lb	v1,30736(zero)
     f2c:	c06d0380 	lb	v1,28096(zero)
     f30:	c06d0380 	lb	v1,28096(zero)
     f34:	fc740380 	lb	v1,29948(zero)
     f38:	c06d0380 	lb	v1,28096(zero)
     f3c:	80750380 	lb	v1,30080(zero)
     f40:	c06d0380 	lb	v1,28096(zero)
     f44:	80750380 	lb	v1,30080(zero)
     f48:	c06d0380 	lb	v1,28096(zero)
     f4c:	bc7b0380 	lb	v1,31676(zero)
     f50:	086d0380 	lb	v1,27912(zero)
     f54:	307a0380 	lb	v1,31280(zero)
     f58:	c06d0380 	lb	v1,28096(zero)
     f5c:	40740380 	lb	v1,29760(zero)
     f60:	c06d0380 	lb	v1,28096(zero)
     f64:	a0780380 	lb	v1,30880(zero)
     f68:	bc7b0380 	lb	v1,31676(zero)
     f6c:	307a0380 	lb	v1,31280(zero)
     f70:	bc7b0380 	lb	v1,31676(zero)
     f74:	88660380 	lb	v1,26248(zero)
     f78:	64660380 	lb	v1,26212(zero)
     f7c:	98660380 	lb	v1,26264(zero)
     f80:	98660380 	lb	v1,26264(zero)
     f84:	98660380 	lb	v1,26264(zero)
     f88:	d4670380 	lb	v1,26580(zero)
     f8c:	28680380 	lb	v1,26664(zero)
     f90:	54680380 	lb	v1,26708(zero)
     f94:	78680380 	lb	v1,26744(zero)
     f98:	9c680380 	lb	v1,26780(zero)
     f9c:	d87d0380 	lb	v1,32216(zero)
     fa0:	d87d0380 	lb	v1,32216(zero)
     fa4:	d87d0380 	lb	v1,32216(zero)
     fa8:	d87d0380 	lb	v1,32216(zero)
     fac:	d87d0380 	lb	v1,32216(zero)
     fb0:	d87d0380 	lb	v1,32216(zero)
     fb4:	d87d0380 	lb	v1,32216(zero)
     fb8:	d87d0380 	lb	v1,32216(zero)
     fbc:	d87d0380 	lb	v1,32216(zero)
     fc0:	d87d0380 	lb	v1,32216(zero)
     fc4:	d87d0380 	lb	v1,32216(zero)
     fc8:	d87d0380 	lb	v1,32216(zero)
     fcc:	d87d0380 	lb	v1,32216(zero)
     fd0:	d87d0380 	lb	v1,32216(zero)
     fd4:	d87d0380 	lb	v1,32216(zero)
     fd8:	d87d0380 	lb	v1,32216(zero)
     fdc:	d87d0380 	lb	v1,32216(zero)
     fe0:	d87d0380 	lb	v1,32216(zero)
     fe4:	d87d0380 	lb	v1,32216(zero)
     fe8:	d87d0380 	lb	v1,32216(zero)
     fec:	386f0380 	lb	v1,28472(zero)
     ff0:	ec6f0380 	lb	v1,28652(zero)
     ff4:	c0700380 	lb	v1,28864(zero)
     ff8:	2c730380 	lb	v1,29484(zero)
     ffc:	f4730380 	lb	v1,29684(zero)
    1000:	c0700380 	lb	v1,28864(zero)
    1004:	2c730380 	lb	v1,29484(zero)
    1008:	f4730380 	lb	v1,29684(zero)
    100c:	c0700380 	lb	v1,28864(zero)
    1010:	2c730380 	lb	v1,29484(zero)
    1014:	f4730380 	lb	v1,29684(zero)
    1018:	386f0380 	lb	v1,28472(zero)
    101c:	ec6f0380 	lb	v1,28652(zero)
    1020:	34750380 	lb	v1,30004(zero)
    1024:	3c760380 	lb	v1,30268(zero)
    1028:	60760380 	lb	v1,30304(zero)
    102c:	c0700380 	lb	v1,28864(zero)
    1030:	2c730380 	lb	v1,29484(zero)
    1034:	f4730380 	lb	v1,29684(zero)
    1038:	c0700380 	lb	v1,28864(zero)
    103c:	2c730380 	lb	v1,29484(zero)
    1040:	f4730380 	lb	v1,29684(zero)
    1044:	c0700380 	lb	v1,28864(zero)
    1048:	2c730380 	lb	v1,29484(zero)
    104c:	f4730380 	lb	v1,29684(zero)
    1050:	c0700380 	lb	v1,28864(zero)
    1054:	2c730380 	lb	v1,29484(zero)
    1058:	f4730380 	lb	v1,29684(zero)
    105c:	386f0380 	lb	v1,28472(zero)
    1060:	ec6f0380 	lb	v1,28652(zero)
    1064:	c0700380 	lb	v1,28864(zero)
    1068:	2c730380 	lb	v1,29484(zero)
    106c:	f4730380 	lb	v1,29684(zero)
    1070:	847d0380 	lb	v1,32132(zero)
    1074:	847d0380 	lb	v1,32132(zero)
    1078:	c0700380 	lb	v1,28864(zero)
    107c:	2c730380 	lb	v1,29484(zero)
    1080:	f4730380 	lb	v1,29684(zero)
    1084:	386f0380 	lb	v1,28472(zero)
    1088:	ec6f0380 	lb	v1,28652(zero)
    108c:	fc740380 	lb	v1,29948(zero)
    1090:	fc740380 	lb	v1,29948(zero)
    1094:	fc740380 	lb	v1,29948(zero)
    1098:	fc740380 	lb	v1,29948(zero)
    109c:	fc740380 	lb	v1,29948(zero)
    10a0:	fc740380 	lb	v1,29948(zero)
    10a4:	1c860380 	lb	v1,-31204(zero)
    10a8:	f8950380 	lb	v1,-27144(zero)
    10ac:	dcbb0380 	lb	v1,-17444(zero)
    10b0:	30940380 	lb	v1,-27600(zero)
    10b4:	e4940380 	lb	v1,-27420(zero)
    10b8:	dcbb0380 	lb	v1,-17444(zero)
    10bc:	64940380 	lb	v1,-27548(zero)
    10c0:	f88b0380 	lb	v1,-29704(zero)
    10c4:	dcbb0380 	lb	v1,-17444(zero)
    10c8:	6c940380 	lb	v1,-27540(zero)
    10cc:	1c860380 	lb	v1,-31204(zero)
    10d0:	dcbb0380 	lb	v1,-17444(zero)
    10d4:	f0940380 	lb	v1,-27408(zero)
    10d8:	f8940380 	lb	v1,-27400(zero)
    10dc:	dcbb0380 	lb	v1,-17444(zero)
    10e0:	04950380 	lb	v1,-27388(zero)
    10e4:	f8950380 	lb	v1,-27144(zero)
    10e8:	dcbb0380 	lb	v1,-17444(zero)
    10ec:	dcbb0380 	lb	v1,-17444(zero)
    10f0:	dcbb0380 	lb	v1,-17444(zero)
    10f4:	dcbb0380 	lb	v1,-17444(zero)
    10f8:	dcbb0380 	lb	v1,-17444(zero)
    10fc:	dcbb0380 	lb	v1,-17444(zero)
    1100:	dcbb0380 	lb	v1,-17444(zero)
    1104:	dcbb0380 	lb	v1,-17444(zero)
    1108:	dcbb0380 	lb	v1,-17444(zero)
    110c:	dcbb0380 	lb	v1,-17444(zero)
    1110:	dcbb0380 	lb	v1,-17444(zero)
    1114:	dcbb0380 	lb	v1,-17444(zero)
    1118:	dcbb0380 	lb	v1,-17444(zero)
    111c:	dcbb0380 	lb	v1,-17444(zero)
    1120:	dcbb0380 	lb	v1,-17444(zero)
    1124:	dcbb0380 	lb	v1,-17444(zero)
    1128:	dcbb0380 	lb	v1,-17444(zero)
    112c:	dcbb0380 	lb	v1,-17444(zero)
    1130:	dcbb0380 	lb	v1,-17444(zero)
    1134:	dcbb0380 	lb	v1,-17444(zero)
    1138:	dcbb0380 	lb	v1,-17444(zero)
    113c:	dcbb0380 	lb	v1,-17444(zero)
    1140:	dcbb0380 	lb	v1,-17444(zero)
    1144:	dcbb0380 	lb	v1,-17444(zero)
    1148:	dcbb0380 	lb	v1,-17444(zero)
    114c:	dcbb0380 	lb	v1,-17444(zero)
    1150:	b0970380 	lb	v1,-26704(zero)
    1154:	6c980380 	lb	v1,-26516(zero)
    1158:	6c980380 	lb	v1,-26516(zero)
    115c:	6c980380 	lb	v1,-26516(zero)
    1160:	6c980380 	lb	v1,-26516(zero)
    1164:	28990380 	lb	v1,-26328(zero)
    1168:	9c9a0380 	lb	v1,-25956(zero)
    116c:	9c9a0380 	lb	v1,-25956(zero)
    1170:	9c9a0380 	lb	v1,-25956(zero)
    1174:	9c9a0380 	lb	v1,-25956(zero)
    1178:	849d0380 	lb	v1,-25212(zero)
    117c:	9c9a0380 	lb	v1,-25956(zero)
    1180:	9c9a0380 	lb	v1,-25956(zero)
    1184:	28990380 	lb	v1,-26328(zero)
    1188:	9c9a0380 	lb	v1,-25956(zero)
    118c:	d09d0380 	lb	v1,-25136(zero)
    1190:	dcbb0380 	lb	v1,-17444(zero)
    1194:	9c9a0380 	lb	v1,-25956(zero)
    1198:	dca70380 	lb	v1,-22564(zero)
    119c:	289e0380 	lb	v1,-25048(zero)
    11a0:	9c9a0380 	lb	v1,-25956(zero)
    11a4:	1cbb0380 	lb	v1,-17636(zero)
    11a8:	fc9f0380 	lb	v1,-24580(zero)
    11ac:	9c9a0380 	lb	v1,-25956(zero)
    11b0:	9c9a0380 	lb	v1,-25956(zero)
    11b4:	dcbb0380 	lb	v1,-17444(zero)
    11b8:	9c9a0380 	lb	v1,-25956(zero)
    11bc:	dca70380 	lb	v1,-22564(zero)
    11c0:	84af0380 	lb	v1,-20604(zero)
    11c4:	289e0380 	lb	v1,-25048(zero)
    11c8:	9c9a0380 	lb	v1,-25956(zero)
    11cc:	9c9a0380 	lb	v1,-25956(zero)
    11d0:	9c9a0380 	lb	v1,-25956(zero)
    11d4:	dcbb0380 	lb	v1,-17444(zero)
    11d8:	9c9a0380 	lb	v1,-25956(zero)
    11dc:	dcbb0380 	lb	v1,-17444(zero)
    11e0:	9c9a0380 	lb	v1,-25956(zero)
    11e4:	dcbb0380 	lb	v1,-17444(zero)
    11e8:	9c9a0380 	lb	v1,-25956(zero)
    11ec:	dca70380 	lb	v1,-22564(zero)
    11f0:	849d0380 	lb	v1,-25212(zero)
    11f4:	dcbb0380 	lb	v1,-17444(zero)
    11f8:	9cb70380 	lb	v1,-18532(zero)
    11fc:	3cb50380 	lb	v1,-19140(zero)
    1200:	74b20380 	lb	v1,-19852(zero)
    1204:	74b20380 	lb	v1,-19852(zero)
    1208:	9cb70380 	lb	v1,-18532(zero)
    120c:	dca70380 	lb	v1,-22564(zero)
    1210:	dcbb0380 	lb	v1,-17444(zero)
    1214:	74b20380 	lb	v1,-19852(zero)
    1218:	6cb80380 	lb	v1,-18324(zero)
    121c:	1cbb0380 	lb	v1,-17636(zero)
    1220:	3cb50380 	lb	v1,-19140(zero)
    1224:	9c9a0380 	lb	v1,-25956(zero)
    1228:	74b20380 	lb	v1,-19852(zero)
    122c:	74b20380 	lb	v1,-19852(zero)
    1230:	74b20380 	lb	v1,-19852(zero)
    1234:	dca70380 	lb	v1,-22564(zero)
    1238:	6cb80380 	lb	v1,-18324(zero)
    123c:	6c990380 	lb	v1,-26260(zero)
    1240:	74b20380 	lb	v1,-19852(zero)
    1244:	74b20380 	lb	v1,-19852(zero)
    1248:	1cbb0380 	lb	v1,-17636(zero)
    124c:	9c9a0380 	lb	v1,-25956(zero)
    1250:	9c9a0380 	lb	v1,-25956(zero)
    1254:	289e0380 	lb	v1,-25048(zero)
    1258:	9c9a0380 	lb	v1,-25956(zero)
    125c:	9c9a0380 	lb	v1,-25956(zero)
    1260:	9c9a0380 	lb	v1,-25956(zero)
    1264:	3cb50380 	lb	v1,-19140(zero)
    1268:	289e0380 	lb	v1,-25048(zero)
    126c:	9c9a0380 	lb	v1,-25956(zero)
    1270:	9c9a0380 	lb	v1,-25956(zero)
    1274:	74b20380 	lb	v1,-19852(zero)
    1278:	6cb80380 	lb	v1,-18324(zero)
    127c:	1cbb0380 	lb	v1,-17636(zero)
    1280:	6cb80380 	lb	v1,-18324(zero)
    1284:	6cb80380 	lb	v1,-18324(zero)
    1288:	6cb80380 	lb	v1,-18324(zero)
    128c:	289e0380 	lb	v1,-25048(zero)
    1290:	9c9a0380 	lb	v1,-25956(zero)
    1294:	acb80380 	lb	v1,-18260(zero)
    1298:	cc990380 	lb	v1,-26164(zero)
    129c:	98aa0380 	lb	v1,-21864(zero)
    12a0:	9c9a0380 	lb	v1,-25956(zero)
    12a4:	6cb80380 	lb	v1,-18324(zero)
    12a8:	98aa0380 	lb	v1,-21864(zero)
    12ac:	849d0380 	lb	v1,-25212(zero)
    12b0:	acb80380 	lb	v1,-18260(zero)
    12b4:	acb80380 	lb	v1,-18260(zero)
    12b8:	9c9a0380 	lb	v1,-25956(zero)
    12bc:	dca70380 	lb	v1,-22564(zero)
    12c0:	9c9a0380 	lb	v1,-25956(zero)
    12c4:	1cbb0380 	lb	v1,-17636(zero)
    12c8:	1cbb0380 	lb	v1,-17636(zero)
    12cc:	98aa0380 	lb	v1,-21864(zero)
    12d0:	1cbb0380 	lb	v1,-17636(zero)
    12d4:	74b20380 	lb	v1,-19852(zero)
    12d8:	849d0380 	lb	v1,-25212(zero)
    12dc:	acb80380 	lb	v1,-18260(zero)
    12e0:	9c9a0380 	lb	v1,-25956(zero)
    12e4:	9c9a0380 	lb	v1,-25956(zero)
    12e8:	acb80380 	lb	v1,-18260(zero)
    12ec:	9c9a0380 	lb	v1,-25956(zero)
    12f0:	289e0380 	lb	v1,-25048(zero)
    12f4:	9c9a0380 	lb	v1,-25956(zero)
    12f8:	74b20380 	lb	v1,-19852(zero)
    12fc:	acb80380 	lb	v1,-18260(zero)
    1300:	9cb70380 	lb	v1,-18532(zero)
    1304:	9c9a0380 	lb	v1,-25956(zero)
    1308:	9c9a0380 	lb	v1,-25956(zero)
    130c:	04b10380 	lb	v1,-20220(zero)
    1310:	84af0380 	lb	v1,-20604(zero)
    1314:	74b20380 	lb	v1,-19852(zero)
    1318:	9c9a0380 	lb	v1,-25956(zero)
    131c:	74b20380 	lb	v1,-19852(zero)
    1320:	9c9a0380 	lb	v1,-25956(zero)
    1324:	acb80380 	lb	v1,-18260(zero)
    1328:	cc990380 	lb	v1,-26164(zero)
    132c:	1cbb0380 	lb	v1,-17636(zero)
    1330:	9c9a0380 	lb	v1,-25956(zero)
    1334:	1cbb0380 	lb	v1,-17636(zero)
    1338:	9c9a0380 	lb	v1,-25956(zero)
    133c:	6cb80380 	lb	v1,-18324(zero)
    1340:	acb80380 	lb	v1,-18260(zero)
    1344:	1cbb0380 	lb	v1,-17636(zero)
    1348:	acb80380 	lb	v1,-18260(zero)
    134c:	90890380 	lb	v1,-30320(zero)
    1350:	40890380 	lb	v1,-30400(zero)
    1354:	488a0380 	lb	v1,-30136(zero)
    1358:	e08a0380 	lb	v1,-29984(zero)
    135c:	748b0380 	lb	v1,-29836(zero)
    1360:	20910380 	lb	v1,-28384(zero)
    1364:	dc910380 	lb	v1,-28196(zero)
    1368:	a4920380 	lb	v1,-27996(zero)
    136c:	28930380 	lb	v1,-27864(zero)
    1370:	ac930380 	lb	v1,-27732(zero)
    1374:	dcbb0380 	lb	v1,-17444(zero)
    1378:	dcbb0380 	lb	v1,-17444(zero)
    137c:	dcbb0380 	lb	v1,-17444(zero)
    1380:	dcbb0380 	lb	v1,-17444(zero)
    1384:	dcbb0380 	lb	v1,-17444(zero)
    1388:	dcbb0380 	lb	v1,-17444(zero)
    138c:	dcbb0380 	lb	v1,-17444(zero)
    1390:	dcbb0380 	lb	v1,-17444(zero)
    1394:	dcbb0380 	lb	v1,-17444(zero)
    1398:	dcbb0380 	lb	v1,-17444(zero)
    139c:	dcbb0380 	lb	v1,-17444(zero)
    13a0:	dcbb0380 	lb	v1,-17444(zero)
    13a4:	dcbb0380 	lb	v1,-17444(zero)
    13a8:	dcbb0380 	lb	v1,-17444(zero)
    13ac:	dcbb0380 	lb	v1,-17444(zero)
    13b0:	dcbb0380 	lb	v1,-17444(zero)
    13b4:	dcbb0380 	lb	v1,-17444(zero)
    13b8:	dcbb0380 	lb	v1,-17444(zero)
    13bc:	dcbb0380 	lb	v1,-17444(zero)
    13c0:	dcbb0380 	lb	v1,-17444(zero)
    13c4:	3c9b0380 	lb	v1,-25796(zero)
    13c8:	5c9d0380 	lb	v1,-25252(zero)
    13cc:	70a20380 	lb	v1,-23952(zero)
    13d0:	24ad0380 	lb	v1,-21212(zero)
    13d4:	00af0380 	lb	v1,-20736(zero)
    13d8:	70a20380 	lb	v1,-23952(zero)
    13dc:	24ad0380 	lb	v1,-21212(zero)
    13e0:	00af0380 	lb	v1,-20736(zero)
    13e4:	70a20380 	lb	v1,-23952(zero)
    13e8:	24ad0380 	lb	v1,-21212(zero)
    13ec:	00af0380 	lb	v1,-20736(zero)
    13f0:	3c9b0380 	lb	v1,-25796(zero)
    13f4:	5c9d0380 	lb	v1,-25252(zero)
    13f8:	58b70380 	lb	v1,-18600(zero)
    13fc:	48b40380 	lb	v1,-19384(zero)
    1400:	00b50380 	lb	v1,-19200(zero)
    1404:	70a20380 	lb	v1,-23952(zero)
    1408:	24ad0380 	lb	v1,-21212(zero)
    140c:	00af0380 	lb	v1,-20736(zero)
    1410:	70a20380 	lb	v1,-23952(zero)
    1414:	24ad0380 	lb	v1,-21212(zero)
    1418:	00af0380 	lb	v1,-20736(zero)
    141c:	70a20380 	lb	v1,-23952(zero)
    1420:	f8ad0380 	lb	v1,-21000(zero)
    1424:	00af0380 	lb	v1,-20736(zero)
    1428:	70a20380 	lb	v1,-23952(zero)
    142c:	f8ad0380 	lb	v1,-21000(zero)
    1430:	00af0380 	lb	v1,-20736(zero)
    1434:	3c9b0380 	lb	v1,-25796(zero)
    1438:	5c9d0380 	lb	v1,-25252(zero)
    143c:	70a20380 	lb	v1,-23952(zero)
    1440:	24ad0380 	lb	v1,-21212(zero)
    1444:	00af0380 	lb	v1,-20736(zero)
    1448:	24b90380 	lb	v1,-18140(zero)
    144c:	ecb90380 	lb	v1,-17940(zero)
    1450:	70a20380 	lb	v1,-23952(zero)
    1454:	f8ad0380 	lb	v1,-21000(zero)
    1458:	00af0380 	lb	v1,-20736(zero)
    145c:	3c9b0380 	lb	v1,-25796(zero)
    1460:	5c9d0380 	lb	v1,-25252(zero)
    1464:	f4b00380 	lb	v1,-20236(zero)
    1468:	fcb00380 	lb	v1,-20228(zero)
    146c:	04b10380 	lb	v1,-20220(zero)
    1470:	b0b10380 	lb	v1,-20048(zero)
    1474:	b8b10380 	lb	v1,-20040(zero)
    1478:	c0b10380 	lb	v1,-20032(zero)
    147c:	608f1980 	lb	t9,-28832(zero)
    1480:	648f1980 	lb	t9,-28828(zero)
    1484:	668f1980 	lb	t9,-28826(zero)
    1488:	708f1980 	lb	t9,-28816(zero)
    148c:	728f1980 	lb	t9,-28814(zero)
    1490:	748f1980 	lb	t9,-28812(zero)
    1494:	7a8f1980 	lb	t9,-28806(zero)
    1498:	808f1980 	lb	t9,-28800(zero)
	...
    14a4:	708f1980 	lb	t9,-28816(zero)
    14a8:	728f1980 	lb	t9,-28814(zero)
    14ac:	748f1980 	lb	t9,-28812(zero)
    14b0:	648f1980 	lb	t9,-28828(zero)
    14b4:	00000000 	nop
    14b8:	40000000 	ssnop
    14bc:	00008000 	.word	0x800000
    14c0:	40008000 	.word	0x800040
    14c4:	00000000 	nop
    14c8:	00000200 	sll	zero,v0,0x0
    14cc:	00000400 	sll	zero,a0,0x0
    14d0:	00000600 	sll	zero,a2,0x0
    14d4:	708f1980 	lb	t9,-28816(zero)
    14d8:	728f1980 	lb	t9,-28814(zero)
    14dc:	748f1980 	lb	t9,-28812(zero)
    14e0:	668f1980 	lb	t9,-28826(zero)
    14e4:	808f1980 	lb	t9,-28800(zero)
    14e8:	648f1980 	lb	t9,-28828(zero)
    14ec:	608f1980 	lb	t9,-28832(zero)
    14f0:	7a8f1980 	lb	t9,-28806(zero)
	...
    14fc:	a4cc0380 	lb	v1,-13148(zero)
    1500:	c4cc0380 	lb	v1,-13116(zero)
    1504:	e4cc0380 	lb	v1,-13084(zero)
    1508:	04cd0380 	lb	v1,-13052(zero)
    150c:	38cd0380 	lb	v1,-13000(zero)
    1510:	58cd0380 	lb	v1,-12968(zero)
    1514:	78cd0380 	lb	v1,-12936(zero)
    1518:	98cd0380 	lb	v1,-12904(zero)
    151c:	2cdb0380 	lb	v1,-9428(zero)
    1520:	3cdb0380 	lb	v1,-9412(zero)
    1524:	4cdb0380 	lb	v1,-9396(zero)
    1528:	58db0380 	lb	v1,-9384(zero)
    152c:	64db0380 	lb	v1,-9372(zero)
    1530:	70db0380 	lb	v1,-9360(zero)
    1534:	7cdb0380 	lb	v1,-9348(zero)
    1538:	88db0380 	lb	v1,-9336(zero)
    153c:	98f90380 	lb	v1,-1640(zero)
    1540:	b0fa0380 	lb	v1,-1360(zero)
    1544:	f0ff0380 	lb	v1,-16(zero)
    1548:	b8fa0380 	lb	v1,-1352(zero)
    154c:	04fb0380 	lb	v1,-1276(zero)
    1550:	f0ff0380 	lb	v1,-16(zero)
    1554:	f4fa0380 	lb	v1,-1292(zero)
    1558:	08fa0380 	lb	v1,-1528(zero)
    155c:	f0ff0380 	lb	v1,-16(zero)
    1560:	ccfa0380 	lb	v1,-1332(zero)
    1564:	a0f90380 	lb	v1,-1632(zero)
    1568:	f0ff0380 	lb	v1,-16(zero)
    156c:	0cfb0380 	lb	v1,-1268(zero)
    1570:	1cfb0380 	lb	v1,-1252(zero)
    1574:	f0ff0380 	lb	v1,-16(zero)
    1578:	2cfb0380 	lb	v1,-1236(zero)
    157c:	34fb0380 	lb	v1,-1228(zero)
    1580:	f0ff0380 	lb	v1,-16(zero)
    1584:	f0ff0380 	lb	v1,-16(zero)
    1588:	f0ff0380 	lb	v1,-16(zero)
    158c:	f0ff0380 	lb	v1,-16(zero)
    1590:	f0ff0380 	lb	v1,-16(zero)
    1594:	f0ff0380 	lb	v1,-16(zero)
    1598:	f0ff0380 	lb	v1,-16(zero)
    159c:	f0ff0380 	lb	v1,-16(zero)
    15a0:	f0ff0380 	lb	v1,-16(zero)
    15a4:	f0ff0380 	lb	v1,-16(zero)
    15a8:	f0ff0380 	lb	v1,-16(zero)
    15ac:	f0ff0380 	lb	v1,-16(zero)
    15b0:	f0ff0380 	lb	v1,-16(zero)
    15b4:	f0ff0380 	lb	v1,-16(zero)
    15b8:	f0ff0380 	lb	v1,-16(zero)
    15bc:	f0ff0380 	lb	v1,-16(zero)
    15c0:	f0ff0380 	lb	v1,-16(zero)
    15c4:	f0ff0380 	lb	v1,-16(zero)
    15c8:	f0ff0380 	lb	v1,-16(zero)
    15cc:	f0ff0380 	lb	v1,-16(zero)
    15d0:	f0ff0380 	lb	v1,-16(zero)
    15d4:	f0ff0380 	lb	v1,-16(zero)
    15d8:	f0ff0380 	lb	v1,-16(zero)
    15dc:	f0ff0380 	lb	v1,-16(zero)
    15e0:	f0ff0380 	lb	v1,-16(zero)
    15e4:	f0ff0380 	lb	v1,-16(zero)
    15e8:	f0ff0380 	lb	v1,-16(zero)
    15ec:	ccfb0380 	lb	v1,-1076(zero)
    15f0:	ccfb0380 	lb	v1,-1076(zero)
    15f4:	ccfb0380 	lb	v1,-1076(zero)
    15f8:	ccfb0380 	lb	v1,-1076(zero)
    15fc:	980f0480 	lb	a0,3992(zero)
    1600:	84100480 	lb	a0,4228(zero)
    1604:	f4100480 	lb	a0,4340(zero)
    1608:	0c100480 	lb	a0,4108(zero)
    160c:	84100480 	lb	a0,4228(zero)
    1610:	f4100480 	lb	a0,4340(zero)
    1614:	84100480 	lb	a0,4228(zero)
    1618:	cc0f0480 	lb	a0,4044(zero)
    161c:	f4100480 	lb	a0,4340(zero)
    1620:	34100480 	lb	a0,4148(zero)
    1624:	980f0480 	lb	a0,3992(zero)
    1628:	f4100480 	lb	a0,4340(zero)
    162c:	5c100480 	lb	a0,4188(zero)
    1630:	84100480 	lb	a0,4228(zero)
    1634:	f4100480 	lb	a0,4340(zero)
    1638:	84100480 	lb	a0,4228(zero)
    163c:	84100480 	lb	a0,4228(zero)
    1640:	f4100480 	lb	a0,4340(zero)
    1644:	f4100480 	lb	a0,4340(zero)
    1648:	f4100480 	lb	a0,4340(zero)
    164c:	f4100480 	lb	a0,4340(zero)
    1650:	f4100480 	lb	a0,4340(zero)
    1654:	f4100480 	lb	a0,4340(zero)
    1658:	f4100480 	lb	a0,4340(zero)
    165c:	f4100480 	lb	a0,4340(zero)
    1660:	f4100480 	lb	a0,4340(zero)
    1664:	f4100480 	lb	a0,4340(zero)
    1668:	f4100480 	lb	a0,4340(zero)
    166c:	f4100480 	lb	a0,4340(zero)
    1670:	f4100480 	lb	a0,4340(zero)
    1674:	f4100480 	lb	a0,4340(zero)
    1678:	f4100480 	lb	a0,4340(zero)
    167c:	f4100480 	lb	a0,4340(zero)
    1680:	f4100480 	lb	a0,4340(zero)
    1684:	f4100480 	lb	a0,4340(zero)
    1688:	f4100480 	lb	a0,4340(zero)
    168c:	f4100480 	lb	a0,4340(zero)
    1690:	f4100480 	lb	a0,4340(zero)
    1694:	f4100480 	lb	a0,4340(zero)
    1698:	f4100480 	lb	a0,4340(zero)
    169c:	f4100480 	lb	a0,4340(zero)
    16a0:	f4100480 	lb	a0,4340(zero)
    16a4:	f4100480 	lb	a0,4340(zero)
    16a8:	f4100480 	lb	a0,4340(zero)
    16ac:	d4100480 	lb	a0,4308(zero)
    16b0:	d4100480 	lb	a0,4308(zero)
    16b4:	d4100480 	lb	a0,4308(zero)
    16b8:	d4100480 	lb	a0,4308(zero)
    16bc:	90330480 	lb	a0,13200(zero)
    16c0:	90340480 	lb	a0,13456(zero)
    16c4:	8c3c0480 	lb	a0,15500(zero)
    16c8:	8c3c0480 	lb	a0,15500(zero)
    16cc:	48380480 	lb	a0,14408(zero)
    16d0:	343c0480 	lb	a0,15412(zero)
    16d4:	343c0480 	lb	a0,15412(zero)
    16d8:	8c3c0480 	lb	a0,15500(zero)
    16dc:	8c3c0480 	lb	a0,15500(zero)
    16e0:	8c3c0480 	lb	a0,15500(zero)
    16e4:	8c3c0480 	lb	a0,15500(zero)
    16e8:	8c3c0480 	lb	a0,15500(zero)
    16ec:	8c3c0480 	lb	a0,15500(zero)
    16f0:	8c3c0480 	lb	a0,15500(zero)
    16f4:	8c3c0480 	lb	a0,15500(zero)
    16f8:	8c3c0480 	lb	a0,15500(zero)
    16fc:	cc3b0480 	lb	a0,15308(zero)
    1700:	00000000 	nop
    1704:	a4370480 	lb	a0,14244(zero)
    1708:	b4370480 	lb	a0,14260(zero)
    170c:	c4370480 	lb	a0,14276(zero)
    1710:	d4370480 	lb	a0,14292(zero)
    1714:	e4370480 	lb	a0,14308(zero)
    1718:	43485230 	andi	s2,v0,0x4843
    171c:	5c4d3030 	andi	s0,at,0x4d5c
    1720:	2e540000 	.word	0x542e
    1724:	434f4d5c 	.word	0x5c4d4f43
    1728:	4d4f2e54 	.word	0x542e4f4d
    172c:	00000000 	nop
    1730:	434f4d5c 	.word	0x5c4d4f43
    1734:	46444154 	.word	0x54414446
    1738:	2e540000 	.word	0x542e
    173c:	434f4d5c 	.word	0x5c4d4f43
    1740:	53544154 	.word	0x54415453
    1744:	2e540000 	.word	0x542e
    1748:	434f4d5c 	.word	0x5c4d4f43
    174c:	4352542e 	sltiu	s4,s2,21059
    1750:	54000000 	.word	0x54
    1754:	434f4d5c 	.word	0x5c4d4f43
    1758:	49434f4e 	c3	0x4f4349
    175c:	2e540000 	.word	0x542e
    1760:	434f4d5c 	.word	0x5c4d4f43
    1764:	4954454d 	.word	0x4d455449
    1768:	2e540000 	.word	0x542e
    176c:	434f4d5c 	.word	0x5c4d4f43
    1770:	45515549 	.word	0x49555145
    1774:	502e5400 	.word	0x542e50
    1778:	434f4d5c 	.word	0x5c4d4f43
    177c:	54414c4b 	c2	0x14c4154
    1780:	4d53472e 	sltiu	a3,s2,21325
    1784:	54000000 	.word	0x54
    1788:	5c53545c 	.word	0x5c54535c
    178c:	5841305c 	.word	0x5c304158
    1790:	48414d2e 	sltiu	t5,s2,16712
    1794:	58413b31 	andi	k1,t1,0x4158
    1798:	00000000 	nop
    179c:	5c53545c 	.word	0x5c54535c
    17a0:	5841305c 	.word	0x5c304158
    17a4:	53484f50 	.word	0x504f4853
    17a8:	302e5841 	.word	0x41582e30
    17ac:	3b310000 	.word	0x313b
    17b0:	5c53545c 	.word	0x5c54535c
    17b4:	5841305c 	.word	0x5c304158
    17b8:	53484f50 	.word	0x504f4853
    17bc:	312e5841 	.word	0x41582e31
    17c0:	3b310000 	.word	0x313b
    17c4:	5c53545c 	.word	0x5c54535c
    17c8:	5841305c 	.word	0x5c304158
    17cc:	53484f50 	.word	0x504f4853
    17d0:	322e5841 	.word	0x41582e32
    17d4:	3b310000 	.word	0x313b
    17d8:	5c53545c 	.word	0x5c54535c
    17dc:	5841305c 	.word	0x5c304158
    17e0:	53484f50 	.word	0x504f4853
    17e4:	332e5841 	.word	0x41582e33
    17e8:	3b310000 	.word	0x313b
    17ec:	5c53545c 	.word	0x5c54535c
    17f0:	5841305c 	.word	0x5c304158
    17f4:	30333130 	andi	s1,at,0x3330
    17f8:	302e5841 	.word	0x41582e30
    17fc:	3b310000 	.word	0x313b
    1800:	5c53545c 	.word	0x5c54535c
    1804:	5841305c 	.word	0x5c304158
    1808:	31393031 	andi	s0,t1,0x3931
    180c:	302e5841 	.word	0x41582e30
    1810:	3b310000 	.word	0x313b
    1814:	5c53545c 	.word	0x5c54535c
    1818:	5841305c 	.word	0x5c304158
    181c:	33303230 	andi	s2,at,0x3033
    1820:	302e5841 	.word	0x41582e30
    1824:	3b310000 	.word	0x313b
    1828:	5c53545c 	.word	0x5c54535c
    182c:	5841305c 	.word	0x5c304158
    1830:	30373930 	andi	t9,at,0x3730
    1834:	302e5841 	.word	0x41582e30
    1838:	3b310000 	.word	0x313b
    183c:	5c53545c 	.word	0x5c54535c
    1840:	5841305c 	.word	0x5c304158
    1844:	31303330 	andi	s3,at,0x3031
    1848:	302e5841 	.word	0x41582e30
    184c:	3b310000 	.word	0x313b
    1850:	5c53545c 	.word	0x5c54535c
    1854:	5841305c 	.word	0x5c304158
    1858:	30313330 	andi	s3,at,0x3130
    185c:	302e5841 	.word	0x41582e30
    1860:	3b310000 	.word	0x313b
    1864:	5c53545c 	.word	0x5c54535c
    1868:	5841305c 	.word	0x5c304158
    186c:	30343630 	andi	s6,at,0x3430
    1870:	312e5841 	.word	0x41582e31
    1874:	3b310000 	.word	0x313b
    1878:	5c53545c 	.word	0x5c54535c
    187c:	5841305c 	.word	0x5c304158
    1880:	30343430 	andi	s4,at,0x3430
    1884:	302e5841 	.word	0x41582e30
    1888:	3b310000 	.word	0x313b
    188c:	5c53545c 	.word	0x5c54535c
    1890:	5841305c 	.word	0x5c304158
    1894:	30393530 	andi	s5,at,0x3930
    1898:	322e5841 	.word	0x41582e32
    189c:	3b310000 	.word	0x313b
    18a0:	5c53545c 	.word	0x5c54535c
    18a4:	5841305c 	.word	0x5c304158
    18a8:	32323730 	andi	s7,at,0x3232
    18ac:	302e5841 	.word	0x41582e30
    18b0:	3b310000 	.word	0x313b
    18b4:	5c53545c 	.word	0x5c54535c
    18b8:	5841305c 	.word	0x5c304158
    18bc:	31303230 	andi	s2,at,0x3031
    18c0:	302e5841 	.word	0x41582e30
    18c4:	3b310000 	.word	0x313b
    18c8:	5c53545c 	.word	0x5c54535c
    18cc:	5841305c 	.word	0x5c304158
    18d0:	30333030 	andi	s0,at,0x3330
    18d4:	302e5841 	.word	0x41582e30
    18d8:	3b310000 	.word	0x313b
    18dc:	5c53545c 	.word	0x5c54535c
    18e0:	5841305c 	.word	0x5c304158
    18e4:	30393530 	andi	s5,at,0x3930
    18e8:	362e5841 	.word	0x41582e36
    18ec:	3b310000 	.word	0x313b
    18f0:	5c53545c 	.word	0x5c54535c
    18f4:	5841305c 	.word	0x5c304158
    18f8:	33303430 	andi	s4,at,0x3033
    18fc:	302e5841 	.word	0x41582e30
    1900:	3b310000 	.word	0x313b
    1904:	5c53545c 	.word	0x5c54535c
    1908:	5841305c 	.word	0x5c304158
    190c:	31303130 	andi	s1,at,0x3031
    1910:	302e5841 	.word	0x41582e30
    1914:	3b310000 	.word	0x313b
    1918:	5c53545c 	.word	0x5c54535c
    191c:	5841305c 	.word	0x5c304158
    1920:	30323430 	andi	s4,at,0x3230
    1924:	302e5841 	.word	0x41582e30
    1928:	3b310000 	.word	0x313b
    192c:	5c53545c 	.word	0x5c54535c
    1930:	5841305c 	.word	0x5c304158
    1934:	31303330 	andi	s3,at,0x3031
    1938:	312e5841 	.word	0x41582e31
    193c:	3b310000 	.word	0x313b
    1940:	5c53545c 	.word	0x5c54535c
    1944:	5841305c 	.word	0x5c304158
    1948:	31323330 	andi	s3,at,0x3231
    194c:	302e5841 	.word	0x41582e30
    1950:	3b310000 	.word	0x313b
    1954:	5c53545c 	.word	0x5c54535c
    1958:	5841305c 	.word	0x5c304158
    195c:	32323930 	andi	t9,at,0x3232
    1960:	302e5841 	.word	0x41582e30
    1964:	3b310000 	.word	0x313b
    1968:	5c53545c 	.word	0x5c54535c
    196c:	5841315c 	.word	0x5c314158
    1970:	30393530 	andi	s5,at,0x3930
    1974:	332e5841 	.word	0x41582e33
    1978:	3b310000 	.word	0x313b
    197c:	5c53545c 	.word	0x5c54535c
    1980:	5841315c 	.word	0x5c314158
    1984:	31303830 	andi	t8,at,0x3031
    1988:	302e5841 	.word	0x41582e30
    198c:	3b310000 	.word	0x313b
    1990:	5c53545c 	.word	0x5c54535c
    1994:	5841315c 	.word	0x5c314158
    1998:	30393530 	andi	s5,at,0x3930
    199c:	342e5841 	.word	0x41582e34
    19a0:	3b310000 	.word	0x313b
    19a4:	5c53545c 	.word	0x5c54535c
    19a8:	5841315c 	.word	0x5c314158
    19ac:	31313130 	andi	s1,at,0x3131
    19b0:	302e5841 	.word	0x41582e30
    19b4:	3b310000 	.word	0x313b
    19b8:	5c53545c 	.word	0x5c54535c
    19bc:	5841315c 	.word	0x5c314158
    19c0:	30303130 	andi	s1,at,0x3030
    19c4:	302e5841 	.word	0x41582e30
    19c8:	3b310000 	.word	0x313b
    19cc:	5c53545c 	.word	0x5c54535c
    19d0:	5841315c 	.word	0x5c314158
    19d4:	30323530 	andi	s5,at,0x3230
    19d8:	302e5841 	.word	0x41582e30
    19dc:	3b310000 	.word	0x313b
    19e0:	5c53545c 	.word	0x5c54535c
    19e4:	5841315c 	.word	0x5c314158
    19e8:	30373730 	andi	s7,at,0x3730
    19ec:	302e5841 	.word	0x41582e30
    19f0:	3b310000 	.word	0x313b
    19f4:	5c53545c 	.word	0x5c54535c
    19f8:	5841315c 	.word	0x5c314158
    19fc:	31303930 	andi	t9,at,0x3031
    1a00:	302e5841 	.word	0x41582e30
    1a04:	3b310000 	.word	0x313b
    1a08:	5c53545c 	.word	0x5c54535c
    1a0c:	5841315c 	.word	0x5c314158
    1a10:	30383130 	andi	s1,at,0x3830
    1a14:	302e5841 	.word	0x41582e30
    1a18:	3b310000 	.word	0x313b
    1a1c:	5c53545c 	.word	0x5c54535c
    1a20:	5841315c 	.word	0x5c314158
    1a24:	30393530 	andi	s5,at,0x3930
    1a28:	352e5841 	.word	0x41582e35
    1a2c:	3b310000 	.word	0x313b
    1a30:	5c53545c 	.word	0x5c54535c
    1a34:	5841315c 	.word	0x5c314158
    1a38:	31303330 	andi	s3,at,0x3031
    1a3c:	322e5841 	.word	0x41582e32
    1a40:	3b310000 	.word	0x313b
    1a44:	5c53545c 	.word	0x5c54535c
    1a48:	5841315c 	.word	0x5c314158
    1a4c:	32303430 	andi	s4,at,0x3032
    1a50:	302e5841 	.word	0x41582e30
    1a54:	3b310000 	.word	0x313b
    1a58:	5c53545c 	.word	0x5c54535c
    1a5c:	5841315c 	.word	0x5c314158
    1a60:	31333930 	andi	t9,at,0x3331
    1a64:	302e5841 	.word	0x41582e30
    1a68:	3b310000 	.word	0x313b
    1a6c:	5c53545c 	.word	0x5c54535c
    1a70:	5841315c 	.word	0x5c314158
    1a74:	30313130 	andi	s1,at,0x3130
    1a78:	302e5841 	.word	0x41582e30
    1a7c:	3b310000 	.word	0x313b
    1a80:	5c53545c 	.word	0x5c54535c
    1a84:	5841315c 	.word	0x5c314158
    1a88:	32393530 	andi	s5,at,0x3932
    1a8c:	302e5841 	.word	0x41582e30
    1a90:	3b310000 	.word	0x313b
    1a94:	5c53545c 	.word	0x5c54535c
    1a98:	5841315c 	.word	0x5c314158
    1a9c:	33303630 	andi	s6,at,0x3033
    1aa0:	302e5841 	.word	0x41582e30
    1aa4:	3b310000 	.word	0x313b
    1aa8:	43485258 	.word	0x58524843
    1aac:	5c4d5858 	.word	0x58584d5c
    1ab0:	2e540000 	.word	0x542e
    1ab4:	b0cf0480 	lb	a0,-12368(zero)
    1ab8:	30d40480 	lb	a0,-11216(zero)
    1abc:	30d40480 	lb	a0,-11216(zero)
    1ac0:	30d50480 	lb	a0,-10960(zero)
    1ac4:	30d50480 	lb	a0,-10960(zero)
    1ac8:	28d70480 	lb	a0,-10456(zero)
    1acc:	30d50480 	lb	a0,-10960(zero)
    1ad0:	30d50480 	lb	a0,-10960(zero)
    1ad4:	b0cf0480 	lb	a0,-12368(zero)
    1ad8:	30d50480 	lb	a0,-10960(zero)
    1adc:	50d00480 	lb	a0,-12208(zero)
    1ae0:	50d60480 	lb	a0,-10672(zero)
    1ae4:	30d50480 	lb	a0,-10960(zero)
    1ae8:	28d70480 	lb	a0,-10456(zero)
    1aec:	f8d00480 	lb	a0,-12040(zero)
    1af0:	28d70480 	lb	a0,-10456(zero)
    1af4:	fcd10480 	lb	a0,-11780(zero)
    1af8:	b0d20480 	lb	a0,-11600(zero)
    1afc:	28d70480 	lb	a0,-10456(zero)
    1b00:	30d50480 	lb	a0,-10960(zero)
    1b04:	58d60480 	lb	a0,-10664(zero)
    1b08:	30d50480 	lb	a0,-10960(zero)
    1b0c:	28d70480 	lb	a0,-10456(zero)
    1b10:	b8d40480 	lb	a0,-11080(zero)
    1b14:	f8d00480 	lb	a0,-12040(zero)
    1b18:	28d70480 	lb	a0,-10456(zero)
    1b1c:	30d50480 	lb	a0,-10960(zero)
    1b20:	30d50480 	lb	a0,-10960(zero)
    1b24:	60d60480 	lb	a0,-10656(zero)
    1b28:	30d50480 	lb	a0,-10960(zero)
    1b2c:	58d60480 	lb	a0,-10664(zero)
    1b30:	30d50480 	lb	a0,-10960(zero)
    1b34:	50d60480 	lb	a0,-10672(zero)
    1b38:	30d50480 	lb	a0,-10960(zero)
    1b3c:	28d70480 	lb	a0,-10456(zero)
    1b40:	28d70480 	lb	a0,-10456(zero)
    1b44:	50d60480 	lb	a0,-10672(zero)
    1b48:	b8d30480 	lb	a0,-11336(zero)
    1b4c:	18d30480 	lb	a0,-11496(zero)
    1b50:	98d10480 	lb	a0,-11880(zero)
    1b54:	4cd20480 	lb	a0,-11700(zero)
    1b58:	b8d30480 	lb	a0,-11336(zero)
    1b5c:	28d70480 	lb	a0,-10456(zero)
    1b60:	28d70480 	lb	a0,-10456(zero)
    1b64:	4cd20480 	lb	a0,-11700(zero)
    1b68:	fcd10480 	lb	a0,-11780(zero)
    1b6c:	f8d00480 	lb	a0,-12040(zero)
    1b70:	18d30480 	lb	a0,-11496(zero)
    1b74:	30d50480 	lb	a0,-10960(zero)
    1b78:	98d10480 	lb	a0,-11880(zero)
    1b7c:	4cd20480 	lb	a0,-11700(zero)
    1b80:	4cd20480 	lb	a0,-11700(zero)
    1b84:	28d70480 	lb	a0,-10456(zero)
    1b88:	fcd10480 	lb	a0,-11780(zero)
    1b8c:	b0cf0480 	lb	a0,-12368(zero)
    1b90:	4cd20480 	lb	a0,-11700(zero)
    1b94:	98d10480 	lb	a0,-11880(zero)
    1b98:	fcd10480 	lb	a0,-11780(zero)
    1b9c:	30d40480 	lb	a0,-11216(zero)
    1ba0:	b8d40480 	lb	a0,-11080(zero)
    1ba4:	f8d00480 	lb	a0,-12040(zero)
    1ba8:	28d70480 	lb	a0,-10456(zero)
    1bac:	30d50480 	lb	a0,-10960(zero)
    1bb0:	30d50480 	lb	a0,-10960(zero)
    1bb4:	18d30480 	lb	a0,-11496(zero)
    1bb8:	f8d00480 	lb	a0,-12040(zero)
    1bbc:	28d70480 	lb	a0,-10456(zero)
    1bc0:	30d50480 	lb	a0,-10960(zero)
    1bc4:	98d10480 	lb	a0,-11880(zero)
    1bc8:	fcd10480 	lb	a0,-11780(zero)
    1bcc:	fcd10480 	lb	a0,-11780(zero)
    1bd0:	fcd10480 	lb	a0,-11780(zero)
    1bd4:	fcd10480 	lb	a0,-11780(zero)
    1bd8:	fcd10480 	lb	a0,-11780(zero)
    1bdc:	f8d00480 	lb	a0,-12040(zero)
    1be0:	28d70480 	lb	a0,-10456(zero)
    1be4:	acd60480 	lb	a0,-10580(zero)
    1be8:	b0cf0480 	lb	a0,-12368(zero)
    1bec:	28d70480 	lb	a0,-10456(zero)
    1bf0:	30d50480 	lb	a0,-10960(zero)
    1bf4:	fcd10480 	lb	a0,-11780(zero)
    1bf8:	28d70480 	lb	a0,-10456(zero)
    1bfc:	28d70480 	lb	a0,-10456(zero)
    1c00:	acd60480 	lb	a0,-10580(zero)
    1c04:	acd60480 	lb	a0,-10580(zero)
    1c08:	30d50480 	lb	a0,-10960(zero)
    1c0c:	28d70480 	lb	a0,-10456(zero)
    1c10:	30d50480 	lb	a0,-10960(zero)
    1c14:	fcd10480 	lb	a0,-11780(zero)
    1c18:	f8d00480 	lb	a0,-12040(zero)
    1c1c:	28d70480 	lb	a0,-10456(zero)
    1c20:	fcd10480 	lb	a0,-11780(zero)
    1c24:	4cd20480 	lb	a0,-11700(zero)
    1c28:	28d70480 	lb	a0,-10456(zero)
    1c2c:	acd60480 	lb	a0,-10580(zero)
    1c30:	30d50480 	lb	a0,-10960(zero)
    1c34:	30d50480 	lb	a0,-10960(zero)
    1c38:	acd60480 	lb	a0,-10580(zero)
    1c3c:	30d50480 	lb	a0,-10960(zero)
    1c40:	f8d00480 	lb	a0,-12040(zero)
    1c44:	28d70480 	lb	a0,-10456(zero)
    1c48:	4cd20480 	lb	a0,-11700(zero)
    1c4c:	acd60480 	lb	a0,-10580(zero)
    1c50:	b8d30480 	lb	a0,-11336(zero)
    1c54:	30d50480 	lb	a0,-10960(zero)
    1c58:	30d50480 	lb	a0,-10960(zero)
    1c5c:	84d60480 	lb	a0,-10620(zero)
    1c60:	b8d40480 	lb	a0,-11080(zero)
    1c64:	4cd20480 	lb	a0,-11700(zero)
    1c68:	30d50480 	lb	a0,-10960(zero)
    1c6c:	4cd20480 	lb	a0,-11700(zero)
    1c70:	30d50480 	lb	a0,-10960(zero)
    1c74:	acd60480 	lb	a0,-10580(zero)
    1c78:	b0cf0480 	lb	a0,-12368(zero)
    1c7c:	fcd10480 	lb	a0,-11780(zero)
    1c80:	b8d40480 	lb	a0,-11080(zero)
    1c84:	fcd10480 	lb	a0,-11780(zero)
    1c88:	30d50480 	lb	a0,-10960(zero)
    1c8c:	fcd10480 	lb	a0,-11780(zero)
    1c90:	acd60480 	lb	a0,-10580(zero)
    1c94:	fcd10480 	lb	a0,-11780(zero)
    1c98:	acd60480 	lb	a0,-10580(zero)
    1c9c:	28d70480 	lb	a0,-10456(zero)
    1ca0:	28d70480 	lb	a0,-10456(zero)
    1ca4:	28d70480 	lb	a0,-10456(zero)
    1ca8:	28d70480 	lb	a0,-10456(zero)
    1cac:	28d70480 	lb	a0,-10456(zero)
    1cb0:	28d70480 	lb	a0,-10456(zero)
    1cb4:	28d70480 	lb	a0,-10456(zero)
    1cb8:	28d70480 	lb	a0,-10456(zero)
    1cbc:	28d70480 	lb	a0,-10456(zero)
    1cc0:	28d70480 	lb	a0,-10456(zero)
    1cc4:	28d70480 	lb	a0,-10456(zero)
    1cc8:	28d70480 	lb	a0,-10456(zero)
    1ccc:	28d70480 	lb	a0,-10456(zero)
    1cd0:	28d70480 	lb	a0,-10456(zero)
    1cd4:	28d70480 	lb	a0,-10456(zero)
    1cd8:	28d70480 	lb	a0,-10456(zero)
    1cdc:	28d70480 	lb	a0,-10456(zero)
    1ce0:	28d70480 	lb	a0,-10456(zero)
    1ce4:	28d70480 	lb	a0,-10456(zero)
    1ce8:	28d70480 	lb	a0,-10456(zero)
    1cec:	28d70480 	lb	a0,-10456(zero)
    1cf0:	28d70480 	lb	a0,-10456(zero)
    1cf4:	28d70480 	lb	a0,-10456(zero)
    1cf8:	28d70480 	lb	a0,-10456(zero)
    1cfc:	28d70480 	lb	a0,-10456(zero)
    1d00:	28d70480 	lb	a0,-10456(zero)
    1d04:	28d70480 	lb	a0,-10456(zero)
    1d08:	28d70480 	lb	a0,-10456(zero)
    1d0c:	28d70480 	lb	a0,-10456(zero)
    1d10:	28d70480 	lb	a0,-10456(zero)
    1d14:	d0d50480 	lb	a0,-10800(zero)
    1d18:	28d70480 	lb	a0,-10456(zero)
    1d1c:	d0d50480 	lb	a0,-10800(zero)
    1d20:	28d70480 	lb	a0,-10456(zero)
    1d24:	28d70480 	lb	a0,-10456(zero)
    1d28:	d0d50480 	lb	a0,-10800(zero)
    1d2c:	28d70480 	lb	a0,-10456(zero)
    1d30:	28d70480 	lb	a0,-10456(zero)
    1d34:	d0d50480 	lb	a0,-10800(zero)
    1d38:	28d70480 	lb	a0,-10456(zero)
    1d3c:	28d70480 	lb	a0,-10456(zero)
    1d40:	d0d50480 	lb	a0,-10800(zero)
    1d44:	28d70480 	lb	a0,-10456(zero)
    1d48:	28d70480 	lb	a0,-10456(zero)
    1d4c:	28d70480 	lb	a0,-10456(zero)
    1d50:	28d70480 	lb	a0,-10456(zero)
    1d54:	d0d50480 	lb	a0,-10800(zero)
    1d58:	28d70480 	lb	a0,-10456(zero)
    1d5c:	28d70480 	lb	a0,-10456(zero)
    1d60:	d0d50480 	lb	a0,-10800(zero)
    1d64:	28d70480 	lb	a0,-10456(zero)
    1d68:	28d70480 	lb	a0,-10456(zero)
    1d6c:	d0d50480 	lb	a0,-10800(zero)
    1d70:	28d70480 	lb	a0,-10456(zero)
    1d74:	28d70480 	lb	a0,-10456(zero)
    1d78:	d0d50480 	lb	a0,-10800(zero)
    1d7c:	28d70480 	lb	a0,-10456(zero)
    1d80:	28d70480 	lb	a0,-10456(zero)
    1d84:	d0d50480 	lb	a0,-10800(zero)
    1d88:	28d70480 	lb	a0,-10456(zero)
    1d8c:	d0d50480 	lb	a0,-10800(zero)
    1d90:	28d70480 	lb	a0,-10456(zero)
    1d94:	28d70480 	lb	a0,-10456(zero)
    1d98:	28d70480 	lb	a0,-10456(zero)
    1d9c:	28d70480 	lb	a0,-10456(zero)
    1da0:	d0d50480 	lb	a0,-10800(zero)
    1da4:	28d70480 	lb	a0,-10456(zero)
    1da8:	28d70480 	lb	a0,-10456(zero)
    1dac:	d0d50480 	lb	a0,-10800(zero)
    1db0:	28d70480 	lb	a0,-10456(zero)
    1db4:	84d60480 	lb	a0,-10620(zero)
    1db8:	84d60480 	lb	a0,-10620(zero)
    1dbc:	84d60480 	lb	a0,-10620(zero)
    1dc0:	84d60480 	lb	a0,-10620(zero)
    1dc4:	84d60480 	lb	a0,-10620(zero)
    1dc8:	84d60480 	lb	a0,-10620(zero)
    1dcc:	68d60480 	lb	a0,-10648(zero)
    1dd0:	f0fa0480 	lb	a0,-1296(zero)
    1dd4:	fcfa0480 	lb	a0,-1284(zero)
    1dd8:	68fb0480 	lb	a0,-1176(zero)
    1ddc:	8cfa0480 	lb	a0,-1396(zero)
    1de0:	fcfa0480 	lb	a0,-1284(zero)
    1de4:	40fb0480 	lb	a0,-1216(zero)
    1de8:	68fb0480 	lb	a0,-1176(zero)
    1dec:	ccfa0480 	lb	a0,-1332(zero)
    1df0:	28fb0480 	lb	a0,-1240(zero)
    1df4:	fcfa0480 	lb	a0,-1284(zero)
    1df8:	68fb0480 	lb	a0,-1176(zero)
    1dfc:	68fb0480 	lb	a0,-1176(zero)
    1e00:	68fb0480 	lb	a0,-1176(zero)
    1e04:	68fb0480 	lb	a0,-1176(zero)
    1e08:	a8fa0480 	lb	a0,-1368(zero)
    1e0c:	68fb0480 	lb	a0,-1176(zero)
    1e10:	68fb0480 	lb	a0,-1176(zero)
    1e14:	68fb0480 	lb	a0,-1176(zero)
    1e18:	68fb0480 	lb	a0,-1176(zero)
    1e1c:	68fb0480 	lb	a0,-1176(zero)
    1e20:	68fb0480 	lb	a0,-1176(zero)
    1e24:	68fb0480 	lb	a0,-1176(zero)
    1e28:	68fb0480 	lb	a0,-1176(zero)
    1e2c:	68fb0480 	lb	a0,-1176(zero)
    1e30:	68fb0480 	lb	a0,-1176(zero)
    1e34:	68fb0480 	lb	a0,-1176(zero)
    1e38:	68fb0480 	lb	a0,-1176(zero)
    1e3c:	68fb0480 	lb	a0,-1176(zero)
    1e40:	68fb0480 	lb	a0,-1176(zero)
    1e44:	68fb0480 	lb	a0,-1176(zero)
    1e48:	68fb0480 	lb	a0,-1176(zero)
    1e4c:	68fb0480 	lb	a0,-1176(zero)
    1e50:	68fb0480 	lb	a0,-1176(zero)
    1e54:	68fb0480 	lb	a0,-1176(zero)
    1e58:	68fb0480 	lb	a0,-1176(zero)
    1e5c:	68fb0480 	lb	a0,-1176(zero)
    1e60:	68fb0480 	lb	a0,-1176(zero)
    1e64:	68fb0480 	lb	a0,-1176(zero)
    1e68:	68fb0480 	lb	a0,-1176(zero)
    1e6c:	68fb0480 	lb	a0,-1176(zero)
    1e70:	68fb0480 	lb	a0,-1176(zero)
    1e74:	68fb0480 	lb	a0,-1176(zero)
    1e78:	68fb0480 	lb	a0,-1176(zero)
    1e7c:	68fb0480 	lb	a0,-1176(zero)
    1e80:	68fb0480 	lb	a0,-1176(zero)
    1e84:	68fb0480 	lb	a0,-1176(zero)
    1e88:	68fb0480 	lb	a0,-1176(zero)
    1e8c:	68fb0480 	lb	a0,-1176(zero)
    1e90:	68fb0480 	lb	a0,-1176(zero)
    1e94:	68fb0480 	lb	a0,-1176(zero)
    1e98:	68fb0480 	lb	a0,-1176(zero)
    1e9c:	68fb0480 	lb	a0,-1176(zero)
    1ea0:	68fb0480 	lb	a0,-1176(zero)
    1ea4:	68fb0480 	lb	a0,-1176(zero)
    1ea8:	68fb0480 	lb	a0,-1176(zero)
    1eac:	68fb0480 	lb	a0,-1176(zero)
    1eb0:	68fb0480 	lb	a0,-1176(zero)
    1eb4:	68fb0480 	lb	a0,-1176(zero)
    1eb8:	68fb0480 	lb	a0,-1176(zero)
    1ebc:	68fb0480 	lb	a0,-1176(zero)
    1ec0:	68fb0480 	lb	a0,-1176(zero)
    1ec4:	68fb0480 	lb	a0,-1176(zero)
    1ec8:	68fb0480 	lb	a0,-1176(zero)
    1ecc:	68fb0480 	lb	a0,-1176(zero)
    1ed0:	68fb0480 	lb	a0,-1176(zero)
    1ed4:	68fb0480 	lb	a0,-1176(zero)
    1ed8:	68fb0480 	lb	a0,-1176(zero)
    1edc:	68fb0480 	lb	a0,-1176(zero)
    1ee0:	68fb0480 	lb	a0,-1176(zero)
    1ee4:	68fb0480 	lb	a0,-1176(zero)
    1ee8:	68fb0480 	lb	a0,-1176(zero)
    1eec:	68fb0480 	lb	a0,-1176(zero)
    1ef0:	68fb0480 	lb	a0,-1176(zero)
    1ef4:	68fb0480 	lb	a0,-1176(zero)
    1ef8:	68fb0480 	lb	a0,-1176(zero)
    1efc:	68fb0480 	lb	a0,-1176(zero)
    1f00:	68fb0480 	lb	a0,-1176(zero)
    1f04:	68fb0480 	lb	a0,-1176(zero)
    1f08:	68fb0480 	lb	a0,-1176(zero)
    1f0c:	68fb0480 	lb	a0,-1176(zero)
    1f10:	68fb0480 	lb	a0,-1176(zero)
    1f14:	8cfa0480 	lb	a0,-1396(zero)
    1f18:	8cfa0480 	lb	a0,-1396(zero)
    1f1c:	00000000 	nop
    1f20:	b00c0580 	lb	a1,3248(zero)
    1f24:	c80c0580 	lb	a1,3272(zero)
    1f28:	d40c0580 	lb	a1,3284(zero)
    1f2c:	e00c0580 	lb	a1,3296(zero)
    1f30:	fc0c0580 	lb	a1,3324(zero)
    1f34:	f80c0580 	lb	a1,3320(zero)
    1f38:	f83c0580 	lb	a1,15608(zero)
    1f3c:	a43b0580 	lb	a1,15268(zero)
    1f40:	f83c0580 	lb	a1,15608(zero)
    1f44:	e83c0580 	lb	a1,15592(zero)
    1f48:	f83c0580 	lb	a1,15608(zero)
    1f4c:	608f1980 	lb	t9,-28832(zero)
    1f50:	648f1980 	lb	t9,-28828(zero)
    1f54:	668f1980 	lb	t9,-28826(zero)
    1f58:	688f1980 	lb	t9,-28824(zero)
    1f5c:	708f1980 	lb	t9,-28816(zero)
    1f60:	728f1980 	lb	t9,-28814(zero)
    1f64:	748f1980 	lb	t9,-28812(zero)
    1f68:	7a8f1980 	lb	t9,-28806(zero)
    1f6c:	7e8f1980 	lb	t9,-28802(zero)
    1f70:	808f1980 	lb	t9,-28800(zero)
    1f74:	828f1980 	lb	t9,-28798(zero)
    1f78:	00000000 	nop
    1f7c:	6a8f1980 	lb	t9,-28822(zero)
    1f80:	868f1980 	lb	t9,-28794(zero)
    1f84:	768f1980 	lb	t9,-28810(zero)
    1f88:	888f1980 	lb	t9,-28792(zero)
    1f8c:	848f1980 	lb	t9,-28796(zero)
    1f90:	00000000 	nop
    1f94:	d0510580 	lb	a1,20944(zero)
    1f98:	d0510580 	lb	a1,20944(zero)
    1f9c:	e04a0580 	lb	a1,19168(zero)
    1fa0:	144b0580 	lb	a1,19220(zero)
    1fa4:	584b0580 	lb	a1,19288(zero)
    1fa8:	d0510580 	lb	a1,20944(zero)
    1fac:	ac4b0580 	lb	a1,19372(zero)
    1fb0:	ac4b0580 	lb	a1,19372(zero)
    1fb4:	ac4b0580 	lb	a1,19372(zero)
    1fb8:	ac4b0580 	lb	a1,19372(zero)
    1fbc:	ac4b0580 	lb	a1,19372(zero)
    1fc0:	ac4b0580 	lb	a1,19372(zero)
    1fc4:	ac4b0580 	lb	a1,19372(zero)
    1fc8:	ac4b0580 	lb	a1,19372(zero)
    1fcc:	ac4b0580 	lb	a1,19372(zero)
    1fd0:	d0510580 	lb	a1,20944(zero)
    1fd4:	d0510580 	lb	a1,20944(zero)
    1fd8:	d0510580 	lb	a1,20944(zero)
    1fdc:	f44c0580 	lb	a1,19700(zero)
    1fe0:	204d0580 	lb	a1,19744(zero)
    1fe4:	4c4d0580 	lb	a1,19788(zero)
    1fe8:	804d0580 	lb	a1,19840(zero)
    1fec:	b44d0580 	lb	a1,19892(zero)
    1ff0:	d0510580 	lb	a1,20944(zero)
    1ff4:	004e0580 	lb	a1,19968(zero)
    1ff8:	384e0580 	lb	a1,20024(zero)
    1ffc:	704e0580 	lb	a1,20080(zero)
    2000:	a84e0580 	lb	a1,20136(zero)
    2004:	e04e0580 	lb	a1,20192(zero)
    2008:	184f0580 	lb	a1,20248(zero)
    200c:	504f0580 	lb	a1,20304(zero)
    2010:	3c510580 	lb	a1,20796(zero)
    2014:	3c510580 	lb	a1,20796(zero)
    2018:	3c510580 	lb	a1,20796(zero)
    201c:	d0510580 	lb	a1,20944(zero)
    2020:	d0510580 	lb	a1,20944(zero)
    2024:	884f0580 	lb	a1,20360(zero)
    2028:	3c510580 	lb	a1,20796(zero)
    202c:	3c510580 	lb	a1,20796(zero)
    2030:	60510580 	lb	a1,20832(zero)
    2034:	d0510580 	lb	a1,20944(zero)
    2038:	d0510580 	lb	a1,20944(zero)
    203c:	d0510580 	lb	a1,20944(zero)
    2040:	d0510580 	lb	a1,20944(zero)
    2044:	84510580 	lb	a1,20868(zero)
    2048:	94510580 	lb	a1,20884(zero)
    204c:	a4510580 	lb	a1,20900(zero)
    2050:	b4510580 	lb	a1,20916(zero)
    2054:	f0750580 	lb	a1,30192(zero)
    2058:	08760580 	lb	a1,30216(zero)
    205c:	54760580 	lb	a1,30292(zero)
    2060:	74760580 	lb	a1,30324(zero)
    2064:	74760580 	lb	a1,30324(zero)
    2068:	74760580 	lb	a1,30324(zero)
    206c:	20760580 	lb	a1,30240(zero)
    2070:	a48a0580 	lb	a1,-30044(zero)
    2074:	908a0580 	lb	a1,-30064(zero)
    2078:	708a0580 	lb	a1,-30096(zero)
    207c:	708a0580 	lb	a1,-30096(zero)
    2080:	708a0580 	lb	a1,-30096(zero)
    2084:	708a0580 	lb	a1,-30096(zero)
    2088:	b48a0580 	lb	a1,-30028(zero)
    208c:	b48a0580 	lb	a1,-30028(zero)
    2090:	e48a0580 	lb	a1,-29980(zero)
    2094:	e48a0580 	lb	a1,-29980(zero)
    2098:	e48a0580 	lb	a1,-29980(zero)
    209c:	e48a0580 	lb	a1,-29980(zero)
    20a0:	e48a0580 	lb	a1,-29980(zero)
    20a4:	e48a0580 	lb	a1,-29980(zero)
    20a8:	e48a0580 	lb	a1,-29980(zero)
    20ac:	e48a0580 	lb	a1,-29980(zero)
    20b0:	e48a0580 	lb	a1,-29980(zero)
    20b4:	e48a0580 	lb	a1,-29980(zero)
    20b8:	e48a0580 	lb	a1,-29980(zero)
    20bc:	e48a0580 	lb	a1,-29980(zero)
    20c0:	e48a0580 	lb	a1,-29980(zero)
    20c4:	e48a0580 	lb	a1,-29980(zero)
    20c8:	e48a0580 	lb	a1,-29980(zero)
    20cc:	e48a0580 	lb	a1,-29980(zero)
    20d0:	e4029800 	.word	0x9802e4
    20d4:	1c039800 	.word	0x98031c
    20d8:	54039800 	.word	0x980354
    20dc:	a4030000 	.word	0x3a4
    20e0:	8c039800 	syscall	0x2600e
    20e4:	c4039800 	.word	0x9803c4
    20e8:	e4027c00 	.word	0x7c02e4
    20ec:	e402b400 	.word	0xb402e4
    20f0:	1c03b400 	.word	0xb4031c
    20f4:	80027c00 	.word	0x7c0280
    20f8:	8002bd00 	.word	0xbd0280
    20fc:	5403b400 	.word	0xb40354
    2100:	14037c00 	.word	0x7c0314
    2104:	8c03b400 	syscall	0x2d00e
    2108:	c403b400 	.word	0xb403c4
    210c:	54039800 	.word	0x980354
    2110:	a4034900 	.word	0x4903a4
    2114:	1c03d000 	.word	0xd0031c
    2118:	5403d000 	.word	0xd00354
    211c:	8c03d000 	syscall	0x3400e
    2120:	c403d000 	.word	0xd003c4
    2124:	03000000 	sra	zero,zero,0x0
    2128:	04000000 	sllv	zero,zero,zero
    212c:	08000000 	jr	zero
    2130:	09000000 	jalr	zero,zero
    2134:	02000000 	srl	zero,zero,0x0
    2138:	0a000000 	.word	0xa
    213c:	10000000 	mfhi	zero
    2140:	11000000 	mthi	zero
    2144:	00000000 	nop
    2148:	0d000000 	break
    214c:	01000000 	.word	0x1
    2150:	0e000000 	.word	0xe
    2154:	07000000 	srav	zero,zero,zero
    2158:	05000000 	.word	0x5
    215c:	0b000000 	.word	0xb
    2160:	12000000 	mflo	zero
    2164:	13000000 	mtlo	zero
    2168:	14000000 	.word	0x14
    216c:	06000000 	srlv	zero,zero,zero
    2170:	0c000000 	syscall
    2174:	5c73745c 	.word	0x5c74735c
    2178:	6974656d 	.word	0x6d657469
    217c:	63675c69 	.word	0x695c6763
    2180:	636f6e31 	andi	t6,t3,0x6f63
    2184:	5c303030 	andi	s0,at,0x305c
    2188:	302e7469 	.word	0x69742e30
    218c:	6d000000 	.word	0x6d
    2190:	5c73745c 	.word	0x5c74735c
    2194:	6974656d 	.word	0x6d657469
    2198:	63675c69 	.word	0x695c6763
    219c:	636f6e35 	ori	t6,t3,0x6f63
    21a0:	5c303030 	andi	s0,at,0x305c
    21a4:	302e7469 	.word	0x69742e30
    21a8:	6d000000 	.word	0x6d
    21ac:	00ff0102 	.word	0x201ff00
    21b0:	03ff0405 	.word	0x504ff03
    21b4:	06070809 	j	0x4201c18
    21b8:	0a0b0cff 	.word	0xff0c0b0a
    21bc:	ffff0d0e 	jal	0x837fffc
    21c0:	0f1011ff 	.word	0xff11100f
    21c4:	12131415 	bne	t0,s4,0x6e10
    21c8:	16171819 	.word	0x19181716
    21cc:	1a1b1c1d 	.word	0x1d1c1b1a
    21d0:	1e1f2021 	addi	zero,t1,7966
    21d4:	ffffffff 	.word	0xffffffff
    21d8:	22222222 	addi	v0,s1,8738
    21dc:	5a000000 	.word	0x5a
    21e0:	04000000 	sllv	zero,zero,zero
    21e4:	05000000 	.word	0x5
    21e8:	01000000 	.word	0x1
    21ec:	06000000 	srlv	zero,zero,zero
    21f0:	5b000000 	.word	0x5b
    21f4:	0b000000 	.word	0xb
    21f8:	1b000000 	divu	zero,zero,zero
    21fc:	0c000000 	syscall
    2200:	1c000000 	.word	0x1c
    2204:	0f000000 	.word	0xf
    2208:	21000000 	move	zero,zero
    220c:	5c000000 	.word	0x5c
    2210:	03000000 	sra	zero,zero,0x0
    2214:	14000000 	.word	0x14
    2218:	18000000 	mult	zero,zero
    221c:	12000000 	mflo	zero
    2220:	5d000000 	.word	0x5d
    2224:	0a000000 	.word	0xa
    2228:	15000000 	.word	0x15
    222c:	20000000 	add	zero,zero,zero
    2230:	25000000 	move	zero,zero
    2234:	5e000000 	.word	0x5e
    2238:	09000000 	jalr	zero,zero
    223c:	08000000 	jr	zero
    2240:	0d000000 	break
    2244:	26000000 	xor	zero,zero,zero
    2248:	5f000000 	.word	0x5f
    224c:	02000000 	srl	zero,zero,0x0
    2250:	11000000 	mthi	zero
    2254:	60000000 	.word	0x60
    2258:	19000000 	multu	zero,zero
    225c:	1a000000 	div	zero,zero,zero
    2260:	0e000000 	.word	0xe
    2264:	17000000 	.word	0x17
    2268:	4241534c 	.word	0x4c534142
    226c:	55532d30 	andi	t5,at,0x5355
    2270:	30383633 	andi	s6,t9,0x3830
    2274:	46535f53 	.word	0x535f5346
    2278:	54000000 	.word	0x54
    227c:	ff7fbf03 	.word	0x3bf7fff
    2280:	3f03dd05 	.word	0x5dd033f
    2284:	7d027502 	.word	0x275027d
    2288:	0e060c06 	.word	0x60c060e
    228c:	e905a609 	j	0x69817a4
    2290:	6015e00c 	jal	0x3805580
    2294:	00000000 	nop
    2298:	00000000 	nop
    229c:	ff7f9b01 	.word	0x19b7fff
    22a0:	39671810 	beq	zero,t8,0x1bf88
    22a4:	3505f200 	.word	0xf20535
    22a8:	9119100c 	jal	0x406644
    22ac:	2d11ac00 	.word	0xac112d
    22b0:	8a00a609 	j	0x6980228
    22b4:	6015e00c 	jal	0x3805580
    22b8:	00009c24 	addiu	gp,a0,0
    22bc:	ff7f3967 	.word	0x67397fff
    22c0:	ff5af200 	.word	0xf25aff
    22c4:	9b01e00c 	jal	0x380066c
    22c8:	60150022 	addi	zero,s0,5472
    22cc:	235ac028 	slti	zero,a2,23075
    22d0:	80519f6f 	.word	0x6f9f5180
    22d4:	18100000 	.word	0x1018
    22d8:	200d402a 	slti	zero,s2,3360
    22dc:	ff7f6b2d 	sltiu	t3,t3,32767
    22e0:	10423146 	c1	0x314210
    22e4:	734ed65a 	.word	0x5ad64e73
    22e8:	39679c73 	.word	0x739c6739
    22ec:	806ec976 	jalx	0xb25ba01
    22f0:	80510000 	sll	t2,zero,0x6
    22f4:	21040000 	.word	0x421
    22f8:	00000000 	nop
    22fc:	ff7fce39 	xori	t6,t6,0x7fff
    2300:	94522104 	bgez	at,0x16d54
    2304:	3967e70c 	jal	0x39d9ce4
    2308:	bd1fd602 	.word	0x2d61fbd
    230c:	520eac0d 	jal	0x6b03948
    2310:	690e850d 	jal	0x61439a4
    2314:	240da208 	j	0x2883490
    2318:	e00c0000 	.word	0xce0
    231c:	ff7ff200 	.word	0xf27fff
    2320:	eb109b01 	.word	0x19b10eb
    2324:	152ed325 	addiu	s3,t6,11797
    2328:	7836d225 	addiu	s2,t6,13944
    232c:	362e901d 	.word	0x1d902e36
    2330:	b21d2d11 	beq	t1,t5,0x99fc
    2334:	a7080000 	.word	0x8a7
    2338:	00000000 	nop
    233c:	00450821 	addi	t0,t0,17664
    2340:	8c31734e 	c3	0x73318c
    2344:	9c733d26 	addiu	sp,s1,29596
    2348:	980d9b01 	.word	0x19b0d98
    234c:	ca043f47 	c1	0x13f04ca
    2350:	0d016259 	.word	0x5962010d
    2354:	a02c1824 	li	t8,11424
    2358:	bc490000 	.word	0x49bc
    235c:	cccccccc 	lwc3	$12,-13108(a2)
    2360:	cccccccc 	lwc3	$12,-13108(a2)
    2364:	6c6569cc 	lwc3	$9,25964(v1)
    2368:	cccccccc 	lwc3	$12,-13108(a2)
    236c:	5c5759c9 	lwc2	$25,22364(t2)
    2370:	cccccccc 	lwc3	$12,-13108(a2)
    2374:	cc959666 	.word	0x669695cc
    2378:	cccccccc 	lwc3	$12,-13108(a2)
    237c:	ccc76a9a 	lwr	t2,-14388(s3)
    2380:	c9cccccc 	lwc3	$12,-13111(a2)
    2384:	cccccc56 	.word	0x56cccccc
    2388:	c6cccccc 	lwc3	$12,-13114(a2)
    238c:	cccccc9a 	lwr	t4,-13108(s6)
    2390:	99cccccc 	lwc3	$12,-13159(a2)
    2394:	cccccc56 	.word	0x56cccccc
    2398:	65cccccc 	lwc3	$12,-13211(a2)
    239c:	ccccac99 	lwr	t4,-13108(t5)
    23a0:	a9c9cccc 	lwc3	$12,-13911(a2)
    23a4:	cccc5655 	.word	0x5556cccc
    23a8:	6598cccc 	lwc3	$12,-26523(a2)
    23ac:	ccacaa9a 	lwr	t2,-21300(s5)
    23b0:	5659c9cc 	lwc3	$9,22870(a2)
    23b4:	cc565555 	.word	0x555556cc
    23b8:	595969cc 	lwc3	$9,22873(v1)
    23bc:	ac393333 	andi	s3,t9,0x39ac
    23c0:	596959c9 	lwc2	$25,26969(t2)
    23c4:	56555565 	.word	0x65555556
    23c8:	6aca6aca 	lwc2	$10,-13718(s3)
    23cc:	89cccc89 	lwl	t4,-13175(t6)
    23d0:	cccccccc 	lwc3	$12,-13108(a2)
    23d4:	cccccccc 	lwc3	$12,-13108(a2)
    23d8:	cccccccc 	lwc3	$12,-13108(a2)
    23dc:	cc5696c6 	lwc1	$f22,22220(s4)
    23e0:	cccccccc 	lwc3	$12,-13108(a2)
    23e4:	cc7c9595 	lhu	s5,31948(t4)
    23e8:	cccccccc 	lwc3	$12,-13108(a2)
    23ec:	cc566959 	.word	0x596956cc
    23f0:	c6cccccc 	lwc3	$12,-13114(a2)
    23f4:	cc7cac56 	.word	0x56ac7ccc
    23f8:	c6cccccc 	lwc3	$12,-13114(a2)
    23fc:	cccccc9a 	lwr	t4,-13108(s6)
    2400:	c9cccccc 	lwc3	$12,-13111(a2)
    2404:	cccccc56 	.word	0x56cccccc
    2408:	c6cccccc 	lwc3	$12,-13114(a2)
    240c:	cccccc9a 	lwr	t4,-13108(s6)
    2410:	c9cccccc 	lwc3	$12,-13111(a2)
    2414:	cccccc56 	.word	0x56cccccc
    2418:	c6cccccc 	lwc3	$12,-13114(a2)
    241c:	ccccac99 	lwr	t4,-13108(t5)
    2420:	a9cccccc 	lwc3	$12,-13143(a2)
    2424:	cccc5655 	.word	0x5556cccc
    2428:	6598cccc 	lwc3	$12,-26523(a2)
    242c:	ccac4494 	lhu	a0,-21300(v0)
    2430:	5659c9cc 	lwc3	$9,22870(a2)
    2434:	cc462a42 	c0	0x2a46cc
    2438:	595969cc 	lwc3	$9,22873(v1)
    243c:	ac391b31 	andi	k1,t0,0x39ac
    2440:	596959c9 	lwc2	$25,26969(t2)
    2444:	56555565 	.word	0x65555556
    2448:	6aca6aca 	lwc2	$10,-13718(s3)
    244c:	89cccc89 	lwl	t4,-13175(t6)
    2450:	cccccccc 	lwc3	$12,-13108(a2)
    2454:	cccccccc 	lwc3	$12,-13108(a2)
    2458:	cccccccc 	lwc3	$12,-13108(a2)
    245c:	eeeeeeee 	swc3	$14,-4370(s7)
    2460:	eeeeeeee 	swc3	$14,-4370(s7)
    2464:	eeeeeeee 	swc3	$14,-4370(s7)
    2468:	eeeeeeee 	swc3	$14,-4370(s7)
    246c:	eeeeeeee 	swc3	$14,-4370(s7)
    2470:	eeeeeeee 	swc3	$14,-4370(s7)
    2474:	eeeeeeee 	swc3	$14,-4370(s7)
    2478:	eeeeeeee 	swc3	$14,-4370(s7)
    247c:	eebeeeed 	swc3	$14,-16658(t7)
    2480:	edbeeeee 	swc3	$14,-16659(s7)
    2484:	eeeedc14 	bne	a2,gp,0xffffe040
    2488:	d4ecebee 	swc3	$11,-4908(s7)
    248c:	eeee5b11 	beq	t2,k1,0xffffe048
    2490:	51ebecee 	swc3	$12,-5295(s7)
    2494:	eeee4e11 	beq	t2,t6,0xffffe050
    2498:	41eeeeee 	swc3	$14,-4543(s7)
    249c:	eeee14c0 	lwc0	$20,-4370(zero)
    24a0:	10e4eeee 	swc3	$14,-7152(s7)
    24a4:	eeee1411 	beq	t0,s4,0xffffe060
    24a8:	11e4eeee 	swc3	$14,-7151(s7)
    24ac:	eeee4544 	.word	0x4445eeee
    24b0:	44e5eeee 	swc3	$14,-6844(s7)
    24b4:	eeae9999 	lwr	t9,-20754(t4)
    24b8:	99a9eeee 	swc3	$14,-22119(s7)
    24bc:	eeeeee68 	.word	0x68eeeeee
    24c0:	e8eeeeee 	swc3	$14,-4376(s7)
    24c4:	eeeeee8e 	lw	t6,-4370(s7)
    24c8:	eeeeeeee 	swc3	$14,-4370(s7)
    24cc:	eeeeee9e 	.word	0x9eeeeeee
    24d0:	eeeeeeee 	swc3	$14,-4370(s7)
    24d4:	eeeeeeee 	swc3	$14,-4370(s7)
    24d8:	eeeeeeee 	swc3	$14,-4370(s7)
    24dc:	eeeeeeef 	swc3	$14,-4370(ra)
    24e0:	efeeeeee 	swc3	$14,-4369(s7)
    24e4:	eeeeeef3 	.word	0xf3eeeeee
    24e8:	e3eeeeee 	swc3	$14,-4381(s7)
    24ec:	eeeece37 	ori	t6,s8,0xeeee
    24f0:	c7eeeeee 	swc3	$14,-4409(s7)
    24f4:	eecebebe 	.word	0xbebeceee
    24f8:	beceeeee 	swc3	$14,-12610(s7)
    24fc:	eeebcdbd 	.word	0xbdcdebee
    2500:	cdedebee 	swc3	$11,-4659(s7)
    2504:	eeeede14 	bne	a2,s8,0xffffe0c0
    2508:	d4eeeeee 	swc3	$14,-4396(s7)
    250c:	eeee5e11 	beq	t2,s8,0xffffe0c8
    2510:	51eeeeee 	swc3	$14,-4527(s7)
    2514:	eeee4e02 	.word	0x24eeeee
    2518:	42eeeeee 	swc3	$14,-4542(s7)
    251c:	eeee24c0 	lwc0	c0_context,-4370(at)
    2520:	20e4eeee 	swc3	$14,-7136(s7)
    2524:	eeee1402 	.word	0x214eeee
    2528:	12e4eeee 	swc3	$14,-7150(s7)
    252c:	eeee4544 	.word	0x4445eeee
    2530:	44e5eeee 	swc3	$14,-6844(s7)
    2534:	eeae9999 	lwr	t9,-20754(t4)
    2538:	99a9eeee 	swc3	$14,-22119(s7)
    253c:	eeeeee68 	.word	0x68eeeeee
    2540:	e8eeeeee 	swc3	$14,-4376(s7)
    2544:	eeeeee8e 	lw	t6,-4370(s7)
    2548:	eeeeeeee 	swc3	$14,-4370(s7)
    254c:	eeeeee9e 	.word	0x9eeeeeee
    2550:	eeeeeeee 	swc3	$14,-4370(s7)
    2554:	eeeeeeee 	swc3	$14,-4370(s7)
    2558:	eeeeeeee 	swc3	$14,-4370(s7)
    255c:	dddddddd 	.word	0xdddddddd
    2560:	dddddddd 	.word	0xdddddddd
    2564:	dddddddd 	.word	0xdddddddd
    2568:	dddddddd 	.word	0xdddddddd
    256c:	dddddddd 	.word	0xdddddddd
    2570:	dddddddd 	.word	0xdddddddd
    2574:	dddddddd 	.word	0xdddddddd
    2578:	dddddddd 	.word	0xdddddddd
    257c:	dddddddd 	.word	0xdddddddd
    2580:	dddddddd 	.word	0xdddddddd
    2584:	dddddddd 	.word	0xdddddddd
    2588:	d7dddddd 	.word	0xddddddd7
    258c:	ddfe676d 	.word	0x6d67fedd
    2590:	7ddfdddd 	.word	0xdddddf7d
    2594:	5d7656d6 	.word	0xd656765d
    2598:	67fedddd 	.word	0xddddfe67
    259c:	805b6575 	jalx	0x5956e01
    25a0:	566ddddd 	.word	0xdddd6d56
    25a4:	98eaf7e6 	swc1	$f23,-5480(s7)
    25a8:	d55ddddd 	.word	0xdddd5dd5
    25ac:	ab627f5e 	.word	0x5e7f62ab
    25b0:	dd6ddddd 	.word	0xdddd6ddd
    25b4:	65e5e6e5 	swc1	$f6,-6811(t7)
    25b8:	dde5dddd 	.word	0xdddde5dd
    25bc:	7d5655d6 	.word	0xd655567d
    25c0:	ddd6dddd 	.word	0xddddd6dd
    25c4:	dd7fe6dd 	.word	0xdde67fdd
    25c8:	5dd7dddd 	.word	0xddddd75d
    25cc:	dddddd5d 	.word	0x5ddddddd
    25d0:	6e64dddd 	.word	0xdddd646e
    25d4:	dddddddd 	.word	0xdddddddd
    25d8:	dddddddd 	.word	0xdddddddd
    25dc:	dd1111dd 	.word	0xdd1111dd
    25e0:	6ddddddd 	.word	0xdddddd6d
    25e4:	0db800d2 	.word	0xd200b80d
    25e8:	4dd7dddd 	.word	0xddddd74d
    25ec:	80a9c0c0 	lwc0	c0_index,-22144(a2)
    25f0:	4ddfdddd 	.word	0xdddddf4d
    25f4:	b02a001c 	bgtz	zero,0xd0b8
    25f8:	3dd6dddd 	.word	0xddddd63d
    25fc:	00002020 	addi	zero,at,0
    2600:	6dd5dddd 	.word	0xddddd56d
    2604:	01c0002c 	sltiu	zero,zero,-16383
    2608:	56dddddd 	.word	0xdddddd56
    260c:	1d2c1c52 	.word	0x521c2c1d
    2610:	dd76dddd 	.word	0xdddd76dd
    2614:	dd11c2e5 	swc1	$f2,4573(t6)
    2618:	56dddddd 	.word	0xdddddd56
    261c:	dddddd76 	jalx	0xb777775
    2620:	dfdddddd 	.word	0xdddddddf
    2624:	6d44535d 	.word	0x5d53446d
    2628:	76d6dddd 	.word	0xddddd676
    262c:	dd6fd5dd 	.word	0xddd56fdd
    2630:	656fdddd 	.word	0xdddd6f65
    2634:	dddddddd 	.word	0xdddddddd
    2638:	dd57dddd 	.word	0xdddd57dd
    263c:	dddddddd 	.word	0xdddddddd
    2640:	ddd6dddd 	.word	0xddddd6dd
    2644:	dddddddd 	.word	0xdddddddd
    2648:	5ddedddd 	.word	0xddddde5d
    264c:	dddddd5d 	.word	0x5ddddddd
    2650:	6e54dddd 	.word	0xdddd546e
    2654:	dddddddd 	.word	0xdddddddd
    2658:	dddddddd 	.word	0xdddddddd
    265c:	bbbbbbbb 	swr	k1,-17477(sp)
    2660:	5b76b0bb 	swr	s0,30299(sp)
    2664:	bbbbbbbb 	swr	k1,-17477(sp)
    2668:	b5bb0bbb 	swr	t3,-17483(t8)
    266c:	bbb7bb5b 	.word	0x5bbbb7bb
    2670:	b7bbbbb0 	.word	0xb0bbbbb7
    2674:	6bb0bb3b 	xori	k1,sp,0xb06b
    2678:	600bbbb7 	.word	0xb7bb0b60
    267c:	7b607767 	.word	0x6777607b
    2680:	70bbb7b7 	.word	0xb7b7bb70
    2684:	05000000 	.word	0x5
    2688:	00b5b6b6 	.word	0xb6b6b500
    268c:	c6000300 	.word	0x300c6
    2690:	0c36bbb6 	.word	0xb6bb360c
    2694:	01503700 	.word	0x375001
    2698:	00b1bbb5 	.word	0xb5bbb100
    269c:	05000000 	.word	0x5
    26a0:	00b55bbb 	swr	k1,-19200(k0)
    26a4:	6b000000 	.word	0x6b
    26a8:	70bb3bbb 	swr	k1,-17552(t9)
    26ac:	bb767777 	jalx	0xddddaed
    26b0:	67b3b3bb 	swr	s3,-19609(sp)
    26b4:	bbbb5376 	jalx	0x94eeeed
    26b8:	0027bbbb 	swr	k1,9984(sp)
    26bc:	bbbb6407 	.word	0x764bbbb
    26c0:	70b5bbbb 	swr	k1,-19088(sp)
    26c4:	bbbb5b76 	jalx	0x96eeeed
    26c8:	56bbbbbb 	swr	k1,-17578(sp)
    26cc:	bbbbbbbb 	swr	k1,-17477(sp)
    26d0:	bbbbbbbb 	swr	k1,-17477(sp)
    26d4:	bbbbbbbb 	swr	k1,-17477(sp)
    26d8:	bbbbbbbb 	swr	k1,-17477(sp)
    26dc:	bbbbbbbb 	swr	k1,-17477(sp)
    26e0:	5b76b0bb 	swr	s0,30299(sp)
    26e4:	bbbbbbbb 	swr	k1,-17477(sp)
    26e8:	b6bb0bbb 	swr	t3,-17482(t8)
    26ec:	bbbbbb6b 	.word	0x6bbbbbbb
    26f0:	bbbbbbb0 	.word	0xb0bbbbbb
    26f4:	bbbbbb5b 	.word	0x5bbbbbbb
    26f8:	bb7bbbb7 	.word	0xb7bb7bbb
    26fc:	bbbbbb4b 	c2	0x1bbbbbb
    2700:	b2bbb6b7 	.word	0xb7b6bbb2
    2704:	67b0bbbb 	swr	k1,-20377(sp)
    2708:	60b7b5b6 	.word	0xb6b5b760
    270c:	7b607767 	.word	0x6777607b
    2710:	7042bbb6 	.word	0xb6bb4270
    2714:	05000000 	.word	0x5
    2718:	00bbbbb5 	.word	0xb5bbbb00
    271c:	c60c03c0 	lwc0	$3,3270(zero)
    2720:	0cb64bbb 	swr	t3,-18932(k0)
    2724:	01503700 	.word	0x375001
    2728:	00b13bbb 	swr	k1,-20224(t9)
    272c:	05009000 	.word	0x900005
    2730:	00b5b2bb 	swr	s2,-19200(sp)
    2734:	6b008000 	.word	0x80006b
    2738:	7026bbbb 	swr	k1,9840(sp)
    273c:	bb76a777 	jalx	0xe9ddaed
    2740:	67b5bbbb 	swr	k1,-19097(sp)
    2744:	bbbb4b65 	.word	0x654bbbbb
    2748:	56bbbbbb 	swr	k1,-17578(sp)
    274c:	bbbbbbbb 	swr	k1,-17477(sp)
    2750:	bbbbbbbb 	swr	k1,-17477(sp)
    2754:	bbbbbbbb 	swr	k1,-17477(sp)
    2758:	bbbbbbbb 	swr	k1,-17477(sp)
    275c:	ffffdfab 	swl	ra,-1(s8)
    2760:	dbffffff 	.word	0xffffffdb
    2764:	ffffbdaa 	swl	sp,-1(s5)
    2768:	bafdffff 	.word	0xfffffdba
    276c:	20ffacac 	sw	t4,-224(a1)
    2770:	acfc2ff0 	.word	0xf02ffcac
    2774:	02d43cb3 	.word	0xb33cd402
    2778:	3cdc04f2 	.word	0xf204dc3c
    277c:	1fcf6387 	lh	v1,-12513(k1)
    2780:	9dc71fff 	.word	0xff1fc79d
    2784:	ffbf3333 	andi	s3,t9,0xbfff
    2788:	73b5ffff 	.word	0xffffb573
    278c:	ffbf3333 	andi	s3,t9,0xbfff
    2790:	33b3ffff 	.word	0xffffb333
    2794:	ffcf7933 	andi	t9,k1,0xcfff
    2798:	67b5ffff 	.word	0xffffb567
    279c:	ffcf573c 	.word	0x3c57cfff
    27a0:	e8c8ffff 	.word	0xffffc8e8
    27a4:	ffcfc3cc 	lwc3	$3,-12289(a2)
    27a8:	33ccffff 	.word	0xffffcc33
    27ac:	ffdfacab 	swl	t4,-8193(sp)
    27b0:	aadcffff 	.word	0xffffdcaa
    27b4:	ffffbcaa 	swl	gp,-1(s5)
    27b8:	bafcffff 	.word	0xfffffcba
    27bc:	ffffdfcc 	lwc3	$31,-1(a2)
    27c0:	dcffffff 	.word	0xffffffdc
    27c4:	ffffffff 	.word	0xffffffff
    27c8:	ffffffff 	.word	0xffffffff
    27cc:	ffffffff 	.word	0xffffffff
    27d0:	ffffffff 	.word	0xffffffff
    27d4:	ffffffff 	.word	0xffffffff
    27d8:	ffffffff 	.word	0xffffffff
    27dc:	ffffffff 	.word	0xffffffff
    27e0:	ffffffff 	.word	0xffffffff
    27e4:	ffffdfab 	swl	ra,-1(s8)
    27e8:	dbffffff 	.word	0xffffffdb
    27ec:	ffffcdaa 	swl	t5,-1(s6)
    27f0:	bafdffff 	.word	0xfffffdba
    27f4:	ffffacab 	swl	t4,-1(sp)
    27f8:	acfcffff 	.word	0xfffffcac
    27fc:	1fd43cc3 	lwc0	$28,-11233(t9)
    2800:	3cdb14ff 	.word	0xff14db3c
    2804:	04cf637e 	.word	0x7e63cf04
    2808:	9dc70ff4 	.word	0xf40fc79d
    280c:	10bf9397 	lhu	s3,-16624(gp)
    2810:	73c51ff0 	.word	0xf01fc573
    2814:	ffbf3333 	andi	s3,t9,0xbfff
    2818:	33b3ffff 	.word	0xffffb333
    281c:	ffbf7933 	andi	t9,k1,0xbfff
    2820:	33b3ffff 	.word	0xffffb333
    2824:	ffcf573c 	.word	0x3c57cfff
    2828:	78c8ffff 	.word	0xffffc878
    282c:	ffcfc3cb 	lwc2	$3,-12289(s8)
    2830:	33ccffff 	.word	0xffffcc33
    2834:	ffdfabac 	sw	t3,-8193(a1)
    2838:	aadbffff 	.word	0xffffdbaa
    283c:	ffffbcaa 	swl	gp,-1(s5)
    2840:	cafcffff 	.word	0xfffffcca
    2844:	ffffdfcc 	lwc3	$31,-1(a2)
    2848:	dcffffff 	.word	0xffffffdc
    284c:	ffffffff 	.word	0xffffffff
    2850:	ffffffff 	.word	0xffffffff
    2854:	ffffffff 	.word	0xffffffff
    2858:	ffffffff 	.word	0xffffffff
    285c:	dddd2b2d 	sltiu	t3,t1,-8739
    2860:	dbdddddd 	.word	0xdddddddb
    2864:	dddd5b6c 	.word	0x6c5bdddd
    2868:	b5dddddd 	.word	0xddddddb5
    286c:	ddddc268 	.word	0x68c2dddd
    2870:	b6dcdddd 	.word	0xdddddcb6
    2874:	dddd8766 	.word	0x6687dddd
    2878:	86b5dddd 	.word	0xddddb586
    287c:	ddbd686c 	.word	0x6c68bddd
    2880:	6658dcdd 	.word	0xdddc5866
    2884:	dd826666 	.word	0x666682dd
    2888:	6686dbdd 	.word	0xdddb8666
    288c:	dd7c6666 	.word	0x66667cdd
    2890:	6766c5dd 	.word	0xddc56667
    2894:	dd2d9b77 	jalx	0xe6cb775
    2898:	666628dd 	.word	0xdd286666
    289c:	dddd5c68 	.word	0x685cdddd
    28a0:	666628dd 	.word	0xdd286666
    28a4:	dddd82b6 	.word	0xb682dddd
    28a8:	6666b8dd 	.word	0xddb86666
    28ac:	d0d0826c 	.word	0x6c82d0d0
    28b0:	6666b8dd 	.word	0xddb86666
    28b4:	d0d08b66 	.word	0x668bd0d0
    28b8:	666658db 	.word	0xdb586666
    28bc:	dddd5285 	lh	s2,-8739(t2)
    28c0:	8858b5dd 	.word	0xddb55888
    28c4:	ddddcd2c 	sltiu	t5,a2,-8739
    28c8:	22c2dcdd 	.word	0xdddcc222
    28cc:	1dd32ccd 	lwc3	$12,-11491(t1)
    28d0:	cdcddddd 	.word	0xddddcdcd
    28d4:	dddddddd 	.word	0xdddddddd
    28d8:	dddddddd 	.word	0xdddddddd
    28dc:	dddddddd 	.word	0xdddddddd
    28e0:	dddddddd 	.word	0xdddddddd
    28e4:	ddddcdb2 	.word	0xb2cddddd
    28e8:	2bdcdddd 	.word	0xdddddc2b
    28ec:	dd224c44 	.word	0x444c22dd
    28f0:	24cbdcdd 	.word	0xdddccb24
    28f4:	bdc82222 	addi	v0,s1,-14147
    28f8:	4242c5dd 	.word	0xddc54242
    28fc:	ad664844 	.word	0x444866ad
    2900:	686624dd 	.word	0xdd246668
    2904:	dd6a6666 	.word	0x66666add
    2908:	666624dd 	.word	0xdd246666
    290c:	ddca6cc6 	lwc1	$f12,-13603(s3)
    2910:	6c66b4dd 	.word	0xddb4666c
    2914:	dd6a6666 	.word	0x66666add
    2918:	6668b8dd 	.word	0xddb86866
    291c:	ddad6666 	.word	0x6666addd
    2920:	8665b8dd 	.word	0xddb86586
    2924:	dd8ab79b 	lwr	s7,-29987(sp)
    2928:	576628dd 	.word	0xdd286657
    292c:	dd6b28a2 	sb	t0,27613(s1)
    2930:	6866c4dd 	.word	0xddc46668
    2934:	dd5a6bb6 	.word	0xb66b5add
    2938:	a56654db 	.word	0xdb5466a5
    293c:	dd7b8448 	.word	0x48847bdd
    2940:	4848b7dd 	.word	0xddb74848
    2944:	ddcd22bb 	swr	v0,-12835(t9)
    2948:	bb22dcdd 	.word	0xdddc22bb
    294c:	dddcdcdc 	.word	0xdcdcdcdd
    2950:	cdcdcddd 	.word	0xddcdcdcd
    2954:	dddddddd 	.word	0xdddddddd
    2958:	dddddddd 	.word	0xdddddddd
    295c:	ffff9fff 	.word	0xff9fffff
    2960:	fff9ffff 	.word	0xfffff9ff
    2964:	ffffff85 	lh	ra,-1(t7)
    2968:	51ffffff 	.word	0xffffff51
    296c:	ffffff9f 	.word	0x9fffffff
    2970:	f5ffffff 	.word	0xfffffff5
    2974:	ffffff61 	.word	0x61ffffff
    2978:	ffffffff 	.word	0xffffffff
    297c:	ffffffb2 	.word	0xb2ffffff
    2980:	95ffffff 	.word	0xffffff95
    2984:	ffff1f0b 	j	0xc7ffffc
    2988:	c6f0ffff 	.word	0xfffff0c6
    298c:	ffff2fcf 	lwc3	$15,-1(t9)
    2990:	f0fbffff 	.word	0xfffffbf0
    2994:	ffff1f8c 	lw	ra,-1(zero)
    2998:	0cffffff 	.word	0xffffff0c
    299c:	ffff7f7f 	.word	0x7f7fffff
    29a0:	75ffffff 	.word	0xffffff75
    29a4:	fffff1f5 	.word	0xf5f1ffff
    29a8:	f9ffffff 	.word	0xfffffff9
    29ac:	fffff3f0 	.word	0xf0f3ffff
    29b0:	f0ffffff 	.word	0xfffffff0
    29b4:	fffff20c 	jal	0x3cbfffc
    29b8:	fbffffff 	.word	0xfffffffb
    29bc:	ff3ff1cf 	lwc3	$17,16383(ra)
    29c0:	fbffffff 	.word	0xfffffffb
    29c4:	ff1f42ff 	.word	0xff421fff
    29c8:	fb43ffff 	.word	0xffff43fb
    29cc:	fff431c4 	lwc1	$f17,-2817(at)
    29d0:	40ffffff 	.word	0xffffff40
    29d4:	ffffffff 	.word	0xffffffff
    29d8:	ffffffff 	.word	0xffffffff
    29dc:	ffff9fff 	.word	0xff9fffff
    29e0:	fff9efff 	.word	0xffeff9ff
    29e4:	ffffff85 	lh	ra,-1(t7)
    29e8:	51ffeffd 	.word	0xfdefff51
    29ec:	ffffff9f 	.word	0x9fffffff
    29f0:	f5efffff 	.word	0xffffeff5
    29f4:	ffffff6f 	.word	0x6fffffff
    29f8:	fff73ff4 	.word	0xf43ff7ff
    29fc:	ffff71b3 	.word	0xb371ffff
    2a00:	152b11f2 	.word	0xf2112b15
    2a04:	ff21cf0b 	j	0xf3c87fc
    2a08:	06fc2ff1 	.word	0xf12ffc06
    2a0c:	1fffffcc 	lwc3	$31,-225(a3)
    2a10:	c0ff3ff1 	.word	0xf13fffc0
    2a14:	ffffff8f 	lw	ra,-1(ra)
    2a18:	fcff3ff1 	.word	0xf13ffffc
    2a1c:	ffffff7f 	.word	0x7fffffff
    2a20:	f5ff4fff 	.word	0xff4ffff5
    2a24:	fffffff5 	.word	0xf5ffffff
    2a28:	f9ff4fff 	.word	0xff4ffff9
    2a2c:	fffffff0 	.word	0xf0ffffff
    2a30:	f0ff42ff 	.word	0xff42fff0
    2a34:	ffffff0c 	jal	0x3fffffc
    2a38:	fbfff3ff 	.word	0xfff3fffb
    2a3c:	ffffffcf 	lwc3	$31,-1(ra)
    2a40:	fbfff4ff 	.word	0xfff4fffb
    2a44:	ffffffff 	.word	0xffffffff
    2a48:	fb4fffff 	.word	0xffff4ffb
    2a4c:	ffffffcf 	lwc3	$31,-1(ra)
    2a50:	f0ffffff 	.word	0xfffffff0
    2a54:	ffffffff 	.word	0xffffffff
    2a58:	ffffffff 	.word	0xffffffff
    2a5c:	82728273 	.word	0x73827282
    2a60:	8140824f 	c3	0x1824081
    2a64:	824f8140 	.word	0x40814f82
    2a68:	81408140 	.word	0x40814081
    2a6c:	81408140 	.word	0x40814081
    2a70:	81408140 	.word	0x40814081
    2a74:	81408140 	.word	0x40814081
    2a78:	81408140 	.word	0x40814081
    2a7c:	81408140 	.word	0x40814081
    2a80:	81408140 	.word	0x40814081
    2a84:	81408272 	.word	0x72824081
    2a88:	826f8140 	.word	0x40816f82
    2a8c:	81408140 	.word	0x40814081
    2a90:	824f0000 	srl	t1,zero,0x1e
	...
    2aa0:	82728267 	.word	0x67827282
    2aa4:	82608263 	.word	0x63826082
    2aa8:	826e8276 	jalx	0xa09ba09
    2aac:	81408273 	.word	0x73824081
    2ab0:	826e8276 	jalx	0xa09ba09
    2ab4:	82648271 	.word	0x71826482
    2ab8:	81408140 	.word	0x40814081
    2abc:	82678274 	jalx	0x2099e09
    2ac0:	826c8260 	.word	0x60826c82
    2ac4:	826d8140 	.word	0x40816d82
    2ac8:	8276826e 	.word	0x6e827682
    2acc:	8271826b 	.word	0x6b827182
    2ad0:	82638140 	.word	0x40816382
    2ad4:	81408140 	.word	0x40814081
    2ad8:	826c826e 	.word	0x6e826c82
    2adc:	826d8272 	.word	0x72826d82
    2ae0:	82738264 	.word	0x64827382
    2ae4:	82718140 	.word	0x40817182
    2ae8:	8276826e 	.word	0x6e827682
    2aec:	8271826b 	.word	0x6b827182
    2af0:	82638140 	.word	0x40816382
    2af4:	82658268 	.word	0x68826582
    2af8:	82718264 	.word	0x64827182
    2afc:	81408276 	jalx	0xa090205
    2b00:	826e8271 	.word	0x71826e82
    2b04:	826b8263 	.word	0x63826b82
    2b08:	81408140 	.word	0x40814081
    2b0c:	81408140 	.word	0x40814081
    2b10:	82678274 	jalx	0x2099e09
    2b14:	826c8260 	.word	0x60826c82
    2b18:	826d8140 	.word	0x40816d82
    2b1c:	8276826e 	.word	0x6e827682
    2b20:	8271826b 	.word	0x6b827182
    2b24:	82638140 	.word	0x40816382
    2b28:	81408140 	.word	0x40814081
    2b2c:	82678274 	jalx	0x2099e09
    2b30:	826c8260 	.word	0x60826c82
    2b34:	826d8140 	.word	0x40816d82
    2b38:	8276826e 	.word	0x6e827682
    2b3c:	8271826b 	.word	0x6b827182
    2b40:	82638140 	.word	0x40816382
    2b44:	81408140 	.word	0x40814081
    2b48:	82678274 	jalx	0x2099e09
    2b4c:	826c8260 	.word	0x60826c82
    2b50:	826d8140 	.word	0x40816d82
    2b54:	8276826e 	.word	0x6e827682
    2b58:	8271826b 	.word	0x6b827182
    2b5c:	82638140 	.word	0x40816382
    2b60:	81408140 	.word	0x40814081
    2b64:	81408140 	.word	0x40814081
    2b68:	81408140 	.word	0x40814081
    2b6c:	81408140 	.word	0x40814081
    2b70:	81408140 	.word	0x40814081
    2b74:	81408140 	.word	0x40814081
    2b78:	81408140 	.word	0x40814081
    2b7c:	81408140 	.word	0x40814081
    2b80:	8268826b 	.word	0x6b826882
    2b84:	826b8274 	jalx	0x209ae09
    2b88:	82728268 	.word	0x68827282
    2b8c:	826e826d 	.word	0x6d826e82
    2b90:	81408276 	jalx	0xa090205
    2b94:	826e8271 	.word	0x71826e82
    2b98:	826b8263 	.word	0x63826b82
    2b9c:	8268826b 	.word	0x6b826882
    2ba0:	826b8274 	jalx	0x209ae09
    2ba4:	82728268 	.word	0x68827282
    2ba8:	826e826d 	.word	0x6d826e82
    2bac:	81408276 	jalx	0xa090205
    2bb0:	826e8271 	.word	0x71826e82
    2bb4:	826b8263 	.word	0x63826b82
    2bb8:	82768260 	.word	0x60827682
    2bbc:	82738264 	.word	0x64827382
    2bc0:	82718276 	jalx	0xa09c609
    2bc4:	826e8271 	.word	0x71826e82
    2bc8:	826b8263 	.word	0x63826b82
    2bcc:	81408140 	.word	0x40814081
    2bd0:	81408140 	.word	0x40814081
    2bd4:	82648260 	.word	0x60826482
    2bd8:	82718273 	.word	0x73827182
    2bdc:	82678140 	.word	0x40816782
    2be0:	8276826e 	.word	0x6e827682
    2be4:	8271826b 	.word	0x6b827182
    2be8:	82638140 	.word	0x40816382
    2bec:	81408140 	.word	0x40814081
    2bf0:	82648260 	.word	0x60826482
    2bf4:	82718273 	.word	0x73827182
    2bf8:	82678140 	.word	0x40816782
    2bfc:	8276826e 	.word	0x6e827682
    2c00:	8271826b 	.word	0x6b827182
    2c04:	82638140 	.word	0x40816382
    2c08:	81408140 	.word	0x40814081
    2c0c:	8268826b 	.word	0x6b826882
    2c10:	826b8274 	jalx	0x209ae09
    2c14:	82728268 	.word	0x68827282
    2c18:	826e826d 	.word	0x6d826e82
    2c1c:	81408276 	jalx	0xa090205
    2c20:	826e8271 	.word	0x71826e82
    2c24:	826b8263 	.word	0x63826b82
    2c28:	82638264 	.word	0x64826382
    2c2c:	82608273 	.word	0x73826082
    2c30:	82678140 	.word	0x40816782
    2c34:	8276826e 	.word	0x6e827682
    2c38:	8271826b 	.word	0x6b827182
    2c3c:	82638140 	.word	0x40816382
    2c40:	81408140 	.word	0x40814081
    2c44:	82648260 	.word	0x60826482
    2c48:	82718273 	.word	0x73827182
    2c4c:	82678140 	.word	0x40816782
    2c50:	8276826e 	.word	0x6e827682
    2c54:	8271826b 	.word	0x6b827182
    2c58:	82638140 	.word	0x40816382
    2c5c:	81408140 	.word	0x40814081
    2c60:	81408140 	.word	0x40814081
    2c64:	81408140 	.word	0x40814081
    2c68:	81408140 	.word	0x40814081
    2c6c:	81408140 	.word	0x40814081
    2c70:	81408140 	.word	0x40814081
    2c74:	81408140 	.word	0x40814081
    2c78:	81408140 	.word	0x40814081
    2c7c:	826c826e 	.word	0x6e826c82
    2c80:	826d8272 	.word	0x72826d82
    2c84:	82738264 	.word	0x64827382
    2c88:	82718140 	.word	0x40817182
    2c8c:	8276826e 	.word	0x6e827682
    2c90:	8271826b 	.word	0x6b827182
    2c94:	82638140 	.word	0x40816382
    2c98:	82658268 	.word	0x68826582
    2c9c:	82718264 	.word	0x64827182
    2ca0:	81408276 	jalx	0xa090205
    2ca4:	826e8271 	.word	0x71826e82
    2ca8:	826b8263 	.word	0x63826b82
    2cac:	81408140 	.word	0x40814081
    2cb0:	81408140 	.word	0x40814081
    2cb4:	81408140 	.word	0x40814081
    2cb8:	81408140 	.word	0x40814081
    2cbc:	81408140 	.word	0x40814081
    2cc0:	81408140 	.word	0x40814081
    2cc4:	81408140 	.word	0x40814081
    2cc8:	81408140 	.word	0x40814081
    2ccc:	81408140 	.word	0x40814081
    2cd0:	82658268 	.word	0x68826582
    2cd4:	82718264 	.word	0x64827182
    2cd8:	81408276 	jalx	0xa090205
    2cdc:	826e8271 	.word	0x71826e82
    2ce0:	826b8263 	.word	0x63826b82
    2ce4:	81408140 	.word	0x40814081
    2ce8:	81408140 	.word	0x40814081
    2cec:	82768260 	.word	0x60827682
    2cf0:	82738264 	.word	0x64827382
    2cf4:	82718140 	.word	0x40817182
    2cf8:	8276826e 	.word	0x6e827682
    2cfc:	8271826b 	.word	0x6b827182
    2d00:	82638140 	.word	0x40816382
    2d04:	81408140 	.word	0x40814081
    2d08:	81408140 	.word	0x40814081
    2d0c:	81408140 	.word	0x40814081
    2d10:	81408140 	.word	0x40814081
    2d14:	81408140 	.word	0x40814081
    2d18:	81408140 	.word	0x40814081
    2d1c:	81408140 	.word	0x40814081
    2d20:	81408140 	.word	0x40814081
    2d24:	82638264 	.word	0x64826382
    2d28:	82608273 	.word	0x73826082
    2d2c:	82678140 	.word	0x40816782
    2d30:	8276826e 	.word	0x6e827682
    2d34:	8271826b 	.word	0x6b827182
    2d38:	82638140 	.word	0x40816382
    2d3c:	81408140 	.word	0x40814081
    2d40:	82658268 	.word	0x68826582
    2d44:	82718264 	.word	0x64827182
    2d48:	81408276 	jalx	0xa090205
    2d4c:	826e8271 	.word	0x71826e82
    2d50:	826b8263 	.word	0x63826b82
    2d54:	81408140 	.word	0x40814081
    2d58:	81408140 	.word	0x40814081
    2d5c:	82638264 	.word	0x64826382
    2d60:	82608273 	.word	0x73826082
    2d64:	82678140 	.word	0x40816782
    2d68:	8276826e 	.word	0x6e827682
    2d6c:	8271826b 	.word	0x6b827182
    2d70:	82638140 	.word	0x40816382
    2d74:	81408140 	.word	0x40814081
    2d78:	82638264 	.word	0x64826382
    2d7c:	82608273 	.word	0x73826082
    2d80:	82678140 	.word	0x40816782
    2d84:	8276826e 	.word	0x6e827682
    2d88:	8271826b 	.word	0x6b827182
    2d8c:	82638140 	.word	0x40816382
    2d90:	81408140 	.word	0x40814081
    2d94:	82648260 	.word	0x60826482
    2d98:	82718273 	.word	0x73827182
    2d9c:	82678140 	.word	0x40816782
    2da0:	8276826e 	.word	0x6e827682
    2da4:	8271826b 	.word	0x6b827182
    2da8:	82638140 	.word	0x40816382
    2dac:	81408140 	.word	0x40814081
    2db0:	82648260 	.word	0x60826482
    2db4:	82718273 	.word	0x73827182
    2db8:	82678140 	.word	0x40816782
    2dbc:	8276826e 	.word	0x6e827682
    2dc0:	8271826b 	.word	0x6b827182
    2dc4:	82638140 	.word	0x40816382
    2dc8:	81408140 	.word	0x40814081
    2dcc:	81408140 	.word	0x40814081
    2dd0:	81408140 	.word	0x40814081
    2dd4:	81408140 	.word	0x40814081
    2dd8:	81408140 	.word	0x40814081
    2ddc:	81408140 	.word	0x40814081
    2de0:	81408140 	.word	0x40814081
    2de4:	81408140 	.word	0x40814081
    2de8:	8275826e 	.word	0x6e827582
    2dec:	82688263 	.word	0x63826882
    2df0:	81408140 	.word	0x40814081
    2df4:	81408140 	.word	0x40814081
    2df8:	81408140 	.word	0x40814081
    2dfc:	81408140 	.word	0x40814081
    2e00:	81408140 	.word	0x40814081
    2e04:	81408140 	.word	0x40814081
    2e08:	81408140 	.word	0x40814081
    2e0c:	81408140 	.word	0x40814081
    2e10:	81408140 	.word	0x40814081
    2e14:	81408140 	.word	0x40814081
    2e18:	81408140 	.word	0x40814081
    2e1c:	81408140 	.word	0x40814081
    2e20:	82768260 	.word	0x60827682
    2e24:	82738264 	.word	0x64827382
    2e28:	82718140 	.word	0x40817182
    2e2c:	8276826e 	.word	0x6e827682
    2e30:	8271826b 	.word	0x6b827182
    2e34:	82638140 	.word	0x40816382
    2e38:	81408140 	.word	0x40814081
    2e3c:	82648260 	.word	0x60826482
    2e40:	82718273 	.word	0x73827182
    2e44:	82678140 	.word	0x40816782
    2e48:	8276826e 	.word	0x6e827682
    2e4c:	8271826b 	.word	0x6b827182
    2e50:	82638140 	.word	0x40816382
    2e54:	81408140 	.word	0x40814081
    2e58:	81408140 	.word	0x40814081
    2e5c:	81408140 	.word	0x40814081
    2e60:	81408140 	.word	0x40814081
    2e64:	81408140 	.word	0x40814081
    2e68:	81408140 	.word	0x40814081
    2e6c:	81408140 	.word	0x40814081
    2e70:	81408140 	.word	0x40814081
    2e74:	81408140 	.word	0x40814081
    2e78:	81408140 	.word	0x40814081
    2e7c:	81408140 	.word	0x40814081
    2e80:	81408140 	.word	0x40814081
    2e84:	81408140 	.word	0x40814081
    2e88:	81408140 	.word	0x40814081
    2e8c:	81408140 	.word	0x40814081
    2e90:	81408140 	.word	0x40814081
    2e94:	81408140 	.word	0x40814081
    2e98:	81408140 	.word	0x40814081
    2e9c:	81408140 	.word	0x40814081
    2ea0:	81408140 	.word	0x40814081
    2ea4:	81408140 	.word	0x40814081
    2ea8:	81408140 	.word	0x40814081
    2eac:	82768260 	.word	0x60827682
    2eb0:	82738264 	.word	0x64827382
    2eb4:	82718276 	jalx	0xa09c609
    2eb8:	826e8271 	.word	0x71826e82
    2ebc:	826b8263 	.word	0x63826b82
    2ec0:	81408140 	.word	0x40814081
    2ec4:	81408140 	.word	0x40814081
    2ec8:	8268826b 	.word	0x6b826882
    2ecc:	826b8274 	jalx	0x209ae09
    2ed0:	82728268 	.word	0x68827282
    2ed4:	826e826d 	.word	0x6d826e82
    2ed8:	81408276 	jalx	0xa090205
    2edc:	826e8271 	.word	0x71826e82
    2ee0:	826b8263 	.word	0x63826b82
    2ee4:	81408140 	.word	0x40814081
    2ee8:	81408140 	.word	0x40814081
    2eec:	81408140 	.word	0x40814081
    2ef0:	81408140 	.word	0x40814081
    2ef4:	81408140 	.word	0x40814081
    2ef8:	81408140 	.word	0x40814081
    2efc:	81408140 	.word	0x40814081
    2f00:	82728267 	.word	0x67827282
    2f04:	82608263 	.word	0x63826082
    2f08:	826e8276 	jalx	0xa09ba09
    2f0c:	81408273 	.word	0x73824081
    2f10:	826e8276 	jalx	0xa09ba09
    2f14:	82648271 	.word	0x71826482
    2f18:	81408140 	.word	0x40814081
    2f1c:	82728267 	.word	0x67827282
    2f20:	82608263 	.word	0x63826082
    2f24:	826e8276 	jalx	0xa09ba09
    2f28:	81408273 	.word	0x73824081
    2f2c:	826e8276 	jalx	0xa09ba09
    2f30:	82648271 	.word	0x71826482
    2f34:	81408140 	.word	0x40814081
    2f38:	1c930580 	lb	a1,-27876(zero)
    2f3c:	28930580 	lb	a1,-27864(zero)
    2f40:	34930580 	lb	a1,-27852(zero)
    2f44:	40930580 	lb	a1,-27840(zero)
    2f48:	50930580 	lb	a1,-27824(zero)
    2f4c:	f0930580 	lb	a1,-27664(zero)
    2f50:	fc930580 	lb	a1,-27652(zero)
    2f54:	80930580 	lb	a1,-27776(zero)
    2f58:	8c930580 	lb	a1,-27764(zero)
    2f5c:	98930580 	lb	a1,-27752(zero)
    2f60:	e4930580 	lb	a1,-27676(zero)
    2f64:	f0930580 	lb	a1,-27664(zero)
    2f68:	fc930580 	lb	a1,-27652(zero)
    2f6c:	1c930580 	lb	a1,-27876(zero)
    2f70:	28930580 	lb	a1,-27864(zero)
    2f74:	34930580 	lb	a1,-27852(zero)
    2f78:	60930580 	lb	a1,-27808(zero)
    2f7c:	70930580 	lb	a1,-27792(zero)
    2f80:	f0930580 	lb	a1,-27664(zero)
    2f84:	f0930580 	lb	a1,-27664(zero)
    2f88:	f0930580 	lb	a1,-27664(zero)
    2f8c:	00000000 	nop
    2f90:	1cb80580 	lb	a1,-18404(zero)
    2f94:	ecb80580 	lb	a1,-18196(zero)
    2f98:	4cb70580 	lb	a1,-18612(zero)
    2f9c:	dcb40580 	lb	a1,-19236(zero)
    2fa0:	dcb40580 	lb	a1,-19236(zero)
    2fa4:	24ba0580 	lb	a1,-17884(zero)
    2fa8:	ccbb0580 	lb	a1,-17460(zero)
    2fac:	bcb90580 	lb	a1,-17988(zero)
    2fb0:	84b60580 	lb	a1,-18812(zero)
    2fb4:	e8b60580 	lb	a1,-18712(zero)
    2fb8:	e8b60580 	lb	a1,-18712(zero)
    2fbc:	b4b70580 	lb	a1,-18508(zero)
    2fc0:	24ba0580 	lb	a1,-17884(zero)
    2fc4:	ccbb0580 	lb	a1,-17460(zero)
    2fc8:	1cb80580 	lb	a1,-18404(zero)
    2fcc:	ecb80580 	lb	a1,-18196(zero)
    2fd0:	4cb70580 	lb	a1,-18612(zero)
    2fd4:	b0b50580 	lb	a1,-19024(zero)
    2fd8:	b0b50580 	lb	a1,-19024(zero)
    2fdc:	24ba0580 	lb	a1,-17884(zero)
    2fe0:	24ba0580 	lb	a1,-17884(zero)
    2fe4:	24ba0580 	lb	a1,-17884(zero)
    2fe8:	98be0580 	lb	a1,-16744(zero)
    2fec:	d8be0580 	lb	a1,-16680(zero)
    2ff0:	d8be0580 	lb	a1,-16680(zero)
    2ff4:	d8be0580 	lb	a1,-16680(zero)
    2ff8:	d8be0580 	lb	a1,-16680(zero)
    2ffc:	b8be0580 	lb	a1,-16712(zero)
    3000:	a0be0580 	lb	a1,-16736(zero)
    3004:	a8be0580 	lb	a1,-16728(zero)
    3008:	d8be0580 	lb	a1,-16680(zero)
    300c:	d8be0580 	lb	a1,-16680(zero)
    3010:	d8be0580 	lb	a1,-16680(zero)
    3014:	d8be0580 	lb	a1,-16680(zero)
    3018:	c8be0580 	lb	a1,-16696(zero)
    301c:	b0be0580 	lb	a1,-16720(zero)
    3020:	d8be0580 	lb	a1,-16680(zero)
    3024:	d8be0580 	lb	a1,-16680(zero)
    3028:	d8be0580 	lb	a1,-16680(zero)
    302c:	d8be0580 	lb	a1,-16680(zero)
    3030:	d8be0580 	lb	a1,-16680(zero)
    3034:	d8be0580 	lb	a1,-16680(zero)
    3038:	c0be0580 	lb	a1,-16704(zero)
    303c:	d0be0580 	lb	a1,-16688(zero)
    3040:	5cbf0580 	lb	a1,-16548(zero)
    3044:	54bf0580 	lb	a1,-16556(zero)
    3048:	84bf0580 	lb	a1,-16508(zero)
    304c:	84bf0580 	lb	a1,-16508(zero)
    3050:	84bf0580 	lb	a1,-16508(zero)
    3054:	84bf0580 	lb	a1,-16508(zero)
    3058:	74bf0580 	lb	a1,-16524(zero)
    305c:	4cbf0580 	lb	a1,-16564(zero)
    3060:	44bf0580 	lb	a1,-16572(zero)
    3064:	84bf0580 	lb	a1,-16508(zero)
    3068:	84bf0580 	lb	a1,-16508(zero)
    306c:	84bf0580 	lb	a1,-16508(zero)
    3070:	84bf0580 	lb	a1,-16508(zero)
    3074:	64bf0580 	lb	a1,-16540(zero)
    3078:	7cbf0580 	lb	a1,-16516(zero)
    307c:	6cbf0580 	lb	a1,-16532(zero)
    3080:	00010304 	.word	0x4030100
    3084:	0607090a 	j	0x8241c18
    3088:	0c0d0f10 	beq	zero,t7,0x64bc
    308c:	0001ff02 	.word	0x2ff0100
    3090:	03ff0405 	.word	0x504ff03
    3094:	ff0607ff 	.word	0xff0706ff
    3098:	0809ff0a 	j	0xbfc2420
    309c:	0bff0000 	.word	0xff0b
    30a0:	5c73745c 	.word	0x5c74735c
    30a4:	6974656d 	.word	0x6d657469
    30a8:	63675c69 	.word	0x695c6763
    30ac:	636f6e31 	andi	t6,t3,0x6f63
    30b0:	5c303030 	andi	s0,at,0x305c
    30b4:	302e7469 	.word	0x69742e30
    30b8:	6d000000 	.word	0x6d
    30bc:	5c73745c 	.word	0x5c74735c
    30c0:	6974656d 	.word	0x6d657469
    30c4:	63675c69 	.word	0x695c6763
    30c8:	636f6e35 	ori	t6,t3,0x6f63
    30cc:	5c303030 	andi	s0,at,0x305c
    30d0:	302e7469 	.word	0x69742e30
    30d4:	6d000000 	.word	0x6d
    30d8:	dc440680 	lb	a2,17628(zero)
    30dc:	fc440680 	lb	a2,17660(zero)
    30e0:	1c450680 	lb	a2,17692(zero)
    30e4:	3c450680 	lb	a2,17724(zero)
    30e8:	5c450680 	lb	a2,17756(zero)
    30ec:	7c450680 	lb	a2,17788(zero)
    30f0:	9c450680 	lb	a2,17820(zero)
    30f4:	bc450680 	lb	a2,17852(zero)
    30f8:	dc450680 	lb	a2,17884(zero)
    30fc:	fc450680 	lb	a2,17916(zero)
    3100:	1c460680 	lb	a2,17948(zero)
    3104:	3c460680 	lb	a2,17980(zero)
    3108:	5c460680 	lb	a2,18012(zero)
    310c:	7c460680 	lb	a2,18044(zero)
    3110:	9c460680 	lb	a2,18076(zero)
    3114:	00000000 	nop
    3118:	ac490680 	lb	a2,18860(zero)
    311c:	084a0680 	lb	a2,18952(zero)
    3120:	084a0680 	lb	a2,18952(zero)
    3124:	2c490680 	lb	a2,18732(zero)
    3128:	084a0680 	lb	a2,18952(zero)
    312c:	54490680 	lb	a2,18772(zero)
    3130:	cc490680 	lb	a2,18892(zero)
    3134:	04490680 	lb	a2,18692(zero)
    3138:	605a0680 	lb	a2,23136(zero)
    313c:	6c5a0680 	lb	a2,23148(zero)
    3140:	785a0680 	lb	a2,23160(zero)
    3144:	845a0680 	lb	a2,23172(zero)
    3148:	905a0680 	lb	a2,23184(zero)
    314c:	9c5a0680 	lb	a2,23196(zero)
    3150:	a85a0680 	lb	a2,23208(zero)
    3154:	b45a0680 	lb	a2,23220(zero)
    3158:	c05a0680 	lb	a2,23232(zero)
    315c:	cc5a0680 	lb	a2,23244(zero)
    3160:	d85a0680 	lb	a2,23256(zero)
    3164:	e45a0680 	lb	a2,23268(zero)
    3168:	f05a0680 	lb	a2,23280(zero)
    316c:	fc5a0680 	lb	a2,23292(zero)
    3170:	085b0680 	lb	a2,23304(zero)
    3174:	88810880 	lb	t0,-32376(zero)
    3178:	60b51e80 	lb	s8,-19104(zero)
    317c:	60b51e80 	lb	s8,-19104(zero)
    3180:	60b51e80 	lb	s8,-19104(zero)
    3184:	e4b51e80 	lb	s8,-18972(zero)
    3188:	40f91e80 	lb	s8,-1728(zero)
    318c:	40f91e80 	lb	s8,-1728(zero)
    3190:	4364496e 	.word	0x6e496443
    3194:	69743a20 	addi	k0,at,29801
    3198:	496e6974 	jalx	0x1a5b925
    319c:	20666169 	.word	0x69616620
    31a0:	6c65640a 	j	0x99195b0
    31a4:	00000000 	nop
	...
    31b0:	6e6f6e65 	.word	0x656e6f6e
	...
    31c0:	43646c52 	.word	0x526c6443
    31c4:	65616453 	.word	0x53646165
    31c8:	00000000 	nop
    31cc:	43646c53 	.word	0x536c6443
    31d0:	65656b50 	.word	0x506b6565
    31d4:	00000000 	nop
    31d8:	43646c53 	.word	0x536c6443
    31dc:	65656b4c 	.word	0x4c6b6565
    31e0:	00000000 	nop
    31e4:	43646c47 	c1	0x16c6443
    31e8:	65745444 	.word	0x44547465
    31ec:	00000000 	nop
    31f0:	43646c47 	c1	0x16c6443
    31f4:	6574544e 	c3	0x547465
    31f8:	00000000 	nop
    31fc:	43646c47 	c1	0x16c6443
    3200:	65746c6f 	.word	0x6f6c7465
    3204:	63500000 	.word	0x5063
    3208:	43646c47 	c1	0x16c6443
    320c:	65746c6f 	.word	0x6f6c7465
    3210:	634c0000 	.word	0x4c63
    3214:	3f000000 	.word	0x3f
    3218:	43646c53 	.word	0x536c6443
    321c:	65746d6f 	.word	0x6f6d7465
    3220:	64650000 	.word	0x6564
    3224:	43646c53 	.word	0x536c6443
    3228:	65746669 	.word	0x69667465
    322c:	6c746572 	.word	0x7265746c
    3230:	00000000 	nop
    3234:	43646c44 	.word	0x446c6443
    3238:	656d7574 	jalx	0x1d5b595
    323c:	65000000 	.word	0x65
    3240:	43646c4d 	.word	0x4d6c6443
    3244:	75746500 	.word	0x657475
    3248:	43646c52 	.word	0x526c6443
    324c:	65736574 	jalx	0x195cd95
    3250:	00000000 	nop
    3254:	43646c50 	.word	0x506c6443
    3258:	61757365 	.word	0x65737561
    325c:	00000000 	nop
    3260:	43646c53 	.word	0x536c6443
    3264:	746f7000 	.word	0x706f74
    3268:	43646c53 	.word	0x536c6443
    326c:	74616e64 	.word	0x646e6174
    3270:	62790000 	.word	0x7962
    3274:	43646c52 	.word	0x526c6443
    3278:	6561644e 	c3	0x646165
    327c:	00000000 	nop
    3280:	43646c42 	c0	0x6c6443
    3284:	61636b77 	jalx	0xdad8d85
    3288:	61726400 	.word	0x647261
    328c:	43646c46 	c1	0x6c6443
    3290:	6f727761 	.word	0x6177726f
    3294:	72640000 	.word	0x6472
    3298:	43646c50 	.word	0x506c6443
    329c:	6c617900 	.word	0x79616c
    32a0:	43646c53 	.word	0x536c6443
    32a4:	65746c6f 	.word	0x6f6c7465
    32a8:	63000000 	.word	0x63
    32ac:	43646c4e 	c3	0x6c6443
    32b0:	6f700000 	.word	0x706f
    32b4:	43646c53 	.word	0x536c6443
    32b8:	796e6300 	.word	0x636e79
    32bc:	4469736b 	.word	0x6b736944
    32c0:	4572726f 	.word	0x6f727245
    32c4:	72000000 	.word	0x72
    32c8:	44617461 	.word	0x61746144
    32cc:	456e6400 	.word	0x646e45
    32d0:	41636b6e 	.word	0x6e6b6341
    32d4:	6f776c65 	.word	0x656c776f
    32d8:	64676500 	.word	0x656764
    32dc:	436f6d70 	.word	0x706d6f43
    32e0:	6c657465 	.word	0x6574656c
    32e4:	00000000 	nop
    32e8:	44617461 	.word	0x61746144
    32ec:	52656164 	.word	0x64616552
    32f0:	79000000 	.word	0x79
    32f4:	4e6f496e 	.word	0x6e496f4e
    32f8:	74720000 	.word	0x7274
    32fc:	43442074 	jalx	0x81110d
    3300:	696d656f 	.word	0x6f656d69
    3304:	75743a20 	addi	k0,at,29813
    3308:	00000000 	nop
    330c:	25733a28 	slti	k0,at,29477
    3310:	25732920 	addi	t1,at,29477
    3314:	53796e63 	.word	0x636e7953
    3318:	3d25732c 	sltiu	s3,v1,9533
    331c:	20526561 	.word	0x61655220
    3320:	64793d25 	addiu	sp,t1,31076
    3324:	730a0000 	.word	0xa73
    3328:	4469736b 	.word	0x6b736944
    332c:	4572726f 	.word	0x6f727245
    3330:	723a2000 	.word	0x203a72
    3334:	636f6d3d 	.word	0x3d6d6f63
    3338:	25732c63 	.word	0x632c7325
    333c:	6f64653d 	.word	0x3d65646f
    3340:	28253032 	andi	s0,s1,0x2528
    3344:	783a2530 	andi	a1,at,0x3a78
    3348:	3278290a 	j	0x8a5e0c8
    334c:	00000000 	nop
    3350:	4344524f 	c3	0x1524443
    3354:	4d3a2075 	jalx	0x480e935
    3358:	6e6b6e6f 	.word	0x6f6e6b6e
    335c:	776e2069 	.word	0x69206e77
    3360:	6e747200 	.word	0x72746e
    3364:	28256429 	slti	a0,t3,9512
    3368:	0a000000 	.word	0xa
    336c:	00000000 	nop
    3370:	6c960680 	lb	a2,-27028(zero)
    3374:	20960680 	lb	a2,-27104(zero)
    3378:	20950680 	lb	a2,-27360(zero)
    337c:	ec960680 	lb	a2,-26900(zero)
    3380:	6c970680 	lb	a2,-26772(zero)
    3384:	43445f73 	.word	0x735f4443
    3388:	796e6300 	.word	0x636e79
    338c:	43445f72 	.word	0x725f4443
    3390:	65616479 	.word	0x79646165
    3394:	00000000 	nop
    3398:	25732e2e 	sltiu	t6,s1,29477
    339c:	2e0a0000 	.word	0xa2e
    33a0:	25733a20 	addi	k0,at,29477
    33a4:	6e6f2070 	.word	0x70206f6e
    33a8:	6172616d 	.word	0x6d617261
    33ac:	0a000000 	.word	0xa
    33b0:	43445f63 	.word	0x635f4443
    33b4:	77000000 	.word	0x77
    33b8:	2449643a 	xori	a0,s3,0x4924
    33bc:	2062696f 	.word	0x6f696220
    33c0:	732e632c 	sltiu	v1,v1,11891
    33c4:	7620312e 	sltiu	s1,s1,8310
    33c8:	38362031 	andi	zero,t1,0x3638
    33cc:	3939372f 	sltiu	s7,t9,14649
    33d0:	30332f32 	andi	t7,s1,0x3330
    33d4:	38203037 	ori	s0,t9,0x2038
    33d8:	3a34323a 	xori	s2,s1,0x343a
    33dc:	3432206d 	.word	0x6d203234
    33e0:	616b6f74 	jalx	0x1bdad85
    33e4:	6f204578 	.word	0x7845206f
    33e8:	70202400 	.word	0x242070
    33ec:	43445f69 	.word	0x695f4443
    33f0:	6e69743a 	xori	s4,s3,0x696e
    33f4:	00000000 	nop
    33f8:	61646472 	.word	0x72646461
    33fc:	3d253038 	xori	s0,at,0x253d
    3400:	780a0000 	.word	0xa78
    3404:	43445f64 	.word	0x645f4443
    3408:	61746173 	.word	0x73617461
    340c:	796e6300 	.word	0x636e79
    3410:	25733a20 	addi	k0,at,29477
    3414:	70617468 	.word	0x68746170
    3418:	206c6576 	jalx	0x995b081
    341c:	656c2028 	slti	zero,at,27749
    3420:	25642920 	addi	t1,at,25637
    3424:	6572726f 	.word	0x6f727265
    3428:	720a0000 	.word	0xa72
    342c:	25733a20 	addi	k0,at,29477
    3430:	64697220 	addi	s2,v1,26980
    3434:	77617320 	addi	s3,v1,24951
    3438:	6e6f7420 	addi	s4,v1,28526
    343c:	666f756e 	.word	0x6e756f66
    3440:	640a0000 	.word	0xa64
    3444:	43645365 	.word	0x65536443
    3448:	61726368 	.word	0x68637261
    344c:	46696c65 	.word	0x656c6946
    3450:	3a206469 	.word	0x6964203a
    3454:	73632065 	.word	0x65206373
    3458:	72726f72 	.word	0x726f7272
    345c:	0a000000 	.word	0xa
    3460:	43645365 	.word	0x65536443
    3464:	61726368 	.word	0x68637261
    3468:	46696c65 	.word	0x656c6946
    346c:	3a207365 	.word	0x6573203a
    3470:	61726368 	.word	0x68637261
    3474:	696e6720 	addi	a3,v1,28265
    3478:	25732e2e 	sltiu	t6,s1,29477
    347c:	2e0a0000 	.word	0xa2e
    3480:	25733a20 	addi	k0,at,29477
    3484:	20666f75 	jalx	0x5bd9881
    3488:	6e640a00 	.word	0xa646e
    348c:	25733a20 	addi	k0,at,29477
    3490:	6e6f7420 	addi	s4,v1,28526
    3494:	666f756e 	.word	0x6e756f66
    3498:	640a0000 	.word	0xa64
    349c:	43445f6e 	.word	0x6e5f4443
    34a0:	65776d65 	.word	0x656d7765
    34a4:	6469613a 	xori	at,s3,0x6964
    34a8:	20526561 	.word	0x61655220
    34ac:	64206572 	.word	0x72652064
    34b0:	726f7220 	addi	s2,v1,28530
    34b4:	696e2063 	.word	0x63206e69
    34b8:	645f7265 	.word	0x65725f64
    34bc:	61642850 	.word	0x50286461
    34c0:	5644290a 	j	0x8a51158
    34c4:	00000000 	nop
    34c8:	43443030 	andi	s0,at,0x4443
    34cc:	31000000 	.word	0x31
    34d0:	43445f6e 	.word	0x6e5f4443
    34d4:	65776d65 	.word	0x656d7765
    34d8:	6469613a 	xori	at,s3,0x6964
    34dc:	20446973 	.word	0x73694420
    34e0:	6320666f 	.word	0x6f662063
    34e4:	726d6174 	jalx	0x185b5c9
    34e8:	20657272 	.word	0x72726520
    34ec:	6f722069 	.word	0x6920726f
    34f0:	6e206364 	.word	0x6463206e
    34f4:	5f726561 	.word	0x6165725f
    34f8:	64285056 	.word	0x56502864
    34fc:	44290a00 	.word	0xa2944
    3500:	43445f6e 	.word	0x6e5f4443
    3504:	65776d65 	.word	0x656d7765
    3508:	6469613a 	xori	at,s3,0x6964
    350c:	20526561 	.word	0x61655220
    3510:	64206572 	.word	0x72652064
    3514:	726f7220 	addi	s2,v1,28530
    3518:	2850543a 	xori	s4,s2,0x5028
    351c:	25303878 	.word	0x78383025
    3520:	290a0000 	.word	0xa29
    3524:	43445f6e 	.word	0x6e5f4443
    3528:	65776d65 	.word	0x656d7765
    352c:	6469613a 	xori	at,s3,0x6964
    3530:	20736172 	.word	0x72617320
    3534:	6368696e 	.word	0x6e696863
    3538:	67206469 	.word	0x69642067
    353c:	722e2e0a 	j	0x8b8b9c8
    3540:	00000000 	nop
    3544:	09253038 	xori	s0,at,0x2509
    3548:	782c2530 	andi	a1,at,0x2c78
    354c:	34782c25 	addiu	t4,t1,30772
    3550:	3034782c 	sltiu	t8,v1,13360
    3554:	25730a00 	.word	0xa7325
    3558:	43445f6e 	.word	0x6e5f4443
    355c:	65776d65 	.word	0x656d7765
    3560:	6469613a 	xori	at,s3,0x6964
    3564:	20256420 	addi	a0,v1,9504
    3568:	64697220 	addi	s2,v1,26980
    356c:	656e7472 	.word	0x72746e65
    3570:	69657320 	addi	s3,v1,25961
    3574:	666f756e 	.word	0x6e756f66
    3578:	640a0000 	.word	0xa64
    357c:	43445f63 	.word	0x635f4443
    3580:	61636865 	.word	0x65686361
    3584:	66696c65 	.word	0x656c6966
    3588:	3a206469 	.word	0x6964203a
    358c:	72206e6f 	.word	0x6f6e2072
    3590:	7420666f 	.word	0x6f662074
    3594:	756e640a 	j	0x991b9d4
    3598:	00000000 	nop
    359c:	43445f63 	.word	0x635f4443
    35a0:	61636865 	.word	0x65686361
    35a4:	66696c65 	.word	0x656c6966
    35a8:	3a207365 	.word	0x6573203a
    35ac:	61726368 	.word	0x68637261
    35b0:	696e672e 	sltiu	a3,s3,28265
    35b4:	2e2e0a00 	.word	0xa2e2e
    35b8:	2e000000 	.word	0x2e
    35bc:	2e2e0000 	.word	0x2e2e
    35c0:	09282530 	andi	a1,at,0x2809
    35c4:	32783a25 	addiu	k0,t1,30770
    35c8:	3032783a 	xori	t8,s3,0x3230
    35cc:	25303278 	.word	0x78323025
    35d0:	29202538 	xori	a1,at,0x2029
    35d4:	64202573 	.word	0x73252064
    35d8:	0a000000 	.word	0xa
    35dc:	43445f63 	.word	0x635f4443
    35e0:	61636865 	.word	0x65686361
    35e4:	66696c65 	.word	0x656c6966
    35e8:	3a202564 	.word	0x6425203a
    35ec:	2066696c 	.word	0x6c696620
    35f0:	65732066 	.word	0x66207365
    35f4:	6f756e64 	.word	0x646e756f
    35f8:	0a000000 	.word	0xa
    35fc:	00000000 	nop
    3600:	43645265 	.word	0x65526443
    3604:	61643a20 	addi	k0,at,25697
    3608:	73656374 	jalx	0x18d95cd
    360c:	6f722065 	.word	0x6520726f
    3610:	72726f72 	.word	0x726f7272
    3614:	0a000000 	.word	0xa
    3618:	43645265 	.word	0x65526443
    361c:	61643a20 	addi	k0,at,25697
    3620:	5368656c 	.word	0x6c656853
    3624:	6c206f70 	.word	0x706f206c
    3628:	656e2e2e 	sltiu	t6,s1,28261
    362c:	2e0a0000 	.word	0xa2e
    3630:	43645265 	.word	0x65526443
    3634:	61643a20 	addi	k0,at,25697
    3638:	72657472 	.word	0x72746572
    363c:	792e2e2e 	sltiu	t6,s1,11897
    3640:	0a000000 	.word	0xa
	...
    3650:	5350553a 	xori	s5,s2,0x5053
    3654:	542f4f20 	addi	t7,v0,12116
    3658:	5b25735d 	.word	0x5d73255b
    365c:	0a000000 	.word	0xa
    3660:	77616974 	jalx	0x1a585dd
    3664:	20287265 	.word	0x65722820
    3668:	73657429 	slti	s4,t3,25971
    366c:	00000000 	nop
    3670:	77616974 	jalx	0x1a585dd
    3674:	20287772 	.word	0x72772820
    3678:	64792048 	.word	0x48207964
    367c:	202d3e20 	addi	s8,at,11552
    3680:	4c290000 	syscall	0xa5
    3684:	77616974 	jalx	0x1a585dd
    3688:	2028646d 	.word	0x6d642820
    368c:	61662063 	.word	0x63206661
    3690:	6c656172 	.word	0x7261656c
    3694:	2f572900 	.word	0x29572f
	...
    36a0:	54cd0680 	lb	a2,-12972(zero)
    36a4:	1ccd0680 	lb	a2,-13028(zero)
    36a8:	24cd0680 	lb	a2,-13020(zero)
    36ac:	2ccd0680 	lb	a2,-13012(zero)
    36b0:	34cd0680 	lb	a2,-13004(zero)
    36b4:	3ccd0680 	lb	a2,-12996(zero)
    36b8:	44cd0680 	lb	a2,-12988(zero)
    36bc:	4ccd0680 	lb	a2,-12980(zero)
    36c0:	14ce0680 	lb	a2,-12780(zero)
    36c4:	dccd0680 	lb	a2,-12836(zero)
    36c8:	e4cd0680 	lb	a2,-12828(zero)
    36cc:	eccd0680 	lb	a2,-12820(zero)
    36d0:	f4cd0680 	lb	a2,-12812(zero)
    36d4:	fccd0680 	lb	a2,-12804(zero)
    36d8:	04ce0680 	lb	a2,-12796(zero)
    36dc:	0cce0680 	lb	a2,-12788(zero)
    36e0:	84ea0680 	lb	a2,-5500(zero)
    36e4:	2cea0680 	lb	a2,-5588(zero)
    36e8:	5cea0680 	lb	a2,-5540(zero)
    36ec:	4cea0680 	lb	a2,-5556(zero)
    36f0:	08ea0680 	lb	a2,-5624(zero)
    36f4:	6cea0680 	lb	a2,-5524(zero)
	...
    3700:	40130780 	lb	a3,4928(zero)
    3704:	48130780 	lb	a3,4936(zero)
    3708:	50130780 	lb	a3,4944(zero)
    370c:	58130780 	lb	a3,4952(zero)
    3710:	60130780 	lb	a3,4960(zero)
    3714:	68130780 	lb	a3,4968(zero)
    3718:	70130780 	lb	a3,4976(zero)
    371c:	00000000 	nop
    3720:	20140780 	lb	a3,5152(zero)
    3724:	28140780 	lb	a3,5160(zero)
    3728:	30140780 	lb	a3,5168(zero)
    372c:	38140780 	lb	a3,5176(zero)
    3730:	40140780 	lb	a3,5184(zero)
    3734:	48140780 	lb	a3,5192(zero)
    3738:	50140780 	lb	a3,5200(zero)
    373c:	00000000 	nop
    3740:	5653796e 	.word	0x6e795356
    3744:	633a2074 	jalx	0x80e98d
    3748:	696d656f 	.word	0x6f656d69
    374c:	75740a00 	.word	0xa7475
    3750:	2449643a 	xori	a0,s3,0x4924
    3754:	20696e74 	jalx	0x1b9a481
    3758:	722e632c 	sltiu	v1,v1,11890
    375c:	7620312e 	sltiu	s1,s1,8310
    3760:	37362031 	andi	zero,t1,0x3637
    3764:	3939372f 	sltiu	s7,t9,14649
    3768:	30322f31 	andi	t7,t1,0x3230
    376c:	32203132 	andi	s1,s1,0x2032
    3770:	3a34353a 	xori	s5,s1,0x343a
    3774:	3035206d 	.word	0x6d203530
    3778:	616b6f74 	jalx	0x1bdad85
    377c:	6f204578 	.word	0x7845206f
    3780:	70202400 	.word	0x242070
    3784:	756e6578 	.word	0x78656e75
    3788:	70656374 	jalx	0x18d95c1
    378c:	65642069 	.word	0x69206465
    3790:	6e746572 	.word	0x7265746e
    3794:	72757074 	jalx	0x1c1d5c9
    3798:	28253034 	ori	s0,at,0x2528
    379c:	78290a00 	.word	0xa2978
    37a0:	696e7472 	.word	0x72746e69
    37a4:	2074696d 	.word	0x6d697420
    37a8:	656f7574 	jalx	0x1d5bd95
    37ac:	28253034 	ori	s0,at,0x2528
    37b0:	783a2530 	andi	a1,at,0x3a78
    37b4:	3478290a 	j	0x8a5e0d0
    37b8:	00000000 	nop
    37bc:	00000000 	nop
    37c0:	444d4120 	addi	at,v0,19780
    37c4:	62757320 	addi	s3,v1,30050
    37c8:	6572726f 	.word	0x6f727265
    37cc:	723a2063 	.word	0x63203a72
    37d0:	6f64653d 	.word	0x3d65646f
    37d4:	25303878 	.word	0x78383025
    37d8:	0a000000 	.word	0xa
    37dc:	4d414452 	.word	0x5244414d
    37e0:	5b25645d 	.word	0x5d64255b
    37e4:	3d253038 	xori	s0,at,0x253d
    37e8:	780a0000 	.word	0xa78
    37ec:	00000000 	nop
    37f0:	25640000 	.word	0x6425
	...
    3800:	30313233 	andi	s2,t9,0x3130
    3804:	34353637 	ori	s6,t9,0x3534
    3808:	38394142 	c0	0x413938
    380c:	43444546 	c1	0x454443
    3810:	00000000 	nop
    3814:	30313233 	andi	s2,t9,0x3130
    3818:	34353637 	ori	s6,t9,0x3534
    381c:	38396162 	.word	0x62613938
    3820:	63646566 	.word	0x66656463
    3824:	00000000 	nop
    3828:	008e0780 	lb	a3,-29184(zero)
    382c:	ac920780 	lb	a3,-27988(zero)
    3830:	ac920780 	lb	a3,-27988(zero)
    3834:	ac920780 	lb	a3,-27988(zero)
    3838:	ac920780 	lb	a3,-27988(zero)
    383c:	ac920780 	lb	a3,-27988(zero)
    3840:	ac920780 	lb	a3,-27988(zero)
    3844:	ac920780 	lb	a3,-27988(zero)
    3848:	ac920780 	lb	a3,-27988(zero)
    384c:	ac920780 	lb	a3,-27988(zero)
    3850:	ac920780 	lb	a3,-27988(zero)
    3854:	ac920780 	lb	a3,-27988(zero)
    3858:	b8900780 	lb	a3,-28488(zero)
    385c:	ac920780 	lb	a3,-27988(zero)
    3860:	ac920780 	lb	a3,-27988(zero)
    3864:	ac920780 	lb	a3,-27988(zero)
    3868:	ac920780 	lb	a3,-27988(zero)
    386c:	ac920780 	lb	a3,-27988(zero)
    3870:	ac920780 	lb	a3,-27988(zero)
    3874:	ac920780 	lb	a3,-27988(zero)
    3878:	ac920780 	lb	a3,-27988(zero)
    387c:	ac920780 	lb	a3,-27988(zero)
    3880:	ac920780 	lb	a3,-27988(zero)
    3884:	cc910780 	lb	a3,-28212(zero)
    3888:	2c8e0780 	lb	a3,-29140(zero)
    388c:	ac920780 	lb	a3,-27988(zero)
    3890:	ac920780 	lb	a3,-27988(zero)
    3894:	ac920780 	lb	a3,-27988(zero)
    3898:	e88d0780 	lb	a3,-29208(zero)
    389c:	2c8e0780 	lb	a3,-29140(zero)
    38a0:	ac920780 	lb	a3,-27988(zero)
    38a4:	ac920780 	lb	a3,-27988(zero)
    38a8:	f48d0780 	lb	a3,-29196(zero)
    38ac:	ac920780 	lb	a3,-27988(zero)
    38b0:	78920780 	lb	a3,-28040(zero)
    38b4:	a48f0780 	lb	a3,-28764(zero)
    38b8:	a4900780 	lb	a3,-28508(zero)
    38bc:	ac920780 	lb	a3,-27988(zero)
    38c0:	ac920780 	lb	a3,-27988(zero)
    38c4:	ec910780 	lb	a3,-28180(zero)
    38c8:	ac920780 	lb	a3,-27988(zero)
    38cc:	848e0780 	lb	a3,-29052(zero)
    38d0:	ac920780 	lb	a3,-27988(zero)
    38d4:	ac920780 	lb	a3,-27988(zero)
    38d8:	c4900780 	lb	a3,-28476(zero)
    38dc:	00000000 	nop
    38e0:	2449643a 	xori	a0,s3,0x4924
    38e4:	20737973 	.word	0x73797320
    38e8:	2e632c76 	jalx	0x8b18cb9
    38ec:	20312e31 	andi	t6,t1,0x3120
    38f0:	34302031 	andi	zero,t1,0x3034
    38f4:	3939382f 	sltiu	t8,t9,14649
    38f8:	30312f31 	andi	t7,t1,0x3130
    38fc:	32203037 	ori	s0,t9,0x2032
    3900:	3a35323a 	xori	s2,s1,0x353a
    3904:	3237206e 	.word	0x6e203732
    3908:	6f646120 	addi	at,v1,25711
    390c:	45787020 	addi	s0,v1,30789
    3910:	24000000 	and	zero,zero,zero
    3914:	52657365 	.word	0x65736552
    3918:	74477261 	.word	0x61724774
    391c:	70683a6a 	.word	0x6a3a6870
    3920:	74623d25 	addiu	sp,t1,25204
    3924:	3038782c 	sltiu	t8,v1,14384
    3928:	656e763d 	.word	0x3d766e65
    392c:	25303878 	.word	0x78383025
    3930:	0a000000 	.word	0xa
    3934:	52657365 	.word	0x65736552
    3938:	74477261 	.word	0x61724774
    393c:	70682825 	addiu	t0,t1,26736
    3940:	64292e2e 	sltiu	t6,s1,10596
    3944:	2e0a0000 	.word	0xa2e
    3948:	53657447 	c1	0x1746553
    394c:	72617068 	.word	0x68706172
    3950:	44656275 	jalx	0x5899511
    3954:	673a6c65 	.word	0x656c3a67
    3958:	76656c3a 	xori	t4,s3,0x6576
    395c:	25642c74 	jalx	0xb19095
    3960:	7970653a 	xori	a1,s3,0x7079
    3964:	25642072 	.word	0x72206425
    3968:	65766572 	.word	0x72657665
    396c:	73653a25 	addiu	k0,t1,25971
    3970:	640a0000 	.word	0xa64
    3974:	53657447 	c1	0x1746553
    3978:	72617051 	.word	0x51706172
    397c:	75652825 	addiu	t0,t1,25973
    3980:	64292e2e 	sltiu	t6,s1,10596
    3984:	2e0a0000 	.word	0xa2e
    3988:	44726177 	jalx	0xd85c911
    398c:	53796e63 	.word	0x636e7953
    3990:	43616c6c 	.word	0x6c6c6143
    3994:	6261636b 	.word	0x6b636162
    3998:	28253038 	xori	s0,at,0x2528
    399c:	78292e2e 	sltiu	t6,s1,10616
    39a0:	2e0a0000 	.word	0xa2e
    39a4:	53657444 	.word	0x44746553
    39a8:	6973704d 	.word	0x4d707369
    39ac:	61736b28 	slti	t3,v1,29537
    39b0:	2564292e 	sltiu	t1,s1,25637
    39b4:	2e2e0a00 	.word	0xa2e2e
    39b8:	44726177 	jalx	0xd85c911
    39bc:	53796e63 	.word	0x636e7953
    39c0:	28256429 	slti	a0,t3,9512
    39c4:	2e2e2e0a 	j	0x8b8b8b8
    39c8:	00000000 	nop
    39cc:	25733a62 	.word	0x623a7325
    39d0:	61642052 	.word	0x52206461
    39d4:	45435400 	.word	0x544345
    39d8:	2825642c 	sltiu	a0,v1,9512
    39dc:	2564292d 	sltiu	t1,t1,25637
    39e0:	2825642c 	sltiu	a0,v1,9512
    39e4:	2564290a 	j	0x8a59094
    39e8:	00000000 	nop
    39ec:	25733a00 	.word	0x3a7325
    39f0:	436c6561 	.word	0x61656c43
    39f4:	72496d61 	.word	0x616d4972
    39f8:	67650000 	.word	0x6567
    39fc:	436c6561 	.word	0x61656c43
    3a00:	72496d61 	.word	0x616d4972
    3a04:	67653200 	.word	0x326567
    3a08:	4c6f6164 	.word	0x64616f4c
    3a0c:	496d6167 	.word	0x67616d49
    3a10:	65000000 	.word	0x65
    3a14:	53746f72 	.word	0x726f7453
    3a18:	65496d61 	.word	0x616d4965
    3a1c:	67650000 	.word	0x6567
    3a20:	4d6f7665 	.word	0x65766f4d
    3a24:	496d6167 	.word	0x67616d49
    3a28:	65000000 	.word	0x65
    3a2c:	436c6561 	.word	0x61656c43
    3a30:	724f5461 	.word	0x61544f72
    3a34:	67282530 	andi	a1,at,0x2867
    3a38:	38782c25 	addiu	t4,t1,30776
    3a3c:	64292e2e 	sltiu	t6,s1,10596
    3a40:	2e0a0000 	.word	0xa2e
    3a44:	436c6561 	.word	0x61656c43
    3a48:	724f5461 	.word	0x61544f72
    3a4c:	67522825 	addiu	t0,t1,21095
    3a50:	3038782c 	sltiu	t8,v1,14384
    3a54:	2564292e 	sltiu	t1,s1,25637
    3a58:	2e2e0a00 	.word	0xa2e2e
    3a5c:	44726177 	jalx	0xd85c911
    3a60:	4f546167 	.word	0x6761544f
    3a64:	28253038 	xori	s0,at,0x2528
    3a68:	78292e2e 	sltiu	t6,s1,10616
    3a6c:	2e0a0000 	.word	0xa2e
    3a70:	50757444 	.word	0x44747550
    3a74:	72617745 	.word	0x45776172
    3a78:	6e762825 	addiu	t0,t1,30318
    3a7c:	30387829 	slti	t8,t3,14384
    3a80:	2e2e2e0a 	j	0x8b8b8b8
    3a84:	00000000 	nop
    3a88:	44726177 	jalx	0xd85c911
    3a8c:	4f546167 	.word	0x6761544f
    3a90:	456e7628 	slti	s6,v1,28229
    3a94:	25303878 	.word	0x78383025
    3a98:	2c263038 	xori	s0,at,0x262c
    3a9c:	78292e2e 	sltiu	t6,s1,10616
    3aa0:	2e0a0000 	.word	0xa2e
    3aa4:	50757444 	.word	0x44747550
    3aa8:	69737045 	.word	0x45707369
    3aac:	6e762825 	addiu	t0,t1,30318
    3ab0:	30387829 	slti	t8,t3,14384
    3ab4:	2e2e2e0a 	j	0x8b8b8b8
    3ab8:	00000000 	nop
    3abc:	47505520 	addi	s5,v0,20551
    3ac0:	74696d65 	.word	0x656d6974
    3ac4:	6f75743a 	xori	s4,s3,0x756f
    3ac8:	7175653d 	.word	0x3d657571
    3acc:	25642c73 	.word	0x732c6425
    3ad0:	7461743d 	.word	0x3d746174
    3ad4:	25303878 	.word	0x78383025
    3ad8:	2c636863 	.word	0x6368632c
    3adc:	723d2530 	andi	a1,at,0x3d72
    3ae0:	38782c6d 	.word	0x6d2c7838
    3ae4:	6164723d 	.word	0x3d726461
    3ae8:	25303878 	.word	0x78383025
    3aec:	0a000000 	.word	0xa
    3af0:	4c6f6164 	.word	0x64616f4c
    3af4:	496d6167 	.word	0x67616d49
    3af8:	65320000 	.word	0x3265
    3afc:	00000000 	nop
    3b00:	48cb0780 	lb	a3,-13496(zero)
    3b04:	54cb0780 	lb	a3,-13484(zero)
    3b08:	60cb0780 	lb	a3,-13472(zero)
    3b0c:	6ccb0780 	lb	a3,-13460(zero)
    3b10:	78cb0780 	lb	a3,-13448(zero)
	...
    3b20:	0980023c 	lui	v0,0x8009
    3b24:	88814224 	addiu	v0,v0,-32376
    3b28:	1f80033c 	lui	v1,0x801f
    3b2c:	60b56324 	addiu	v1,v1,-19104
    3b30:	000040ac 	sw	zero,0(v0)
    3b34:	04004224 	addiu	v0,v0,4
    3b38:	2b084300 	sltu	at,v0,v1
    3b3c:	fcff2014 	bnez	at,0x3b30
    3b40:	00000000 	nop
    3b44:	08801c3c 	lui	gp,0x8008
    3b48:	c07e9c27 	addiu	gp,gp,32448
    3b4c:	d7500008 	j	0x1435c
    3b50:	00000000 	nop
    3b54:	0800e003 	jr	ra
    3b58:	00000000 	nop
    3b5c:	e0ffbd27 	addiu	sp,sp,-32
    3b60:	1800bfaf 	sw	ra,24(sp)
    3b64:	d550000c 	jal	0x14354
    3b68:	00000000 	nop
    3b6c:	1f80053c 	lui	a1,0x801f
    3b70:	f8dfa534 	ori	a1,a1,0xdff8
    3b74:	0180023c 	lui	v0,0x8001
    3b78:	8839428c 	lw	v0,14728(v0)
    3b7c:	0180043c 	lui	a0,0x8001
    3b80:	8039848c 	lw	a0,14720(a0)
    3b84:	00f80324 	li	v1,-2048
    3b88:	23104400 	subu	v0,v0,a0
    3b8c:	ff074224 	addiu	v0,v0,2047
    3b90:	24104300 	and	v0,v0,v1
    3b94:	21208200 	addu	a0,a0,v0
    3b98:	0180013c 	lui	at,0x8001
    3b9c:	8c3924ac 	sw	a0,14732(at)
    3ba0:	f5e1010c 	jal	0x787d4
    3ba4:	2328a400 	subu	a1,a1,a0
    3ba8:	8da2010c 	jal	0x68a34
    3bac:	00000000 	nop
    3bb0:	05004014 	bnez	v0,0x3bc8
    3bb4:	21200000 	move	a0,zero
    3bb8:	1ea3010c 	jal	0x68c78
    3bbc:	1000a527 	addiu	a1,sp,16
    3bc0:	ea500008 	j	0x143a8
    3bc4:	00000000 	nop
    3bc8:	ffa2010c 	jal	0x68bfc
    3bcc:	21200000 	move	a0,zero
    3bd0:	b9a1010c 	jal	0x686e4
    3bd4:	21200000 	move	a0,zero
    3bd8:	d4a1010c 	jal	0x68750
    3bdc:	00000000 	nop
    3be0:	95a1010c 	jal	0x68654
    3be4:	00000000 	nop
    3be8:	a15d010c 	jal	0x57684
    3bec:	00000000 	nop
    3bf0:	a9df010c 	jal	0x77ea4
    3bf4:	00000000 	nop
    3bf8:	8c52000c 	jal	0x14a30
    3bfc:	00000000 	nop
    3c00:	1800bf8f 	lw	ra,24(sp)
    3c04:	2000bd27 	addiu	sp,sp,32
    3c08:	0800e003 	jr	ra
    3c0c:	00000000 	nop
    3c10:	e8ffbd27 	addiu	sp,sp,-24
    3c14:	1000bfaf 	sw	ra,16(sp)
    3c18:	cf5f010c 	jal	0x57f3c
    3c1c:	00000000 	nop
    3c20:	1559000c 	jal	0x16454
    3c24:	00000000 	nop
    3c28:	29f2010c 	jal	0x7c8a4
    3c2c:	00000000 	nop
    3c30:	b9e5010c 	jal	0x796e4
    3c34:	03000424 	li	a0,3
    3c38:	02dd010c 	jal	0x77408
    3c3c:	00000000 	nop
    3c40:	1000bf8f 	lw	ra,16(sp)
    3c44:	1800bd27 	addiu	sp,sp,24
    3c48:	0800e003 	jr	ra
    3c4c:	00000000 	nop
    3c50:	21400000 	move	t0,zero
    3c54:	01000724 	li	a3,1
    3c58:	2148e000 	move	t1,a3
    3c5c:	ffffa224 	addiu	v0,a1,-1
    3c60:	21304000 	move	a2,v0
    3c64:	0000838c 	lw	v1,0(a0)
    3c68:	ffff0224 	li	v0,-1
    3c6c:	21186600 	addu	v1,v1,a2
    3c70:	1c00c210 	beq	a2,v0,0x3ce4
    3c74:	000083ac 	sw	v1,0(a0)
    3c78:	2d000b24 	li	t3,45
    3c7c:	21504000 	move	t2,v0
    3c80:	0000838c 	lw	v1,0(a0)
    3c84:	00000000 	nop
    3c88:	00006290 	lbu	v0,0(v1)
    3c8c:	00000000 	nop
    3c90:	03004b14 	bne	v0,t3,0x3ca0
    3c94:	d0ff4224 	addiu	v0,v0,-48
    3c98:	34510008 	j	0x144d0
    3c9c:	ffff0924 	li	t1,-1
    3ca0:	0a00422c 	sltiu	v0,v0,10
    3ca4:	0a004010 	beqz	v0,0x3cd0
    3ca8:	00000000 	nop
    3cac:	00006290 	lbu	v0,0(v1)
    3cb0:	00000000 	nop
    3cb4:	d0ff4224 	addiu	v0,v0,-48
    3cb8:	18004700 	mult	v0,a3
    3cbc:	80100700 	sll	v0,a3,0x2
    3cc0:	21104700 	addu	v0,v0,a3
    3cc4:	40380200 	sll	a3,v0,0x1
    3cc8:	12600000 	mflo	t4
    3ccc:	21400c01 	addu	t0,t0,t4
    3cd0:	0000828c 	lw	v0,0(a0)
    3cd4:	ffffc624 	addiu	a2,a2,-1
    3cd8:	ffff4224 	addiu	v0,v0,-1
    3cdc:	e8ffca14 	bne	a2,t2,0x3c80
    3ce0:	000082ac 	sw	v0,0(a0)
    3ce4:	0000828c 	lw	v0,0(a0)
    3ce8:	0200a324 	addiu	v1,a1,2
    3cec:	21104300 	addu	v0,v0,v1
    3cf0:	000082ac 	sw	v0,0(a0)
    3cf4:	00004390 	lbu	v1,0(v0)
    3cf8:	0a000224 	li	v0,10
    3cfc:	0a006210 	beq	v1,v0,0x3d28
    3d00:	18000901 	mult	t0,t1
    3d04:	21284000 	move	a1,v0
    3d08:	0000828c 	lw	v0,0(a0)
    3d0c:	00000000 	nop
    3d10:	01004324 	addiu	v1,v0,1
    3d14:	000083ac 	sw	v1,0(a0)
    3d18:	01004290 	lbu	v0,1(v0)
    3d1c:	00000000 	nop
    3d20:	f9ff4514 	bne	v0,a1,0x3d08
    3d24:	18000901 	mult	t0,t1
    3d28:	0000828c 	lw	v0,0(a0)
    3d2c:	00000000 	nop
    3d30:	01004224 	addiu	v0,v0,1
    3d34:	000082ac 	sw	v0,0(a0)
    3d38:	12100000 	mflo	v0
    3d3c:	0800e003 	jr	ra
    3d40:	00000000 	nop
    3d44:	b8ffbd27 	addiu	sp,sp,-72
    3d48:	3c00b7af 	sw	s7,60(sp)
    3d4c:	21b80000 	move	s7,zero
    3d50:	00400424 	li	a0,16384
    3d54:	4400bfaf 	sw	ra,68(sp)
    3d58:	4000beaf 	sw	s8,64(sp)
    3d5c:	3800b6af 	sw	s6,56(sp)
    3d60:	3400b5af 	sw	s5,52(sp)
    3d64:	3000b4af 	sw	s4,48(sp)
    3d68:	2c00b3af 	sw	s3,44(sp)
    3d6c:	2800b2af 	sw	s2,40(sp)
    3d70:	2400b1af 	sw	s1,36(sp)
    3d74:	2000b0af 	sw	s0,32(sp)
    3d78:	b454000c 	jal	0x152d0
    3d7c:	1800a0af 	sw	zero,24(sp)
    3d80:	21b04000 	move	s6,v0
    3d84:	2120c002 	move	a0,s6
    3d88:	0880053c 	lui	a1,0x8008
    3d8c:	c07ea524 	addiu	a1,a1,32448
    3d90:	6358000c 	jal	0x1618c
    3d94:	00400624 	li	a2,16384
    3d98:	1000a427 	addiu	a0,sp,16
    3d9c:	03000524 	li	a1,3
    3da0:	1451000c 	jal	0x14450
    3da4:	1000b6af 	sw	s6,16(sp)
    3da8:	1000a427 	addiu	a0,sp,16
    3dac:	07000524 	li	a1,7
    3db0:	1b80033c 	lui	v1,0x801b
    3db4:	20596324 	addiu	v1,v1,22816
    3db8:	090062a0 	sb	v0,9(v1)
    3dbc:	080062a0 	sb	v0,8(v1)
    3dc0:	070062a0 	sb	v0,7(v1)
    3dc4:	060062a0 	sb	v0,6(v1)
    3dc8:	050062a0 	sb	v0,5(v1)
    3dcc:	1451000c 	jal	0x14450
    3dd0:	040062a0 	sb	v0,4(v1)
    3dd4:	1000a427 	addiu	a0,sp,16
    3dd8:	07000524 	li	a1,7
    3ddc:	1a80103c 	lui	s0,0x801a
    3de0:	288f1026 	addiu	s0,s0,-28888
    3de4:	40004224 	addiu	v0,v0,64
    3de8:	00130200 	sll	v0,v0,0xc
    3dec:	1451000c 	jal	0x14450
    3df0:	480202ae 	sw	v0,584(s0)
    3df4:	1000a427 	addiu	a0,sp,16
    3df8:	07000524 	li	a1,7
    3dfc:	40004224 	addiu	v0,v0,64
    3e00:	00130200 	sll	v0,v0,0xc
    3e04:	c0f94224 	addiu	v0,v0,-1600
    3e08:	1451000c 	jal	0x14450
    3e0c:	4c0202ae 	sw	v0,588(s0)
    3e10:	1000a427 	addiu	a0,sp,16
    3e14:	05000524 	li	a1,5
    3e18:	40004224 	addiu	v0,v0,64
    3e1c:	00130200 	sll	v0,v0,0xc
    3e20:	1451000c 	jal	0x14450
    3e24:	500202ae 	sw	v0,592(s0)
    3e28:	1000a427 	addiu	a0,sp,16
    3e2c:	05000524 	li	a1,5
    3e30:	1451000c 	jal	0x14450
    3e34:	21a04000 	move	s4,v0
    3e38:	21a84000 	move	s5,v0
    3e3c:	e7031124 	li	s1,999
    3e40:	1c80023c 	lui	v0,0x801c
    3e44:	90755e24 	addiu	s8,v0,30096
    3e48:	1c80023c 	lui	v0,0x801c
    3e4c:	f8765324 	addiu	s3,v0,30456
    3e50:	01001224 	li	s2,1
    3e54:	1000a427 	addiu	a0,sp,16
    3e58:	1000a28f 	lw	v0,16(sp)
    3e5c:	03000524 	li	a1,3
    3e60:	04004224 	addiu	v0,v0,4
    3e64:	1451000c 	jal	0x14450
    3e68:	1400a2af 	sw	v0,20(sp)
    3e6c:	1400a427 	addiu	a0,sp,20
    3e70:	03000524 	li	a1,3
    3e74:	1451000c 	jal	0x14450
    3e78:	21804000 	move	s0,v0
    3e7c:	6b001112 	beq	s0,s1,0x402c
    3e80:	21284000 	move	a1,v0
    3e84:	e6030224 	li	v0,998
    3e88:	04000216 	bne	s0,v0,0x3e9c
    3e8c:	e5030224 	li	v0,997
    3e90:	f1ffb114 	bne	a1,s1,0x3e58
    3e94:	1000a427 	addiu	a0,sp,16
    3e98:	e5030224 	li	v0,997
    3e9c:	05000216 	bne	s0,v0,0x3eb4
    3ea0:	e4030224 	li	v0,996
    3ea4:	0300b110 	beq	a1,s1,0x3eb4
    3ea8:	00000000 	nop
    3eac:	95510008 	j	0x14654
    3eb0:	01001724 	li	s7,1
    3eb4:	05000216 	bne	s0,v0,0x3ecc
    3eb8:	36fc0326 	addiu	v1,s0,-970
    3ebc:	0300b110 	beq	a1,s1,0x3ecc
    3ec0:	01000b24 	li	t3,1
    3ec4:	95510008 	j	0x14654
    3ec8:	1800abaf 	sw	t3,24(sp)
    3ecc:	1500622c 	sltiu	v0,v1,21
    3ed0:	2b004010 	beqz	v0,0x3f80
    3ed4:	1a80023c 	lui	v0,0x801a
    3ed8:	deffb110 	beq	a1,s1,0x3e54
    3edc:	608f4624 	addiu	a2,v0,-28832
    3ee0:	40100300 	sll	v0,v1,0x1
    3ee4:	21104600 	addu	v0,v0,a2
    3ee8:	2120be00 	addu	a0,a1,s8
    3eec:	000045a4 	sh	a1,0(v0)
    3ef0:	00008390 	lbu	v1,0(a0)
    3ef4:	00000000 	nop
    3ef8:	7f006230 	andi	v0,v1,0x7f
    3efc:	01004224 	addiu	v0,v0,1
    3f00:	7f004230 	andi	v0,v0,0x7f
    3f04:	80006330 	andi	v1,v1,0x80
    3f08:	25186200 	or	v1,v1,v0
    3f0c:	0a01a228 	slti	v0,a1,266
    3f10:	12004010 	beqz	v0,0x3f5c
    3f14:	000083a0 	sb	v1,0(a0)
    3f18:	0200a104 	bgez	a1,0x3f24
    3f1c:	2110a000 	move	v0,a1
    3f20:	1f00a224 	addiu	v0,a1,31
    3f24:	43110200 	sra	v0,v0,0x5
    3f28:	80180200 	sll	v1,v0,0x2
    3f2c:	21187300 	addu	v1,v1,s3
    3f30:	40110200 	sll	v0,v0,0x5
    3f34:	2310a200 	subu	v0,a1,v0
    3f38:	7000638c 	lw	v1,112(v1)
    3f3c:	04105200 	sllv	v0,s2,v0
    3f40:	24186200 	and	v1,v1,v0
    3f44:	05006014 	bnez	v1,0x3f5c
    3f48:	c8ffc324 	addiu	v1,a2,-56
    3f4c:	28006294 	lhu	v0,40(v1)
    3f50:	00000000 	nop
    3f54:	01004224 	addiu	v0,v0,1
    3f58:	280062a4 	sh	v0,40(v1)
    3f5c:	0200a104 	bgez	a1,0x3f68
    3f60:	2110a000 	move	v0,a1
    3f64:	1f00a224 	addiu	v0,a1,31
    3f68:	43110200 	sra	v0,v0,0x5
    3f6c:	80200200 	sll	a0,v0,0x2
    3f70:	21209300 	addu	a0,a0,s3
    3f74:	40110200 	sll	v0,v0,0x5
    3f78:	06520008 	j	0x14818
    3f7c:	2310a200 	subu	v0,a1,v0
    3f80:	b5ffb110 	beq	a1,s1,0x3e58
    3f84:	1000a427 	addiu	a0,sp,16
    3f88:	b2ffa018 	blez	a1,0x3e54
    3f8c:	21201e02 	addu	a0,s0,s8
    3f90:	00008290 	lbu	v0,0(a0)
    3f94:	7f00a330 	andi	v1,a1,0x7f
    3f98:	80004230 	andi	v0,v0,0x80
    3f9c:	25104300 	or	v0,v0,v1
    3fa0:	000082a0 	sb	v0,0(a0)
    3fa4:	0a01022a 	slti	v0,s0,266
    3fa8:	13004010 	beqz	v0,0x3ff8
    3fac:	00000000 	nop
    3fb0:	02000106 	bgez	s0,0x3fbc
    3fb4:	21100002 	move	v0,s0
    3fb8:	1f000226 	addiu	v0,s0,31
    3fbc:	43110200 	sra	v0,v0,0x5
    3fc0:	80180200 	sll	v1,v0,0x2
    3fc4:	21187300 	addu	v1,v1,s3
    3fc8:	40110200 	sll	v0,v0,0x5
    3fcc:	23100202 	subu	v0,s0,v0
    3fd0:	7000638c 	lw	v1,112(v1)
    3fd4:	04105200 	sllv	v0,s2,v0
    3fd8:	24186200 	and	v1,v1,v0
    3fdc:	06006014 	bnez	v1,0x3ff8
    3fe0:	1a80033c 	lui	v1,0x801a
    3fe4:	288f6324 	addiu	v1,v1,-28888
    3fe8:	28006294 	lhu	v0,40(v1)
    3fec:	00000000 	nop
    3ff0:	01004224 	addiu	v0,v0,1
    3ff4:	280062a4 	sh	v0,40(v1)
    3ff8:	02000106 	bgez	s0,0x4004
    3ffc:	21100002 	move	v0,s0
    4000:	1f000226 	addiu	v0,s0,31
    4004:	43110200 	sra	v0,v0,0x5
    4008:	80200200 	sll	a0,v0,0x2
    400c:	21209300 	addu	a0,a0,s3
    4010:	40110200 	sll	v0,v0,0x5
    4014:	23100202 	subu	v0,s0,v0
    4018:	7000838c 	lw	v1,112(a0)
    401c:	04105200 	sllv	v0,s2,v0
    4020:	25186200 	or	v1,v1,v0
    4024:	95510008 	j	0x14654
    4028:	700083ac 	sw	v1,112(a0)
    402c:	b7f3000c 	jal	0x3cedc
    4030:	00000000 	nop
    4034:	04008012 	beqz	s4,0x4048
    4038:	1a80033c 	lui	v1,0x801a
    403c:	288f6224 	addiu	v0,v1,-28888
    4040:	020054a4 	sh	s4,2(v0)
    4044:	288f74a4 	sh	s4,-28888(v1)
    4048:	0400a012 	beqz	s5,0x405c
    404c:	1a80023c 	lui	v0,0x801a
    4050:	288f4224 	addiu	v0,v0,-28888
    4054:	060055a4 	sh	s5,6(v0)
    4058:	040055a4 	sh	s5,4(v0)
    405c:	be54000c 	jal	0x152f8
    4060:	2120c002 	move	a0,s6
    4064:	3900e012 	beqz	s7,0x414c
    4068:	1c80023c 	lui	v0,0x801c
    406c:	21280000 	move	a1,zero
    4070:	90754a24 	addiu	t2,v0,30096
    4074:	01000924 	li	t1,1
    4078:	1a80023c 	lui	v0,0x801a
    407c:	288f4824 	addiu	t0,v0,-28888
    4080:	1c80023c 	lui	v0,0x801c
    4084:	f8764724 	addiu	a3,v0,30456
    4088:	2130e000 	move	a2,a3
    408c:	1c01c390 	lbu	v1,284(a2)
    4090:	ff000224 	li	v0,255
    4094:	09006210 	beq	v1,v0,0x40bc
    4098:	2120aa00 	addu	a0,a1,t2
    409c:	00008390 	lbu	v1,0(a0)
    40a0:	00000000 	nop
    40a4:	7f006230 	andi	v0,v1,0x7f
    40a8:	01004224 	addiu	v0,v0,1
    40ac:	7f004230 	andi	v0,v0,0x7f
    40b0:	80006330 	andi	v1,v1,0x80
    40b4:	25186200 	or	v1,v1,v0
    40b8:	000083a0 	sb	v1,0(a0)
    40bc:	0a01a228 	slti	v0,a1,266
    40c0:	12004010 	beqz	v0,0x410c
    40c4:	00000000 	nop
    40c8:	0200a104 	bgez	a1,0x40d4
    40cc:	2110a000 	move	v0,a1
    40d0:	1f00a224 	addiu	v0,a1,31
    40d4:	43110200 	sra	v0,v0,0x5
    40d8:	80180200 	sll	v1,v0,0x2
    40dc:	21186700 	addu	v1,v1,a3
    40e0:	40110200 	sll	v0,v0,0x5
    40e4:	2310a200 	subu	v0,a1,v0
    40e8:	7000638c 	lw	v1,112(v1)
    40ec:	04104900 	sllv	v0,t1,v0
    40f0:	24186200 	and	v1,v1,v0
    40f4:	05006014 	bnez	v1,0x410c
    40f8:	00000000 	nop
    40fc:	28000295 	lhu	v0,40(t0)
    4100:	00000000 	nop
    4104:	01004224 	addiu	v0,v0,1
    4108:	280002a5 	sh	v0,40(t0)
    410c:	0200a104 	bgez	a1,0x4118
    4110:	2118a000 	move	v1,a1
    4114:	1f00a324 	addiu	v1,a1,31
    4118:	43190300 	sra	v1,v1,0x5
    411c:	40210300 	sll	a0,v1,0x5
    4120:	2320a400 	subu	a0,a1,a0
    4124:	0100a524 	addiu	a1,a1,1
    4128:	80180300 	sll	v1,v1,0x2
    412c:	21186700 	addu	v1,v1,a3
    4130:	7000628c 	lw	v0,112(v1)
    4134:	04208900 	sllv	a0,t1,a0
    4138:	25104400 	or	v0,v0,a0
    413c:	700062ac 	sw	v0,112(v1)
    4140:	3a01a228 	slti	v0,a1,314
    4144:	d1ff4014 	bnez	v0,0x408c
    4148:	2c00c624 	addiu	a2,a2,44
    414c:	1800ab8f 	lw	t3,24(sp)
    4150:	00000000 	nop
    4154:	11006011 	beqz	t3,0x419c
    4158:	1d80103c 	lui	s0,0x801d
    415c:	c4ce1026 	addiu	s0,s0,-12604
    4160:	21200002 	move	a0,s0
    4164:	ffff0524 	li	a1,-1
    4168:	5753000c 	jal	0x14d5c
    416c:	05000624 	li	a2,5
    4170:	ecff0426 	addiu	a0,s0,-20
    4174:	ffff0524 	li	a1,-1
    4178:	5753000c 	jal	0x14d5c
    417c:	05000624 	li	a2,5
    4180:	ffbf0424 	li	a0,-16385
    4184:	1000028e 	lw	v0,16(s0)
    4188:	fcff038e 	lw	v1,-4(s0)
    418c:	24104400 	and	v0,v0,a0
    4190:	24186400 	and	v1,v1,a0
    4194:	100002ae 	sw	v0,16(s0)
    4198:	fcff03ae 	sw	v1,-4(s0)
    419c:	21280000 	move	a1,zero
    41a0:	1a80103c 	lui	s0,0x801a
    41a4:	288f1026 	addiu	s0,s0,-28888
    41a8:	3e000496 	lhu	a0,62(s0)
    41ac:	4bfc000c 	jal	0x3f12c
    41b0:	2130a000 	move	a2,a1
    41b4:	01000524 	li	a1,1
    41b8:	58000496 	lhu	a0,88(s0)
    41bc:	4bfc000c 	jal	0x3f12c
    41c0:	21300000 	move	a2,zero
    41c4:	02000524 	li	a1,2
    41c8:	40000496 	lhu	a0,64(s0)
    41cc:	4bfc000c 	jal	0x3f12c
    41d0:	21300000 	move	a2,zero
    41d4:	03000524 	li	a1,3
    41d8:	5a000496 	lhu	a0,90(s0)
    41dc:	4bfc000c 	jal	0x3f12c
    41e0:	21300000 	move	a2,zero
    41e4:	44000496 	lhu	a0,68(s0)
    41e8:	8efb000c 	jal	0x3ee38
    41ec:	21280000 	move	a1,zero
    41f0:	50000496 	lhu	a0,80(s0)
    41f4:	8efb000c 	jal	0x3ee38
    41f8:	01000524 	li	a1,1
    41fc:	4400bf8f 	lw	ra,68(sp)
    4200:	4000be8f 	lw	s8,64(sp)
    4204:	3c00b78f 	lw	s7,60(sp)
    4208:	3800b68f 	lw	s6,56(sp)
    420c:	3400b58f 	lw	s5,52(sp)
    4210:	3000b48f 	lw	s4,48(sp)
    4214:	2c00b38f 	lw	s3,44(sp)
    4218:	2800b28f 	lw	s2,40(sp)
    421c:	2400b18f 	lw	s1,36(sp)
    4220:	2000b08f 	lw	s0,32(sp)
    4224:	4800bd27 	addiu	sp,sp,72
    4228:	0800e003 	jr	ra
    422c:	00000000 	nop
    4230:	c0ffbd27 	addiu	sp,sp,-64
    4234:	3c00bfaf 	sw	ra,60(sp)
    4238:	3800b2af 	sw	s2,56(sp)
    423c:	3400b1af 	sw	s1,52(sp)
    4240:	dd58000c 	jal	0x16374
    4244:	3000b0af 	sw	s0,48(sp)
    4248:	ee5b000c 	jal	0x16fb8
    424c:	00000000 	nop
    4250:	3d84000c 	jal	0x210f4
    4254:	00000000 	nop
    4258:	5684000c 	jal	0x21158
    425c:	00000000 	nop
    4260:	685f010c 	jal	0x57da0
    4264:	00000000 	nop
    4268:	6a3b010c 	jal	0x4eda8
    426c:	00000000 	nop
    4270:	f72b010c 	jal	0x4afdc
    4274:	00000000 	nop
    4278:	294b010c 	jal	0x52ca4
    427c:	00000000 	nop
    4280:	04ef000c 	jal	0x3bc10
    4284:	00000000 	nop
    4288:	9d11010c 	jal	0x44674
    428c:	00000000 	nop
    4290:	6f56010c 	jal	0x559bc
    4294:	00000000 	nop
    4298:	16c8000c 	jal	0x32058
    429c:	00000000 	nop
    42a0:	4259000c 	jal	0x16508
    42a4:	00000000 	nop
    42a8:	5bc8000c 	jal	0x3216c
    42ac:	00000000 	nop
    42b0:	7f000424 	li	a0,127
    42b4:	11b4010c 	jal	0x6d044
    42b8:	21288000 	move	a1,a0
    42bc:	0180033c 	lui	v1,0x8001
    42c0:	f1036390 	lbu	v1,1009(v1)
    42c4:	02000224 	li	v0,2
    42c8:	2a006214 	bne	v1,v0,0x4374
    42cc:	0880023c 	lui	v0,0x8008
    42d0:	c47e4624 	addiu	a2,v0,32452
    42d4:	0300c388 	lwl	v1,3(a2)
    42d8:	0000c398 	lwr	v1,0(a2)
    42dc:	0700c488 	lwl	a0,7(a2)
    42e0:	0400c498 	lwr	a0,4(a2)
    42e4:	1300a3ab 	swl	v1,19(sp)
    42e8:	1000a3bb 	swr	v1,16(sp)
    42ec:	1700a4ab 	swl	a0,23(sp)
    42f0:	1400a4bb 	swr	a0,20(sp)
    42f4:	1000a427 	addiu	a0,sp,16
    42f8:	21280000 	move	a1,zero
    42fc:	2130a000 	move	a2,a1
    4300:	f9e6010c 	jal	0x79be4
    4304:	2138a000 	move	a3,a1
    4308:	21200000 	move	a0,zero
    430c:	7163010c 	jal	0x58dc4
    4310:	21288000 	move	a1,a0
    4314:	8a5e010c 	jal	0x57a28
    4318:	01001024 	li	s0,1
    431c:	0a8b010c 	jal	0x62c28
    4320:	21200000 	move	a0,zero
    4324:	0c005014 	bne	v0,s0,0x4358
    4328:	00000000 	nop
    432c:	8f5e010c 	jal	0x57a3c
    4330:	00000000 	nop
    4334:	1d80023c 	lui	v0,0x801d
    4338:	b563010c 	jal	0x58ed4
    433c:	90d150a0 	sb	s0,-11888(v0)
    4340:	5684000c 	jal	0x21158
    4344:	00000000 	nop
    4348:	38f0000c 	jal	0x3c0e0
    434c:	00000000 	nop
    4350:	df520008 	j	0x14b7c
    4354:	00000000 	nop
    4358:	8f5e010c 	jal	0x57a3c
    435c:	00000000 	nop
    4360:	1d80023c 	lui	v0,0x801d
    4364:	b563010c 	jal	0x58ed4
    4368:	90d150a0 	sb	s0,-11888(v0)
    436c:	5684000c 	jal	0x21158
    4370:	00000000 	nop
    4374:	5151000c 	jal	0x14544
    4378:	00000000 	nop
    437c:	1bcc000c 	jal	0x3306c
    4380:	00000000 	nop
    4384:	ba13010c 	jal	0x44ee8
    4388:	00000000 	nop
    438c:	befa000c 	jal	0x3eaf8
    4390:	00000000 	nop
    4394:	0a80043c 	lui	a0,0x800a
    4398:	88c88424 	addiu	a0,a0,-14200
    439c:	0500053c 	lui	a1,0x5
    43a0:	5154000c 	jal	0x15144
    43a4:	0064a534 	ori	a1,a1,0x6400
    43a8:	2985000c 	jal	0x214a4
    43ac:	00000000 	nop
    43b0:	8a5e010c 	jal	0x57a28
    43b4:	00000000 	nop
    43b8:	8f5e010c 	jal	0x57a3c
    43bc:	00000000 	nop
    43c0:	e40280af 	sw	zero,740(gp)
    43c4:	1a80023c 	lui	v0,0x801a
    43c8:	288f5224 	addiu	s2,v0,-28888
    43cc:	1800b127 	addiu	s1,sp,24
    43d0:	2800b027 	addiu	s0,sp,40
    43d4:	2d59000c 	jal	0x164b4
    43d8:	00000000 	nop
    43dc:	4259000c 	jal	0x16508
    43e0:	00000000 	nop
    43e4:	5d0b010c 	jal	0x42d74
    43e8:	00000000 	nop
    43ec:	da41010c 	jal	0x50768
    43f0:	00000000 	nop
    43f4:	c938010c 	jal	0x4e324
    43f8:	00000000 	nop
    43fc:	a94e010c 	jal	0x53aa4
    4400:	00000000 	nop
    4404:	10ef000c 	jal	0x3bc40
    4408:	00000000 	nop
    440c:	d75c010c 	jal	0x5735c
    4410:	1c0240a2 	sb	zero,540(s2)
    4414:	be15010c 	jal	0x456f8
    4418:	00000000 	nop
    441c:	21202002 	move	a0,s1
    4420:	cdf9000c 	jal	0x3e734
    4424:	21280002 	move	a1,s0
    4428:	21202002 	move	a0,s1
    442c:	a260010c 	jal	0x58288
    4430:	21280002 	move	a1,s0
    4434:	ff17010c 	jal	0x45ffc
    4438:	00000000 	nop
    443c:	8861010c 	jal	0x58620
    4440:	00000000 	nop
    4444:	21202002 	move	a0,s1
    4448:	bf9a000c 	jal	0x26afc
    444c:	21280002 	move	a1,s0
    4450:	e402828f 	lw	v0,740(gp)
    4454:	00000000 	nop
    4458:	deff4010 	beqz	v0,0x43d4
    445c:	00000000 	nop
    4460:	41dc010c 	jal	0x77104
    4464:	0a000424 	li	a0,10
    4468:	02000424 	li	a0,2
    446c:	21280000 	move	a1,zero
    4470:	00100624 	li	a2,4096
    4474:	2b40010c 	jal	0x500ac
    4478:	80000724 	li	a3,128
    447c:	41dc010c 	jal	0x77104
    4480:	0a000424 	li	a0,10
    4484:	e402838f 	lw	v1,740(gp)
    4488:	02000224 	li	v0,2
    448c:	05006210 	beq	v1,v0,0x44a4
    4490:	03000224 	li	v0,3
    4494:	07006210 	beq	v1,v0,0x44b4
    4498:	00000000 	nop
    449c:	f5520008 	j	0x14bd4
    44a0:	00000000 	nop
    44a4:	0451000c 	jal	0x14410
    44a8:	00000000 	nop
    44ac:	32530008 	j	0x14cc8
    44b0:	01000224 	li	v0,1
    44b4:	f58c010c 	jal	0x633d4
    44b8:	00000000 	nop
    44bc:	0451000c 	jal	0x14410
    44c0:	00000000 	nop
    44c4:	04000224 	li	v0,4
    44c8:	0180013c 	lui	at,0x8001
    44cc:	f00322a0 	sb	v0,1008(at)
    44d0:	0180013c 	lui	at,0x8001
    44d4:	f10320a0 	sb	zero,1009(at)
    44d8:	0180013c 	lui	at,0x8001
    44dc:	f20320a0 	sb	zero,1010(at)
    44e0:	3c00bf8f 	lw	ra,60(sp)
    44e4:	3800b28f 	lw	s2,56(sp)
    44e8:	3400b18f 	lw	s1,52(sp)
    44ec:	3000b08f 	lw	s0,48(sp)
    44f0:	4000bd27 	addiu	sp,sp,64
    44f4:	0800e003 	jr	ra
    44f8:	00000000 	nop
    44fc:	2110c000 	move	v0,a2
    4500:	08004010 	beqz	v0,0x4524
    4504:	ffffc624 	addiu	a2,a2,-1
    4508:	0000a28c 	lw	v0,0(a1)
    450c:	0400a524 	addiu	a1,a1,4
    4510:	2118c000 	move	v1,a2
    4514:	ffffc624 	addiu	a2,a2,-1
    4518:	000082ac 	sw	v0,0(a0)
    451c:	faff6014 	bnez	v1,0x4508
    4520:	04008424 	addiu	a0,a0,4
    4524:	0800e003 	jr	ra
    4528:	2110a000 	move	v0,a1
    452c:	2110c000 	move	v0,a2
    4530:	08004010 	beqz	v0,0x4554
    4534:	ffffc624 	addiu	a2,a2,-1
    4538:	0000a294 	lhu	v0,0(a1)
    453c:	0200a524 	addiu	a1,a1,2
    4540:	2118c000 	move	v1,a2
    4544:	ffffc624 	addiu	a2,a2,-1
    4548:	000082a4 	sh	v0,0(a0)
    454c:	faff6014 	bnez	v1,0x4538
    4550:	02008424 	addiu	a0,a0,2
    4554:	0800e003 	jr	ra
    4558:	2110a000 	move	v0,a1
    455c:	5c530008 	j	0x14d70
    4560:	2110c000 	move	v0,a2
    4564:	000085ac 	sw	a1,0(a0)
    4568:	04008424 	addiu	a0,a0,4
    456c:	2110c000 	move	v0,a2
    4570:	fcff4014 	bnez	v0,0x4564
    4574:	ffffc624 	addiu	a2,a2,-1
    4578:	0800e003 	jr	ra
    457c:	21108000 	move	v0,a0
    4580:	65530008 	j	0x14d94
    4584:	2110c000 	move	v0,a2
    4588:	000085a4 	sh	a1,0(a0)
    458c:	02008424 	addiu	a0,a0,2
    4590:	2110c000 	move	v0,a2
    4594:	fcff4014 	bnez	v0,0x4588
    4598:	ffffc624 	addiu	a2,a2,-1
    459c:	0800e003 	jr	ra
    45a0:	21108000 	move	v0,a0
    45a4:	00008390 	lbu	v1,0(a0)
    45a8:	ff000224 	li	v0,255
    45ac:	1a006210 	beq	v1,v0,0x4618
    45b0:	21288000 	move	a1,a0
    45b4:	21304000 	move	a2,v0
    45b8:	0f006014 	bnez	v1,0x45f8
    45bc:	00000000 	nop
    45c0:	0400828c 	lw	v0,4(a0)
    45c4:	00000000 	nop
    45c8:	0c004224 	addiu	v0,v0,12
    45cc:	21208200 	addu	a0,a0,v0
    45d0:	00008290 	lbu	v0,0(a0)
    45d4:	00000000 	nop
    45d8:	0f004014 	bnez	v0,0x4618
    45dc:	00000000 	nop
    45e0:	0400a28c 	lw	v0,4(a1)
    45e4:	0400838c 	lw	v1,4(a0)
    45e8:	0c004224 	addiu	v0,v0,12
    45ec:	21104300 	addu	v0,v0,v1
    45f0:	82530008 	j	0x14e08
    45f4:	0400a2ac 	sw	v0,4(a1)
    45f8:	0400828c 	lw	v0,4(a0)
    45fc:	00000000 	nop
    4600:	0c004224 	addiu	v0,v0,12
    4604:	21208200 	addu	a0,a0,v0
    4608:	00008390 	lbu	v1,0(a0)
    460c:	00000000 	nop
    4610:	e9ff6614 	bne	v1,a2,0x45b8
    4614:	00000000 	nop
    4618:	0800e003 	jr	ra
    461c:	00000000 	nop
    4620:	0800828c 	lw	v0,8(a0)
    4624:	00000000 	nop
    4628:	03004010 	beqz	v0,0x4638
    462c:	000080a0 	sb	zero,0(a0)
    4630:	000040ac 	sw	zero,0(v0)
    4634:	080080ac 	sw	zero,8(a0)
    4638:	ff000224 	li	v0,255
    463c:	010082a0 	sb	v0,1(a0)
    4640:	ffff0234 	li	v0,0xffff
    4644:	0800e003 	jr	ra
    4648:	020082a4 	sh	v0,2(a0)
    464c:	e0ffbd27 	addiu	sp,sp,-32
    4650:	1000b0af 	sw	s0,16(sp)
    4654:	21808000 	move	s0,a0
    4658:	1c00bfaf 	sw	ra,28(sp)
    465c:	1800b2af 	sw	s2,24(sp)
    4660:	1400b1af 	sw	s1,20(sp)
    4664:	00000392 	lbu	v1,0(s0)
    4668:	ff000224 	li	v0,255
    466c:	13006210 	beq	v1,v0,0x46bc
    4670:	00000000 	nop
    4674:	21304000 	move	a2,v0
    4678:	06006014 	bnez	v1,0x4694
    467c:	00000000 	nop
    4680:	0400028e 	lw	v0,4(s0)
    4684:	00000000 	nop
    4688:	2b104500 	sltu	v0,v0,a1
    468c:	39004010 	beqz	v0,0x4774
    4690:	21100002 	move	v0,s0
    4694:	0400028e 	lw	v0,4(s0)
    4698:	00000000 	nop
    469c:	0c004224 	addiu	v0,v0,12
    46a0:	21800202 	addu	s0,s0,v0
    46a4:	00000392 	lbu	v1,0(s0)
    46a8:	00000000 	nop
    46ac:	f2ff6614 	bne	v1,a2,0x4678
    46b0:	ff000224 	li	v0,255
    46b4:	21808000 	move	s0,a0
    46b8:	00008390 	lbu	v1,0(a0)
    46bc:	00000000 	nop
    46c0:	2c006210 	beq	v1,v0,0x4774
    46c4:	21100000 	move	v0,zero
    46c8:	01000424 	li	a0,1
    46cc:	21006414 	bne	v1,a0,0x4754
    46d0:	21880002 	move	s1,s0
    46d4:	01000324 	li	v1,1
    46d8:	0400028e 	lw	v0,4(s0)
    46dc:	00000000 	nop
    46e0:	0c004224 	addiu	v0,v0,12
    46e4:	21800202 	addu	s0,s0,v0
    46e8:	00000292 	lbu	v0,0(s0)
    46ec:	00000000 	nop
    46f0:	f9ff4310 	beq	v0,v1,0x46d8
    46f4:	23101102 	subu	v0,s0,s1
    46f8:	f4ff4224 	addiu	v0,v0,-12
    46fc:	2b104500 	sltu	v0,v0,a1
    4700:	18004014 	bnez	v0,0x4764
    4704:	00000000 	nop
    4708:	21802002 	move	s0,s1
    470c:	00002292 	lbu	v0,0(s1)
    4710:	00000000 	nop
    4714:	0b004414 	bne	v0,a0,0x4744
    4718:	01001224 	li	s2,1
    471c:	8853000c 	jal	0x14e20
    4720:	21200002 	move	a0,s0
    4724:	0400028e 	lw	v0,4(s0)
    4728:	00000000 	nop
    472c:	0c004224 	addiu	v0,v0,12
    4730:	21800202 	addu	s0,s0,v0
    4734:	00000292 	lbu	v0,0(s0)
    4738:	00000000 	nop
    473c:	f7ff5210 	beq	v0,s2,0x471c
    4740:	00000000 	nop
    4744:	6953000c 	jal	0x14da4
    4748:	21202002 	move	a0,s1
    474c:	dd530008 	j	0x14f74
    4750:	21102002 	move	v0,s1
    4754:	0400028e 	lw	v0,4(s0)
    4758:	00000000 	nop
    475c:	0c004224 	addiu	v0,v0,12
    4760:	21800202 	addu	s0,s0,v0
    4764:	00000392 	lbu	v1,0(s0)
    4768:	ff000224 	li	v0,255
    476c:	d7ff6214 	bne	v1,v0,0x46cc
    4770:	21100000 	move	v0,zero
    4774:	1c00bf8f 	lw	ra,28(sp)
    4778:	1800b28f 	lw	s2,24(sp)
    477c:	1400b18f 	lw	s1,20(sp)
    4780:	1000b08f 	lw	s0,16(sp)
    4784:	2000bd27 	addiu	sp,sp,32
    4788:	0800e003 	jr	ra
    478c:	00000000 	nop
    4790:	d8ffbd27 	addiu	sp,sp,-40
    4794:	1000b0af 	sw	s0,16(sp)
    4798:	21808000 	move	s0,a0
    479c:	2000bfaf 	sw	ra,32(sp)
    47a0:	1c00b3af 	sw	s3,28(sp)
    47a4:	1800b2af 	sw	s2,24(sp)
    47a8:	1400b1af 	sw	s1,20(sp)
    47ac:	00000392 	lbu	v1,0(s0)
    47b0:	ff000224 	li	v0,255
    47b4:	13006210 	beq	v1,v0,0x4804
    47b8:	03001324 	li	s3,3
    47bc:	21904000 	move	s2,v0
    47c0:	08007314 	bne	v1,s3,0x47e4
    47c4:	00000000 	nop
    47c8:	03001124 	li	s1,3
    47cc:	b556000c 	jal	0x15ad4
    47d0:	00000000 	nop
    47d4:	00000292 	lbu	v0,0(s0)
    47d8:	00000000 	nop
    47dc:	fbff5110 	beq	v0,s1,0x47cc
    47e0:	00000000 	nop
    47e4:	0400028e 	lw	v0,4(s0)
    47e8:	00000000 	nop
    47ec:	0c004224 	addiu	v0,v0,12
    47f0:	21800202 	addu	s0,s0,v0
    47f4:	00000392 	lbu	v1,0(s0)
    47f8:	00000000 	nop
    47fc:	f0ff7214 	bne	v1,s2,0x47c0
    4800:	00000000 	nop
    4804:	2000bf8f 	lw	ra,32(sp)
    4808:	1c00b38f 	lw	s3,28(sp)
    480c:	1800b28f 	lw	s2,24(sp)
    4810:	1400b18f 	lw	s1,20(sp)
    4814:	1000b08f 	lw	s0,16(sp)
    4818:	2800bd27 	addiu	sp,sp,40
    481c:	0800e003 	jr	ra
    4820:	00000000 	nop
    4824:	e0ffbd27 	addiu	sp,sp,-32
    4828:	1400b1af 	sw	s1,20(sp)
    482c:	21888000 	move	s1,a0
    4830:	1000b0af 	sw	s0,16(sp)
    4834:	21802002 	move	s0,s1
    4838:	1c00bfaf 	sw	ra,28(sp)
    483c:	e453000c 	jal	0x14f90
    4840:	1800b2af 	sw	s2,24(sp)
    4844:	00002392 	lbu	v1,0(s1)
    4848:	ff000224 	li	v0,255
    484c:	36006210 	beq	v1,v0,0x4928
    4850:	00000000 	nop
    4854:	0400028e 	lw	v0,4(s0)
    4858:	00000392 	lbu	v1,0(s0)
    485c:	21100202 	addu	v0,s0,v0
    4860:	0c005224 	addiu	s2,v0,12
    4864:	01000224 	li	v0,1
    4868:	05006214 	bne	v1,v0,0x4880
    486c:	02000224 	li	v0,2
    4870:	8853000c 	jal	0x14e20
    4874:	21200002 	move	a0,s0
    4878:	00000392 	lbu	v1,0(s0)
    487c:	02000224 	li	v0,2
    4880:	1b006214 	bne	v1,v0,0x48f0
    4884:	00000000 	nop
    4888:	18001112 	beq	s0,s1,0x48ec
    488c:	21200002 	move	a0,s0
    4890:	0400828c 	lw	v0,4(a0)
    4894:	21802002 	move	s0,s1
    4898:	0c004224 	addiu	v0,v0,12
    489c:	82180200 	srl	v1,v0,0x2
    48a0:	0000828c 	lw	v0,0(a0)
    48a4:	04008424 	addiu	a0,a0,4
    48a8:	ffff6324 	addiu	v1,v1,-1
    48ac:	000002ae 	sw	v0,0(s0)
    48b0:	fbff6014 	bnez	v1,0x48a0
    48b4:	04001026 	addiu	s0,s0,4
    48b8:	68d0000c 	jal	0x341a0
    48bc:	00000000 	nop
    48c0:	27d4000c 	jal	0x3509c
    48c4:	00000000 	nop
    48c8:	89d0000c 	jal	0x34224
    48cc:	00000000 	nop
    48d0:	48d4000c 	jal	0x35120
    48d4:	00000000 	nop
    48d8:	0c002326 	addiu	v1,s1,12
    48dc:	0800228e 	lw	v0,8(s1)
    48e0:	21880002 	move	s1,s0
    48e4:	3c540008 	j	0x150f0
    48e8:	000043ac 	sw	v1,0(v0)
    48ec:	21884002 	move	s1,s2
    48f0:	00004392 	lbu	v1,0(s2)
    48f4:	ff000224 	li	v0,255
    48f8:	d6ff6214 	bne	v1,v0,0x4854
    48fc:	21804002 	move	s0,s2
    4900:	00002392 	lbu	v1,0(s1)
    4904:	00000000 	nop
    4908:	07006210 	beq	v1,v0,0x4928
    490c:	23101102 	subu	v0,s0,s1
    4910:	f4ff4224 	addiu	v0,v0,-12
    4914:	000020a2 	sb	zero,0(s1)
    4918:	040022ae 	sw	v0,4(s1)
    491c:	010020a2 	sb	zero,1(s1)
    4920:	020020a6 	sh	zero,2(s1)
    4924:	080020ae 	sw	zero,8(s1)
    4928:	1c00bf8f 	lw	ra,28(sp)
    492c:	1800b28f 	lw	s2,24(sp)
    4930:	1400b18f 	lw	s1,20(sp)
    4934:	1000b08f 	lw	s0,16(sp)
    4938:	2000bd27 	addiu	sp,sp,32
    493c:	0800e003 	jr	ra
    4940:	00000000 	nop
    4944:	e8ffa224 	addiu	v0,a1,-24
    4948:	f4ffa524 	addiu	a1,a1,-12
    494c:	000080a0 	sb	zero,0(a0)
    4950:	040082ac 	sw	v0,4(a0)
    4954:	21208500 	addu	a0,a0,a1
    4958:	ff000224 	li	v0,255
    495c:	0800e003 	jr	ra
    4960:	000082a0 	sb	v0,0(a0)
    4964:	e0ffbd27 	addiu	sp,sp,-32
    4968:	1000b0af 	sw	s0,16(sp)
    496c:	21808000 	move	s0,a0
    4970:	1400b1af 	sw	s1,20(sp)
    4974:	2188a000 	move	s1,a1
    4978:	1800b2af 	sw	s2,24(sp)
    497c:	1c00bfaf 	sw	ra,28(sp)
    4980:	9353000c 	jal	0x14e4c
    4984:	2190c000 	move	s2,a2
    4988:	21184000 	move	v1,v0
    498c:	09006014 	bnez	v1,0x49b4
    4990:	00000000 	nop
    4994:	0954000c 	jal	0x15024
    4998:	21200002 	move	a0,s0
    499c:	21200002 	move	a0,s0
    49a0:	9353000c 	jal	0x14e4c
    49a4:	21282002 	move	a1,s1
    49a8:	21184000 	move	v1,v0
    49ac:	19006010 	beqz	v1,0x4a14
    49b0:	21100000 	move	v0,zero
    49b4:	0400648c 	lw	a0,4(v1)
    49b8:	00000000 	nop
    49bc:	f4ff8224 	addiu	v0,a0,-12
    49c0:	23285100 	subu	a1,v0,s1
    49c4:	0c08a228 	slti	v0,a1,2060
    49c8:	08004014 	bnez	v0,0x49ec
    49cc:	21107100 	addu	v0,v1,s1
    49d0:	0c0040a0 	sb	zero,12(v0)
    49d4:	0c004224 	addiu	v0,v0,12
    49d8:	040045ac 	sw	a1,4(v0)
    49dc:	010040a0 	sb	zero,1(v0)
    49e0:	020040a4 	sh	zero,2(v0)
    49e4:	7c540008 	j	0x151f0
    49e8:	080040ac 	sw	zero,8(v0)
    49ec:	21888000 	move	s1,a0
    49f0:	02000224 	li	v0,2
    49f4:	000062a0 	sb	v0,0(v1)
    49f8:	0c006224 	addiu	v0,v1,12
    49fc:	040071ac 	sw	s1,4(v1)
    4a00:	010060a0 	sb	zero,1(v1)
    4a04:	020060a4 	sh	zero,2(v1)
    4a08:	02004012 	beqz	s2,0x4a14
    4a0c:	080072ac 	sw	s2,8(v1)
    4a10:	000042ae 	sw	v0,0(s2)
    4a14:	1c00bf8f 	lw	ra,28(sp)
    4a18:	1800b28f 	lw	s2,24(sp)
    4a1c:	1400b18f 	lw	s1,20(sp)
    4a20:	1000b08f 	lw	s0,16(sp)
    4a24:	2000bd27 	addiu	sp,sp,32
    4a28:	0800e003 	jr	ra
    4a2c:	00000000 	nop
    4a30:	e8ffbd27 	addiu	sp,sp,-24
    4a34:	1000bfaf 	sw	ra,16(sp)
    4a38:	8853000c 	jal	0x14e20
    4a3c:	f4ff8424 	addiu	a0,a0,-12
    4a40:	1000bf8f 	lw	ra,16(sp)
    4a44:	1800bd27 	addiu	sp,sp,24
    4a48:	0800e003 	jr	ra
    4a4c:	00000000 	nop
    4a50:	0800e003 	jr	ra
    4a54:	f4ff85a0 	sb	a1,-12(a0)
    4a58:	f4ff8290 	lbu	v0,-12(a0)
    4a5c:	0800e003 	jr	ra
    4a60:	00000000 	nop
    4a64:	0800e003 	jr	ra
    4a68:	f5ff85a0 	sb	a1,-11(a0)
    4a6c:	f5ff8290 	lbu	v0,-11(a0)
    4a70:	0800e003 	jr	ra
    4a74:	00000000 	nop
    4a78:	0800e003 	jr	ra
    4a7c:	f6ff85a4 	sh	a1,-10(a0)
    4a80:	f6ff8294 	lhu	v0,-10(a0)
    4a84:	0800e003 	jr	ra
    4a88:	00000000 	nop
    4a8c:	e8ffbd27 	addiu	sp,sp,-24
    4a90:	1000bfaf 	sw	ra,16(sp)
    4a94:	0de2010c 	jal	0x78834
    4a98:	00000000 	nop
    4a9c:	1f00043c 	lui	a0,0x1f
    4aa0:	ffff8434 	ori	a0,a0,0xffff
    4aa4:	21284000 	move	a1,v0
    4aa8:	0080033c 	lui	v1,0x8000
    4aac:	2318a300 	subu	v1,a1,v1
    4ab0:	2b208300 	sltu	a0,a0,v1
    4ab4:	02008014 	bnez	a0,0x4ac0
    4ab8:	21100000 	move	v0,zero
    4abc:	2110a000 	move	v0,a1
    4ac0:	1000bf8f 	lw	ra,16(sp)
    4ac4:	1800bd27 	addiu	sp,sp,24
    4ac8:	0800e003 	jr	ra
    4acc:	00000000 	nop
    4ad0:	e8ffbd27 	addiu	sp,sp,-24
    4ad4:	1000bfaf 	sw	ra,16(sp)
    4ad8:	07008224 	addiu	v0,a0,7
    4adc:	f8ff0424 	li	a0,-8
    4ae0:	a354000c 	jal	0x1528c
    4ae4:	24204400 	and	a0,v0,a0
    4ae8:	1000bf8f 	lw	ra,16(sp)
    4aec:	1800bd27 	addiu	sp,sp,24
    4af0:	0800e003 	jr	ra
    4af4:	00000000 	nop
    4af8:	e8ffbd27 	addiu	sp,sp,-24
    4afc:	03008010 	beqz	a0,0x4b0c
    4b00:	1000bfaf 	sw	ra,16(sp)
    4b04:	39e2010c 	jal	0x788e4
    4b08:	00000000 	nop
    4b0c:	1000bf8f 	lw	ra,16(sp)
    4b10:	1800bd27 	addiu	sp,sp,24
    4b14:	0800e003 	jr	ra
    4b18:	00000000 	nop
    4b1c:	e8ffbd27 	addiu	sp,sp,-24
    4b20:	1000bfaf 	sw	ra,16(sp)
    4b24:	8861010c 	jal	0x58620
    4b28:	00000000 	nop
    4b2c:	ff17010c 	jal	0x45ffc
    4b30:	00000000 	nop
    4b34:	3385000c 	jal	0x214cc
    4b38:	00000000 	nop
    4b3c:	98e6010c 	jal	0x79a60
    4b40:	21200000 	move	a0,zero
    4b44:	41dc010c 	jal	0x77104
    4b48:	21200000 	move	a0,zero
    4b4c:	1000bf8f 	lw	ra,16(sp)
    4b50:	1800bd27 	addiu	sp,sp,24
    4b54:	0800e003 	jr	ra
    4b58:	00000000 	nop
    4b5c:	e8ffbd27 	addiu	sp,sp,-24
    4b60:	0980023c 	lui	v0,0x8009
    4b64:	00824324 	addiu	v1,v0,-32256
    4b68:	1400bfaf 	sw	ra,20(sp)
    4b6c:	1000b0af 	sw	s0,16(sp)
    4b70:	0c00628c 	lw	v0,12(v1)
    4b74:	00000000 	nop
    4b78:	08004014 	bnez	v0,0x4b9c
    4b7c:	0980023c 	lui	v0,0x8009
    4b80:	21806000 	move	s0,v1
    4b84:	41dc010c 	jal	0x77104
    4b88:	21200000 	move	a0,zero
    4b8c:	0c00028e 	lw	v0,12(s0)
    4b90:	00000000 	nop
    4b94:	fbff4010 	beqz	v0,0x4b84
    4b98:	0980023c 	lui	v0,0x8009
    4b9c:	0c8240ac 	sw	zero,-32244(v0)
    4ba0:	1400bf8f 	lw	ra,20(sp)
    4ba4:	1000b08f 	lw	s0,16(sp)
    4ba8:	1800bd27 	addiu	sp,sp,24
    4bac:	0800e003 	jr	ra
    4bb0:	00000000 	nop
    4bb4:	e8ffbd27 	addiu	sp,sp,-24
    4bb8:	0980043c 	lui	a0,0x8009
    4bbc:	00828424 	addiu	a0,a0,-32256
    4bc0:	1000bfaf 	sw	ra,16(sp)
    4bc4:	0400828c 	lw	v0,4(a0)
    4bc8:	00000000 	nop
    4bcc:	01004224 	addiu	v0,v0,1
    4bd0:	040082ac 	sw	v0,4(a0)
    4bd4:	1a80023c 	lui	v0,0x801a
    4bd8:	288f4524 	addiu	a1,v0,-28888
    4bdc:	0c00828c 	lw	v0,12(a0)
    4be0:	3300a390 	lbu	v1,51(a1)
    4be4:	01004224 	addiu	v0,v0,1
    4be8:	01006324 	addiu	v1,v1,1
    4bec:	0c0082ac 	sw	v0,12(a0)
    4bf0:	3300a3a0 	sb	v1,51(a1)
    4bf4:	ff006330 	andi	v1,v1,0xff
    4bf8:	3c000224 	li	v0,60
    4bfc:	05006214 	bne	v1,v0,0x4c14
    4c00:	00000000 	nop
    4c04:	3400a28c 	lw	v0,52(a1)
    4c08:	3300a0a0 	sb	zero,51(a1)
    4c0c:	01004224 	addiu	v0,v0,1
    4c10:	3400a2ac 	sw	v0,52(a1)
    4c14:	d15d010c 	jal	0x57744
    4c18:	00000000 	nop
    4c1c:	1000bf8f 	lw	ra,16(sp)
    4c20:	1800bd27 	addiu	sp,sp,24
    4c24:	0800e003 	jr	ra
    4c28:	00000000 	nop
    4c2c:	d8ffbd27 	addiu	sp,sp,-40
    4c30:	0980023c 	lui	v0,0x8009
    4c34:	1800b0af 	sw	s0,24(sp)
    4c38:	d88b508c 	lw	s0,-29736(v0)
    4c3c:	ff008430 	andi	a0,a0,0xff
    4c40:	1c00b1af 	sw	s1,28(sp)
    4c44:	02001124 	li	s1,2
    4c48:	0e009114 	bne	a0,s1,0x4c84
    4c4c:	2000bfaf 	sw	ra,32(sp)
    4c50:	00000292 	lbu	v0,0(s0)
    4c54:	00000000 	nop
    4c58:	ff004330 	andi	v1,v0,0xff
    4c5c:	1c006010 	beqz	v1,0x4cd0
    4c60:	00000000 	nop
    4c64:	1a006004 	bltz	v1,0x4cd0
    4c68:	05006228 	slti	v0,v1,5
    4c6c:	18004010 	beqz	v0,0x4cd0
    4c70:	02006228 	slti	v0,v1,2
    4c74:	16004014 	bnez	v0,0x4cd0
    4c78:	21200000 	move	a0,zero
    4c7c:	31550008 	j	0x154c4
    4c80:	240000ae 	sw	zero,36(s0)
    4c84:	05000224 	li	v0,5
    4c88:	11008214 	bne	a0,v0,0x4cd0
    4c8c:	00000000 	nop
    4c90:	00000292 	lbu	v0,0(s0)
    4c94:	00000000 	nop
    4c98:	ff004330 	andi	v1,v0,0xff
    4c9c:	0c006010 	beqz	v1,0x4cd0
    4ca0:	00000000 	nop
    4ca4:	0a006004 	bltz	v1,0x4cd0
    4ca8:	05006228 	slti	v0,v1,5
    4cac:	08004010 	beqz	v0,0x4cd0
    4cb0:	02006228 	slti	v0,v1,2
    4cb4:	06004014 	bnez	v0,0x4cd0
    4cb8:	21200000 	move	a0,zero
    4cbc:	ffff0224 	li	v0,-1
    4cc0:	240002ae 	sw	v0,36(s0)
    4cc4:	c3ae010c 	jal	0x6bb0c
    4cc8:	00000000 	nop
    4ccc:	010011a2 	sb	s1,1(s0)
    4cd0:	2000bf8f 	lw	ra,32(sp)
    4cd4:	1c00b18f 	lw	s1,28(sp)
    4cd8:	1800b08f 	lw	s0,24(sp)
    4cdc:	2800bd27 	addiu	sp,sp,40
    4ce0:	0800e003 	jr	ra
    4ce4:	00000000 	nop
    4ce8:	c8febd27 	addiu	sp,sp,-312
    4cec:	0980023c 	lui	v0,0x8009
    4cf0:	ff008430 	andi	a0,a0,0xff
    4cf4:	3001b0af 	sw	s0,304(sp)
    4cf8:	d88b508c 	lw	s0,-29736(v0)
    4cfc:	01000224 	li	v0,1
    4d00:	2a008214 	bne	a0,v0,0x4dac
    4d04:	3401bfaf 	sw	ra,308(sp)
    4d08:	00000292 	lbu	v0,0(s0)
    4d0c:	00000000 	nop
    4d10:	ff004330 	andi	v1,v0,0xff
    4d14:	3c006010 	beqz	v1,0x4e08
    4d18:	00000000 	nop
    4d1c:	3a006004 	bltz	v1,0x4e08
    4d20:	05006228 	slti	v0,v1,5
    4d24:	38004010 	beqz	v0,0x4e08
    4d28:	02006228 	slti	v0,v1,2
    4d2c:	36004014 	bnez	v0,0x4e08
    4d30:	00000000 	nop
    4d34:	1c00048e 	lw	a0,28(s0)
    4d38:	2fa4010c 	jal	0x690bc
    4d3c:	03000524 	li	a1,3
    4d40:	fcff4010 	beqz	v0,0x4d34
    4d44:	00000000 	nop
    4d48:	1c00048e 	lw	a0,28(s0)
    4d4c:	2fa4010c 	jal	0x690bc
    4d50:	00020524 	li	a1,512
    4d54:	fcff4010 	beqz	v0,0x4d48
    4d58:	1800a427 	addiu	a0,sp,24
    4d5c:	1c00028e 	lw	v0,28(s0)
    4d60:	00000000 	nop
    4d64:	00084224 	addiu	v0,v0,2048
    4d68:	1c0002ae 	sw	v0,28(s0)
    4d6c:	2fa4010c 	jal	0x690bc
    4d70:	46000524 	li	a1,70
    4d74:	fdff4010 	beqz	v0,0x4d6c
    4d78:	1800a427 	addiu	a0,sp,24
    4d7c:	2400028e 	lw	v0,36(s0)
    4d80:	00000000 	nop
    4d84:	ffff4224 	addiu	v0,v0,-1
    4d88:	1f004014 	bnez	v0,0x4e08
    4d8c:	240002ae 	sw	v0,36(s0)
    4d90:	33a3010c 	jal	0x68ccc
    4d94:	21200000 	move	a0,zero
    4d98:	02000224 	li	v0,2
    4d9c:	010002a2 	sb	v0,1(s0)
    4da0:	02000424 	li	a0,2
    4da4:	80550008 	j	0x15600
    4da8:	21280000 	move	a1,zero
    4dac:	05000224 	li	v0,5
    4db0:	15008214 	bne	a0,v0,0x4e08
    4db4:	00000000 	nop
    4db8:	00000292 	lbu	v0,0(s0)
    4dbc:	00000000 	nop
    4dc0:	ff004330 	andi	v1,v0,0xff
    4dc4:	10006010 	beqz	v1,0x4e08
    4dc8:	00000000 	nop
    4dcc:	0e006004 	bltz	v1,0x4e08
    4dd0:	05006228 	slti	v0,v1,5
    4dd4:	0c004010 	beqz	v0,0x4e08
    4dd8:	02006228 	slti	v0,v1,2
    4ddc:	0a004014 	bnez	v0,0x4e08
    4de0:	21200000 	move	a0,zero
    4de4:	ffff0224 	li	v0,-1
    4de8:	33a3010c 	jal	0x68ccc
    4dec:	240002ae 	sw	v0,36(s0)
    4df0:	02000424 	li	a0,2
    4df4:	21280000 	move	a1,zero
    4df8:	21108000 	move	v0,a0
    4dfc:	010002a2 	sb	v0,1(s0)
    4e00:	8755000c 	jal	0x1561c
    4e04:	00000000 	nop
    4e08:	3401bf8f 	lw	ra,308(sp)
    4e0c:	3001b08f 	lw	s0,304(sp)
    4e10:	3801bd27 	addiu	sp,sp,312
    4e14:	0800e003 	jr	ra
    4e18:	00000000 	nop
    4e1c:	e8ffbd27 	addiu	sp,sp,-24
    4e20:	0980023c 	lui	v0,0x8009
    4e24:	ff008430 	andi	a0,a0,0xff
    4e28:	1000b0af 	sw	s0,16(sp)
    4e2c:	d88b508c 	lw	s0,-29736(v0)
    4e30:	02000224 	li	v0,2
    4e34:	65008214 	bne	a0,v0,0x4fcc
    4e38:	1400bfaf 	sw	ra,20(sp)
    4e3c:	00000292 	lbu	v0,0(s0)
    4e40:	00000000 	nop
    4e44:	ff004330 	andi	v1,v0,0xff
    4e48:	7a006010 	beqz	v1,0x5034
    4e4c:	00000000 	nop
    4e50:	78006004 	bltz	v1,0x5034
    4e54:	05006228 	slti	v0,v1,5
    4e58:	76004010 	beqz	v0,0x5034
    4e5c:	02006228 	slti	v0,v1,2
    4e60:	74004014 	bnez	v0,0x5034
    4e64:	00000000 	nop
    4e68:	01000292 	lbu	v0,1(s0)
    4e6c:	01000624 	li	a2,1
    4e70:	ff004330 	andi	v1,v0,0xff
    4e74:	6f006610 	beq	v1,a2,0x5034
    4e78:	02006228 	slti	v0,v1,2
    4e7c:	05004010 	beqz	v0,0x4e94
    4e80:	00000000 	nop
    4e84:	07006010 	beqz	v1,0x4ea4
    4e88:	00000000 	nop
    4e8c:	0d560008 	j	0x15834
    4e90:	00000000 	nop
    4e94:	1a006410 	beq	v1,a0,0x4f00
    4e98:	00000000 	nop
    4e9c:	0d560008 	j	0x15834
    4ea0:	00000000 	nop
    4ea4:	1b00028a 	lwl	v0,27(s0)
    4ea8:	1800029a 	lwr	v0,24(s0)
    4eac:	00000000 	nop
    4eb0:	170002aa 	swl	v0,23(s0)
    4eb4:	140002ba 	swr	v0,20(s0)
    4eb8:	0180043c 	lui	a0,0x8001
    4ebc:	2800028e 	lw	v0,40(s0)
    4ec0:	2000038e 	lw	v1,32(s0)
    4ec4:	e8548424 	addiu	a0,a0,21736
    4ec8:	010006a2 	sb	a2,1(s0)
    4ecc:	240002ae 	sw	v0,36(s0)
    4ed0:	33a3010c 	jal	0x68ccc
    4ed4:	1c0003ae 	sw	v1,28(s0)
    4ed8:	0180043c 	lui	a0,0x8001
    4edc:	2ea3010c 	jal	0x68cb8
    4ee0:	1c568424 	addiu	a0,a0,22044
    4ee4:	06000424 	li	a0,6
    4ee8:	87a3010c 	jal	0x68e1c
    4eec:	21280000 	move	a1,zero
    4ef0:	fdff4010 	beqz	v0,0x4ee8
    4ef4:	06000424 	li	a0,6
    4ef8:	0d560008 	j	0x15834
    4efc:	00000000 	nop
    4f00:	00000292 	lbu	v0,0(s0)
    4f04:	00000000 	nop
    4f08:	28004414 	bne	v0,a0,0x4fac
    4f0c:	00000000 	nop
    4f10:	2400028e 	lw	v0,36(s0)
    4f14:	00000000 	nop
    4f18:	0a004010 	beqz	v0,0x4f44
    4f1c:	00000000 	nop
    4f20:	010000a2 	sb	zero,1(s0)
    4f24:	15000424 	li	a0,21
    4f28:	18000526 	addiu	a1,s0,24
    4f2c:	38a3010c 	jal	0x68ce0
    4f30:	21300000 	move	a2,zero
    4f34:	fcff4010 	beqz	v0,0x4f28
    4f38:	15000424 	li	a0,21
    4f3c:	0d560008 	j	0x15834
    4f40:	00000000 	nop
    4f44:	2000048e 	lw	a0,32(s0)
    4f48:	2800058e 	lw	a1,40(s0)
    4f4c:	de56000c 	jal	0x15b78
    4f50:	00000000 	nop
    4f54:	0a004010 	beqz	v0,0x4f80
    4f58:	00000000 	nop
    4f5c:	010000a2 	sb	zero,1(s0)
    4f60:	15000424 	li	a0,21
    4f64:	18000526 	addiu	a1,s0,24
    4f68:	38a3010c 	jal	0x68ce0
    4f6c:	21300000 	move	a2,zero
    4f70:	fcff4010 	beqz	v0,0x4f64
    4f74:	15000424 	li	a0,21
    4f78:	0d560008 	j	0x15834
    4f7c:	00000000 	nop
    4f80:	2c00028e 	lw	v0,44(s0)
    4f84:	00000000 	nop
    4f88:	04004010 	beqz	v0,0x4f9c
    4f8c:	00000000 	nop
    4f90:	2000048e 	lw	a0,32(s0)
    4f94:	09f84000 	jalr	v0
    4f98:	00000000 	nop
    4f9c:	1256000c 	jal	0x15848
    4fa0:	21200002 	move	a0,s0
    4fa4:	0d560008 	j	0x15834
    4fa8:	00000000 	nop
    4fac:	2c00028e 	lw	v0,44(s0)
    4fb0:	00000000 	nop
    4fb4:	1f004010 	beqz	v0,0x5034
    4fb8:	00000000 	nop
    4fbc:	09f84000 	jalr	v0
    4fc0:	21200002 	move	a0,s0
    4fc4:	0d560008 	j	0x15834
    4fc8:	00000000 	nop
    4fcc:	03000224 	li	v0,3
    4fd0:	04008214 	bne	a0,v0,0x4fe4
    4fd4:	05000224 	li	v0,5
    4fd8:	00000292 	lbu	v0,0(s0)
    4fdc:	0d560008 	j	0x15834
    4fe0:	00000000 	nop
    4fe4:	13008214 	bne	a0,v0,0x5034
    4fe8:	00000000 	nop
    4fec:	00000292 	lbu	v0,0(s0)
    4ff0:	00000000 	nop
    4ff4:	ff004330 	andi	v1,v0,0xff
    4ff8:	0e006010 	beqz	v1,0x5034
    4ffc:	00000000 	nop
    5000:	0c006004 	bltz	v1,0x5034
    5004:	05006228 	slti	v0,v1,5
    5008:	0a004010 	beqz	v0,0x5034
    500c:	02006228 	slti	v0,v1,2
    5010:	08004014 	bnez	v0,0x5034
    5014:	00000000 	nop
    5018:	010000a2 	sb	zero,1(s0)
    501c:	15000424 	li	a0,21
    5020:	18000526 	addiu	a1,s0,24
    5024:	38a3010c 	jal	0x68ce0
    5028:	21300000 	move	a2,zero
    502c:	fcff4010 	beqz	v0,0x5020
    5030:	15000424 	li	a0,21
    5034:	1400bf8f 	lw	ra,20(sp)
    5038:	1000b08f 	lw	s0,16(sp)
    503c:	1800bd27 	addiu	sp,sp,24
    5040:	0800e003 	jr	ra
    5044:	00000000 	nop
    5048:	e8ffbd27 	addiu	sp,sp,-24
    504c:	1000b0af 	sw	s0,16(sp)
    5050:	21808000 	move	s0,a0
    5054:	1400bfaf 	sw	ra,20(sp)
    5058:	000000a2 	sb	zero,0(s0)
    505c:	010000a2 	sb	zero,1(s0)
    5060:	34001026 	addiu	s0,s0,52
    5064:	0980023c 	lui	v0,0x8009
    5068:	d48b4224 	addiu	v0,v0,-29740
    506c:	02000216 	bne	s0,v0,0x5078
    5070:	00000000 	nop
    5074:	40f61026 	addiu	s0,s0,-2496
    5078:	040050ac 	sw	s0,4(v0)
    507c:	00000292 	lbu	v0,0(s0)
    5080:	00000000 	nop
    5084:	0e004010 	beqz	v0,0x50c0
    5088:	00000000 	nop
    508c:	33a3010c 	jal	0x68ccc
    5090:	21200000 	move	a0,zero
    5094:	0180043c 	lui	a0,0x8001
    5098:	2ea3010c 	jal	0x68cb8
    509c:	1c568424 	addiu	a0,a0,22044
    50a0:	15000424 	li	a0,21
    50a4:	18000526 	addiu	a1,s0,24
    50a8:	38a3010c 	jal	0x68ce0
    50ac:	21300000 	move	a2,zero
    50b0:	fcff4010 	beqz	v0,0x50a4
    50b4:	15000424 	li	a0,21
    50b8:	38560008 	j	0x158e0
    50bc:	00000000 	nop
    50c0:	33a3010c 	jal	0x68ccc
    50c4:	21200000 	move	a0,zero
    50c8:	2ea3010c 	jal	0x68cb8
    50cc:	21200000 	move	a0,zero
    50d0:	09000424 	li	a0,9
    50d4:	21280000 	move	a1,zero
    50d8:	38a3010c 	jal	0x68ce0
    50dc:	2130a000 	move	a2,a1
    50e0:	1400bf8f 	lw	ra,20(sp)
    50e4:	1000b08f 	lw	s0,16(sp)
    50e8:	1800bd27 	addiu	sp,sp,24
    50ec:	0800e003 	jr	ra
    50f0:	00000000 	nop
    50f4:	ff008330 	andi	v1,a0,0xff
    50f8:	02190300 	srl	v1,v1,0x4
    50fc:	80100300 	sll	v0,v1,0x2
    5100:	21104300 	addu	v0,v0,v1
    5104:	40100200 	sll	v0,v0,0x1
    5108:	0f008430 	andi	a0,a0,0xf
    510c:	0800e003 	jr	ra
    5110:	21104400 	addu	v0,v0,a0
    5114:	ff008430 	andi	a0,a0,0xff
    5118:	cccc023c 	lui	v0,0xcccc
    511c:	cdcc4234 	ori	v0,v0,0xcccd
    5120:	19008200 	multu	a0,v0
    5124:	10300000 	mfhi	a2
    5128:	c2280600 	srl	a1,a2,0x3
    512c:	ff00a230 	andi	v0,a1,0xff
    5130:	00110200 	sll	v0,v0,0x4
    5134:	80180500 	sll	v1,a1,0x2
    5138:	21186500 	addu	v1,v1,a1
    513c:	40180300 	sll	v1,v1,0x1
    5140:	23208300 	subu	a0,a0,v1
    5144:	ff008430 	andi	a0,a0,0xff
    5148:	0800e003 	jr	ra
    514c:	25104400 	or	v0,v0,a0
    5150:	e0ffbd27 	addiu	sp,sp,-32
    5154:	1000b0af 	sw	s0,16(sp)
    5158:	21808000 	move	s0,a0
    515c:	1800bfaf 	sw	ra,24(sp)
    5160:	1400b1af 	sw	s1,20(sp)
    5164:	00000492 	lbu	a0,0(s0)
    5168:	3d56000c 	jal	0x158f4
    516c:	00000000 	nop
    5170:	01000492 	lbu	a0,1(s0)
    5174:	3d56000c 	jal	0x158f4
    5178:	21884000 	move	s1,v0
    517c:	02000492 	lbu	a0,2(s0)
    5180:	3d56000c 	jal	0x158f4
    5184:	21804000 	move	s0,v0
    5188:	80181100 	sll	v1,s1,0x2
    518c:	21187100 	addu	v1,v1,s1
    5190:	00210300 	sll	a0,v1,0x4
    5194:	23208300 	subu	a0,a0,v1
    5198:	00290400 	sll	a1,a0,0x4
    519c:	2328a400 	subu	a1,a1,a0
    51a0:	80280500 	sll	a1,a1,0x2
    51a4:	80201000 	sll	a0,s0,0x2
    51a8:	21209000 	addu	a0,a0,s0
    51ac:	00190400 	sll	v1,a0,0x4
    51b0:	23186400 	subu	v1,v1,a0
    51b4:	2128a300 	addu	a1,a1,v1
    51b8:	2110a200 	addu	v0,a1,v0
    51bc:	1800bf8f 	lw	ra,24(sp)
    51c0:	1400b18f 	lw	s1,20(sp)
    51c4:	1000b08f 	lw	s0,16(sp)
    51c8:	2000bd27 	addiu	sp,sp,32
    51cc:	0800e003 	jr	ra
    51d0:	00000000 	nop
    51d4:	e0ffbd27 	addiu	sp,sp,-32
    51d8:	1400b1af 	sw	s1,20(sp)
    51dc:	2188a000 	move	s1,a1
    51e0:	04e9023c 	lui	v0,0xe904
    51e4:	d5524234 	ori	v0,v0,0x52d5
    51e8:	19002202 	multu	s1,v0
    51ec:	1800b2af 	sw	s2,24(sp)
    51f0:	21908000 	move	s2,a0
    51f4:	1c00bfaf 	sw	ra,28(sp)
    51f8:	1000b0af 	sw	s0,16(sp)
    51fc:	10300000 	mfhi	a2
    5200:	02830600 	srl	s0,a2,0xc
    5204:	4556000c 	jal	0x15914
    5208:	ff000432 	andi	a0,s0,0xff
    520c:	4e1b053c 	lui	a1,0x1b4e
    5210:	b581a534 	ori	a1,a1,0x81b5
    5214:	80181000 	sll	v1,s0,0x2
    5218:	21187000 	addu	v1,v1,s0
    521c:	00210300 	sll	a0,v1,0x4
    5220:	23208300 	subu	a0,a0,v1
    5224:	00190400 	sll	v1,a0,0x4
    5228:	23186400 	subu	v1,v1,a0
    522c:	80180300 	sll	v1,v1,0x2
    5230:	23882302 	subu	s1,s1,v1
    5234:	19002502 	multu	s1,a1
    5238:	000042a2 	sb	v0,0(s2)
    523c:	10300000 	mfhi	a2
    5240:	c2800600 	srl	s0,a2,0x3
    5244:	4556000c 	jal	0x15914
    5248:	ff000432 	andi	a0,s0,0xff
    524c:	80201000 	sll	a0,s0,0x2
    5250:	21209000 	addu	a0,a0,s0
    5254:	00190400 	sll	v1,a0,0x4
    5258:	23186400 	subu	v1,v1,a0
    525c:	23882302 	subu	s1,s1,v1
    5260:	ff002432 	andi	a0,s1,0xff
    5264:	010042a2 	sb	v0,1(s2)
    5268:	4556000c 	jal	0x15914
    526c:	00000000 	nop
    5270:	020042a2 	sb	v0,2(s2)
    5274:	030040a2 	sb	zero,3(s2)
    5278:	1c00bf8f 	lw	ra,28(sp)
    527c:	1800b28f 	lw	s2,24(sp)
    5280:	1400b18f 	lw	s1,20(sp)
    5284:	1000b08f 	lw	s0,16(sp)
    5288:	2000bd27 	addiu	sp,sp,32
    528c:	0800e003 	jr	ra
    5290:	00000000 	nop
    5294:	e0ffbd27 	addiu	sp,sp,-32
    5298:	1400b1af 	sw	s1,20(sp)
    529c:	2188a000 	move	s1,a1
    52a0:	1000b0af 	sw	s0,16(sp)
    52a4:	1800bfaf 	sw	ra,24(sp)
    52a8:	5456000c 	jal	0x15950
    52ac:	2180c000 	move	s0,a2
    52b0:	21200002 	move	a0,s0
    52b4:	7556000c 	jal	0x159d4
    52b8:	21285100 	addu	a1,v0,s1
    52bc:	1800bf8f 	lw	ra,24(sp)
    52c0:	1400b18f 	lw	s1,20(sp)
    52c4:	1000b08f 	lw	s0,16(sp)
    52c8:	2000bd27 	addiu	sp,sp,32
    52cc:	0800e003 	jr	ra
    52d0:	00000000 	nop
    52d4:	e8ffbd27 	addiu	sp,sp,-24
    52d8:	0980023c 	lui	v0,0x8009
    52dc:	00824224 	addiu	v0,v0,-32256
    52e0:	be560008 	j	0x15af8
    52e4:	1000bfaf 	sw	ra,16(sp)
    52e8:	c754000c 	jal	0x1531c
    52ec:	00000000 	nop
    52f0:	0980023c 	lui	v0,0x8009
    52f4:	00824224 	addiu	v0,v0,-32256
    52f8:	d809438c 	lw	v1,2520(v0)
    52fc:	d409428c 	lw	v0,2516(v0)
    5300:	00000000 	nop
    5304:	f8ff6214 	bne	v1,v0,0x52e8
    5308:	00000000 	nop
    530c:	00006290 	lbu	v0,0(v1)
    5310:	00000000 	nop
    5314:	f4ff4014 	bnez	v0,0x52e8
    5318:	00000000 	nop
    531c:	1000bf8f 	lw	ra,16(sp)
    5320:	1800bd27 	addiu	sp,sp,24
    5324:	0800e003 	jr	ra
    5328:	00000000 	nop
    532c:	e8ffbd27 	addiu	sp,sp,-24
    5330:	1000b0af 	sw	s0,16(sp)
    5334:	21808000 	move	s0,a0
    5338:	1400bfaf 	sw	ra,20(sp)
    533c:	00000292 	lbu	v0,0(s0)
    5340:	00000000 	nop
    5344:	07004010 	beqz	v0,0x5364
    5348:	00000000 	nop
    534c:	c754000c 	jal	0x1531c
    5350:	00000000 	nop
    5354:	00000292 	lbu	v0,0(s0)
    5358:	00000000 	nop
    535c:	fbff4014 	bnez	v0,0x534c
    5360:	00000000 	nop
    5364:	1400bf8f 	lw	ra,20(sp)
    5368:	1000b08f 	lw	s0,16(sp)
    536c:	1800bd27 	addiu	sp,sp,24
    5370:	0800e003 	jr	ra
    5374:	00000000 	nop
    5378:	3412073c 	lui	a3,0x1234
    537c:	7856e734 	ori	a3,a3,0x5678
    5380:	21308000 	move	a2,a0
    5384:	402a0500 	sll	a1,a1,0x9
    5388:	feffa324 	addiu	v1,a1,-2
    538c:	ffff0224 	li	v0,-1
    5390:	07006210 	beq	v1,v0,0x53b0
    5394:	ffffa524 	addiu	a1,a1,-1
    5398:	21404000 	move	t0,v0
    539c:	0000c28c 	lw	v0,0(a2)
    53a0:	0400c624 	addiu	a2,a2,4
    53a4:	ffff6324 	addiu	v1,v1,-1
    53a8:	fcff6814 	bne	v1,t0,0x539c
    53ac:	2138e200 	addu	a3,a3,v0
    53b0:	80100500 	sll	v0,a1,0x2
    53b4:	21104400 	addu	v0,v0,a0
    53b8:	0000428c 	lw	v0,0(v0)
    53bc:	00000000 	nop
    53c0:	2610e200 	xor	v0,a3,v0
    53c4:	0800e003 	jr	ra
    53c8:	2b100200 	sltu	v0,zero,v0
    53cc:	d0ffbd27 	addiu	sp,sp,-48
    53d0:	1800b2af 	sw	s2,24(sp)
    53d4:	21908000 	move	s2,a0
    53d8:	2800b6af 	sw	s6,40(sp)
    53dc:	21b0a000 	move	s6,a1
    53e0:	1000b0af 	sw	s0,16(sp)
    53e4:	2180c000 	move	s0,a2
    53e8:	1c00b3af 	sw	s3,28(sp)
    53ec:	2198e000 	move	s3,a3
    53f0:	0980023c 	lui	v0,0x8009
    53f4:	2400b5af 	sw	s5,36(sp)
    53f8:	00825524 	addiu	s5,v0,-32256
    53fc:	2c00bfaf 	sw	ra,44(sp)
    5400:	2000b4af 	sw	s4,32(sp)
    5404:	1400b1af 	sw	s1,20(sp)
    5408:	d409b48e 	lw	s4,2516(s5)
    540c:	4000b18f 	lw	s1,64(sp)
    5410:	cb56000c 	jal	0x15b2c
    5414:	21208002 	move	a0,s4
    5418:	000092a2 	sb	s2,0(s4)
    541c:	010080a2 	sb	zero,1(s4)
    5420:	0300c28a 	lwl	v0,3(s6)
    5424:	0000c29a 	lwr	v0,0(s6)
    5428:	00000000 	nop
    542c:	1b0082aa 	swl	v0,27(s4)
    5430:	180082ba 	swr	v0,24(s4)
    5434:	ff071026 	addiu	s0,s0,2047
    5438:	c2821000 	srl	s0,s0,0xb
    543c:	200093ae 	sw	s3,32(s4)
    5440:	280090ae 	sw	s0,40(s4)
    5444:	2c0091ae 	sw	s1,44(s4)
    5448:	d409a28e 	lw	v0,2516(s5)
    544c:	d409a326 	addiu	v1,s5,2516
    5450:	34004224 	addiu	v0,v0,52
    5454:	03004314 	bne	v0,v1,0x5464
    5458:	d409a2ae 	sw	v0,2516(s5)
    545c:	1400a226 	addiu	v0,s5,20
    5460:	d409a2ae 	sw	v0,2516(s5)
    5464:	d809a28e 	lw	v0,2520(s5)
    5468:	00000000 	nop
    546c:	0d005414 	bne	v0,s4,0x54a4
    5470:	21108002 	move	v0,s4
    5474:	33a3010c 	jal	0x68ccc
    5478:	21200000 	move	a0,zero
    547c:	0180043c 	lui	a0,0x8001
    5480:	2ea3010c 	jal	0x68cb8
    5484:	1c568424 	addiu	a0,a0,22044
    5488:	15000424 	li	a0,21
    548c:	2128c002 	move	a1,s6
    5490:	38a3010c 	jal	0x68ce0
    5494:	21300000 	move	a2,zero
    5498:	fcff4010 	beqz	v0,0x548c
    549c:	15000424 	li	a0,21
    54a0:	21108002 	move	v0,s4
    54a4:	2c00bf8f 	lw	ra,44(sp)
    54a8:	2800b68f 	lw	s6,40(sp)
    54ac:	2400b58f 	lw	s5,36(sp)
    54b0:	2000b48f 	lw	s4,32(sp)
    54b4:	1c00b38f 	lw	s3,28(sp)
    54b8:	1800b28f 	lw	s2,24(sp)
    54bc:	1400b18f 	lw	s1,20(sp)
    54c0:	1000b08f 	lw	s0,16(sp)
    54c4:	3000bd27 	addiu	sp,sp,48
    54c8:	0800e003 	jr	ra
    54cc:	00000000 	nop
    54d0:	e0ffbd27 	addiu	sp,sp,-32
    54d4:	40100400 	sll	v0,a0,0x1
    54d8:	21104400 	addu	v0,v0,a0
    54dc:	80100200 	sll	v0,v0,0x2
    54e0:	0980033c 	lui	v1,0x8009
    54e4:	dc8b6324 	addiu	v1,v1,-29732
    54e8:	1000b0af 	sw	s0,16(sp)
    54ec:	21804300 	addu	s0,v0,v1
    54f0:	1c00bfaf 	sw	ra,28(sp)
    54f4:	1800b2af 	sw	s2,24(sp)
    54f8:	1400b1af 	sw	s1,20(sp)
    54fc:	0000028e 	lw	v0,0(s0)
    5500:	40900500 	sll	s2,a1,0x1
    5504:	21104202 	addu	v0,s2,v0
    5508:	00005194 	lhu	s1,0(v0)
    550c:	0300c010 	beqz	a2,0x551c
    5510:	04000426 	addiu	a0,s0,4
    5514:	a556000c 	jal	0x15a94
    5518:	21282002 	move	a1,s1
    551c:	0000028e 	lw	v0,0(s0)
    5520:	00000000 	nop
    5524:	21104202 	addu	v0,s2,v0
    5528:	02004294 	lhu	v0,2(v0)
    552c:	00000000 	nop
    5530:	23105100 	subu	v0,v0,s1
    5534:	c0120200 	sll	v0,v0,0xb
    5538:	1c00bf8f 	lw	ra,28(sp)
    553c:	1800b28f 	lw	s2,24(sp)
    5540:	1400b18f 	lw	s1,20(sp)
    5544:	1000b08f 	lw	s0,16(sp)
    5548:	2000bd27 	addiu	sp,sp,32
    554c:	0800e003 	jr	ra
    5550:	00000000 	nop
    5554:	d0ffbd27 	addiu	sp,sp,-48
    5558:	2400b1af 	sw	s1,36(sp)
    555c:	2188c000 	move	s1,a2
    5560:	2000b0af 	sw	s0,32(sp)
    5564:	2180e000 	move	s0,a3
    5568:	2800bfaf 	sw	ra,40(sp)
    556c:	3457000c 	jal	0x15cd0
    5570:	1800a627 	addiu	a2,sp,24
    5574:	06004010 	beqz	v0,0x5590
    5578:	02000424 	li	a0,2
    557c:	1000b0af 	sw	s0,16(sp)
    5580:	1800a527 	addiu	a1,sp,24
    5584:	21304000 	move	a2,v0
    5588:	f356000c 	jal	0x15bcc
    558c:	21382002 	move	a3,s1
    5590:	2800bf8f 	lw	ra,40(sp)
    5594:	2400b18f 	lw	s1,36(sp)
    5598:	2000b08f 	lw	s0,32(sp)
    559c:	3000bd27 	addiu	sp,sp,48
    55a0:	0800e003 	jr	ra
    55a4:	00000000 	nop
    55a8:	d0ffbd27 	addiu	sp,sp,-48
    55ac:	2400b1af 	sw	s1,36(sp)
    55b0:	2188c000 	move	s1,a2
    55b4:	2000b0af 	sw	s0,32(sp)
    55b8:	2180e000 	move	s0,a3
    55bc:	2800bfaf 	sw	ra,40(sp)
    55c0:	3457000c 	jal	0x15cd0
    55c4:	1800a627 	addiu	a2,sp,24
    55c8:	06004010 	beqz	v0,0x55e4
    55cc:	04000424 	li	a0,4
    55d0:	1000b0af 	sw	s0,16(sp)
    55d4:	1800a527 	addiu	a1,sp,24
    55d8:	21304000 	move	a2,v0
    55dc:	f356000c 	jal	0x15bcc
    55e0:	21382002 	move	a3,s1
    55e4:	2800bf8f 	lw	ra,40(sp)
    55e8:	2400b18f 	lw	s1,36(sp)
    55ec:	2000b08f 	lw	s0,32(sp)
    55f0:	3000bd27 	addiu	sp,sp,48
    55f4:	0800e003 	jr	ra
    55f8:	00000000 	nop
    55fc:	c8ffbd27 	addiu	sp,sp,-56
    5600:	0980023c 	lui	v0,0x8009
    5604:	2800b2af 	sw	s2,40(sp)
    5608:	d48b528c 	lw	s2,-29740(v0)
    560c:	2000b0af 	sw	s0,32(sp)
    5610:	21808000 	move	s0,a0
    5614:	2400b1af 	sw	s1,36(sp)
    5618:	2188a000 	move	s1,a1
    561c:	2c00b3af 	sw	s3,44(sp)
    5620:	2198c000 	move	s3,a2
    5624:	3000b4af 	sw	s4,48(sp)
    5628:	21a0e000 	move	s4,a3
    562c:	3400bfaf 	sw	ra,52(sp)
    5630:	cb56000c 	jal	0x15b2c
    5634:	21204002 	move	a0,s2
    5638:	21200002 	move	a0,s0
    563c:	21282002 	move	a1,s1
    5640:	0a0040a6 	sh	zero,10(s2)
    5644:	100040a2 	sb	zero,16(s2)
    5648:	3457000c 	jal	0x15cd0
    564c:	1800a627 	addiu	a2,sp,24
    5650:	21304000 	move	a2,v0
    5654:	c21a0600 	srl	v1,a2,0xb
    5658:	0e0043a6 	sh	v1,14(s2)
    565c:	0e004286 	lh	v0,14(s2)
    5660:	00000000 	nop
    5664:	11004228 	slti	v0,v0,17
    5668:	08004014 	bnez	v0,0x568c
    566c:	0c0043a6 	sh	v1,12(s2)
    5670:	03000424 	li	a0,3
    5674:	1800a527 	addiu	a1,sp,24
    5678:	00800634 	li	a2,0x8000
    567c:	21386002 	move	a3,s3
    5680:	f0ff6224 	addiu	v0,v1,-16
    5684:	a7570008 	j	0x15e9c
    5688:	0e0042a6 	sh	v0,14(s2)
    568c:	03000424 	li	a0,3
    5690:	1800a527 	addiu	a1,sp,24
    5694:	21386002 	move	a3,s3
    5698:	0e0040a6 	sh	zero,14(s2)
    569c:	f356000c 	jal	0x15bcc
    56a0:	1000b4af 	sw	s4,16(sp)
    56a4:	3400bf8f 	lw	ra,52(sp)
    56a8:	3000b48f 	lw	s4,48(sp)
    56ac:	2c00b38f 	lw	s3,44(sp)
    56b0:	2800b28f 	lw	s2,40(sp)
    56b4:	2400b18f 	lw	s1,36(sp)
    56b8:	2000b08f 	lw	s0,32(sp)
    56bc:	3800bd27 	addiu	sp,sp,56
    56c0:	0800e003 	jr	ra
    56c4:	00000000 	nop
    56c8:	ffff8430 	andi	a0,a0,0xffff
    56cc:	40180400 	sll	v1,a0,0x1
    56d0:	21186400 	addu	v1,v1,a0
    56d4:	80180300 	sll	v1,v1,0x2
    56d8:	0980023c 	lui	v0,0x8009
    56dc:	dc8b4224 	addiu	v0,v0,-29732
    56e0:	21186200 	addu	v1,v1,v0
    56e4:	ffffa530 	andi	a1,a1,0xffff
    56e8:	0000628c 	lw	v0,0(v1)
    56ec:	40280500 	sll	a1,a1,0x1
    56f0:	2128a200 	addu	a1,a1,v0
    56f4:	0000a394 	lhu	v1,0(a1)
    56f8:	0200a294 	lhu	v0,2(a1)
    56fc:	00000000 	nop
    5700:	23104300 	subu	v0,v0,v1
    5704:	0800e003 	jr	ra
    5708:	c0120200 	sll	v0,v0,0xb
    570c:	d0ffbd27 	addiu	sp,sp,-48
    5710:	1c00b1af 	sw	s1,28(sp)
    5714:	21888000 	move	s1,a0
    5718:	2000b2af 	sw	s2,32(sp)
    571c:	2190a000 	move	s2,a1
    5720:	2400b3af 	sw	s3,36(sp)
    5724:	2198c000 	move	s3,a2
    5728:	80000224 	li	v0,128
    572c:	0e000424 	li	a0,14
    5730:	1000a527 	addiu	a1,sp,16
    5734:	21300000 	move	a2,zero
    5738:	2800bfaf 	sw	ra,40(sp)
    573c:	1800b0af 	sw	s0,24(sp)
    5740:	d4a3010c 	jal	0x68f50
    5744:	1000a2a3 	sb	v0,16(sp)
    5748:	41dc010c 	jal	0x77104
    574c:	04000424 	li	a0,4
    5750:	b556000c 	jal	0x15ad4
    5754:	00000000 	nop
    5758:	02000424 	li	a0,2
    575c:	21282002 	move	a1,s1
    5760:	38a3010c 	jal	0x68ce0
    5764:	21300000 	move	a2,zero
    5768:	fcff4010 	beqz	v0,0x575c
    576c:	02000424 	li	a0,2
    5770:	21206002 	move	a0,s3
    5774:	21284002 	move	a1,s2
    5778:	51ae010c 	jal	0x6b944
    577c:	80000624 	li	a2,128
    5780:	06004014 	bnez	v0,0x579c
    5784:	01000424 	li	a0,1
    5788:	21200000 	move	a0,zero
    578c:	1ea3010c 	jal	0x68c78
    5790:	1000a527 	addiu	a1,sp,16
    5794:	d7570008 	j	0x15f5c
    5798:	02000424 	li	a0,2
    579c:	91ae010c 	jal	0x6ba44
    57a0:	1000a527 	addiu	a1,sp,16
    57a4:	21804000 	move	s0,v0
    57a8:	0500001a 	blez	s0,0x57c0
    57ac:	09000424 	li	a0,9
    57b0:	3385000c 	jal	0x214cc
    57b4:	00000000 	nop
    57b8:	e7570008 	j	0x15f9c
    57bc:	01000424 	li	a0,1
    57c0:	21280000 	move	a1,zero
    57c4:	38a3010c 	jal	0x68ce0
    57c8:	2130a000 	move	a2,a1
    57cc:	e3ff0016 	bnez	s0,0x575c
    57d0:	02000424 	li	a0,2
    57d4:	2800bf8f 	lw	ra,40(sp)
    57d8:	2400b38f 	lw	s3,36(sp)
    57dc:	2000b28f 	lw	s2,32(sp)
    57e0:	1c00b18f 	lw	s1,28(sp)
    57e4:	1800b08f 	lw	s0,24(sp)
    57e8:	3000bd27 	addiu	sp,sp,48
    57ec:	0800e003 	jr	ra
    57f0:	00000000 	nop
    57f4:	e8ffbd27 	addiu	sp,sp,-24
    57f8:	1000bfaf 	sw	ra,16(sp)
    57fc:	21108000 	move	v0,a0
    5800:	0200c014 	bnez	a2,0x580c
    5804:	2120a000 	move	a0,a1
    5808:	0400868c 	lw	a2,4(a0)
    580c:	00000000 	nop
    5810:	ff07c624 	addiu	a2,a2,2047
    5814:	21284000 	move	a1,v0
    5818:	c357000c 	jal	0x15f0c
    581c:	c2320600 	srl	a2,a2,0xb
    5820:	1000bf8f 	lw	ra,16(sp)
    5824:	1800bd27 	addiu	sp,sp,24
    5828:	0800e003 	jr	ra
    582c:	00000000 	nop
    5830:	d8ffbd27 	addiu	sp,sp,-40
    5834:	1c00b1af 	sw	s1,28(sp)
    5838:	2188c000 	move	s1,a2
    583c:	ffff8430 	andi	a0,a0,0xffff
    5840:	40180400 	sll	v1,a0,0x1
    5844:	21186400 	addu	v1,v1,a0
    5848:	80180300 	sll	v1,v1,0x2
    584c:	0980023c 	lui	v0,0x8009
    5850:	dc8b4224 	addiu	v0,v0,-29732
    5854:	21186200 	addu	v1,v1,v0
    5858:	04006424 	addiu	a0,v1,4
    585c:	ffffa230 	andi	v0,a1,0xffff
    5860:	2000bfaf 	sw	ra,32(sp)
    5864:	1800b0af 	sw	s0,24(sp)
    5868:	0000638c 	lw	v1,0(v1)
    586c:	40100200 	sll	v0,v0,0x1
    5870:	21104300 	addu	v0,v0,v1
    5874:	00004594 	lhu	a1,0(v0)
    5878:	02004294 	lhu	v0,2(v0)
    587c:	1000a627 	addiu	a2,sp,16
    5880:	a556000c 	jal	0x15a94
    5884:	23804500 	subu	s0,v0,a1
    5888:	1000a427 	addiu	a0,sp,16
    588c:	21282002 	move	a1,s1
    5890:	c357000c 	jal	0x15f0c
    5894:	21300002 	move	a2,s0
    5898:	21202002 	move	a0,s1
    589c:	de56000c 	jal	0x15b78
    58a0:	21280002 	move	a1,s0
    58a4:	f9ff4014 	bnez	v0,0x588c
    58a8:	1000a427 	addiu	a0,sp,16
    58ac:	21100002 	move	v0,s0
    58b0:	2000bf8f 	lw	ra,32(sp)
    58b4:	1c00b18f 	lw	s1,28(sp)
    58b8:	1800b08f 	lw	s0,24(sp)
    58bc:	2800bd27 	addiu	sp,sp,40
    58c0:	0800e003 	jr	ra
    58c4:	00000000 	nop
    58c8:	88ffbd27 	addiu	sp,sp,-120
    58cc:	21288000 	move	a1,a0
    58d0:	0880023c 	lui	v0,0x8008
    58d4:	7000bfaf 	sw	ra,112(sp)
    58d8:	6c00b1af 	sw	s1,108(sp)
    58dc:	6800b0af 	sw	s0,104(sp)
    58e0:	cc7e4724 	addiu	a3,v0,32460
    58e4:	0000e38c 	lw	v1,0(a3)
    58e8:	0400e480 	lb	a0,4(a3)
    58ec:	1000a3af 	sw	v1,16(sp)
    58f0:	1400a4a3 	sb	a0,20(sp)
    58f4:	1000b027 	addiu	s0,sp,16
    58f8:	99e2010c 	jal	0x78a64
    58fc:	21200002 	move	a0,s0
    5900:	21200002 	move	a0,s0
    5904:	0880053c 	lui	a1,0x8008
    5908:	99e2010c 	jal	0x78a64
    590c:	d47ea524 	addiu	a1,a1,32468
    5910:	b556000c 	jal	0x15ad4
    5914:	00000000 	nop
    5918:	5000b127 	addiu	s1,sp,80
    591c:	21202002 	move	a0,s1
    5920:	89aa010c 	jal	0x6aa24
    5924:	1000a527 	addiu	a1,sp,16
    5928:	06004014 	bnez	v0,0x5944
    592c:	09000424 	li	a0,9
    5930:	21280000 	move	a1,zero
    5934:	38a3010c 	jal	0x68ce0
    5938:	2130a000 	move	a2,a1
    593c:	48580008 	j	0x16120
    5940:	21202002 	move	a0,s1
    5944:	5400b08f 	lw	s0,84(sp)
    5948:	00f80224 	li	v0,-2048
    594c:	ff071026 	addiu	s0,s0,2047
    5950:	24800202 	and	s0,s0,v0
    5954:	b454000c 	jal	0x152d0
    5958:	21200002 	move	a0,s0
    595c:	21202002 	move	a0,s1
    5960:	21884000 	move	s1,v0
    5964:	21282002 	move	a1,s1
    5968:	c357000c 	jal	0x15f0c
    596c:	c2321000 	srl	a2,s0,0xb
    5970:	21102002 	move	v0,s1
    5974:	7000bf8f 	lw	ra,112(sp)
    5978:	6c00b18f 	lw	s1,108(sp)
    597c:	6800b08f 	lw	s0,104(sp)
    5980:	7800bd27 	addiu	sp,sp,120
    5984:	0800e003 	jr	ra
    5988:	00000000 	nop
    598c:	80ffbd27 	addiu	sp,sp,-128
    5990:	7800b2af 	sw	s2,120(sp)
    5994:	21908000 	move	s2,a0
    5998:	7400b1af 	sw	s1,116(sp)
    599c:	2188c000 	move	s1,a2
    59a0:	0880023c 	lui	v0,0x8008
    59a4:	7c00bfaf 	sw	ra,124(sp)
    59a8:	7000b0af 	sw	s0,112(sp)
    59ac:	cc7e4724 	addiu	a3,v0,32460
    59b0:	0000e38c 	lw	v1,0(a3)
    59b4:	0400e480 	lb	a0,4(a3)
    59b8:	1000a3af 	sw	v1,16(sp)
    59bc:	1400a4a3 	sb	a0,20(sp)
    59c0:	1000b027 	addiu	s0,sp,16
    59c4:	99e2010c 	jal	0x78a64
    59c8:	21200002 	move	a0,s0
    59cc:	21200002 	move	a0,s0
    59d0:	0880053c 	lui	a1,0x8008
    59d4:	99e2010c 	jal	0x78a64
    59d8:	d47ea524 	addiu	a1,a1,32468
    59dc:	b556000c 	jal	0x15ad4
    59e0:	00000000 	nop
    59e4:	5000b027 	addiu	s0,sp,80
    59e8:	21200002 	move	a0,s0
    59ec:	89aa010c 	jal	0x6aa24
    59f0:	1000a527 	addiu	a1,sp,16
    59f4:	06004014 	bnez	v0,0x5a10
    59f8:	09000424 	li	a0,9
    59fc:	21280000 	move	a1,zero
    5a00:	38a3010c 	jal	0x68ce0
    5a04:	2130a000 	move	a2,a1
    5a08:	7b580008 	j	0x161ec
    5a0c:	21200002 	move	a0,s0
    5a10:	02002016 	bnez	s1,0x5a1c
    5a14:	21200002 	move	a0,s0
    5a18:	5400b18f 	lw	s1,84(sp)
    5a1c:	21284002 	move	a1,s2
    5a20:	ff072626 	addiu	a2,s1,2047
    5a24:	c357000c 	jal	0x15f0c
    5a28:	c2320600 	srl	a2,a2,0xb
    5a2c:	21100000 	move	v0,zero
    5a30:	7c00bf8f 	lw	ra,124(sp)
    5a34:	7800b28f 	lw	s2,120(sp)
    5a38:	7400b18f 	lw	s1,116(sp)
    5a3c:	7000b08f 	lw	s0,112(sp)
    5a40:	8000bd27 	addiu	sp,sp,128
    5a44:	0800e003 	jr	ra
    5a48:	00000000 	nop
    5a4c:	d8ffbd27 	addiu	sp,sp,-40
    5a50:	08000424 	li	a0,8
    5a54:	21280000 	move	a1,zero
    5a58:	2000bfaf 	sw	ra,32(sp)
    5a5c:	38a3010c 	jal	0x68ce0
    5a60:	2130a000 	move	a2,a1
    5a64:	80000224 	li	v0,128
    5a68:	0e000424 	li	a0,14
    5a6c:	1000a527 	addiu	a1,sp,16
    5a70:	21300000 	move	a2,zero
    5a74:	d4a3010c 	jal	0x68f50
    5a78:	1000a2a3 	sb	v0,16(sp)
    5a7c:	41dc010c 	jal	0x77104
    5a80:	04000424 	li	a0,4
    5a84:	2000bf8f 	lw	ra,32(sp)
    5a88:	2800bd27 	addiu	sp,sp,40
    5a8c:	0800e003 	jr	ra
    5a90:	00000000 	nop
    5a94:	48f7bd27 	addiu	sp,sp,-2232
    5a98:	0880023c 	lui	v0,0x8008
    5a9c:	b008bfaf 	sw	ra,2224(sp)
    5aa0:	ac08b1af 	sw	s1,2220(sp)
    5aa4:	a808b0af 	sw	s0,2216(sp)
    5aa8:	cc7e4824 	addiu	t0,v0,32460
    5aac:	0000038d 	lw	v1,0(t0)
    5ab0:	04000681 	lb	a2,4(t0)
    5ab4:	6808a3af 	sw	v1,2152(sp)
    5ab8:	6c08a6a3 	sb	a2,2156(sp)
    5abc:	ffff8230 	andi	v0,a0,0xffff
    5ac0:	6808b027 	addiu	s0,sp,2152
    5ac4:	21200002 	move	a0,s0
    5ac8:	40180200 	sll	v1,v0,0x1
    5acc:	21186200 	addu	v1,v1,v0
    5ad0:	80180300 	sll	v1,v1,0x2
    5ad4:	0980023c 	lui	v0,0x8009
    5ad8:	dc8b4224 	addiu	v0,v0,-29732
    5adc:	99e2010c 	jal	0x78a64
    5ae0:	21886200 	addu	s1,v1,v0
    5ae4:	21200002 	move	a0,s0
    5ae8:	0880053c 	lui	a1,0x8008
    5aec:	99e2010c 	jal	0x78a64
    5af0:	d47ea524 	addiu	a1,a1,32468
    5af4:	5008a427 	addiu	a0,sp,2128
    5af8:	89aa010c 	jal	0x6aa24
    5afc:	6808a527 	addiu	a1,sp,2152
    5b00:	fcff4010 	beqz	v0,0x5af4
    5b04:	00080624 	li	a2,2048
    5b08:	5308a28b 	lwl	v0,2131(sp)
    5b0c:	5008a29b 	lwr	v0,2128(sp)
    5b10:	00000000 	nop
    5b14:	070022aa 	swl	v0,7(s1)
    5b18:	040022ba 	swr	v0,4(s1)
    5b1c:	1000a427 	addiu	a0,sp,16
    5b20:	04002526 	addiu	a1,s1,4
    5b24:	5408a28f 	lw	v0,2132(sp)
    5b28:	fd57000c 	jal	0x15ff4
    5b2c:	080022ae 	sw	v0,8(s1)
    5b30:	1000a497 	lhu	a0,16(sp)
    5b34:	00000000 	nop
    5b38:	01008424 	addiu	a0,a0,1
    5b3c:	b454000c 	jal	0x152d0
    5b40:	40200400 	sll	a0,a0,0x1
    5b44:	21204000 	move	a0,v0
    5b48:	1000a697 	lhu	a2,16(sp)
    5b4c:	1200a527 	addiu	a1,sp,18
    5b50:	000024ae 	sw	a0,0(s1)
    5b54:	4b53000c 	jal	0x14d2c
    5b58:	0100c624 	addiu	a2,a2,1
    5b5c:	b008bf8f 	lw	ra,2224(sp)
    5b60:	ac08b18f 	lw	s1,2220(sp)
    5b64:	a808b08f 	lw	s0,2216(sp)
    5b68:	b808bd27 	addiu	sp,sp,2232
    5b6c:	0800e003 	jr	ra
    5b70:	00000000 	nop
    5b74:	e8ffbd27 	addiu	sp,sp,-24
    5b78:	1400bfaf 	sw	ra,20(sp)
    5b7c:	a5df010c 	jal	0x77e94
    5b80:	1000b0af 	sw	s0,16(sp)
    5b84:	00f2043c 	lui	a0,0xf200
    5b88:	03008434 	ori	a0,a0,0x3
    5b8c:	02000524 	li	a1,2
    5b90:	00100624 	li	a2,4096
    5b94:	0180073c 	lui	a3,0x8001
    5b98:	81df010c 	jal	0x77e04
    5b9c:	b453e724 	addiu	a3,a3,21428
    5ba0:	21204000 	move	a0,v0
    5ba4:	0980103c 	lui	s0,0x8009
    5ba8:	008204ae 	sw	a0,-32256(s0)
    5bac:	91df010c 	jal	0x77e44
    5bb0:	00821026 	addiu	s0,s0,-32256
    5bb4:	00f2043c 	lui	a0,0xf200
    5bb8:	03008434 	ori	a0,a0,0x3
    5bbc:	60ea0534 	li	a1,0xea60
    5bc0:	d1df010c 	jal	0x77f44
    5bc4:	00100624 	li	a2,4096
    5bc8:	00f2043c 	lui	a0,0xf200
    5bcc:	06e0010c 	jal	0x78018
    5bd0:	03008434 	ori	a0,a0,0x3
    5bd4:	14000326 	addiu	v1,s0,20
    5bd8:	21200000 	move	a0,zero
    5bdc:	100000ae 	sw	zero,16(s0)
    5be0:	0c0000ae 	sw	zero,12(s0)
    5be4:	080000ae 	sw	zero,8(s0)
    5be8:	040000ae 	sw	zero,4(s0)
    5bec:	01008424 	addiu	a0,a0,1
    5bf0:	000060a0 	sb	zero,0(v1)
    5bf4:	010060a0 	sb	zero,1(v1)
    5bf8:	30008228 	slti	v0,a0,48
    5bfc:	fbff4014 	bnez	v0,0x5bec
    5c00:	34006324 	addiu	v1,v1,52
    5c04:	21200000 	move	a0,zero
    5c08:	0980023c 	lui	v0,0x8009
    5c0c:	00824224 	addiu	v0,v0,-32256
    5c10:	14004324 	addiu	v1,v0,20
    5c14:	d40943ac 	sw	v1,2516(v0)
    5c18:	2ea3010c 	jal	0x68cb8
    5c1c:	d80943ac 	sw	v1,2520(v0)
    5c20:	33a3010c 	jal	0x68ccc
    5c24:	21200000 	move	a0,zero
    5c28:	c3ae010c 	jal	0x6bb0c
    5c2c:	21200000 	move	a0,zero
    5c30:	a9df010c 	jal	0x77ea4
    5c34:	00000000 	nop
    5c38:	9358000c 	jal	0x1624c
    5c3c:	00000000 	nop
    5c40:	1400bf8f 	lw	ra,20(sp)
    5c44:	1000b08f 	lw	s0,16(sp)
    5c48:	1800bd27 	addiu	sp,sp,24
    5c4c:	0800e003 	jr	ra
    5c50:	00000000 	nop
    5c54:	e8ffbd27 	addiu	sp,sp,-24
    5c58:	1400bfaf 	sw	ra,20(sp)
    5c5c:	a5df010c 	jal	0x77e94
    5c60:	1000b0af 	sw	s0,16(sp)
    5c64:	0980103c 	lui	s0,0x8009
    5c68:	0082048e 	lw	a0,-32256(s0)
    5c6c:	85df010c 	jal	0x77e14
    5c70:	00821026 	addiu	s0,s0,-32256
    5c74:	a9df010c 	jal	0x77ea4
    5c78:	00000000 	nop
    5c7c:	f409048e 	lw	a0,2548(s0)
    5c80:	be54000c 	jal	0x152f8
    5c84:	00000000 	nop
    5c88:	e809048e 	lw	a0,2536(s0)
    5c8c:	be54000c 	jal	0x152f8
    5c90:	00000000 	nop
    5c94:	dc09048e 	lw	a0,2524(s0)
    5c98:	be54000c 	jal	0x152f8
    5c9c:	00000000 	nop
    5ca0:	1400bf8f 	lw	ra,20(sp)
    5ca4:	1000b08f 	lw	s0,16(sp)
    5ca8:	1800bd27 	addiu	sp,sp,24
    5cac:	0800e003 	jr	ra
    5cb0:	00000000 	nop
    5cb4:	0980023c 	lui	v0,0x8009
    5cb8:	00824524 	addiu	a1,v0,-32256
    5cbc:	0800a28c 	lw	v0,8(a1)
    5cc0:	0400a68c 	lw	a2,4(a1)
    5cc4:	3b004224 	addiu	v0,v0,59
    5cc8:	2b104600 	sltu	v0,v0,a2
    5ccc:	0c004010 	beqz	v0,0x5d00
    5cd0:	0100033c 	lui	v1,0x1
    5cd4:	00806334 	ori	v1,v1,0x8000
    5cd8:	1680023c 	lui	v0,0x8016
    5cdc:	90d04224 	addiu	v0,v0,-12144
    5ce0:	21104300 	addu	v0,v0,v1
    5ce4:	c06c4490 	lbu	a0,27840(v0)
    5ce8:	1000a38c 	lw	v1,16(a1)
    5cec:	c06c40a0 	sb	zero,27840(v0)
    5cf0:	0800a6ac 	sw	a2,8(a1)
    5cf4:	01006324 	addiu	v1,v1,1
    5cf8:	c16c44a0 	sb	a0,27841(v0)
    5cfc:	1000a3ac 	sw	v1,16(a1)
    5d00:	0800e003 	jr	ra
    5d04:	00000000 	nop
    5d08:	0100033c 	lui	v1,0x1
    5d0c:	00806334 	ori	v1,v1,0x8000
    5d10:	1680023c 	lui	v0,0x8016
    5d14:	90d04224 	addiu	v0,v0,-12144
    5d18:	21104300 	addu	v0,v0,v1
    5d1c:	01000324 	li	v1,1
    5d20:	d86c43a0 	sb	v1,27864(v0)
    5d24:	d96c43a0 	sb	v1,27865(v0)
    5d28:	ff000324 	li	v1,255
    5d2c:	e26c40a4 	sh	zero,27874(v0)
    5d30:	de6c40a4 	sh	zero,27870(v0)
    5d34:	da6c40a4 	sh	zero,27866(v0)
    5d38:	d66c40a0 	sb	zero,27862(v0)
    5d3c:	e46c40a4 	sh	zero,27876(v0)
    5d40:	e06c40a4 	sh	zero,27872(v0)
    5d44:	dc6c40a4 	sh	zero,27868(v0)
    5d48:	d76c40a0 	sb	zero,27863(v0)
    5d4c:	0800e003 	jr	ra
    5d50:	d26c43a0 	sb	v1,27858(v0)
    5d54:	c8ffbd27 	addiu	sp,sp,-56
    5d58:	2c00b7af 	sw	s7,44(sp)
    5d5c:	801f173c 	lui	s7,0x1f80
    5d60:	1a80023c 	lui	v0,0x801a
    5d64:	288f4224 	addiu	v0,v0,-28888
    5d68:	3000bfaf 	sw	ra,48(sp)
    5d6c:	2800b6af 	sw	s6,40(sp)
    5d70:	2400b5af 	sw	s5,36(sp)
    5d74:	2000b4af 	sw	s4,32(sp)
    5d78:	1c00b3af 	sw	s3,28(sp)
    5d7c:	1800b2af 	sw	s2,24(sp)
    5d80:	1400b1af 	sw	s1,20(sp)
    5d84:	1000b0af 	sw	s0,16(sp)
    5d88:	6a024384 	lh	v1,618(v0)
    5d8c:	68025684 	lh	s6,616(v0)
    5d90:	00000000 	nop
    5d94:	0108c22a 	slti	v0,s6,2049
    5d98:	04004014 	bnez	v0,0x5dac
    5d9c:	00047224 	addiu	s2,v1,1024
    5da0:	00100224 	li	v0,4096
    5da4:	6c590008 	j	0x165b0
    5da8:	23885600 	subu	s1,v0,s6
    5dac:	2188c002 	move	s1,s6
    5db0:	c0101100 	sll	v0,s1,0x3
    5db4:	21105100 	addu	v0,v0,s1
    5db8:	c0100200 	sll	v0,v0,0x3
    5dbc:	21105100 	addu	v0,v0,s1
    5dc0:	c0100200 	sll	v0,v0,0x3
    5dc4:	02004104 	bgez	v0,0x5dd0
    5dc8:	00000000 	nop
    5dcc:	ff034224 	addiu	v0,v0,1023
    5dd0:	83120200 	sra	v0,v0,0xa
    5dd4:	00025124 	addiu	s1,v0,512
    5dd8:	31d1010c 	jal	0x744c4
    5ddc:	21204002 	move	a0,s2
    5de0:	21204002 	move	a0,s2
    5de4:	fdd0010c 	jal	0x743f4
    5de8:	21a84000 	move	s5,v0
    5dec:	23805102 	subu	s0,s2,s1
    5df0:	21200002 	move	a0,s0
    5df4:	31d1010c 	jal	0x744c4
    5df8:	21984000 	move	s3,v0
    5dfc:	21200002 	move	a0,s0
    5e00:	fdd0010c 	jal	0x743f4
    5e04:	21a04000 	move	s4,v0
    5e08:	21805102 	addu	s0,s2,s1
    5e0c:	21200002 	move	a0,s0
    5e10:	31d1010c 	jal	0x744c4
    5e14:	21904000 	move	s2,v0
    5e18:	21200002 	move	a0,s0
    5e1c:	fdd0010c 	jal	0x743f4
    5e20:	21884000 	move	s1,v0
    5e24:	2120c002 	move	a0,s6
    5e28:	31d1010c 	jal	0x744c4
    5e2c:	21804000 	move	s0,v0
    5e30:	40200200 	sll	a0,v0,0x1
    5e34:	21208200 	addu	a0,a0,v0
    5e38:	80200400 	sll	a0,a0,0x2
    5e3c:	23204400 	subu	a0,v0,a0
    5e40:	03230400 	sra	a0,a0,0xc
    5e44:	18009500 	mult	a0,s5
    5e48:	12280000 	mflo	a1
	...
    5e54:	18009300 	mult	a0,s3
    5e58:	12200000 	mflo	a0
    5e5c:	00190200 	sll	v1,v0,0x4
    5e60:	031b0300 	sra	v1,v1,0xc
    5e64:	18007400 	mult	v1,s4
    5e68:	12380000 	mflo	a3
	...
    5e74:	18007200 	mult	v1,s2
    5e78:	12300000 	mflo	a2
	...
    5e84:	18007100 	mult	v1,s1
    5e88:	12500000 	mflo	t2
	...
    5e94:	18007000 	mult	v1,s0
    5e98:	c0100200 	sll	v0,v0,0x3
    5e9c:	12400000 	mflo	t0
    5ea0:	23100200 	negu	v0,v0
    5ea4:	03130200 	sra	v0,v0,0xc
    5ea8:	18005500 	mult	v0,s5
    5eac:	12780000 	mflo	t7
	...
    5eb8:	18005300 	mult	v0,s3
    5ebc:	00190500 	sll	v1,a1,0x4
    5ec0:	031c0300 	sra	v1,v1,0x10
    5ec4:	2110c400 	addu	v0,a2,a0
    5ec8:	00110200 	sll	v0,v0,0x4
    5ecc:	03140200 	sra	v0,v0,0x10
    5ed0:	00310400 	sll	a2,a0,0x4
    5ed4:	03340600 	sra	a2,a2,0x10
    5ed8:	12800000 	mflo	s0
    5edc:	23704600 	subu	t6,v0,a2
    5ee0:	23100e00 	negu	v0,t6
    5ee4:	18004300 	mult	v0,v1
    5ee8:	2110e500 	addu	v0,a3,a1
    5eec:	00110200 	sll	v0,v0,0x4
    5ef0:	12600000 	mflo	t4
    5ef4:	03140200 	sra	v0,v0,0x10
    5ef8:	23684300 	subu	t5,v0,v1
    5efc:	1800a601 	mult	t5,a2
    5f00:	21200401 	addu	a0,t0,a0
    5f04:	00210400 	sll	a0,a0,0x4
    5f08:	03240400 	sra	a0,a0,0x10
    5f0c:	12580000 	mflo	t3
    5f10:	23208600 	subu	a0,a0,a2
    5f14:	23100400 	negu	v0,a0
    5f18:	18004300 	mult	v0,v1
    5f1c:	21284501 	addu	a1,t2,a1
    5f20:	00290500 	sll	a1,a1,0x4
    5f24:	12480000 	mflo	t1
    5f28:	032c0500 	sra	a1,a1,0x10
    5f2c:	2328a300 	subu	a1,a1,v1
    5f30:	1800a600 	mult	a1,a2
    5f34:	03430f00 	sra	t0,t7,0xc
    5f38:	03531000 	sra	t2,s0,0xc
    5f3c:	1a80023c 	lui	v0,0x801a
    5f40:	288f5424 	addiu	s4,v0,-28888
    5f44:	e000e38e 	lw	v1,224(s7)
    5f48:	4802828e 	lw	v0,584(s4)
    5f4c:	21588b01 	addu	t3,t4,t3
    5f50:	23386200 	subu	a3,v1,v0
    5f54:	12300000 	mflo	a2
    5f58:	0200e104 	bgez	a3,0x5f64
    5f5c:	21482601 	addu	t1,t1,a2
    5f60:	ff07e724 	addiu	a3,a3,2047
    5f64:	e800e38e 	lw	v1,232(s7)
    5f68:	5002828e 	lw	v0,592(s4)
    5f6c:	00000000 	nop
    5f70:	23306200 	subu	a2,v1,v0
    5f74:	c31a0700 	sra	v1,a3,0xb
    5f78:	00140800 	sll	v0,t0,0x10
    5f7c:	039c0200 	sra	s3,v0,0x10
    5f80:	0200c104 	bgez	a2,0x5f8c
    5f84:	21887300 	addu	s1,v1,s3
    5f88:	ff07c624 	addiu	a2,a2,2047
    5f8c:	1800d101 	mult	t6,s1
    5f90:	c31a0600 	sra	v1,a2,0xb
    5f94:	00140a00 	sll	v0,t2,0x10
    5f98:	12380000 	mflo	a3
    5f9c:	03940200 	sra	s2,v0,0x10
    5fa0:	21807200 	addu	s0,v1,s2
    5fa4:	1800b001 	mult	t5,s0
    5fa8:	12300000 	mflo	a2
	...
    5fb4:	18009100 	mult	a0,s1
    5fb8:	12200000 	mflo	a0
	...
    5fc4:	1800b000 	mult	a1,s0
    5fc8:	2310e600 	subu	v0,a3,a2
    5fcc:	21104b00 	addu	v0,v0,t3
    5fd0:	12180000 	mflo	v1
    5fd4:	23188300 	subu	v1,a0,v1
    5fd8:	0300401c 	bgtz	v0,0x5fe8
    5fdc:	21186900 	addu	v1,v1,t1
    5fe0:	03006104 	bgez	v1,0x5ff0
    5fe4:	00000000 	nop
    5fe8:	125a0008 	j	0x16848
    5fec:	21100000 	move	v0,zero
    5ff0:	fdd0010c 	jal	0x743f4
    5ff4:	2120c002 	move	a0,s6
    5ff8:	e400e38e 	lw	v1,228(s7)
    5ffc:	4c02828e 	lw	v0,588(s4)
    6000:	00000000 	nop
    6004:	23186200 	subu	v1,v1,v0
    6008:	02006104 	bgez	v1,0x6014
    600c:	23103302 	subu	v0,s1,s3
    6010:	ff076324 	addiu	v1,v1,2047
    6014:	18004200 	mult	v0,v0
    6018:	12280000 	mflo	a1
    601c:	23101202 	subu	v0,s0,s2
    6020:	00000000 	nop
    6024:	18004200 	mult	v0,v0
    6028:	12200000 	mflo	a0
    602c:	c3120300 	sra	v0,v1,0xb
    6030:	00000000 	nop
    6034:	18004200 	mult	v0,v0
    6038:	2110a400 	addu	v0,a1,a0
    603c:	12180000 	mflo	v1
    6040:	21104300 	addu	v0,v0,v1
    6044:	91004228 	slti	v0,v0,145
    6048:	3000bf8f 	lw	ra,48(sp)
    604c:	2c00b78f 	lw	s7,44(sp)
    6050:	2800b68f 	lw	s6,40(sp)
    6054:	2400b58f 	lw	s5,36(sp)
    6058:	2000b48f 	lw	s4,32(sp)
    605c:	1c00b38f 	lw	s3,28(sp)
    6060:	1800b28f 	lw	s2,24(sp)
    6064:	1400b18f 	lw	s1,20(sp)
    6068:	1000b08f 	lw	s0,16(sp)
    606c:	3800bd27 	addiu	sp,sp,56
    6070:	0800e003 	jr	ra
    6074:	00000000 	nop
    6078:	1880023c 	lui	v0,0x8018
    607c:	d0bb4224 	addiu	v0,v0,-17456
    6080:	0f000324 	li	v1,15
    6084:	ff000524 	li	a1,255
    6088:	ffff0424 	li	a0,-1
    608c:	000045a0 	sb	a1,0(v0)
    6090:	ffff6324 	addiu	v1,v1,-1
    6094:	fdff6414 	bne	v1,a0,0x608c
    6098:	18004224 	addiu	v0,v0,24
    609c:	0800e003 	jr	ra
    60a0:	00000000 	nop
    60a4:	1880023c 	lui	v0,0x8018
    60a8:	d0bb4324 	addiu	v1,v0,-17456
    60ac:	10000424 	li	a0,16
    60b0:	ff000524 	li	a1,255
    60b4:	00006290 	lbu	v0,0(v1)
    60b8:	00000000 	nop
    60bc:	05004510 	beq	v0,a1,0x60d4
    60c0:	ffff8424 	addiu	a0,a0,-1
    60c4:	fbff8014 	bnez	a0,0x60b4
    60c8:	18006324 	addiu	v1,v1,24
    60cc:	365a0008 	j	0x168d8
    60d0:	21100000 	move	v0,zero
    60d4:	21106000 	move	v0,v1
    60d8:	0800e003 	jr	ra
    60dc:	00000000 	nop
    60e0:	d0ffbd27 	addiu	sp,sp,-48
    60e4:	1800b0af 	sw	s0,24(sp)
    60e8:	4000b08f 	lw	s0,64(sp)
    60ec:	2800b4af 	sw	s4,40(sp)
    60f0:	21a08000 	move	s4,a0
    60f4:	1c00b1af 	sw	s1,28(sp)
    60f8:	2188a000 	move	s1,a1
    60fc:	2400b3af 	sw	s3,36(sp)
    6100:	2198c000 	move	s3,a2
    6104:	2000b2af 	sw	s2,32(sp)
    6108:	2c00bfaf 	sw	ra,44(sp)
    610c:	295a000c 	jal	0x168a4
    6110:	2190e000 	move	s2,a3
    6114:	21304000 	move	a2,v0
    6118:	3500c010 	beqz	a2,0x61f0
    611c:	00000000 	nop
    6120:	0000d2a0 	sb	s2,0(a2)
    6124:	0600c0a4 	sh	zero,6(a2)
    6128:	0400d0a4 	sh	s0,4(a2)
    612c:	0100d1a0 	sb	s1,1(a2)
    6130:	0300d3a0 	sb	s3,3(a2)
    6134:	0200c0a0 	sb	zero,2(a2)
    6138:	0300828a 	lwl	v0,3(s4)
    613c:	0000829a 	lwr	v0,0(s4)
    6140:	0700838a 	lwl	v1,7(s4)
    6144:	0400839a 	lwr	v1,4(s4)
    6148:	1300c2a8 	swl	v0,19(a2)
    614c:	1000c2b8 	swr	v0,16(a2)
    6150:	1700c3a8 	swl	v1,23(a2)
    6154:	1400c3b8 	swr	v1,20(a2)
    6158:	1300c288 	lwl	v0,19(a2)
    615c:	1000c298 	lwr	v0,16(a2)
    6160:	1700c388 	lwl	v1,23(a2)
    6164:	1400c398 	lwr	v1,20(a2)
    6168:	0b00c2a8 	swl	v0,11(a2)
    616c:	0800c2b8 	swr	v0,8(a2)
    6170:	0f00c3a8 	swl	v1,15(a2)
    6174:	0c00c3b8 	swr	v1,12(a2)
    6178:	ffff4326 	addiu	v1,s2,-1
    617c:	3100622c 	sltiu	v0,v1,49
    6180:	1b004010 	beqz	v0,0x61f0
    6184:	80180300 	sll	v1,v1,0x2
    6188:	0180023c 	lui	v0,0x8001
    618c:	b0134224 	addiu	v0,v0,5040
    6190:	21186200 	addu	v1,v1,v0
    6194:	0000628c 	lw	v0,0(v1)
    6198:	00000000 	nop
    619c:	08004000 	jr	v0
    61a0:	00000000 	nop
    61a4:	1400c394 	lhu	v1,20(a2)
    61a8:	1000c294 	lhu	v0,16(a2)
    61ac:	0c00c494 	lhu	a0,12(a2)
    61b0:	001c0300 	sll	v1,v1,0x10
    61b4:	831c0300 	sra	v1,v1,0x12
    61b8:	21104300 	addu	v0,v0,v1
    61bc:	00240400 	sll	a0,a0,0x10
    61c0:	1000c2a4 	sh	v0,16(a2)
    61c4:	1400c294 	lhu	v0,20(a2)
    61c8:	83240400 	sra	a0,a0,0x12
    61cc:	0c00c4a4 	sh	a0,12(a2)
    61d0:	00140200 	sll	v0,v0,0x10
    61d4:	83140200 	sra	v0,v0,0x12
    61d8:	7c5a0008 	j	0x169f0
    61dc:	1400c2a4 	sh	v0,20(a2)
    61e0:	0a80053c 	lui	a1,0x800a
    61e4:	1000c424 	addiu	a0,a2,16
    61e8:	5be7010c 	jal	0x79d6c
    61ec:	88aca524 	addiu	a1,a1,-21368
    61f0:	2c00bf8f 	lw	ra,44(sp)
    61f4:	2800b48f 	lw	s4,40(sp)
    61f8:	2400b38f 	lw	s3,36(sp)
    61fc:	2000b28f 	lw	s2,32(sp)
    6200:	1c00b18f 	lw	s1,28(sp)
    6204:	1800b08f 	lw	s0,24(sp)
    6208:	3000bd27 	addiu	sp,sp,48
    620c:	0800e003 	jr	ra
    6210:	00000000 	nop
    6214:	b8ffbd27 	addiu	sp,sp,-72
    6218:	1880023c 	lui	v0,0x8018
    621c:	4000beaf 	sw	s8,64(sp)
    6220:	d0bb5e24 	addiu	s8,v0,-17456
    6224:	0f001824 	li	t8,15
    6228:	3c00b7af 	sw	s7,60(sp)
    622c:	1000b727 	addiu	s7,sp,16
    6230:	0a80023c 	lui	v0,0x800a
    6234:	3800b6af 	sw	s6,56(sp)
    6238:	8aac5624 	addiu	s6,v0,-21366
    623c:	2c00b3af 	sw	s3,44(sp)
    6240:	0200d327 	addiu	s3,s8,2
    6244:	4400bfaf 	sw	ra,68(sp)
    6248:	3400b5af 	sw	s5,52(sp)
    624c:	3000b4af 	sw	s4,48(sp)
    6250:	2800b2af 	sw	s2,40(sp)
    6254:	2400b1af 	sw	s1,36(sp)
    6258:	2000b0af 	sw	s0,32(sp)
    625c:	1800b8af 	sw	t8,24(sp)
    6260:	1b80023c 	lui	v0,0x801b
    6264:	02006386 	lh	v1,2(s3)
    6268:	29594290 	lbu	v0,22825(v0)
    626c:	00000000 	nop
    6270:	03006210 	beq	v1,v0,0x6280
    6274:	ff000224 	li	v0,255
    6278:	3b016214 	bne	v1,v0,0x6768
    627c:	00000000 	nop
    6280:	00006292 	lbu	v0,0(s3)
    6284:	00000000 	nop
    6288:	36014014 	bnez	v0,0x6764
    628c:	ffff4224 	addiu	v0,v0,-1
    6290:	1100628a 	lwl	v0,17(s3)
    6294:	0e00629a 	lwr	v0,14(s3)
    6298:	1500638a 	lwl	v1,21(s3)
    629c:	1200639a 	lwr	v1,18(s3)
    62a0:	1300a2ab 	swl	v0,19(sp)
    62a4:	1000a2bb 	swr	v0,16(sp)
    62a8:	1700a3ab 	swl	v1,23(sp)
    62ac:	1400a3bb 	swr	v1,20(sp)
    62b0:	ffff6292 	lbu	v0,-1(s3)
    62b4:	00000000 	nop
    62b8:	000062a2 	sb	v0,0(s3)
    62bc:	0000c393 	lbu	v1,0(s8)
    62c0:	00000000 	nop
    62c4:	15006228 	slti	v0,v1,21
    62c8:	0b004010 	beqz	v0,0x62f8
    62cc:	11006228 	slti	v0,v1,17
    62d0:	e6004010 	beqz	v0,0x666c
    62d4:	00000000 	nop
    62d8:	23016010 	beqz	v1,0x6768
    62dc:	06006228 	slti	v0,v1,6
    62e0:	10004014 	bnez	v0,0x6324
    62e4:	0a006228 	slti	v0,v1,10
    62e8:	1f014010 	beqz	v0,0x6768
    62ec:	00000000 	nop
    62f0:	f15a0008 	j	0x16bc4
    62f4:	00000000 	nop
    62f8:	31000224 	li	v0,49
    62fc:	f7006210 	beq	v1,v0,0x66dc
    6300:	32006228 	slti	v0,v1,50
    6304:	18014010 	beqz	v0,0x6768
    6308:	26006228 	slti	v0,v1,38
    630c:	16014010 	beqz	v0,0x6768
    6310:	21006228 	slti	v0,v1,33
    6314:	70004010 	beqz	v0,0x64d8
    6318:	00000000 	nop
    631c:	db5b0008 	j	0x16f6c
    6320:	18007326 	addiu	s3,s3,24
    6324:	01006392 	lbu	v1,1(s3)
    6328:	04006296 	lhu	v0,4(s3)
    632c:	00000000 	nop
    6330:	21204300 	addu	a0,v0,v1
    6334:	00140400 	sll	v0,a0,0x10
    6338:	14006386 	lh	v1,20(s3)
    633c:	03140200 	sra	v0,v0,0x10
    6340:	040064a6 	sh	a0,4(s3)
    6344:	2a104300 	slt	v0,v0,v1
    6348:	14006396 	lhu	v1,20(s3)
    634c:	02004014 	bnez	v0,0x6358
    6350:	23108300 	subu	v0,a0,v1
    6354:	040062a6 	sh	v0,4(s3)
    6358:	2120e002 	move	a0,s7
    635c:	06007486 	lh	s4,6(s3)
    6360:	08006786 	lh	a3,8(s3)
    6364:	04006396 	lhu	v1,4(s3)
    6368:	04006686 	lh	a2,4(s3)
    636c:	14006296 	lhu	v0,20(s3)
    6370:	21288002 	move	a1,s4
    6374:	2130e600 	addu	a2,a3,a2
    6378:	23104300 	subu	v0,v0,v1
    637c:	73e7010c 	jal	0x79dcc
    6380:	1600a2a7 	sh	v0,22(sp)
    6384:	04006286 	lh	v0,4(s3)
    6388:	00000000 	nop
    638c:	f6004010 	beqz	v0,0x6768
    6390:	2120e002 	move	a0,s7
    6394:	21288002 	move	a1,s4
    6398:	10006296 	lhu	v0,16(s3)
    639c:	1600a397 	lhu	v1,22(sp)
    63a0:	08007186 	lh	s1,8(s3)
    63a4:	21104300 	addu	v0,v0,v1
    63a8:	1200a2a7 	sh	v0,18(sp)
    63ac:	04006296 	lhu	v0,4(s3)
    63b0:	21302002 	move	a2,s1
    63b4:	73e7010c 	jal	0x79dcc
    63b8:	1600a2a7 	sh	v0,22(sp)
    63bc:	db5b0008 	j	0x16f6c
    63c0:	18007326 	addiu	s3,s3,24
    63c4:	01006392 	lbu	v1,1(s3)
    63c8:	04006296 	lhu	v0,4(s3)
    63cc:	00000000 	nop
    63d0:	21204300 	addu	a0,v0,v1
    63d4:	00140400 	sll	v0,a0,0x10
    63d8:	12006386 	lh	v1,18(s3)
    63dc:	03140200 	sra	v0,v0,0x10
    63e0:	040064a6 	sh	a0,4(s3)
    63e4:	2a104300 	slt	v0,v0,v1
    63e8:	12006396 	lhu	v1,18(s3)
    63ec:	04004014 	bnez	v0,0x6400
    63f0:	01000224 	li	v0,1
    63f4:	23108300 	subu	v0,a0,v1
    63f8:	040062a6 	sh	v0,4(s3)
    63fc:	01000224 	li	v0,1
    6400:	14007596 	lhu	s5,20(s3)
    6404:	ffff1924 	li	t9,-1
    6408:	1600a2a7 	sh	v0,22(sp)
    640c:	04007296 	lhu	s2,4(s3)
    6410:	08007186 	lh	s1,8(s3)
    6414:	ffffa226 	addiu	v0,s5,-1
    6418:	21a84000 	move	s5,v0
    641c:	00140200 	sll	v0,v0,0x10
    6420:	03140200 	sra	v0,v0,0x10
    6424:	d0005910 	beq	v0,t9,0x6768
    6428:	00000000 	nop
    642c:	00141200 	sll	v0,s2,0x10
    6430:	12006386 	lh	v1,18(s3)
    6434:	03140200 	sra	v0,v0,0x10
    6438:	2a104300 	slt	v0,v0,v1
    643c:	12006396 	lhu	v1,18(s3)
    6440:	02004014 	bnez	v0,0x644c
    6444:	1000a427 	addiu	a0,sp,16
    6448:	23904302 	subu	s2,s2,v1
    644c:	21302002 	move	a2,s1
    6450:	00841200 	sll	s0,s2,0x10
    6454:	06006586 	lh	a1,6(s3)
    6458:	0e006296 	lhu	v0,14(s3)
    645c:	03841000 	sra	s0,s0,0x10
    6460:	1000a2a7 	sh	v0,16(sp)
    6464:	12006296 	lhu	v0,18(s3)
    6468:	2128b000 	addu	a1,a1,s0
    646c:	23105200 	subu	v0,v0,s2
    6470:	73e7010c 	jal	0x79dcc
    6474:	1400a2a7 	sh	v0,20(sp)
    6478:	0a000012 	beqz	s0,0x64a4
    647c:	1000a427 	addiu	a0,sp,16
    6480:	06007486 	lh	s4,6(s3)
    6484:	0e006296 	lhu	v0,14(s3)
    6488:	1400a397 	lhu	v1,20(sp)
    648c:	21302002 	move	a2,s1
    6490:	1400b2a7 	sh	s2,20(sp)
    6494:	21288002 	move	a1,s4
    6498:	21104300 	addu	v0,v0,v1
    649c:	73e7010c 	jal	0x79dcc
    64a0:	1000a2a7 	sh	v0,16(sp)
    64a4:	01003126 	addiu	s1,s1,1
    64a8:	01005226 	addiu	s2,s2,1
    64ac:	ffffa226 	addiu	v0,s5,-1
    64b0:	21a84000 	move	s5,v0
    64b4:	00140200 	sll	v0,v0,0x10
    64b8:	03140200 	sra	v0,v0,0x10
    64bc:	1200a397 	lhu	v1,18(sp)
    64c0:	ffff1824 	li	t8,-1
    64c4:	01006324 	addiu	v1,v1,1
    64c8:	d8ff5814 	bne	v0,t8,0x642c
    64cc:	1200a3a7 	sh	v1,18(sp)
    64d0:	db5b0008 	j	0x16f6c
    64d4:	18007326 	addiu	s3,s3,24
    64d8:	01006392 	lbu	v1,1(s3)
    64dc:	04006296 	lhu	v0,4(s3)
    64e0:	00000000 	nop
    64e4:	21204300 	addu	a0,v0,v1
    64e8:	00140400 	sll	v0,a0,0x10
    64ec:	14006386 	lh	v1,20(s3)
    64f0:	03140200 	sra	v0,v0,0x10
    64f4:	040064a6 	sh	a0,4(s3)
    64f8:	2a104300 	slt	v0,v0,v1
    64fc:	14006396 	lhu	v1,20(s3)
    6500:	04004014 	bnez	v0,0x6514
    6504:	01000224 	li	v0,1
    6508:	23108300 	subu	v0,a0,v1
    650c:	040062a6 	sh	v0,4(s3)
    6510:	01000224 	li	v0,1
    6514:	12007296 	lhu	s2,18(s3)
    6518:	ffff1924 	li	t9,-1
    651c:	1400a2a7 	sh	v0,20(sp)
    6520:	04007596 	lhu	s5,4(s3)
    6524:	06007486 	lh	s4,6(s3)
    6528:	ffff4226 	addiu	v0,s2,-1
    652c:	21904000 	move	s2,v0
    6530:	00140200 	sll	v0,v0,0x10
    6534:	03140200 	sra	v0,v0,0x10
    6538:	8b005910 	beq	v0,t9,0x6768
    653c:	00000000 	nop
    6540:	12006286 	lh	v0,18(s3)
    6544:	00100324 	li	v1,4096
    6548:	1a006200 	div	zero,v1,v0
    654c:	02004014 	bnez	v0,0x6558
    6550:	00000000 	nop
    6554:	0d000700 	break	0x7
    6558:	ffff0124 	li	at,-1
    655c:	04004114 	bne	v0,at,0x6570
    6560:	0080013c 	lui	at,0x8000
    6564:	02006114 	bne	v1,at,0x6570
    6568:	00000000 	nop
    656c:	0d000600 	break	0x6
    6570:	12180000 	mflo	v1
    6574:	00241500 	sll	a0,s5,0x10
    6578:	03240400 	sra	a0,a0,0x10
    657c:	18006400 	mult	v1,a0
    6580:	12200000 	mflo	a0
    6584:	fdd0010c 	jal	0x743f4
    6588:	00000000 	nop
    658c:	14006396 	lhu	v1,20(s3)
    6590:	21304000 	move	a2,v0
    6594:	001c0300 	sll	v1,v1,0x10
    6598:	03240300 	sra	a0,v1,0x10
    659c:	21288000 	move	a1,a0
    65a0:	c21f0300 	srl	v1,v1,0x1f
    65a4:	21188300 	addu	v1,a0,v1
    65a8:	02008104 	bgez	a0,0x65b4
    65ac:	43180300 	sra	v1,v1,0x1
    65b0:	03008524 	addiu	a1,a0,3
    65b4:	83100500 	sra	v0,a1,0x2
    65b8:	18004600 	mult	v0,a2
    65bc:	12100000 	mflo	v0
    65c0:	02004104 	bgez	v0,0x65cc
    65c4:	00000000 	nop
    65c8:	ff0f4224 	addiu	v0,v0,4095
    65cc:	03130200 	sra	v0,v0,0xc
    65d0:	21806200 	addu	s0,v1,v0
    65d4:	2a100402 	slt	v0,s0,a0
    65d8:	02004014 	bnez	v0,0x65e4
    65dc:	00000000 	nop
    65e0:	23800402 	subu	s0,s0,a0
    65e4:	1000a427 	addiu	a0,sp,16
    65e8:	08006686 	lh	a2,8(s3)
    65ec:	10006296 	lhu	v0,16(s3)
    65f0:	21288002 	move	a1,s4
    65f4:	1200a2a7 	sh	v0,18(sp)
    65f8:	14006296 	lhu	v0,20(s3)
    65fc:	2130d000 	addu	a2,a2,s0
    6600:	23105000 	subu	v0,v0,s0
    6604:	73e7010c 	jal	0x79dcc
    6608:	1600a2a7 	sh	v0,22(sp)
    660c:	0a000012 	beqz	s0,0x6638
    6610:	1000a427 	addiu	a0,sp,16
    6614:	08007186 	lh	s1,8(s3)
    6618:	10006296 	lhu	v0,16(s3)
    661c:	1600a397 	lhu	v1,22(sp)
    6620:	21288002 	move	a1,s4
    6624:	1600b0a7 	sh	s0,22(sp)
    6628:	21302002 	move	a2,s1
    662c:	21104300 	addu	v0,v0,v1
    6630:	73e7010c 	jal	0x79dcc
    6634:	1200a2a7 	sh	v0,18(sp)
    6638:	01009426 	addiu	s4,s4,1
    663c:	0100b526 	addiu	s5,s5,1
    6640:	ffff4226 	addiu	v0,s2,-1
    6644:	21904000 	move	s2,v0
    6648:	00140200 	sll	v0,v0,0x10
    664c:	03140200 	sra	v0,v0,0x10
    6650:	1000a397 	lhu	v1,16(sp)
    6654:	ffff1824 	li	t8,-1
    6658:	01006324 	addiu	v1,v1,1
    665c:	b8ff5814 	bne	v0,t8,0x6540
    6660:	1000a3a7 	sh	v1,16(sp)
    6664:	db5b0008 	j	0x16f6c
    6668:	18007326 	addiu	s3,s3,24
    666c:	04006296 	lhu	v0,4(s3)
    6670:	01006392 	lbu	v1,1(s3)
    6674:	01004424 	addiu	a0,v0,1
    6678:	00140400 	sll	v0,a0,0x10
    667c:	03140200 	sra	v0,v0,0x10
    6680:	2a104300 	slt	v0,v0,v1
    6684:	08004014 	bnez	v0,0x66a8
    6688:	040064a6 	sh	a0,4(s3)
    668c:	040060a6 	sh	zero,4(s3)
    6690:	2120e002 	move	a0,s7
    6694:	0a80053c 	lui	a1,0x800a
    6698:	43e7010c 	jal	0x79d0c
    669c:	88aca524 	addiu	a1,a1,-21368
    66a0:	db5b0008 	j	0x16f6c
    66a4:	18007326 	addiu	s3,s3,24
    66a8:	14006296 	lhu	v0,20(s3)
    66ac:	00000000 	nop
    66b0:	18008200 	mult	a0,v0
    66b4:	1200a297 	lhu	v0,18(sp)
    66b8:	12c80000 	mflo	t9
    66bc:	21105900 	addu	v0,v0,t9
    66c0:	1200a2a7 	sh	v0,18(sp)
    66c4:	06006586 	lh	a1,6(s3)
    66c8:	08006686 	lh	a2,8(s3)
    66cc:	73e7010c 	jal	0x79dcc
    66d0:	2120e002 	move	a0,s7
    66d4:	db5b0008 	j	0x16f6c
    66d8:	18007326 	addiu	s3,s3,24
    66dc:	2120e002 	move	a0,s7
    66e0:	0a80023c 	lui	v0,0x800a
    66e4:	8aac5294 	lhu	s2,-21366(v0)
    66e8:	0200c396 	lhu	v1,2(s6)
    66ec:	0400c696 	lhu	a2,4(s6)
    66f0:	0600c796 	lhu	a3,6(s6)
    66f4:	0800c896 	lhu	t0,8(s6)
    66f8:	0a00c996 	lhu	t1,10(s6)
    66fc:	0c00ca96 	lhu	t2,12(s6)
    6700:	0e00cb96 	lhu	t3,14(s6)
    6704:	1000cc96 	lhu	t4,16(s6)
    6708:	1200cd96 	lhu	t5,18(s6)
    670c:	1400ce96 	lhu	t6,20(s6)
    6710:	1600cf96 	lhu	t7,22(s6)
    6714:	1800d096 	lhu	s0,24(s6)
    6718:	1a00d196 	lhu	s1,26(s6)
    671c:	feffc526 	addiu	a1,s6,-2
    6720:	8aac43a4 	sh	v1,-21366(v0)
    6724:	0200c6a6 	sh	a2,2(s6)
    6728:	0400c7a6 	sh	a3,4(s6)
    672c:	0600c8a6 	sh	t0,6(s6)
    6730:	0800c9a6 	sh	t1,8(s6)
    6734:	0a00caa6 	sh	t2,10(s6)
    6738:	0c00cba6 	sh	t3,12(s6)
    673c:	0e00cca6 	sh	t4,14(s6)
    6740:	1000cda6 	sh	t5,16(s6)
    6744:	1200cea6 	sh	t6,18(s6)
    6748:	1400cfa6 	sh	t7,20(s6)
    674c:	1600d0a6 	sh	s0,22(s6)
    6750:	1800d1a6 	sh	s1,24(s6)
    6754:	43e7010c 	jal	0x79d0c
    6758:	1a00d2a6 	sh	s2,26(s6)
    675c:	db5b0008 	j	0x16f6c
    6760:	18007326 	addiu	s3,s3,24
    6764:	000062a2 	sb	v0,0(s3)
    6768:	18007326 	addiu	s3,s3,24
    676c:	1800de27 	addiu	s8,s8,24
    6770:	1800b88f 	lw	t8,24(sp)
    6774:	ffff1924 	li	t9,-1
    6778:	ffff1827 	addiu	t8,t8,-1
    677c:	b8fe1917 	bne	t8,t9,0x6260
    6780:	1800b8af 	sw	t8,24(sp)
    6784:	4400bf8f 	lw	ra,68(sp)
    6788:	4000be8f 	lw	s8,64(sp)
    678c:	3c00b78f 	lw	s7,60(sp)
    6790:	3800b68f 	lw	s6,56(sp)
    6794:	3400b58f 	lw	s5,52(sp)
    6798:	3000b48f 	lw	s4,48(sp)
    679c:	2c00b38f 	lw	s3,44(sp)
    67a0:	2800b28f 	lw	s2,40(sp)
    67a4:	2400b18f 	lw	s1,36(sp)
    67a8:	2000b08f 	lw	s0,32(sp)
    67ac:	4800bd27 	addiu	sp,sp,72
    67b0:	0800e003 	jr	ra
    67b4:	00000000 	nop
    67b8:	d0ffbd27 	addiu	sp,sp,-48
    67bc:	03000424 	li	a0,3
    67c0:	2800bfaf 	sw	ra,40(sp)
    67c4:	2400b3af 	sw	s3,36(sp)
    67c8:	2000b2af 	sw	s2,32(sp)
    67cc:	1c00b1af 	sw	s1,28(sp)
    67d0:	b9e5010c 	jal	0x796e4
    67d4:	1800b0af 	sw	s0,24(sp)
    67d8:	16e6010c 	jal	0x79858
    67dc:	21200000 	move	a0,zero
    67e0:	8fd1010c 	jal	0x7463c
    67e4:	f0001224 	li	s2,240
    67e8:	a0000924 	li	t1,160
    67ec:	78000a24 	li	t2,120
    67f0:	00640900 	sll	t4,t1,0x10
    67f4:	006c0a00 	sll	t5,t2,0x10
    67f8:	00c0cc48 	ctc2	t4,$24
    67fc:	00c8cd48 	ctc2	t5,$25
    6800:	2c010b24 	li	t3,300
    6804:	00d0cb48 	ctc2	t3,$26
    6808:	1680103c 	lui	s0,0x8016
    680c:	90d01026 	addiu	s0,s0,-12144
    6810:	21200002 	move	a0,s0
    6814:	21280000 	move	a1,zero
    6818:	2130a000 	move	a2,a1
    681c:	40010724 	li	a3,320
    6820:	7de5010c 	jal	0x795f4
    6824:	1000b2af 	sw	s2,16(sp)
    6828:	b8001326 	addiu	s3,s0,184
    682c:	21206002 	move	a0,s3
    6830:	21280000 	move	a1,zero
    6834:	21304002 	move	a2,s2
    6838:	40010724 	li	a3,320
    683c:	aae5010c 	jal	0x796a8
    6840:	1000b2af 	sw	s2,16(sp)
    6844:	5c001126 	addiu	s1,s0,92
    6848:	21202002 	move	a0,s1
    684c:	21280000 	move	a1,zero
    6850:	21304002 	move	a2,s2
    6854:	40010724 	li	a3,320
    6858:	7de5010c 	jal	0x795f4
    685c:	1000b2af 	sw	s2,16(sp)
    6860:	cc000426 	addiu	a0,s0,204
    6864:	21280000 	move	a1,zero
    6868:	2130a000 	move	a2,a1
    686c:	40010724 	li	a3,320
    6870:	aae5010c 	jal	0x796a8
    6874:	1000b2af 	sw	s2,16(sp)
    6878:	21206002 	move	a0,s3
    687c:	01000224 	li	v0,1
    6880:	160002a2 	sb	v0,22(s0)
    6884:	720002a2 	sb	v0,114(s0)
    6888:	180002a2 	sb	v0,24(s0)
    688c:	740002a2 	sb	v0,116(s0)
    6890:	190000a2 	sb	zero,25(s0)
    6894:	1a0000a2 	sb	zero,26(s0)
    6898:	1b0000a2 	sb	zero,27(s0)
    689c:	190020a2 	sb	zero,25(s1)
    68a0:	1a0020a2 	sb	zero,26(s1)
    68a4:	a4e8010c 	jal	0x7a290
    68a8:	1b0020a2 	sb	zero,27(s1)
    68ac:	31e8010c 	jal	0x7a0c4
    68b0:	21200002 	move	a0,s0
    68b4:	50000924 	li	t1,80
    68b8:	21502001 	move	t2,t1
    68bc:	21582001 	move	t3,t1
    68c0:	00610900 	sll	t4,t1,0x4
    68c4:	00690a00 	sll	t5,t2,0x4
    68c8:	00710b00 	sll	t6,t3,0x4
    68cc:	0068cc48 	ctc2	t4,$13
    68d0:	0070cd48 	ctc2	t5,$14
    68d4:	0078ce48 	ctc2	t6,$15
    68d8:	0100043c 	lui	a0,0x1
    68dc:	00808434 	ori	a0,a0,0x8000
    68e0:	1880023c 	lui	v0,0x8018
    68e4:	55bd4624 	addiu	a2,v0,-17067
    68e8:	07000524 	li	a1,7
    68ec:	ff000824 	li	t0,255
    68f0:	ffff0724 	li	a3,-1
    68f4:	21200402 	addu	a0,s0,a0
    68f8:	21100001 	move	v0,t0
    68fc:	c26c82a0 	sb	v0,27842(a0)
    6900:	1280023c 	lui	v0,0x8012
    6904:	88c44224 	addiu	v0,v0,-15224
    6908:	00800334 	li	v1,0x8000
    690c:	e00002ae 	sw	v0,224(s0)
    6910:	21800302 	addu	s0,s0,v1
    6914:	0200033c 	lui	v1,0x2
    6918:	ec0202ae 	sw	v0,748(s0)
    691c:	21104300 	addu	v0,v0,v1
    6920:	f00202ae 	sw	v0,752(s0)
    6924:	f80202ae 	sw	v0,760(s0)
    6928:	21104300 	addu	v0,v0,v1
    692c:	fc0202ae 	sw	v0,764(s0)
    6930:	cf6c80a0 	sb	zero,27855(a0)
    6934:	cd6c80a0 	sb	zero,27853(a0)
    6938:	ce6c80a0 	sb	zero,27854(a0)
    693c:	0000c8a0 	sb	t0,0(a2)
    6940:	ffffa524 	addiu	a1,a1,-1
    6944:	fdffa714 	bne	a1,a3,0x693c
    6948:	0100c624 	addiu	a2,a2,1
    694c:	1e5a000c 	jal	0x16878
    6950:	1680103c 	lui	s0,0x8016
    6954:	0100023c 	lui	v0,0x1
    6958:	00804234 	ori	v0,v0,0x8000
    695c:	90d01026 	addiu	s0,s0,-12144
    6960:	21800202 	addu	s0,s0,v0
    6964:	ff000224 	li	v0,255
    6968:	d26c02a2 	sb	v0,27858(s0)
    696c:	0d000224 	li	v0,13
    6970:	c36c02a2 	sb	v0,27843(s0)
    6974:	1680023c 	lui	v0,0x8016
    6978:	156e00a2 	sb	zero,28181(s0)
    697c:	f06d00ae 	sw	zero,28144(s0)
    6980:	f46d00ae 	sw	zero,28148(s0)
    6984:	31d0000c 	jal	0x340c4
    6988:	88c440ac 	sw	zero,-15224(v0)
    698c:	d2d3000c 	jal	0x34f48
    6990:	00000000 	nop
    6994:	11000224 	li	v0,17
    6998:	fc6d02a2 	sb	v0,28156(s0)
    699c:	fd6d00a2 	sb	zero,28157(s0)
    69a0:	fe6d00a2 	sb	zero,28158(s0)
    69a4:	166e00a2 	sb	zero,28182(s0)
    69a8:	2800bf8f 	lw	ra,40(sp)
    69ac:	2400b38f 	lw	s3,36(sp)
    69b0:	2000b28f 	lw	s2,32(sp)
    69b4:	1c00b18f 	lw	s1,28(sp)
    69b8:	1800b08f 	lw	s0,24(sp)
    69bc:	3000bd27 	addiu	sp,sp,48
    69c0:	0800e003 	jr	ra
    69c4:	00000000 	nop
    69c8:	d8ffbd27 	addiu	sp,sp,-40
    69cc:	2000b2af 	sw	s2,32(sp)
    69d0:	e0011224 	li	s2,480
    69d4:	40010324 	li	v1,320
    69d8:	f0000824 	li	t0,240
    69dc:	2400bfaf 	sw	ra,36(sp)
    69e0:	1c00b1af 	sw	s1,28(sp)
    69e4:	1800b0af 	sw	s0,24(sp)
    69e8:	00640300 	sll	t4,v1,0x10
    69ec:	006c0800 	sll	t5,t0,0x10
    69f0:	00c0cc48 	ctc2	t4,$24
    69f4:	00c8cd48 	ctc2	t5,$25
    69f8:	2c010324 	li	v1,300
    69fc:	00d0c348 	ctc2	v1,$26
    6a00:	1680103c 	lui	s0,0x8016
    6a04:	90d01026 	addiu	s0,s0,-12144
    6a08:	21200002 	move	a0,s0
    6a0c:	21280000 	move	a1,zero
    6a10:	2130a000 	move	a2,a1
    6a14:	80020724 	li	a3,640
    6a18:	7de5010c 	jal	0x795f4
    6a1c:	1000b2af 	sw	s2,16(sp)
    6a20:	b8000426 	addiu	a0,s0,184
    6a24:	21280000 	move	a1,zero
    6a28:	21304002 	move	a2,s2
    6a2c:	80020724 	li	a3,640
    6a30:	aae5010c 	jal	0x796a8
    6a34:	1000b2af 	sw	s2,16(sp)
    6a38:	5c001126 	addiu	s1,s0,92
    6a3c:	21202002 	move	a0,s1
    6a40:	21280000 	move	a1,zero
    6a44:	2130a000 	move	a2,a1
    6a48:	80020724 	li	a3,640
    6a4c:	7de5010c 	jal	0x795f4
    6a50:	1000b2af 	sw	s2,16(sp)
    6a54:	cc000426 	addiu	a0,s0,204
    6a58:	21280000 	move	a1,zero
    6a5c:	21304002 	move	a2,s2
    6a60:	80020724 	li	a3,640
    6a64:	aae5010c 	jal	0x796a8
    6a68:	1000b2af 	sw	s2,16(sp)
    6a6c:	01000224 	li	v0,1
    6a70:	c80002a2 	sb	v0,200(s0)
    6a74:	170000a2 	sb	zero,23(s0)
    6a78:	160002a2 	sb	v0,22(s0)
    6a7c:	720002a2 	sb	v0,114(s0)
    6a80:	180002a2 	sb	v0,24(s0)
    6a84:	740002a2 	sb	v0,116(s0)
    6a88:	190000a2 	sb	zero,25(s0)
    6a8c:	1a0000a2 	sb	zero,26(s0)
    6a90:	1b0000a2 	sb	zero,27(s0)
    6a94:	190020a2 	sb	zero,25(s1)
    6a98:	1a0020a2 	sb	zero,26(s1)
    6a9c:	1b0020a2 	sb	zero,27(s1)
    6aa0:	2400bf8f 	lw	ra,36(sp)
    6aa4:	2000b28f 	lw	s2,32(sp)
    6aa8:	1c00b18f 	lw	s1,28(sp)
    6aac:	1800b08f 	lw	s0,24(sp)
    6ab0:	2800bd27 	addiu	sp,sp,40
    6ab4:	0800e003 	jr	ra
    6ab8:	00000000 	nop
    6abc:	d8ffbd27 	addiu	sp,sp,-40
    6ac0:	2000b2af 	sw	s2,32(sp)
    6ac4:	f0001224 	li	s2,240
    6ac8:	40010324 	li	v1,320
    6acc:	78000824 	li	t0,120
    6ad0:	2400bfaf 	sw	ra,36(sp)
    6ad4:	1c00b1af 	sw	s1,28(sp)
    6ad8:	1800b0af 	sw	s0,24(sp)
    6adc:	00640300 	sll	t4,v1,0x10
    6ae0:	006c0800 	sll	t5,t0,0x10
    6ae4:	00c0cc48 	ctc2	t4,$24
    6ae8:	00c8cd48 	ctc2	t5,$25
    6aec:	2c010324 	li	v1,300
    6af0:	00d0c348 	ctc2	v1,$26
    6af4:	1680103c 	lui	s0,0x8016
    6af8:	90d01026 	addiu	s0,s0,-12144
    6afc:	21200002 	move	a0,s0
    6b00:	21280000 	move	a1,zero
    6b04:	2130a000 	move	a2,a1
    6b08:	80020724 	li	a3,640
    6b0c:	7de5010c 	jal	0x795f4
    6b10:	1000b2af 	sw	s2,16(sp)
    6b14:	b8000426 	addiu	a0,s0,184
    6b18:	21280000 	move	a1,zero
    6b1c:	21304002 	move	a2,s2
    6b20:	80020724 	li	a3,640
    6b24:	aae5010c 	jal	0x796a8
    6b28:	1000b2af 	sw	s2,16(sp)
    6b2c:	5c001126 	addiu	s1,s0,92
    6b30:	21202002 	move	a0,s1
    6b34:	21280000 	move	a1,zero
    6b38:	21304002 	move	a2,s2
    6b3c:	80020724 	li	a3,640
    6b40:	7de5010c 	jal	0x795f4
    6b44:	1000b2af 	sw	s2,16(sp)
    6b48:	cc000426 	addiu	a0,s0,204
    6b4c:	21280000 	move	a1,zero
    6b50:	2130a000 	move	a2,a1
    6b54:	80020724 	li	a3,640
    6b58:	aae5010c 	jal	0x796a8
    6b5c:	1000b2af 	sw	s2,16(sp)
    6b60:	01000224 	li	v0,1
    6b64:	160002a2 	sb	v0,22(s0)
    6b68:	720002a2 	sb	v0,114(s0)
    6b6c:	180002a2 	sb	v0,24(s0)
    6b70:	740002a2 	sb	v0,116(s0)
    6b74:	190000a2 	sb	zero,25(s0)
    6b78:	1a0000a2 	sb	zero,26(s0)
    6b7c:	1b0000a2 	sb	zero,27(s0)
    6b80:	190020a2 	sb	zero,25(s1)
    6b84:	1a0020a2 	sb	zero,26(s1)
    6b88:	1b0020a2 	sb	zero,27(s1)
    6b8c:	2400bf8f 	lw	ra,36(sp)
    6b90:	2000b28f 	lw	s2,32(sp)
    6b94:	1c00b18f 	lw	s1,28(sp)
    6b98:	1800b08f 	lw	s0,24(sp)
    6b9c:	2800bd27 	addiu	sp,sp,40
    6ba0:	0800e003 	jr	ra
    6ba4:	00000000 	nop
    6ba8:	d0ffbd27 	addiu	sp,sp,-48
    6bac:	2000b2af 	sw	s2,32(sp)
    6bb0:	f0001224 	li	s2,240
    6bb4:	a0000324 	li	v1,160
    6bb8:	78000824 	li	t0,120
    6bbc:	2c00bfaf 	sw	ra,44(sp)
    6bc0:	2800b4af 	sw	s4,40(sp)
    6bc4:	2400b3af 	sw	s3,36(sp)
    6bc8:	1c00b1af 	sw	s1,28(sp)
    6bcc:	1800b0af 	sw	s0,24(sp)
    6bd0:	00640300 	sll	t4,v1,0x10
    6bd4:	006c0800 	sll	t5,t0,0x10
    6bd8:	00c0cc48 	ctc2	t4,$24
    6bdc:	00c8cd48 	ctc2	t5,$25
    6be0:	2c010324 	li	v1,300
    6be4:	00d0c348 	ctc2	v1,$26
    6be8:	1680103c 	lui	s0,0x8016
    6bec:	90d01026 	addiu	s0,s0,-12144
    6bf0:	21200002 	move	a0,s0
    6bf4:	21280000 	move	a1,zero
    6bf8:	2130a000 	move	a2,a1
    6bfc:	40010724 	li	a3,320
    6c00:	7de5010c 	jal	0x795f4
    6c04:	1000b2af 	sw	s2,16(sp)
    6c08:	b8001426 	addiu	s4,s0,184
    6c0c:	21208002 	move	a0,s4
    6c10:	21280000 	move	a1,zero
    6c14:	21304002 	move	a2,s2
    6c18:	40010724 	li	a3,320
    6c1c:	aae5010c 	jal	0x796a8
    6c20:	1000b2af 	sw	s2,16(sp)
    6c24:	5c001126 	addiu	s1,s0,92
    6c28:	21202002 	move	a0,s1
    6c2c:	21280000 	move	a1,zero
    6c30:	21304002 	move	a2,s2
    6c34:	40010724 	li	a3,320
    6c38:	7de5010c 	jal	0x795f4
    6c3c:	1000b2af 	sw	s2,16(sp)
    6c40:	cc001326 	addiu	s3,s0,204
    6c44:	21206002 	move	a0,s3
    6c48:	21280000 	move	a1,zero
    6c4c:	2130a000 	move	a2,a1
    6c50:	40010724 	li	a3,320
    6c54:	aae5010c 	jal	0x796a8
    6c58:	1000b2af 	sw	s2,16(sp)
    6c5c:	21200002 	move	a0,s0
    6c60:	01000224 	li	v0,1
    6c64:	160082a0 	sb	v0,22(a0)
    6c68:	720082a0 	sb	v0,114(a0)
    6c6c:	190080a0 	sb	zero,25(a0)
    6c70:	1a0080a0 	sb	zero,26(a0)
    6c74:	1b0080a0 	sb	zero,27(a0)
    6c78:	190020a2 	sb	zero,25(s1)
    6c7c:	1a0020a2 	sb	zero,26(s1)
    6c80:	31e8010c 	jal	0x7a0c4
    6c84:	1b0020a2 	sb	zero,27(s1)
    6c88:	31e8010c 	jal	0x7a0c4
    6c8c:	21202002 	move	a0,s1
    6c90:	a4e8010c 	jal	0x7a290
    6c94:	21208002 	move	a0,s4
    6c98:	a4e8010c 	jal	0x7a290
    6c9c:	21206002 	move	a0,s3
    6ca0:	2c00bf8f 	lw	ra,44(sp)
    6ca4:	2800b48f 	lw	s4,40(sp)
    6ca8:	2400b38f 	lw	s3,36(sp)
    6cac:	2000b28f 	lw	s2,32(sp)
    6cb0:	1c00b18f 	lw	s1,28(sp)
    6cb4:	1800b08f 	lw	s0,24(sp)
    6cb8:	3000bd27 	addiu	sp,sp,48
    6cbc:	0800e003 	jr	ra
    6cc0:	00000000 	nop
    6cc4:	e0ffbd27 	addiu	sp,sp,-32
    6cc8:	1400b1af 	sw	s1,20(sp)
    6ccc:	0100113c 	lui	s1,0x1
    6cd0:	00803136 	ori	s1,s1,0x8000
    6cd4:	1680063c 	lui	a2,0x8016
    6cd8:	90d0c624 	addiu	a2,a2,-12144
    6cdc:	2188d100 	addu	s1,a2,s1
    6ce0:	1800bfaf 	sw	ra,24(sp)
    6ce4:	1000b0af 	sw	s0,16(sp)
    6ce8:	c26c2292 	lbu	v0,27842(s1)
    6cec:	00801034 	li	s0,0x8000
    6cf0:	0100422c 	sltiu	v0,v0,1
    6cf4:	c26c22a2 	sb	v0,27842(s1)
    6cf8:	c26c2292 	lbu	v0,27842(s1)
    6cfc:	2180d000 	addu	s0,a2,s0
    6d00:	40180200 	sll	v1,v0,0x1
    6d04:	21186200 	addu	v1,v1,v0
    6d08:	80180300 	sll	v1,v1,0x2
    6d0c:	1680023c 	lui	v0,0x8016
    6d10:	7c534224 	addiu	v0,v0,21372
    6d14:	21186200 	addu	v1,v1,v0
    6d18:	040303ae 	sw	v1,772(s0)
    6d1c:	0000628c 	lw	v0,0(v1)
    6d20:	00100524 	li	a1,4096
    6d24:	080062ac 	sw	v0,8(v1)
    6d28:	c26c2492 	lbu	a0,27842(s1)
    6d2c:	e400c624 	addiu	a2,a2,228
    6d30:	80230400 	sll	a0,a0,0xe
    6d34:	21208600 	addu	a0,a0,a2
    6d38:	d3e7010c 	jal	0x79f4c
    6d3c:	e40004ae 	sw	a0,228(s0)
    6d40:	40000524 	li	a1,64
    6d44:	1680023c 	lui	v0,0x8016
    6d48:	c26c2492 	lbu	a0,27842(s1)
    6d4c:	78514224 	addiu	v0,v0,20856
    6d50:	00220400 	sll	a0,a0,0x8
    6d54:	21208200 	addu	a0,a0,v0
    6d58:	d3e7010c 	jal	0x79f4c
    6d5c:	e80204ae 	sw	a0,744(s0)
    6d60:	280300ae 	sw	zero,808(s0)
    6d64:	240300ae 	sw	zero,804(s0)
    6d68:	200300ae 	sw	zero,800(s0)
    6d6c:	1c0300ae 	sw	zero,796(s0)
    6d70:	2c0300ae 	sw	zero,812(s0)
    6d74:	300300ae 	sw	zero,816(s0)
    6d78:	380300ae 	sw	zero,824(s0)
    6d7c:	3c0300ae 	sw	zero,828(s0)
    6d80:	400300ae 	sw	zero,832(s0)
    6d84:	440300ae 	sw	zero,836(s0)
    6d88:	480300ae 	sw	zero,840(s0)
    6d8c:	1800bf8f 	lw	ra,24(sp)
    6d90:	1400b18f 	lw	s1,20(sp)
    6d94:	1000b08f 	lw	s0,16(sp)
    6d98:	2000bd27 	addiu	sp,sp,32
    6d9c:	0800e003 	jr	ra
    6da0:	00000000 	nop
    6da4:	e0ffbd27 	addiu	sp,sp,-32
    6da8:	21200000 	move	a0,zero
    6dac:	1800bfaf 	sw	ra,24(sp)
    6db0:	1400b1af 	sw	s1,20(sp)
    6db4:	98e6010c 	jal	0x79a60
    6db8:	1000b0af 	sw	s0,16(sp)
    6dbc:	41dc010c 	jal	0x77104
    6dc0:	03000424 	li	a0,3
    6dc4:	0100103c 	lui	s0,0x1
    6dc8:	00801036 	ori	s0,s0,0x8000
    6dcc:	1680113c 	lui	s1,0x8016
    6dd0:	90d03126 	addiu	s1,s1,-12144
    6dd4:	21803002 	addu	s0,s1,s0
    6dd8:	c26c0292 	lbu	v0,27842(s0)
    6ddc:	00000000 	nop
    6de0:	80200200 	sll	a0,v0,0x2
    6de4:	21208200 	addu	a0,a0,v0
    6de8:	80200400 	sll	a0,a0,0x2
    6dec:	b8002226 	addiu	v0,s1,184
    6df0:	a4e8010c 	jal	0x7a290
    6df4:	21208200 	addu	a0,a0,v0
    6df8:	c26c0292 	lbu	v0,27842(s0)
    6dfc:	00000000 	nop
    6e00:	40200200 	sll	a0,v0,0x1
    6e04:	21208200 	addu	a0,a0,v0
    6e08:	c0200400 	sll	a0,a0,0x3
    6e0c:	23208200 	subu	a0,a0,v0
    6e10:	80200400 	sll	a0,a0,0x2
    6e14:	31e8010c 	jal	0x7a0c4
    6e18:	21209100 	addu	a0,a0,s1
    6e1c:	1800bf8f 	lw	ra,24(sp)
    6e20:	1400b18f 	lw	s1,20(sp)
    6e24:	1000b08f 	lw	s0,16(sp)
    6e28:	2000bd27 	addiu	sp,sp,32
    6e2c:	0800e003 	jr	ra
    6e30:	00000000 	nop
    6e34:	e8ffbd27 	addiu	sp,sp,-24
    6e38:	1000b0af 	sw	s0,16(sp)
    6e3c:	1680103c 	lui	s0,0x8016
    6e40:	90d01026 	addiu	s0,s0,-12144
    6e44:	00800234 	li	v0,0x8000
    6e48:	21800202 	addu	s0,s0,v0
    6e4c:	1400bfaf 	sw	ra,20(sp)
    6e50:	e802068e 	lw	a2,744(s0)
    6e54:	e400048e 	lw	a0,228(s0)
    6e58:	e9f1010c 	jal	0x7c7a4
    6e5c:	fc00c524 	addiu	a1,a2,252
    6e60:	e400048e 	lw	a0,228(s0)
    6e64:	15e8010c 	jal	0x7a054
    6e68:	fc3f8424 	addiu	a0,a0,16380
    6e6c:	1400bf8f 	lw	ra,20(sp)
    6e70:	1000b08f 	lw	s0,16(sp)
    6e74:	1800bd27 	addiu	sp,sp,24
    6e78:	0800e003 	jr	ra
    6e7c:	00000000 	nop
    6e80:	e8ffbd27 	addiu	sp,sp,-24
    6e84:	1000bfaf 	sw	ra,16(sp)
    6e88:	695d000c 	jal	0x175a4
    6e8c:	00000000 	nop
    6e90:	8d5d000c 	jal	0x17634
    6e94:	00000000 	nop
    6e98:	1000bf8f 	lw	ra,16(sp)
    6e9c:	1800bd27 	addiu	sp,sp,24
    6ea0:	0800e003 	jr	ra
    6ea4:	00000000 	nop
    6ea8:	e0ffbd27 	addiu	sp,sp,-32
    6eac:	21388000 	move	a3,a0
    6eb0:	2140a000 	move	t0,a1
    6eb4:	1c00bfaf 	sw	ra,28(sp)
    6eb8:	0e00e010 	beqz	a3,0x6ef4
    6ebc:	1800b0af 	sw	s0,24(sp)
    6ec0:	0100033c 	lui	v1,0x1
    6ec4:	00806334 	ori	v1,v1,0x8000
    6ec8:	1680023c 	lui	v0,0x8016
    6ecc:	90d04224 	addiu	v0,v0,-12144
    6ed0:	21104300 	addu	v0,v0,v1
    6ed4:	0000e38c 	lw	v1,0(a3)
    6ed8:	0400e48c 	lw	a0,4(a3)
    6edc:	0800e58c 	lw	a1,8(a3)
    6ee0:	0c00e68c 	lw	a2,12(a3)
    6ee4:	c86d43ac 	sw	v1,28104(v0)
    6ee8:	cc6d44ac 	sw	a0,28108(v0)
    6eec:	d06d45ac 	sw	a1,28112(v0)
    6ef0:	d46d46ac 	sw	a2,28116(v0)
    6ef4:	0d000011 	beqz	t0,0x6f2c
    6ef8:	0100033c 	lui	v1,0x1
    6efc:	00806334 	ori	v1,v1,0x8000
    6f00:	1680023c 	lui	v0,0x8016
    6f04:	90d04224 	addiu	v0,v0,-12144
    6f08:	21104300 	addu	v0,v0,v1
    6f0c:	03000389 	lwl	v1,3(t0)
    6f10:	00000399 	lwr	v1,0(t0)
    6f14:	07000489 	lwl	a0,7(t0)
    6f18:	04000499 	lwr	a0,4(t0)
    6f1c:	db6d43a8 	swl	v1,28123(v0)
    6f20:	d86d43b8 	swr	v1,28120(v0)
    6f24:	df6d44a8 	swl	a0,28127(v0)
    6f28:	dc6d44b8 	swr	a0,28124(v0)
    6f2c:	0100033c 	lui	v1,0x1
    6f30:	00806334 	ori	v1,v1,0x8000
    6f34:	1000a427 	addiu	a0,sp,16
    6f38:	1680023c 	lui	v0,0x8016
    6f3c:	90d04224 	addiu	v0,v0,-12144
    6f40:	21104300 	addu	v0,v0,v1
    6f44:	1880103c 	lui	s0,0x8018
    6f48:	78bd1026 	addiu	s0,s0,-17032
    6f4c:	d86d4394 	lhu	v1,28120(v0)
    6f50:	dc6d4694 	lhu	a2,28124(v0)
    6f54:	da6d4294 	lhu	v0,28122(v0)
    6f58:	21280002 	move	a1,s0
    6f5c:	1000a3a7 	sh	v1,16(sp)
    6f60:	1400a6a7 	sh	a2,20(sp)
    6f64:	b1d3010c 	jal	0x74ec4
    6f68:	1200a2a7 	sh	v0,18(sp)
    6f6c:	1880053c 	lui	a1,0x8018
    6f70:	1000a487 	lh	a0,16(sp)
    6f74:	3527010c 	jal	0x49cd4
    6f78:	38bea524 	addiu	a1,a1,-16840
    6f7c:	21200002 	move	a0,s0
    6f80:	1880053c 	lui	a1,0x8018
    6f84:	3326010c 	jal	0x498cc
    6f88:	b8bda524 	addiu	a1,a1,-16968
    6f8c:	1c00bf8f 	lw	ra,28(sp)
    6f90:	1800b08f 	lw	s0,24(sp)
    6f94:	2000bd27 	addiu	sp,sp,32
    6f98:	0800e003 	jr	ra
    6f9c:	00000000 	nop
    6fa0:	ff00e730 	andi	a3,a3,0xff
    6fa4:	0200e014 	bnez	a3,0x6fb0
    6fa8:	21688000 	move	t5,a0
    6fac:	0800a78d 	lw	a3,8(t5)
    6fb0:	00000000 	nop
    6fb4:	ffffe724 	addiu	a3,a3,-1
    6fb8:	ffff0224 	li	v0,-1
    6fbc:	2501e210 	beq	a3,v0,0x7454
    6fc0:	00000000 	nop
    6fc4:	21604000 	move	t4,v0
    6fc8:	3200ab25 	addiu	t3,t5,50
    6fcc:	eaff628d 	lw	v0,-22(t3)
    6fd0:	f2ff6995 	lhu	t1,-14(t3)
    6fd4:	0c004224 	addiu	v0,v0,12
    6fd8:	ffff2925 	addiu	t1,t1,-1
    6fdc:	36002c11 	beq	t1,t4,0x70b8
    6fe0:	2150a201 	addu	t2,t5,v0
    6fe4:	09004825 	addiu	t0,t2,9
    6fe8:	0000a494 	lhu	a0,0(a1)
    6fec:	0200a294 	lhu	v0,2(a1)
    6ff0:	fdff0395 	lhu	v1,-3(t0)
    6ff4:	00240400 	sll	a0,a0,0x10
    6ff8:	83250400 	sra	a0,a0,0x16
    6ffc:	00140200 	sll	v0,v0,0x10
    7000:	03160200 	sra	v0,v0,0x18
    7004:	00110200 	sll	v0,v0,0x4
    7008:	21208200 	addu	a0,a0,v0
    700c:	21186400 	addu	v1,v1,a0
    7010:	fdff03a5 	sh	v1,-3(t0)
    7014:	0200c494 	lhu	a0,2(a2)
    7018:	0000c294 	lhu	v0,0(a2)
    701c:	f9ff0395 	lhu	v1,-7(t0)
    7020:	80210400 	sll	a0,a0,0x6
    7024:	00140200 	sll	v0,v0,0x10
    7028:	03150200 	sra	v0,v0,0x14
    702c:	21208200 	addu	a0,a0,v0
    7030:	21186400 	addu	v1,v1,a0
    7034:	f9ff03a5 	sh	v1,-7(t0)
    7038:	0000a290 	lbu	v0,0(a1)
    703c:	00004391 	lbu	v1,0(t2)
    7040:	3f004230 	andi	v0,v0,0x3f
    7044:	21186200 	addu	v1,v1,v0
    7048:	000043a1 	sb	v1,0(t2)
    704c:	0200a390 	lbu	v1,2(a1)
    7050:	f8ff0291 	lbu	v0,-8(t0)
    7054:	00000000 	nop
    7058:	21104300 	addu	v0,v0,v1
    705c:	f8ff02a1 	sb	v0,-8(t0)
    7060:	0000a290 	lbu	v0,0(a1)
    7064:	fbff0391 	lbu	v1,-5(t0)
    7068:	3f004230 	andi	v0,v0,0x3f
    706c:	21186200 	addu	v1,v1,v0
    7070:	fbff03a1 	sb	v1,-5(t0)
    7074:	0200a390 	lbu	v1,2(a1)
    7078:	fcff0291 	lbu	v0,-4(t0)
    707c:	ffff2925 	addiu	t1,t1,-1
    7080:	21104300 	addu	v0,v0,v1
    7084:	fcff02a1 	sb	v0,-4(t0)
    7088:	0000a290 	lbu	v0,0(a1)
    708c:	ffff0391 	lbu	v1,-1(t0)
    7090:	3f004230 	andi	v0,v0,0x3f
    7094:	21186200 	addu	v1,v1,v0
    7098:	ffff03a1 	sb	v1,-1(t0)
    709c:	0200a390 	lbu	v1,2(a1)
    70a0:	00000291 	lbu	v0,0(t0)
    70a4:	14004a25 	addiu	t2,t2,20
    70a8:	21104300 	addu	v0,v0,v1
    70ac:	000002a1 	sb	v0,0(t0)
    70b0:	cdff2c15 	bne	t1,t4,0x6fe8
    70b4:	14000825 	addiu	t0,t0,20
    70b8:	f6ff6995 	lhu	t1,-10(t3)
    70bc:	00000000 	nop
    70c0:	ffff2925 	addiu	t1,t1,-1
    70c4:	40002c11 	beq	t1,t4,0x71c8
    70c8:	00000000 	nop
    70cc:	0d004825 	addiu	t0,t2,13
    70d0:	0000a494 	lhu	a0,0(a1)
    70d4:	0200a294 	lhu	v0,2(a1)
    70d8:	f9ff0395 	lhu	v1,-7(t0)
    70dc:	00240400 	sll	a0,a0,0x10
    70e0:	83250400 	sra	a0,a0,0x16
    70e4:	00140200 	sll	v0,v0,0x10
    70e8:	03160200 	sra	v0,v0,0x18
    70ec:	00110200 	sll	v0,v0,0x4
    70f0:	21208200 	addu	a0,a0,v0
    70f4:	21186400 	addu	v1,v1,a0
    70f8:	f9ff03a5 	sh	v1,-7(t0)
    70fc:	0200c494 	lhu	a0,2(a2)
    7100:	0000c294 	lhu	v0,0(a2)
    7104:	f5ff0395 	lhu	v1,-11(t0)
    7108:	80210400 	sll	a0,a0,0x6
    710c:	00140200 	sll	v0,v0,0x10
    7110:	03150200 	sra	v0,v0,0x14
    7114:	21208200 	addu	a0,a0,v0
    7118:	21186400 	addu	v1,v1,a0
    711c:	f5ff03a5 	sh	v1,-11(t0)
    7120:	0000a290 	lbu	v0,0(a1)
    7124:	00004391 	lbu	v1,0(t2)
    7128:	3f004230 	andi	v0,v0,0x3f
    712c:	21186200 	addu	v1,v1,v0
    7130:	000043a1 	sb	v1,0(t2)
    7134:	0200a390 	lbu	v1,2(a1)
    7138:	f4ff0291 	lbu	v0,-12(t0)
    713c:	00000000 	nop
    7140:	21104300 	addu	v0,v0,v1
    7144:	f4ff02a1 	sb	v0,-12(t0)
    7148:	0000a290 	lbu	v0,0(a1)
    714c:	f7ff0391 	lbu	v1,-9(t0)
    7150:	3f004230 	andi	v0,v0,0x3f
    7154:	21186200 	addu	v1,v1,v0
    7158:	f7ff03a1 	sb	v1,-9(t0)
    715c:	0200a390 	lbu	v1,2(a1)
    7160:	f8ff0291 	lbu	v0,-8(t0)
    7164:	00000000 	nop
    7168:	21104300 	addu	v0,v0,v1
    716c:	f8ff02a1 	sb	v0,-8(t0)
    7170:	0000a290 	lbu	v0,0(a1)
    7174:	fbff0391 	lbu	v1,-5(t0)
    7178:	3f004230 	andi	v0,v0,0x3f
    717c:	21186200 	addu	v1,v1,v0
    7180:	fbff03a1 	sb	v1,-5(t0)
    7184:	0200a390 	lbu	v1,2(a1)
    7188:	fcff0291 	lbu	v0,-4(t0)
    718c:	ffff2925 	addiu	t1,t1,-1
    7190:	21104300 	addu	v0,v0,v1
    7194:	fcff02a1 	sb	v0,-4(t0)
    7198:	0000a290 	lbu	v0,0(a1)
    719c:	ffff0391 	lbu	v1,-1(t0)
    71a0:	3f004230 	andi	v0,v0,0x3f
    71a4:	21186200 	addu	v1,v1,v0
    71a8:	ffff03a1 	sb	v1,-1(t0)
    71ac:	0200a390 	lbu	v1,2(a1)
    71b0:	00000291 	lbu	v0,0(t0)
    71b4:	1c004a25 	addiu	t2,t2,28
    71b8:	21104300 	addu	v0,v0,v1
    71bc:	000002a1 	sb	v0,0(t0)
    71c0:	c3ff2c15 	bne	t1,t4,0x70d0
    71c4:	1c000825 	addiu	t0,t0,28
    71c8:	f4ff6995 	lhu	t1,-12(t3)
    71cc:	00000000 	nop
    71d0:	ffff2925 	addiu	t1,t1,-1
    71d4:	36002c11 	beq	t1,t4,0x72b0
    71d8:	00000000 	nop
    71dc:	09004825 	addiu	t0,t2,9
    71e0:	0000a494 	lhu	a0,0(a1)
    71e4:	0200a294 	lhu	v0,2(a1)
    71e8:	fdff0395 	lhu	v1,-3(t0)
    71ec:	00240400 	sll	a0,a0,0x10
    71f0:	83250400 	sra	a0,a0,0x16
    71f4:	00140200 	sll	v0,v0,0x10
    71f8:	03160200 	sra	v0,v0,0x18
    71fc:	00110200 	sll	v0,v0,0x4
    7200:	21208200 	addu	a0,a0,v0
    7204:	21186400 	addu	v1,v1,a0
    7208:	fdff03a5 	sh	v1,-3(t0)
    720c:	0200c494 	lhu	a0,2(a2)
    7210:	0000c294 	lhu	v0,0(a2)
    7214:	f9ff0395 	lhu	v1,-7(t0)
    7218:	80210400 	sll	a0,a0,0x6
    721c:	00140200 	sll	v0,v0,0x10
    7220:	03150200 	sra	v0,v0,0x14
    7224:	21208200 	addu	a0,a0,v0
    7228:	21186400 	addu	v1,v1,a0
    722c:	f9ff03a5 	sh	v1,-7(t0)
    7230:	0000a290 	lbu	v0,0(a1)
    7234:	00004391 	lbu	v1,0(t2)
    7238:	3f004230 	andi	v0,v0,0x3f
    723c:	21186200 	addu	v1,v1,v0
    7240:	000043a1 	sb	v1,0(t2)
    7244:	0200a390 	lbu	v1,2(a1)
    7248:	f8ff0291 	lbu	v0,-8(t0)
    724c:	00000000 	nop
    7250:	21104300 	addu	v0,v0,v1
    7254:	f8ff02a1 	sb	v0,-8(t0)
    7258:	0000a290 	lbu	v0,0(a1)
    725c:	fbff0391 	lbu	v1,-5(t0)
    7260:	3f004230 	andi	v0,v0,0x3f
    7264:	21186200 	addu	v1,v1,v0
    7268:	fbff03a1 	sb	v1,-5(t0)
    726c:	0200a390 	lbu	v1,2(a1)
    7270:	fcff0291 	lbu	v0,-4(t0)
    7274:	ffff2925 	addiu	t1,t1,-1
    7278:	21104300 	addu	v0,v0,v1
    727c:	fcff02a1 	sb	v0,-4(t0)
    7280:	0000a290 	lbu	v0,0(a1)
    7284:	ffff0391 	lbu	v1,-1(t0)
    7288:	3f004230 	andi	v0,v0,0x3f
    728c:	21186200 	addu	v1,v1,v0
    7290:	ffff03a1 	sb	v1,-1(t0)
    7294:	0200a390 	lbu	v1,2(a1)
    7298:	00000291 	lbu	v0,0(t0)
    729c:	18004a25 	addiu	t2,t2,24
    72a0:	21104300 	addu	v0,v0,v1
    72a4:	000002a1 	sb	v0,0(t0)
    72a8:	cdff2c15 	bne	t1,t4,0x71e0
    72ac:	18000825 	addiu	t0,t0,24
    72b0:	f8ff6995 	lhu	t1,-8(t3)
    72b4:	00000000 	nop
    72b8:	ffff2925 	addiu	t1,t1,-1
    72bc:	40002c11 	beq	t1,t4,0x73c0
    72c0:	00000000 	nop
    72c4:	0d004825 	addiu	t0,t2,13
    72c8:	0000a494 	lhu	a0,0(a1)
    72cc:	0200a294 	lhu	v0,2(a1)
    72d0:	f9ff0395 	lhu	v1,-7(t0)
    72d4:	00240400 	sll	a0,a0,0x10
    72d8:	83250400 	sra	a0,a0,0x16
    72dc:	00140200 	sll	v0,v0,0x10
    72e0:	03160200 	sra	v0,v0,0x18
    72e4:	00110200 	sll	v0,v0,0x4
    72e8:	21208200 	addu	a0,a0,v0
    72ec:	21186400 	addu	v1,v1,a0
    72f0:	f9ff03a5 	sh	v1,-7(t0)
    72f4:	0200c494 	lhu	a0,2(a2)
    72f8:	0000c294 	lhu	v0,0(a2)
    72fc:	f5ff0395 	lhu	v1,-11(t0)
    7300:	80210400 	sll	a0,a0,0x6
    7304:	00140200 	sll	v0,v0,0x10
    7308:	03150200 	sra	v0,v0,0x14
    730c:	21208200 	addu	a0,a0,v0
    7310:	21186400 	addu	v1,v1,a0
    7314:	f5ff03a5 	sh	v1,-11(t0)
    7318:	0000a290 	lbu	v0,0(a1)
    731c:	00004391 	lbu	v1,0(t2)
    7320:	3f004230 	andi	v0,v0,0x3f
    7324:	21186200 	addu	v1,v1,v0
    7328:	000043a1 	sb	v1,0(t2)
    732c:	0200a390 	lbu	v1,2(a1)
    7330:	f4ff0291 	lbu	v0,-12(t0)
    7334:	00000000 	nop
    7338:	21104300 	addu	v0,v0,v1
    733c:	f4ff02a1 	sb	v0,-12(t0)
    7340:	0000a290 	lbu	v0,0(a1)
    7344:	f7ff0391 	lbu	v1,-9(t0)
    7348:	3f004230 	andi	v0,v0,0x3f
    734c:	21186200 	addu	v1,v1,v0
    7350:	f7ff03a1 	sb	v1,-9(t0)
    7354:	0200a390 	lbu	v1,2(a1)
    7358:	f8ff0291 	lbu	v0,-8(t0)
    735c:	00000000 	nop
    7360:	21104300 	addu	v0,v0,v1
    7364:	f8ff02a1 	sb	v0,-8(t0)
    7368:	0000a290 	lbu	v0,0(a1)
    736c:	fbff0391 	lbu	v1,-5(t0)
    7370:	3f004230 	andi	v0,v0,0x3f
    7374:	21186200 	addu	v1,v1,v0
    7378:	fbff03a1 	sb	v1,-5(t0)
    737c:	0200a390 	lbu	v1,2(a1)
    7380:	fcff0291 	lbu	v0,-4(t0)
    7384:	ffff2925 	addiu	t1,t1,-1
    7388:	21104300 	addu	v0,v0,v1
    738c:	fcff02a1 	sb	v0,-4(t0)
    7390:	0000a290 	lbu	v0,0(a1)
    7394:	ffff0391 	lbu	v1,-1(t0)
    7398:	3f004230 	andi	v0,v0,0x3f
    739c:	21186200 	addu	v1,v1,v0
    73a0:	ffff03a1 	sb	v1,-1(t0)
    73a4:	0200a390 	lbu	v1,2(a1)
    73a8:	00000291 	lbu	v0,0(t0)
    73ac:	20004a25 	addiu	t2,t2,32
    73b0:	21104300 	addu	v0,v0,v1
    73b4:	000002a1 	sb	v0,0(t0)
    73b8:	c3ff2c15 	bne	t1,t4,0x72c8
    73bc:	20000825 	addiu	t0,t0,32
    73c0:	faff6995 	lhu	t1,-6(t3)
    73c4:	00000000 	nop
    73c8:	ffff2925 	addiu	t1,t1,-1
    73cc:	04002c11 	beq	t1,t4,0x73e0
    73d0:	ffff2925 	addiu	t1,t1,-1
    73d4:	ffff0224 	li	v0,-1
    73d8:	ffff2215 	bne	t1,v0,0x73d8
    73dc:	ffff2925 	addiu	t1,t1,-1
    73e0:	feff6995 	lhu	t1,-2(t3)
    73e4:	00000000 	nop
    73e8:	ffff2925 	addiu	t1,t1,-1
    73ec:	04002c11 	beq	t1,t4,0x7400
    73f0:	ffff2925 	addiu	t1,t1,-1
    73f4:	ffff0224 	li	v0,-1
    73f8:	ffff2215 	bne	t1,v0,0x73f8
    73fc:	ffff2925 	addiu	t1,t1,-1
    7400:	fcff6995 	lhu	t1,-4(t3)
    7404:	00000000 	nop
    7408:	ffff2925 	addiu	t1,t1,-1
    740c:	04002c11 	beq	t1,t4,0x7420
    7410:	ffff2925 	addiu	t1,t1,-1
    7414:	ffff0224 	li	v0,-1
    7418:	ffff2215 	bne	t1,v0,0x7418
    741c:	ffff2925 	addiu	t1,t1,-1
    7420:	00006995 	lhu	t1,0(t3)
    7424:	00000000 	nop
    7428:	ffff2925 	addiu	t1,t1,-1
    742c:	06002c11 	beq	t1,t4,0x7448
    7430:	00000000 	nop
    7434:	ffff0224 	li	v0,-1
    7438:	ffff2925 	addiu	t1,t1,-1
    743c:	ffff2215 	bne	t1,v0,0x743c
    7440:	ffff2925 	addiu	t1,t1,-1
    7444:	01002925 	addiu	t1,t1,1
    7448:	ffffe724 	addiu	a3,a3,-1
    744c:	dffeec14 	bne	a3,t4,0x6fcc
    7450:	28006b25 	addiu	t3,t3,40
    7454:	0800e003 	jr	ra
    7458:	00000000 	nop
    745c:	1680033c 	lui	v1,0x8016
    7460:	90d06324 	addiu	v1,v1,-12144
    7464:	ffff8430 	andi	a0,a0,0xffff
    7468:	80200400 	sll	a0,a0,0x2
    746c:	21208300 	addu	a0,a0,v1
    7470:	08830234 	li	v0,0x8308
    7474:	21208200 	addu	a0,a0,v0
    7478:	00800234 	li	v0,0x8000
    747c:	21186200 	addu	v1,v1,v0
    7480:	000085ac 	sw	a1,0(a0)
    7484:	0800e003 	jr	ra
    7488:	180365ac 	sw	a1,792(v1)
    748c:	1680023c 	lui	v0,0x8016
    7490:	90d04224 	addiu	v0,v0,-12144
    7494:	ffff8430 	andi	a0,a0,0xffff
    7498:	80200400 	sll	a0,a0,0x2
    749c:	21208200 	addu	a0,a0,v0
    74a0:	08830234 	li	v0,0x8308
    74a4:	21208200 	addu	a0,a0,v0
    74a8:	0800e003 	jr	ra
    74ac:	000085ac 	sw	a1,0(a0)
    74b0:	801f023c 	lui	v0,0x1f80
    74b4:	4000428c 	lw	v0,64(v0)
    74b8:	ffff8430 	andi	a0,a0,0xffff
    74bc:	0800e003 	jr	ra
    74c0:	21104400 	addu	v0,v0,a0
    74c4:	801f033c 	lui	v1,0x1f80
    74c8:	ffff8430 	andi	a0,a0,0xffff
    74cc:	ffffa530 	andi	a1,a1,0xffff
    74d0:	4000628c 	lw	v0,64(v1)
    74d4:	ffffc630 	andi	a2,a2,0xffff
    74d8:	21204400 	addu	a0,v0,a0
    74dc:	21284500 	addu	a1,v0,a1
    74e0:	21104600 	addu	v0,v0,a2
    74e4:	2c0064ac 	sw	a0,44(v1)
    74e8:	300065ac 	sw	a1,48(v1)
    74ec:	340062ac 	sw	v0,52(v1)
    74f0:	0000848c 	lw	a0,0(a0)
    74f4:	0000a58c 	lw	a1,0(a1)
    74f8:	0000428c 	lw	v0,0(v0)
    74fc:	00608448 	mtc2	a0,$12
    7500:	00708248 	mtc2	v0,$14
    7504:	00688548 	mtc2	a1,$13
	...
    7510:	0600404b 	c2	0x1400006
    7514:	801f073c 	lui	a3,0x1f80
    7518:	7000e734 	ori	a3,a3,0x70
    751c:	0000f8e8 	swc2	$24,0(a3)
    7520:	0800e003 	jr	ra
    7524:	00000000 	nop
    7528:	d0ffbd27 	addiu	sp,sp,-48
    752c:	21408000 	move	t0,a0
    7530:	0100023c 	lui	v0,0x1
    7534:	00804234 	ori	v0,v0,0x8000
    7538:	1680033c 	lui	v1,0x8016
    753c:	90d06324 	addiu	v1,v1,-12144
    7540:	21186200 	addu	v1,v1,v0
    7544:	801f073c 	lui	a3,0x1f80
    7548:	086e668c 	lw	a2,28168(v1)
    754c:	2000a230 	andi	v0,a1,0x20
    7550:	a2004010 	beqz	v0,0x77dc
    7554:	9403e6ac 	sw	a2,916(a3)
    7558:	1980033c 	lui	v1,0x8019
    755c:	10cb6324 	addiu	v1,v1,-13552
    7560:	00100424 	li	a0,4096
    7564:	50006284 	lh	v0,80(v1)
    7568:	23208800 	subu	a0,a0,t0
    756c:	18004400 	mult	v0,a0
    7570:	6800c284 	lh	v0,104(a2)
    7574:	00000000 	nop
    7578:	6400e2ac 	sw	v0,100(a3)
    757c:	6a00c284 	lh	v0,106(a2)
    7580:	9403e3ac 	sw	v1,916(a3)
    7584:	6800e2ac 	sw	v0,104(a3)
    7588:	12480000 	mflo	t1
    758c:	5000c284 	lh	v0,80(a2)
    7590:	00000000 	nop
    7594:	18004800 	mult	v0,t0
    7598:	12380000 	mflo	a3
    759c:	52006284 	lh	v0,82(v1)
    75a0:	00000000 	nop
    75a4:	18004400 	mult	v0,a0
    75a8:	21102701 	addu	v0,t1,a3
    75ac:	02130200 	srl	v0,v0,0xc
    75b0:	0000a2a7 	sh	v0,0(sp)
    75b4:	12280000 	mflo	a1
    75b8:	5200c284 	lh	v0,82(a2)
    75bc:	00000000 	nop
    75c0:	18004800 	mult	v0,t0
    75c4:	12480000 	mflo	t1
    75c8:	54006284 	lh	v0,84(v1)
    75cc:	00000000 	nop
    75d0:	18004400 	mult	v0,a0
    75d4:	2110a900 	addu	v0,a1,t1
    75d8:	02130200 	srl	v0,v0,0xc
    75dc:	0200a2a7 	sh	v0,2(sp)
    75e0:	12380000 	mflo	a3
    75e4:	5400c284 	lh	v0,84(a2)
    75e8:	00000000 	nop
    75ec:	18004800 	mult	v0,t0
    75f0:	12480000 	mflo	t1
    75f4:	56006284 	lh	v0,86(v1)
    75f8:	00000000 	nop
    75fc:	18004400 	mult	v0,a0
    7600:	2110e900 	addu	v0,a3,t1
    7604:	02130200 	srl	v0,v0,0xc
    7608:	0400a2a7 	sh	v0,4(sp)
    760c:	12280000 	mflo	a1
    7610:	5600c284 	lh	v0,86(a2)
    7614:	00000000 	nop
    7618:	18004800 	mult	v0,t0
    761c:	12480000 	mflo	t1
    7620:	58006284 	lh	v0,88(v1)
    7624:	00000000 	nop
    7628:	18004400 	mult	v0,a0
    762c:	2110a900 	addu	v0,a1,t1
    7630:	02130200 	srl	v0,v0,0xc
    7634:	0600a2a7 	sh	v0,6(sp)
    7638:	12380000 	mflo	a3
    763c:	5800c284 	lh	v0,88(a2)
    7640:	00000000 	nop
    7644:	18004800 	mult	v0,t0
    7648:	12480000 	mflo	t1
    764c:	5a006284 	lh	v0,90(v1)
    7650:	00000000 	nop
    7654:	18004400 	mult	v0,a0
    7658:	2110e900 	addu	v0,a3,t1
    765c:	02130200 	srl	v0,v0,0xc
    7660:	0800a2a7 	sh	v0,8(sp)
    7664:	12280000 	mflo	a1
    7668:	5a00c284 	lh	v0,90(a2)
    766c:	00000000 	nop
    7670:	18004800 	mult	v0,t0
    7674:	12480000 	mflo	t1
    7678:	5c006284 	lh	v0,92(v1)
    767c:	00000000 	nop
    7680:	18004400 	mult	v0,a0
    7684:	2110a900 	addu	v0,a1,t1
    7688:	02130200 	srl	v0,v0,0xc
    768c:	0a00a2a7 	sh	v0,10(sp)
    7690:	12380000 	mflo	a3
    7694:	5c00c284 	lh	v0,92(a2)
    7698:	00000000 	nop
    769c:	18004800 	mult	v0,t0
    76a0:	12480000 	mflo	t1
    76a4:	5e006284 	lh	v0,94(v1)
    76a8:	00000000 	nop
    76ac:	18004400 	mult	v0,a0
    76b0:	2110e900 	addu	v0,a3,t1
    76b4:	02130200 	srl	v0,v0,0xc
    76b8:	0c00a2a7 	sh	v0,12(sp)
    76bc:	12280000 	mflo	a1
    76c0:	5e00c284 	lh	v0,94(a2)
    76c4:	00000000 	nop
    76c8:	18004800 	mult	v0,t0
    76cc:	12480000 	mflo	t1
    76d0:	60006284 	lh	v0,96(v1)
    76d4:	00000000 	nop
    76d8:	18004400 	mult	v0,a0
    76dc:	2110a900 	addu	v0,a1,t1
    76e0:	02130200 	srl	v0,v0,0xc
    76e4:	0e00a2a7 	sh	v0,14(sp)
    76e8:	12380000 	mflo	a3
    76ec:	6000c284 	lh	v0,96(a2)
    76f0:	00000000 	nop
    76f4:	18004800 	mult	v0,t0
    76f8:	12480000 	mflo	t1
    76fc:	64006290 	lbu	v0,100(v1)
    7700:	00000000 	nop
    7704:	18004400 	mult	v0,a0
    7708:	2110e900 	addu	v0,a3,t1
    770c:	02130200 	srl	v0,v0,0xc
    7710:	1000a2a7 	sh	v0,16(sp)
    7714:	12280000 	mflo	a1
    7718:	6400c290 	lbu	v0,100(a2)
    771c:	00000000 	nop
    7720:	18004800 	mult	v0,t0
    7724:	12100000 	mflo	v0
    7728:	2110a200 	addu	v0,a1,v0
    772c:	02130200 	srl	v0,v0,0xc
    7730:	1800a2a3 	sb	v0,24(sp)
    7734:	65006290 	lbu	v0,101(v1)
    7738:	00000000 	nop
    773c:	18004400 	mult	v0,a0
    7740:	12280000 	mflo	a1
    7744:	6500c290 	lbu	v0,101(a2)
    7748:	00000000 	nop
    774c:	18004800 	mult	v0,t0
    7750:	12380000 	mflo	a3
    7754:	66006290 	lbu	v0,102(v1)
    7758:	00000000 	nop
    775c:	18004400 	mult	v0,a0
    7760:	2110a700 	addu	v0,a1,a3
    7764:	02130200 	srl	v0,v0,0xc
    7768:	1900a2a3 	sb	v0,25(sp)
    776c:	12180000 	mflo	v1
    7770:	6600c290 	lbu	v0,102(a2)
    7774:	00000000 	nop
    7778:	18004800 	mult	v0,t0
    777c:	12100000 	mflo	v0
    7780:	21106200 	addu	v0,v1,v0
    7784:	02130200 	srl	v0,v0,0xc
    7788:	1a00a2a3 	sb	v0,26(sp)
    778c:	0000ac8f 	lw	t4,0(sp)
    7790:	0400ad8f 	lw	t5,4(sp)
    7794:	0080cc48 	ctc2	t4,$16
    7798:	0088cd48 	ctc2	t5,$17
    779c:	0800ac8f 	lw	t4,8(sp)
    77a0:	0c00ad8f 	lw	t5,12(sp)
    77a4:	1000ae8f 	lw	t6,16(sp)
    77a8:	0090cc48 	ctc2	t4,$18
    77ac:	0098cd48 	ctc2	t5,$19
    77b0:	00a0ce48 	ctc2	t6,$20
    77b4:	1800aa93 	lbu	t2,24(sp)
    77b8:	1900ab93 	lbu	t3,25(sp)
    77bc:	00610a00 	sll	t4,t2,0x4
    77c0:	00690b00 	sll	t5,t3,0x4
    77c4:	00710200 	sll	t6,v0,0x4
    77c8:	0068cc48 	ctc2	t4,$13
    77cc:	0070cd48 	ctc2	t5,$14
    77d0:	0078ce48 	ctc2	t6,$15
    77d4:	0d610008 	j	0x18434
    77d8:	00000000 	nop
    77dc:	1000a230 	andi	v0,a1,0x10
    77e0:	7c004010 	beqz	v0,0x79d4
    77e4:	1980043c 	lui	a0,0x8019
    77e8:	6800c284 	lh	v0,104(a2)
    77ec:	a4ca8424 	addiu	a0,a0,-13660
    77f0:	6400e2ac 	sw	v0,100(a3)
    77f4:	6a00c284 	lh	v0,106(a2)
    77f8:	00100524 	li	a1,4096
    77fc:	9403e4ac 	sw	a0,916(a3)
    7800:	6800e2ac 	sw	v0,104(a3)
    7804:	50008384 	lh	v1,80(a0)
    7808:	5000c284 	lh	v0,80(a2)
    780c:	2328a800 	subu	a1,a1,t0
    7810:	21186200 	addu	v1,v1,v0
    7814:	18006500 	mult	v1,a1
    7818:	12780000 	mflo	t7
    781c:	42130f00 	srl	v0,t7,0xd
    7820:	0000a2a7 	sh	v0,0(sp)
    7824:	52008284 	lh	v0,82(a0)
    7828:	5200c384 	lh	v1,82(a2)
    782c:	00000000 	nop
    7830:	21104300 	addu	v0,v0,v1
    7834:	18004500 	mult	v0,a1
    7838:	12500000 	mflo	t2
    783c:	42130a00 	srl	v0,t2,0xd
    7840:	0200a2a7 	sh	v0,2(sp)
    7844:	54008284 	lh	v0,84(a0)
    7848:	5400c384 	lh	v1,84(a2)
    784c:	00000000 	nop
    7850:	21104300 	addu	v0,v0,v1
    7854:	18004500 	mult	v0,a1
    7858:	12580000 	mflo	t3
    785c:	42130b00 	srl	v0,t3,0xd
    7860:	0400a2a7 	sh	v0,4(sp)
    7864:	56008284 	lh	v0,86(a0)
    7868:	5600c384 	lh	v1,86(a2)
    786c:	00000000 	nop
    7870:	21104300 	addu	v0,v0,v1
    7874:	18004500 	mult	v0,a1
    7878:	12780000 	mflo	t7
    787c:	42130f00 	srl	v0,t7,0xd
    7880:	0600a2a7 	sh	v0,6(sp)
    7884:	58008284 	lh	v0,88(a0)
    7888:	5800c384 	lh	v1,88(a2)
    788c:	00000000 	nop
    7890:	21104300 	addu	v0,v0,v1
    7894:	18004500 	mult	v0,a1
    7898:	12500000 	mflo	t2
    789c:	42130a00 	srl	v0,t2,0xd
    78a0:	0800a2a7 	sh	v0,8(sp)
    78a4:	5a008284 	lh	v0,90(a0)
    78a8:	5a00c384 	lh	v1,90(a2)
    78ac:	00000000 	nop
    78b0:	21104300 	addu	v0,v0,v1
    78b4:	18004500 	mult	v0,a1
    78b8:	12580000 	mflo	t3
    78bc:	42130b00 	srl	v0,t3,0xd
    78c0:	0a00a2a7 	sh	v0,10(sp)
    78c4:	5c008284 	lh	v0,92(a0)
    78c8:	5c00c384 	lh	v1,92(a2)
    78cc:	00000000 	nop
    78d0:	21104300 	addu	v0,v0,v1
    78d4:	18004500 	mult	v0,a1
    78d8:	12780000 	mflo	t7
    78dc:	42130f00 	srl	v0,t7,0xd
    78e0:	0c00a2a7 	sh	v0,12(sp)
    78e4:	5e008284 	lh	v0,94(a0)
    78e8:	5e00c384 	lh	v1,94(a2)
    78ec:	00000000 	nop
    78f0:	21104300 	addu	v0,v0,v1
    78f4:	18004500 	mult	v0,a1
    78f8:	12500000 	mflo	t2
    78fc:	42130a00 	srl	v0,t2,0xd
    7900:	0e00a2a7 	sh	v0,14(sp)
    7904:	60008284 	lh	v0,96(a0)
    7908:	6000c384 	lh	v1,96(a2)
    790c:	00000000 	nop
    7910:	21104300 	addu	v0,v0,v1
    7914:	18004500 	mult	v0,a1
    7918:	12580000 	mflo	t3
    791c:	42130b00 	srl	v0,t3,0xd
    7920:	1000a2a7 	sh	v0,16(sp)
    7924:	64008290 	lbu	v0,100(a0)
    7928:	6400c390 	lbu	v1,100(a2)
    792c:	00000000 	nop
    7930:	21104300 	addu	v0,v0,v1
    7934:	18004500 	mult	v0,a1
    7938:	12780000 	mflo	t7
    793c:	42130f00 	srl	v0,t7,0xd
    7940:	2000a2a3 	sb	v0,32(sp)
    7944:	65008290 	lbu	v0,101(a0)
    7948:	6500c390 	lbu	v1,101(a2)
    794c:	00000000 	nop
    7950:	21104300 	addu	v0,v0,v1
    7954:	18004500 	mult	v0,a1
    7958:	12500000 	mflo	t2
    795c:	42130a00 	srl	v0,t2,0xd
    7960:	2100a2a3 	sb	v0,33(sp)
    7964:	66008290 	lbu	v0,102(a0)
    7968:	6600c390 	lbu	v1,102(a2)
    796c:	00000000 	nop
    7970:	21104300 	addu	v0,v0,v1
    7974:	18004500 	mult	v0,a1
    7978:	12580000 	mflo	t3
    797c:	42130b00 	srl	v0,t3,0xd
    7980:	2200a2a3 	sb	v0,34(sp)
    7984:	0000ac8f 	lw	t4,0(sp)
    7988:	0400ad8f 	lw	t5,4(sp)
    798c:	0080cc48 	ctc2	t4,$16
    7990:	0088cd48 	ctc2	t5,$17
    7994:	0800ac8f 	lw	t4,8(sp)
    7998:	0c00ad8f 	lw	t5,12(sp)
    799c:	1000ae8f 	lw	t6,16(sp)
    79a0:	0090cc48 	ctc2	t4,$18
    79a4:	0098cd48 	ctc2	t5,$19
    79a8:	00a0ce48 	ctc2	t6,$20
    79ac:	2000af93 	lbu	t7,32(sp)
    79b0:	2100aa93 	lbu	t2,33(sp)
    79b4:	00610f00 	sll	t4,t7,0x4
    79b8:	00690a00 	sll	t5,t2,0x4
    79bc:	00710200 	sll	t6,v0,0x4
    79c0:	0068cc48 	ctc2	t4,$13
    79c4:	0070cd48 	ctc2	t5,$14
    79c8:	0078ce48 	ctc2	t6,$15
    79cc:	0d610008 	j	0x18434
    79d0:	00000000 	nop
    79d4:	0800a230 	andi	v0,a1,0x8
    79d8:	7c004010 	beqz	v0,0x7bcc
    79dc:	1980043c 	lui	a0,0x8019
    79e0:	6800c284 	lh	v0,104(a2)
    79e4:	00000000 	nop
    79e8:	6400e2ac 	sw	v0,100(a3)
    79ec:	6a00c284 	lh	v0,106(a2)
    79f0:	38ca8424 	addiu	a0,a0,-13768
    79f4:	9403e4ac 	sw	a0,916(a3)
    79f8:	6800e2ac 	sw	v0,104(a3)
    79fc:	50008284 	lh	v0,80(a0)
    7a00:	5000c384 	lh	v1,80(a2)
    7a04:	00000000 	nop
    7a08:	21104300 	addu	v0,v0,v1
    7a0c:	18004800 	mult	v0,t0
    7a10:	12580000 	mflo	t3
    7a14:	42130b00 	srl	v0,t3,0xd
    7a18:	0000a2a7 	sh	v0,0(sp)
    7a1c:	52008284 	lh	v0,82(a0)
    7a20:	5200c384 	lh	v1,82(a2)
    7a24:	00000000 	nop
    7a28:	21104300 	addu	v0,v0,v1
    7a2c:	18004800 	mult	v0,t0
    7a30:	12780000 	mflo	t7
    7a34:	42130f00 	srl	v0,t7,0xd
    7a38:	0200a2a7 	sh	v0,2(sp)
    7a3c:	54008284 	lh	v0,84(a0)
    7a40:	5400c384 	lh	v1,84(a2)
    7a44:	00000000 	nop
    7a48:	21104300 	addu	v0,v0,v1
    7a4c:	18004800 	mult	v0,t0
    7a50:	12500000 	mflo	t2
    7a54:	42130a00 	srl	v0,t2,0xd
    7a58:	0400a2a7 	sh	v0,4(sp)
    7a5c:	56008284 	lh	v0,86(a0)
    7a60:	5600c384 	lh	v1,86(a2)
    7a64:	00000000 	nop
    7a68:	21104300 	addu	v0,v0,v1
    7a6c:	18004800 	mult	v0,t0
    7a70:	12580000 	mflo	t3
    7a74:	42130b00 	srl	v0,t3,0xd
    7a78:	0600a2a7 	sh	v0,6(sp)
    7a7c:	58008284 	lh	v0,88(a0)
    7a80:	5800c384 	lh	v1,88(a2)
    7a84:	00000000 	nop
    7a88:	21104300 	addu	v0,v0,v1
    7a8c:	18004800 	mult	v0,t0
    7a90:	12780000 	mflo	t7
    7a94:	42130f00 	srl	v0,t7,0xd
    7a98:	0800a2a7 	sh	v0,8(sp)
    7a9c:	5a008284 	lh	v0,90(a0)
    7aa0:	5a00c384 	lh	v1,90(a2)
    7aa4:	00000000 	nop
    7aa8:	21104300 	addu	v0,v0,v1
    7aac:	18004800 	mult	v0,t0
    7ab0:	12500000 	mflo	t2
    7ab4:	42130a00 	srl	v0,t2,0xd
    7ab8:	0a00a2a7 	sh	v0,10(sp)
    7abc:	5c008284 	lh	v0,92(a0)
    7ac0:	5c00c384 	lh	v1,92(a2)
    7ac4:	00000000 	nop
    7ac8:	21104300 	addu	v0,v0,v1
    7acc:	18004800 	mult	v0,t0
    7ad0:	12580000 	mflo	t3
    7ad4:	42130b00 	srl	v0,t3,0xd
    7ad8:	0c00a2a7 	sh	v0,12(sp)
    7adc:	5e008284 	lh	v0,94(a0)
    7ae0:	5e00c384 	lh	v1,94(a2)
    7ae4:	00000000 	nop
    7ae8:	21104300 	addu	v0,v0,v1
    7aec:	18004800 	mult	v0,t0
    7af0:	12780000 	mflo	t7
    7af4:	42130f00 	srl	v0,t7,0xd
    7af8:	0e00a2a7 	sh	v0,14(sp)
    7afc:	60008284 	lh	v0,96(a0)
    7b00:	6000c384 	lh	v1,96(a2)
    7b04:	00000000 	nop
    7b08:	21104300 	addu	v0,v0,v1
    7b0c:	18004800 	mult	v0,t0
    7b10:	12500000 	mflo	t2
    7b14:	42130a00 	srl	v0,t2,0xd
    7b18:	1000a2a7 	sh	v0,16(sp)
    7b1c:	64008290 	lbu	v0,100(a0)
    7b20:	6400c390 	lbu	v1,100(a2)
    7b24:	00000000 	nop
    7b28:	21104300 	addu	v0,v0,v1
    7b2c:	18004800 	mult	v0,t0
    7b30:	12580000 	mflo	t3
    7b34:	42130b00 	srl	v0,t3,0xd
    7b38:	2800a2a3 	sb	v0,40(sp)
    7b3c:	65008290 	lbu	v0,101(a0)
    7b40:	6500c390 	lbu	v1,101(a2)
    7b44:	00000000 	nop
    7b48:	21104300 	addu	v0,v0,v1
    7b4c:	18004800 	mult	v0,t0
    7b50:	12780000 	mflo	t7
    7b54:	42130f00 	srl	v0,t7,0xd
    7b58:	2900a2a3 	sb	v0,41(sp)
    7b5c:	66008290 	lbu	v0,102(a0)
    7b60:	6600c390 	lbu	v1,102(a2)
    7b64:	00000000 	nop
    7b68:	21104300 	addu	v0,v0,v1
    7b6c:	18004800 	mult	v0,t0
    7b70:	12500000 	mflo	t2
    7b74:	42130a00 	srl	v0,t2,0xd
    7b78:	2a00a2a3 	sb	v0,42(sp)
    7b7c:	0000ac8f 	lw	t4,0(sp)
    7b80:	0400ad8f 	lw	t5,4(sp)
    7b84:	0080cc48 	ctc2	t4,$16
    7b88:	0088cd48 	ctc2	t5,$17
    7b8c:	0800ac8f 	lw	t4,8(sp)
    7b90:	0c00ad8f 	lw	t5,12(sp)
    7b94:	1000ae8f 	lw	t6,16(sp)
    7b98:	0090cc48 	ctc2	t4,$18
    7b9c:	0098cd48 	ctc2	t5,$19
    7ba0:	00a0ce48 	ctc2	t6,$20
    7ba4:	2800ab93 	lbu	t3,40(sp)
    7ba8:	2900af93 	lbu	t7,41(sp)
    7bac:	00610b00 	sll	t4,t3,0x4
    7bb0:	00690f00 	sll	t5,t7,0x4
    7bb4:	00710200 	sll	t6,v0,0x4
    7bb8:	0068cc48 	ctc2	t4,$13
    7bbc:	0070cd48 	ctc2	t5,$14
    7bc0:	0078ce48 	ctc2	t6,$15
    7bc4:	0d610008 	j	0x18434
    7bc8:	00000000 	nop
    7bcc:	6400ca90 	lbu	t2,100(a2)
    7bd0:	6500cb90 	lbu	t3,101(a2)
    7bd4:	6600cf90 	lbu	t7,102(a2)
    7bd8:	00610a00 	sll	t4,t2,0x4
    7bdc:	00690b00 	sll	t5,t3,0x4
    7be0:	00710f00 	sll	t6,t7,0x4
    7be4:	0068cc48 	ctc2	t4,$13
    7be8:	0070cd48 	ctc2	t5,$14
    7bec:	0078ce48 	ctc2	t6,$15
    7bf0:	5000c224 	addiu	v0,a2,80
    7bf4:	00004c8c 	lw	t4,0(v0)
    7bf8:	04004d8c 	lw	t5,4(v0)
    7bfc:	0080cc48 	ctc2	t4,$16
    7c00:	0088cd48 	ctc2	t5,$17
    7c04:	08004c8c 	lw	t4,8(v0)
    7c08:	0c004d8c 	lw	t5,12(v0)
    7c0c:	10004e8c 	lw	t6,16(v0)
    7c10:	0090cc48 	ctc2	t4,$18
    7c14:	0098cd48 	ctc2	t5,$19
    7c18:	00a0ce48 	ctc2	t6,$20
    7c1c:	6800c284 	lh	v0,104(a2)
    7c20:	00000000 	nop
    7c24:	6400e2ac 	sw	v0,100(a3)
    7c28:	6a00c284 	lh	v0,106(a2)
    7c2c:	00000000 	nop
    7c30:	6800e2ac 	sw	v0,104(a3)
    7c34:	3000bd27 	addiu	sp,sp,48
    7c38:	0800e003 	jr	ra
    7c3c:	00000000 	nop
    7c40:	21288000 	move	a1,a0
    7c44:	0200a290 	lbu	v0,2(a1)
    7c48:	00000000 	nop
    7c4c:	5600422c 	sltiu	v0,v0,86
    7c50:	02004014 	bnez	v0,0x7c5c
    7c54:	55000224 	li	v0,85
    7c58:	0200a2a0 	sb	v0,2(a1)
    7c5c:	0200a290 	lbu	v0,2(a1)
    7c60:	00000000 	nop
    7c64:	40180200 	sll	v1,v0,0x1
    7c68:	21204000 	move	a0,v0
    7c6c:	21186200 	addu	v1,v1,v0
    7c70:	40200400 	sll	a0,a0,0x1
    7c74:	0000a3a0 	sb	v1,0(a1)
    7c78:	0800e003 	jr	ra
    7c7c:	0100a4a0 	sb	a0,1(a1)
    7c80:	21288000 	move	a1,a0
    7c84:	0000a290 	lbu	v0,0(a1)
    7c88:	00000000 	nop
    7c8c:	5600422c 	sltiu	v0,v0,86
    7c90:	02004014 	bnez	v0,0x7c9c
    7c94:	55000224 	li	v0,85
    7c98:	0000a2a0 	sb	v0,0(a1)
    7c9c:	0000a390 	lbu	v1,0(a1)
    7ca0:	00000000 	nop
    7ca4:	40100300 	sll	v0,v1,0x1
    7ca8:	21206000 	move	a0,v1
    7cac:	21104300 	addu	v0,v0,v1
    7cb0:	0200a2a0 	sb	v0,2(a1)
    7cb4:	40100400 	sll	v0,a0,0x1
    7cb8:	21104400 	addu	v0,v0,a0
    7cbc:	0800e003 	jr	ra
    7cc0:	0100a2a0 	sb	v0,1(a1)
    7cc4:	c8ffbd27 	addiu	sp,sp,-56
    7cc8:	1400b1af 	sw	s1,20(sp)
    7ccc:	21888000 	move	s1,a0
    7cd0:	3000beaf 	sw	s8,48(sp)
    7cd4:	21f0c000 	move	s8,a2
    7cd8:	2000b4af 	sw	s4,32(sp)
    7cdc:	21a00000 	move	s4,zero
    7ce0:	0100033c 	lui	v1,0x1
    7ce4:	00806334 	ori	v1,v1,0x8000
    7ce8:	1000b0af 	sw	s0,16(sp)
    7cec:	801f103c 	lui	s0,0x1f80
    7cf0:	1680023c 	lui	v0,0x8016
    7cf4:	90d04224 	addiu	v0,v0,-12144
    7cf8:	21104300 	addu	v0,v0,v1
    7cfc:	3400bfaf 	sw	ra,52(sp)
    7d00:	2c00b7af 	sw	s7,44(sp)
    7d04:	2800b6af 	sw	s6,40(sp)
    7d08:	2400b5af 	sw	s5,36(sp)
    7d0c:	1c00b3af 	sw	s3,28(sp)
    7d10:	1800b2af 	sw	s2,24(sp)
    7d14:	8c00038e 	lw	v1,140(s0)
    7d18:	fc6d4490 	lbu	a0,28156(v0)
    7d1c:	1000178e 	lw	s7,16(s0)
    7d20:	21187100 	addu	v1,v1,s1
    7d24:	02008230 	andi	v0,a0,0x2
    7d28:	04004010 	beqz	v0,0x7d3c
    7d2c:	8c0003ae 	sw	v1,140(s0)
    7d30:	0280023c 	lui	v0,0x8002
    7d34:	53610008 	j	0x1854c
    7d38:	40845424 	addiu	s4,v0,-31680
    7d3c:	04008230 	andi	v0,a0,0x4
    7d40:	02004010 	beqz	v0,0x7d4c
    7d44:	0280023c 	lui	v0,0x8002
    7d48:	80845424 	addiu	s4,v0,-31616
    7d4c:	21102002 	move	v0,s1
    7d50:	7c004010 	beqz	v0,0x7f44
    7d54:	ffff3126 	addiu	s1,s1,-1
    7d58:	0200e230 	andi	v0,a3,0x2
    7d5c:	24005634 	ori	s6,v0,0x24
    7d60:	5555123c 	lui	s2,0x5555
    7d64:	56555236 	ori	s2,s2,0x5556
    7d68:	6000023c 	lui	v0,0x60
    7d6c:	24a8e200 	and	s5,a3,v0
    7d70:	0e00a394 	lhu	v1,14(a1)
    7d74:	4000028e 	lw	v0,64(s0)
    7d78:	1200a494 	lhu	a0,18(a1)
    7d7c:	21504300 	addu	t2,v0,v1
    7d80:	21484400 	addu	t1,v0,a0
    7d84:	1000a394 	lhu	v1,16(a1)
    7d88:	00004b8d 	lw	t3,0(t2)
    7d8c:	00002d8d 	lw	t5,0(t1)
    7d90:	21404300 	addu	t0,v0,v1
    7d94:	00000c8d 	lw	t4,0(t0)
    7d98:	00608b48 	mtc2	t3,$12
    7d9c:	00708d48 	mtc2	t5,$14
    7da0:	00688c48 	mtc2	t4,$13
    7da4:	1400b324 	addiu	s3,a1,20
	...
    7db0:	0600404b 	c2	0x1400006
    7db4:	0b00a290 	lbu	v0,11(a1)
    7db8:	00000000 	nop
    7dbc:	25105600 	or	v0,v0,s6
    7dc0:	630002a2 	sb	v0,99(s0)
    7dc4:	70000226 	addiu	v0,s0,112
    7dc8:	000058e8 	swc2	$24,0(v0)
    7dcc:	7000028e 	lw	v0,112(s0)
    7dd0:	00000000 	nop
    7dd4:	57004018 	blez	v0,0x7f34
    7dd8:	00000000 	nop
    7ddc:	04004385 	lh	v1,4(t2)
    7de0:	04000285 	lh	v0,4(t0)
    7de4:	04002485 	lh	a0,4(t1)
    7de8:	21186200 	addu	v1,v1,v0
    7dec:	21186400 	addu	v1,v1,a0
    7df0:	43110300 	sra	v0,v1,0x5
    7df4:	18005200 	mult	v0,s2
    7df8:	0a00a290 	lbu	v0,10(a1)
    7dfc:	c31f0300 	sra	v1,v1,0x1f
    7e00:	00160200 	sll	v0,v0,0x18
    7e04:	03160200 	sra	v0,v0,0x18
    7e08:	10580000 	mfhi	t3
    7e0c:	23186301 	subu	v1,t3,v1
    7e10:	21104300 	addu	v0,v0,v1
    7e14:	00140200 	sll	v0,v0,0x10
    7e18:	0400038e 	lw	v1,4(s0)
    7e1c:	033c0200 	sra	a3,v0,0x10
    7e20:	2a18e300 	slt	v1,a3,v1
    7e24:	43006010 	beqz	v1,0x7f34
    7e28:	00000000 	nop
    7e2c:	8000028e 	lw	v0,128(s0)
    7e30:	00000000 	nop
    7e34:	2a104700 	slt	v0,v0,a3
    7e38:	3e004010 	beqz	v0,0x7f34
    7e3c:	00000000 	nop
    7e40:	1000068e 	lw	a2,16(s0)
    7e44:	00000000 	nop
    7e48:	2000c224 	addiu	v0,a2,32
    7e4c:	100002ae 	sw	v0,16(s0)
    7e50:	0800cce8 	swc2	$12,8(a2)
    7e54:	1000cde8 	swc2	$13,16(a2)
    7e58:	1800cee8 	swc2	$14,24(a2)
    7e5c:	0c00a394 	lhu	v1,12(a1)
    7e60:	2400028e 	lw	v0,36(s0)
    7e64:	00000000 	nop
    7e68:	21104300 	addu	v0,v0,v1
    7e6c:	000040c8 	lwc2	$0,0(v0)
    7e70:	040041c8 	lwc2	$1,4(v0)
    7e74:	0000a28c 	lw	v0,0(a1)
    7e78:	00000000 	nop
    7e7c:	0c00c2ac 	sw	v0,12(a2)
    7e80:	60000226 	addiu	v0,s0,96
    7e84:	000046c8 	lwc2	$6,0(v0)
    7e88:	0400a28c 	lw	v0,4(a1)
    7e8c:	00000000 	nop
    7e90:	25105500 	or	v0,v0,s5
    7e94:	1400c2ac 	sw	v0,20(a2)
    7e98:	06004285 	lh	v0,6(t2)
    7e9c:	06000385 	lh	v1,6(t0)
    7ea0:	06002485 	lh	a0,6(t1)
    7ea4:	21104300 	addu	v0,v0,v1
    7ea8:	21104400 	addu	v0,v0,a0
    7eac:	18005200 	mult	v0,s2
    7eb0:	c3170200 	sra	v0,v0,0x1f
    7eb4:	10600000 	mfhi	t4
    7eb8:	23108201 	subu	v0,t4,v0
    7ebc:	00408248 	mtc2	v0,$8
    7ec0:	0800a294 	lhu	v0,8(a1)
    7ec4:	00000000 	nop
    7ec8:	1c00c2a4 	sh	v0,28(a2)
    7ecc:	1304e84a 	c2	0xe80413
    7ed0:	ff00053c 	lui	a1,0xff
    7ed4:	80200700 	sll	a0,a3,0x2
    7ed8:	21209e00 	addu	a0,a0,s8
    7edc:	ffffa534 	ori	a1,a1,0xffff
    7ee0:	0000838c 	lw	v1,0(a0)
    7ee4:	0007023c 	lui	v0,0x700
    7ee8:	24186500 	and	v1,v1,a1
    7eec:	25186200 	or	v1,v1,v0
    7ef0:	2428c500 	and	a1,a2,a1
    7ef4:	0000c3ac 	sw	v1,0(a2)
    7ef8:	000085ac 	sw	a1,0(a0)
    7efc:	0400c424 	addiu	a0,a2,4
    7f00:	000096e8 	swc2	$22,0(a0)
    7f04:	0100033c 	lui	v1,0x1
    7f08:	00806334 	ori	v1,v1,0x8000
    7f0c:	1680023c 	lui	v0,0x8016
    7f10:	90d04224 	addiu	v0,v0,-12144
    7f14:	21104300 	addu	v0,v0,v1
    7f18:	fc6d4290 	lbu	v0,28156(v0)
    7f1c:	00000000 	nop
    7f20:	06004230 	andi	v0,v0,0x6
    7f24:	04004010 	beqz	v0,0x7f38
    7f28:	21286002 	move	a1,s3
    7f2c:	09f88002 	jalr	s4
    7f30:	00000000 	nop
    7f34:	21286002 	move	a1,s3
    7f38:	21102002 	move	v0,s1
    7f3c:	8cff4014 	bnez	v0,0x7d70
    7f40:	ffff3126 	addiu	s1,s1,-1
    7f44:	1000028e 	lw	v0,16(s0)
    7f48:	00000000 	nop
    7f4c:	23105700 	subu	v0,v0,s7
    7f50:	83180200 	sra	v1,v0,0x2
    7f54:	02006104 	bgez	v1,0x7f60
    7f58:	1c0005ae 	sw	a1,28(s0)
    7f5c:	07006324 	addiu	v1,v1,7
    7f60:	9000028e 	lw	v0,144(s0)
    7f64:	c3180300 	sra	v1,v1,0x3
    7f68:	21104300 	addu	v0,v0,v1
    7f6c:	900002ae 	sw	v0,144(s0)
    7f70:	3400bf8f 	lw	ra,52(sp)
    7f74:	3000be8f 	lw	s8,48(sp)
    7f78:	2c00b78f 	lw	s7,44(sp)
    7f7c:	2800b68f 	lw	s6,40(sp)
    7f80:	2400b58f 	lw	s5,36(sp)
    7f84:	2000b48f 	lw	s4,32(sp)
    7f88:	1c00b38f 	lw	s3,28(sp)
    7f8c:	1800b28f 	lw	s2,24(sp)
    7f90:	1400b18f 	lw	s1,20(sp)
    7f94:	1000b08f 	lw	s0,16(sp)
    7f98:	3800bd27 	addiu	sp,sp,56
    7f9c:	0800e003 	jr	ra
    7fa0:	00000000 	nop
    7fa4:	21288000 	move	a1,a0
    7fa8:	0200a290 	lbu	v0,2(a1)
    7fac:	00000000 	nop
    7fb0:	5600422c 	sltiu	v0,v0,86
    7fb4:	02004014 	bnez	v0,0x7fc0
    7fb8:	55000224 	li	v0,85
    7fbc:	0200a2a0 	sb	v0,2(a1)
    7fc0:	0200a290 	lbu	v0,2(a1)
    7fc4:	00000000 	nop
    7fc8:	40180200 	sll	v1,v0,0x1
    7fcc:	21204000 	move	a0,v0
    7fd0:	21186200 	addu	v1,v1,v0
    7fd4:	40200400 	sll	a0,a0,0x1
    7fd8:	0000a3a0 	sb	v1,0(a1)
    7fdc:	0800e003 	jr	ra
    7fe0:	0100a4a0 	sb	a0,1(a1)
    7fe4:	21288000 	move	a1,a0
    7fe8:	0000a290 	lbu	v0,0(a1)
    7fec:	00000000 	nop
    7ff0:	5600422c 	sltiu	v0,v0,86
    7ff4:	02004014 	bnez	v0,0x8000
    7ff8:	55000224 	li	v0,85
    7ffc:	0000a2a0 	sb	v0,0(a1)
    8000:	0000a390 	lbu	v1,0(a1)
    8004:	00000000 	nop
    8008:	40100300 	sll	v0,v1,0x1
    800c:	21206000 	move	a0,v1
    8010:	21104300 	addu	v0,v0,v1
    8014:	0200a2a0 	sb	v0,2(a1)
    8018:	40100400 	sll	v0,a0,0x1
    801c:	21104400 	addu	v0,v0,a0
    8020:	0800e003 	jr	ra
    8024:	0100a2a0 	sb	v0,1(a1)
    8028:	c8ffbd27 	addiu	sp,sp,-56
    802c:	1400b1af 	sw	s1,20(sp)
    8030:	21888000 	move	s1,a0
    8034:	2140a000 	move	t0,a1
    8038:	2c00b7af 	sw	s7,44(sp)
    803c:	21b8c000 	move	s7,a2
    8040:	1c00b3af 	sw	s3,28(sp)
    8044:	21980000 	move	s3,zero
    8048:	0100033c 	lui	v1,0x1
    804c:	00806334 	ori	v1,v1,0x8000
    8050:	1000b0af 	sw	s0,16(sp)
    8054:	801f103c 	lui	s0,0x1f80
    8058:	1680023c 	lui	v0,0x8016
    805c:	90d04224 	addiu	v0,v0,-12144
    8060:	21104300 	addu	v0,v0,v1
    8064:	3000bfaf 	sw	ra,48(sp)
    8068:	2800b6af 	sw	s6,40(sp)
    806c:	2400b5af 	sw	s5,36(sp)
    8070:	2000b4af 	sw	s4,32(sp)
    8074:	1800b2af 	sw	s2,24(sp)
    8078:	8c00038e 	lw	v1,140(s0)
    807c:	fc6d4490 	lbu	a0,28156(v0)
    8080:	1000168e 	lw	s6,16(s0)
    8084:	21187100 	addu	v1,v1,s1
    8088:	02008230 	andi	v0,a0,0x2
    808c:	04004010 	beqz	v0,0x80a0
    8090:	8c0003ae 	sw	v1,140(s0)
    8094:	0280023c 	lui	v0,0x8002
    8098:	2c620008 	j	0x188b0
    809c:	a4875324 	addiu	s3,v0,-30812
    80a0:	04008230 	andi	v0,a0,0x4
    80a4:	02004010 	beqz	v0,0x80b0
    80a8:	0280023c 	lui	v0,0x8002
    80ac:	e4875324 	addiu	s3,v0,-30748
    80b0:	21102002 	move	v0,s1
    80b4:	7f004010 	beqz	v0,0x82b4
    80b8:	ffff3126 	addiu	s1,s1,-1
    80bc:	0200e230 	andi	v0,a3,0x2
    80c0:	2c005534 	ori	s5,v0,0x2c
    80c4:	6000023c 	lui	v0,0x60
    80c8:	24a0e200 	and	s4,a3,v0
    80cc:	12000395 	lhu	v1,18(t0)
    80d0:	4000028e 	lw	v0,64(s0)
    80d4:	16000495 	lhu	a0,22(t0)
    80d8:	21604300 	addu	t4,v0,v1
    80dc:	21584400 	addu	t3,v0,a0
    80e0:	14000395 	lhu	v1,20(t0)
    80e4:	00008d8d 	lw	t5,0(t4)
    80e8:	00006f8d 	lw	t7,0(t3)
    80ec:	21504300 	addu	t2,v0,v1
    80f0:	00004e8d 	lw	t6,0(t2)
    80f4:	00608d48 	mtc2	t5,$12
    80f8:	00708f48 	mtc2	t7,$14
    80fc:	00688e48 	mtc2	t6,$13
    8100:	1c001225 	addiu	s2,t0,28
	...
    810c:	0600404b 	c2	0x1400006
    8110:	0b000291 	lbu	v0,11(t0)
    8114:	00000000 	nop
    8118:	25105500 	or	v0,v0,s5
    811c:	630002a2 	sb	v0,99(s0)
    8120:	70000226 	addiu	v0,s0,112
    8124:	000058e8 	swc2	$24,0(v0)
    8128:	7000028e 	lw	v0,112(s0)
    812c:	00000000 	nop
    8130:	5c004018 	blez	v0,0x82a4
    8134:	00000000 	nop
    8138:	0a000391 	lbu	v1,10(t0)
    813c:	18000695 	lhu	a2,24(t0)
    8140:	4000058e 	lw	a1,64(s0)
    8144:	04008285 	lh	v0,4(t4)
    8148:	04004485 	lh	a0,4(t2)
    814c:	001e0300 	sll	v1,v1,0x18
    8150:	031e0300 	sra	v1,v1,0x18
    8154:	2138a600 	addu	a3,a1,a2
    8158:	21104400 	addu	v0,v0,a0
    815c:	04006485 	lh	a0,4(t3)
    8160:	0400e584 	lh	a1,4(a3)
    8164:	21104400 	addu	v0,v0,a0
    8168:	21104500 	addu	v0,v0,a1
    816c:	c3110200 	sra	v0,v0,0x7
    8170:	21186200 	addu	v1,v1,v0
    8174:	001c0300 	sll	v1,v1,0x10
    8178:	0400028e 	lw	v0,4(s0)
    817c:	034c0300 	sra	t1,v1,0x10
    8180:	2a102201 	slt	v0,t1,v0
    8184:	47004010 	beqz	v0,0x82a4
    8188:	00000000 	nop
    818c:	8000028e 	lw	v0,128(s0)
    8190:	00000000 	nop
    8194:	2a104900 	slt	v0,v0,t1
    8198:	42004010 	beqz	v0,0x82a4
    819c:	00000000 	nop
    81a0:	1000068e 	lw	a2,16(s0)
    81a4:	00000000 	nop
    81a8:	2800c224 	addiu	v0,a2,40
    81ac:	100002ae 	sw	v0,16(s0)
    81b0:	0800cce8 	swc2	$12,8(a2)
    81b4:	1000cde8 	swc2	$13,16(a2)
    81b8:	1800cee8 	swc2	$14,24(a2)
    81bc:	10000395 	lhu	v1,16(t0)
    81c0:	2400028e 	lw	v0,36(s0)
    81c4:	00000000 	nop
    81c8:	21104300 	addu	v0,v0,v1
    81cc:	000040c8 	lwc2	$0,0(v0)
    81d0:	040041c8 	lwc2	$1,4(v0)
    81d4:	0000e28c 	lw	v0,0(a3)
    81d8:	00000000 	nop
    81dc:	2000c2ac 	sw	v0,32(a2)
    81e0:	60000226 	addiu	v0,s0,96
    81e4:	000046c8 	lwc2	$6,0(v0)
    81e8:	0000028d 	lw	v0,0(t0)
    81ec:	00000000 	nop
    81f0:	0c00c2ac 	sw	v0,12(a2)
    81f4:	06008285 	lh	v0,6(t4)
    81f8:	06004385 	lh	v1,6(t2)
    81fc:	00000000 	nop
    8200:	21104300 	addu	v0,v0,v1
    8204:	06006385 	lh	v1,6(t3)
    8208:	0600e484 	lh	a0,6(a3)
    820c:	21104300 	addu	v0,v0,v1
    8210:	21104400 	addu	v0,v0,a0
    8214:	83100200 	sra	v0,v0,0x2
    8218:	00408248 	mtc2	v0,$8
    821c:	0400028d 	lw	v0,4(t0)
    8220:	00000000 	nop
    8224:	25105400 	or	v0,v0,s4
    8228:	1400c2ac 	sw	v0,20(a2)
    822c:	1304e84a 	c2	0xe80413
    8230:	ff00053c 	lui	a1,0xff
    8234:	80200900 	sll	a0,t1,0x2
    8238:	08000295 	lhu	v0,8(t0)
    823c:	21209700 	addu	a0,a0,s7
    8240:	1c00c2a4 	sh	v0,28(a2)
    8244:	0c000295 	lhu	v0,12(t0)
    8248:	ffffa534 	ori	a1,a1,0xffff
    824c:	2400c2a4 	sh	v0,36(a2)
    8250:	0000838c 	lw	v1,0(a0)
    8254:	0009023c 	lui	v0,0x900
    8258:	24186500 	and	v1,v1,a1
    825c:	25186200 	or	v1,v1,v0
    8260:	2428c500 	and	a1,a2,a1
    8264:	0000c3ac 	sw	v1,0(a2)
    8268:	000085ac 	sw	a1,0(a0)
    826c:	0400c424 	addiu	a0,a2,4
    8270:	000096e8 	swc2	$22,0(a0)
    8274:	0100033c 	lui	v1,0x1
    8278:	00806334 	ori	v1,v1,0x8000
    827c:	1680023c 	lui	v0,0x8016
    8280:	90d04224 	addiu	v0,v0,-12144
    8284:	21104300 	addu	v0,v0,v1
    8288:	fc6d4290 	lbu	v0,28156(v0)
    828c:	00000000 	nop
    8290:	06004230 	andi	v0,v0,0x6
    8294:	04004010 	beqz	v0,0x82a8
    8298:	21404002 	move	t0,s2
    829c:	09f86002 	jalr	s3
    82a0:	00000000 	nop
    82a4:	21404002 	move	t0,s2
    82a8:	21102002 	move	v0,s1
    82ac:	87ff4014 	bnez	v0,0x80cc
    82b0:	ffff3126 	addiu	s1,s1,-1
    82b4:	6666033c 	lui	v1,0x6666
    82b8:	1000048e 	lw	a0,16(s0)
    82bc:	67666334 	ori	v1,v1,0x6667
    82c0:	23209600 	subu	a0,a0,s6
    82c4:	83100400 	sra	v0,a0,0x2
    82c8:	18004300 	mult	v0,v1
    82cc:	1c0008ae 	sw	t0,28(s0)
    82d0:	c3270400 	sra	a0,a0,0x1f
    82d4:	9000028e 	lw	v0,144(s0)
    82d8:	10680000 	mfhi	t5
    82dc:	83180d00 	sra	v1,t5,0x2
    82e0:	23186400 	subu	v1,v1,a0
    82e4:	21104300 	addu	v0,v0,v1
    82e8:	900002ae 	sw	v0,144(s0)
    82ec:	3000bf8f 	lw	ra,48(sp)
    82f0:	2c00b78f 	lw	s7,44(sp)
    82f4:	2800b68f 	lw	s6,40(sp)
    82f8:	2400b58f 	lw	s5,36(sp)
    82fc:	2000b48f 	lw	s4,32(sp)
    8300:	1c00b38f 	lw	s3,28(sp)
    8304:	1800b28f 	lw	s2,24(sp)
    8308:	1400b18f 	lw	s1,20(sp)
    830c:	1000b08f 	lw	s0,16(sp)
    8310:	3800bd27 	addiu	sp,sp,56
    8314:	0800e003 	jr	ra
    8318:	00000000 	nop
    831c:	21288000 	move	a1,a0
    8320:	0200a290 	lbu	v0,2(a1)
    8324:	00000000 	nop
    8328:	5600422c 	sltiu	v0,v0,86
    832c:	02004014 	bnez	v0,0x8338
    8330:	55000224 	li	v0,85
    8334:	0200a2a0 	sb	v0,2(a1)
    8338:	0200a290 	lbu	v0,2(a1)
    833c:	00000000 	nop
    8340:	40180200 	sll	v1,v0,0x1
    8344:	21204000 	move	a0,v0
    8348:	21186200 	addu	v1,v1,v0
    834c:	40200400 	sll	a0,a0,0x1
    8350:	0000a3a0 	sb	v1,0(a1)
    8354:	0800e003 	jr	ra
    8358:	0100a4a0 	sb	a0,1(a1)
    835c:	21288000 	move	a1,a0
    8360:	0000a290 	lbu	v0,0(a1)
    8364:	00000000 	nop
    8368:	5600422c 	sltiu	v0,v0,86
    836c:	02004014 	bnez	v0,0x8378
    8370:	55000224 	li	v0,85
    8374:	0000a2a0 	sb	v0,0(a1)
    8378:	0000a390 	lbu	v1,0(a1)
    837c:	00000000 	nop
    8380:	40100300 	sll	v0,v1,0x1
    8384:	21206000 	move	a0,v1
    8388:	21104300 	addu	v0,v0,v1
    838c:	0200a2a0 	sb	v0,2(a1)
    8390:	40100400 	sll	v0,a0,0x1
    8394:	21104400 	addu	v0,v0,a0
    8398:	0800e003 	jr	ra
    839c:	0100a2a0 	sb	v0,1(a1)
    83a0:	c8ffbd27 	addiu	sp,sp,-56
    83a4:	1c00b3af 	sw	s3,28(sp)
    83a8:	21988000 	move	s3,a0
    83ac:	2140a000 	move	t0,a1
    83b0:	2000b4af 	sw	s4,32(sp)
    83b4:	21a00000 	move	s4,zero
    83b8:	0100033c 	lui	v1,0x1
    83bc:	00806334 	ori	v1,v1,0x8000
    83c0:	1800b2af 	sw	s2,24(sp)
    83c4:	801f123c 	lui	s2,0x1f80
    83c8:	1680023c 	lui	v0,0x8016
    83cc:	90d04224 	addiu	v0,v0,-12144
    83d0:	21104300 	addu	v0,v0,v1
    83d4:	3400bfaf 	sw	ra,52(sp)
    83d8:	3000beaf 	sw	s8,48(sp)
    83dc:	2c00b7af 	sw	s7,44(sp)
    83e0:	2800b6af 	sw	s6,40(sp)
    83e4:	2400b5af 	sw	s5,36(sp)
    83e8:	1400b1af 	sw	s1,20(sp)
    83ec:	1000b0af 	sw	s0,16(sp)
    83f0:	4000a6af 	sw	a2,64(sp)
    83f4:	8c00438e 	lw	v1,140(s2)
    83f8:	fc6d4490 	lbu	a0,28156(v0)
    83fc:	10005e8e 	lw	s8,16(s2)
    8400:	21187300 	addu	v1,v1,s3
    8404:	02008230 	andi	v0,a0,0x2
    8408:	04004010 	beqz	v0,0x841c
    840c:	8c0043ae 	sw	v1,140(s2)
    8410:	0280023c 	lui	v0,0x8002
    8414:	0b630008 	j	0x18c2c
    8418:	1c8b5424 	addiu	s4,v0,-29924
    841c:	04008230 	andi	v0,a0,0x4
    8420:	02004010 	beqz	v0,0x842c
    8424:	0280023c 	lui	v0,0x8002
    8428:	5c8b5424 	addiu	s4,v0,-29860
    842c:	21106002 	move	v0,s3
    8430:	89004010 	beqz	v0,0x8658
    8434:	ffff7326 	addiu	s3,s3,-1
    8438:	0200e230 	andi	v0,a3,0x2
    843c:	34005734 	ori	s7,v0,0x34
    8440:	6000023c 	lui	v0,0x60
    8444:	24b0e200 	and	s6,a3,v0
    8448:	0e000395 	lhu	v1,14(t0)
    844c:	4000428e 	lw	v0,64(s2)
    8450:	16000495 	lhu	a0,22(t0)
    8454:	21584300 	addu	t3,v0,v1
    8458:	21504400 	addu	t2,v0,a0
    845c:	12000395 	lhu	v1,18(t0)
    8460:	00006c8d 	lw	t4,0(t3)
    8464:	00004e8d 	lw	t6,0(t2)
    8468:	21484300 	addu	t1,v0,v1
    846c:	00002d8d 	lw	t5,0(t1)
    8470:	00608c48 	mtc2	t4,$12
    8474:	00708e48 	mtc2	t6,$14
    8478:	00688d48 	mtc2	t5,$13
    847c:	18001525 	addiu	s5,t0,24
	...
    8488:	0600404b 	c2	0x1400006
    848c:	0b000291 	lbu	v0,11(t0)
    8490:	00000000 	nop
    8494:	25105700 	or	v0,v0,s7
    8498:	630042a2 	sb	v0,99(s2)
    849c:	70004226 	addiu	v0,s2,112
    84a0:	000058e8 	swc2	$24,0(v0)
    84a4:	7000428e 	lw	v0,112(s2)
    84a8:	00000000 	nop
    84ac:	66004018 	blez	v0,0x8648
    84b0:	5555053c 	lui	a1,0x5555
    84b4:	5655a534 	ori	a1,a1,0x5556
    84b8:	04006385 	lh	v1,4(t3)
    84bc:	04002285 	lh	v0,4(t1)
    84c0:	04004485 	lh	a0,4(t2)
    84c4:	21186200 	addu	v1,v1,v0
    84c8:	21186400 	addu	v1,v1,a0
    84cc:	43110300 	sra	v0,v1,0x5
    84d0:	18004500 	mult	v0,a1
    84d4:	0a000291 	lbu	v0,10(t0)
    84d8:	c31f0300 	sra	v1,v1,0x1f
    84dc:	00160200 	sll	v0,v0,0x18
    84e0:	03160200 	sra	v0,v0,0x18
    84e4:	10600000 	mfhi	t4
    84e8:	23188301 	subu	v1,t4,v1
    84ec:	21104300 	addu	v0,v0,v1
    84f0:	00140200 	sll	v0,v0,0x10
    84f4:	0400438e 	lw	v1,4(s2)
    84f8:	033c0200 	sra	a3,v0,0x10
    84fc:	2a18e300 	slt	v1,a3,v1
    8500:	51006010 	beqz	v1,0x8648
    8504:	00000000 	nop
    8508:	8000428e 	lw	v0,128(s2)
    850c:	00000000 	nop
    8510:	2a104700 	slt	v0,v0,a3
    8514:	4c004010 	beqz	v0,0x8648
    8518:	00000000 	nop
    851c:	1000468e 	lw	a2,16(s2)
    8520:	00000000 	nop
    8524:	2800c224 	addiu	v0,a2,40
    8528:	100042ae 	sw	v0,16(s2)
    852c:	0800cce8 	swc2	$12,8(a2)
    8530:	1400cde8 	swc2	$13,20(a2)
    8534:	2000cee8 	swc2	$14,32(a2)
    8538:	0c000595 	lhu	a1,12(t0)
    853c:	2400428e 	lw	v0,36(s2)
    8540:	10000395 	lhu	v1,16(t0)
    8544:	14000495 	lhu	a0,20(t0)
    8548:	21284500 	addu	a1,v0,a1
    854c:	21184300 	addu	v1,v0,v1
    8550:	21104400 	addu	v0,v0,a0
    8554:	0000a0c8 	lwc2	$0,0(a1)
    8558:	0400a1c8 	lwc2	$1,4(a1)
    855c:	000062c8 	lwc2	$2,0(v1)
    8560:	040063c8 	lwc2	$3,4(v1)
    8564:	000044c8 	lwc2	$4,0(v0)
    8568:	040045c8 	lwc2	$5,4(v0)
    856c:	0000028d 	lw	v0,0(t0)
    8570:	00000000 	nop
    8574:	0c00c2ac 	sw	v0,12(a2)
    8578:	60004226 	addiu	v0,s2,96
    857c:	000046c8 	lwc2	$6,0(v0)
    8580:	0400028d 	lw	v0,4(t0)
    8584:	00000000 	nop
    8588:	25105600 	or	v0,v0,s6
    858c:	1800c2ac 	sw	v0,24(a2)
    8590:	06006285 	lh	v0,6(t3)
    8594:	06002385 	lh	v1,6(t1)
    8598:	06004485 	lh	a0,6(t2)
    859c:	40100200 	sll	v0,v0,0x1
    85a0:	21104300 	addu	v0,v0,v1
    85a4:	21104400 	addu	v0,v0,a0
    85a8:	83100200 	sra	v0,v0,0x2
    85ac:	00408248 	mtc2	v0,$8
    85b0:	08000295 	lhu	v0,8(t0)
    85b4:	00000000 	nop
    85b8:	2400c2a4 	sh	v0,36(a2)
    85bc:	1604f84a 	c2	0xf80416
    85c0:	ff00053c 	lui	a1,0xff
    85c4:	80200700 	sll	a0,a3,0x2
    85c8:	ffffa534 	ori	a1,a1,0xffff
    85cc:	0009023c 	lui	v0,0x900
    85d0:	4000ad8f 	lw	t5,64(sp)
    85d4:	1000d024 	addiu	s0,a2,16
    85d8:	21208d00 	addu	a0,a0,t5
    85dc:	0000838c 	lw	v1,0(a0)
    85e0:	1c00d124 	addiu	s1,a2,28
    85e4:	24186500 	and	v1,v1,a1
    85e8:	25186200 	or	v1,v1,v0
    85ec:	2428c500 	and	a1,a2,a1
    85f0:	0000c3ac 	sw	v1,0(a2)
    85f4:	000085ac 	sw	a1,0(a0)
    85f8:	0400c424 	addiu	a0,a2,4
    85fc:	000094e8 	swc2	$20,0(a0)
    8600:	000015ea 	swc2	$21,0(s0)
    8604:	000036ea 	swc2	$22,0(s1)
    8608:	0100033c 	lui	v1,0x1
    860c:	00806334 	ori	v1,v1,0x8000
    8610:	1680023c 	lui	v0,0x8016
    8614:	90d04224 	addiu	v0,v0,-12144
    8618:	21104300 	addu	v0,v0,v1
    861c:	fc6d4290 	lbu	v0,28156(v0)
    8620:	00000000 	nop
    8624:	06004230 	andi	v0,v0,0x6
    8628:	08004010 	beqz	v0,0x864c
    862c:	2140a002 	move	t0,s5
    8630:	09f88002 	jalr	s4
    8634:	00000000 	nop
    8638:	09f88002 	jalr	s4
    863c:	21200002 	move	a0,s0
    8640:	09f88002 	jalr	s4
    8644:	21202002 	move	a0,s1
    8648:	2140a002 	move	t0,s5
    864c:	21106002 	move	v0,s3
    8650:	7dff4014 	bnez	v0,0x8448
    8654:	ffff7326 	addiu	s3,s3,-1
    8658:	6666033c 	lui	v1,0x6666
    865c:	1000448e 	lw	a0,16(s2)
    8660:	67666334 	ori	v1,v1,0x6667
    8664:	23209e00 	subu	a0,a0,s8
    8668:	83100400 	sra	v0,a0,0x2
    866c:	18004300 	mult	v0,v1
    8670:	1c0048ae 	sw	t0,28(s2)
    8674:	c3270400 	sra	a0,a0,0x1f
    8678:	9000428e 	lw	v0,144(s2)
    867c:	10700000 	mfhi	t6
    8680:	83180e00 	sra	v1,t6,0x2
    8684:	23186400 	subu	v1,v1,a0
    8688:	21104300 	addu	v0,v0,v1
    868c:	900042ae 	sw	v0,144(s2)
    8690:	3400bf8f 	lw	ra,52(sp)
    8694:	3000be8f 	lw	s8,48(sp)
    8698:	2c00b78f 	lw	s7,44(sp)
    869c:	2800b68f 	lw	s6,40(sp)
    86a0:	2400b58f 	lw	s5,36(sp)
    86a4:	2000b48f 	lw	s4,32(sp)
    86a8:	1c00b38f 	lw	s3,28(sp)
    86ac:	1800b28f 	lw	s2,24(sp)
    86b0:	1400b18f 	lw	s1,20(sp)
    86b4:	1000b08f 	lw	s0,16(sp)
    86b8:	3800bd27 	addiu	sp,sp,56
    86bc:	0800e003 	jr	ra
    86c0:	00000000 	nop
    86c4:	21288000 	move	a1,a0
    86c8:	0200a290 	lbu	v0,2(a1)
    86cc:	00000000 	nop
    86d0:	5600422c 	sltiu	v0,v0,86
    86d4:	02004014 	bnez	v0,0x86e0
    86d8:	55000224 	li	v0,85
    86dc:	0200a2a0 	sb	v0,2(a1)
    86e0:	0200a290 	lbu	v0,2(a1)
    86e4:	00000000 	nop
    86e8:	40180200 	sll	v1,v0,0x1
    86ec:	21204000 	move	a0,v0
    86f0:	21186200 	addu	v1,v1,v0
    86f4:	40200400 	sll	a0,a0,0x1
    86f8:	0000a3a0 	sb	v1,0(a1)
    86fc:	0800e003 	jr	ra
    8700:	0100a4a0 	sb	a0,1(a1)
    8704:	21288000 	move	a1,a0
    8708:	0000a290 	lbu	v0,0(a1)
    870c:	00000000 	nop
    8710:	5600422c 	sltiu	v0,v0,86
    8714:	02004014 	bnez	v0,0x8720
    8718:	55000224 	li	v0,85
    871c:	0000a2a0 	sb	v0,0(a1)
    8720:	0000a390 	lbu	v1,0(a1)
    8724:	00000000 	nop
    8728:	40100300 	sll	v0,v1,0x1
    872c:	21206000 	move	a0,v1
    8730:	21104300 	addu	v0,v0,v1
    8734:	0200a2a0 	sb	v0,2(a1)
    8738:	40100400 	sll	v0,a0,0x1
    873c:	21104400 	addu	v0,v0,a0
    8740:	0800e003 	jr	ra
    8744:	0100a2a0 	sb	v0,1(a1)
    8748:	c0ffbd27 	addiu	sp,sp,-64
    874c:	2c00b5af 	sw	s5,44(sp)
    8750:	21a88000 	move	s5,a0
    8754:	2140a000 	move	t0,a1
    8758:	3800beaf 	sw	s8,56(sp)
    875c:	21f0e000 	move	s8,a3
    8760:	2800b4af 	sw	s4,40(sp)
    8764:	21a00000 	move	s4,zero
    8768:	0100033c 	lui	v1,0x1
    876c:	00806334 	ori	v1,v1,0x8000
    8770:	1c00b1af 	sw	s1,28(sp)
    8774:	801f113c 	lui	s1,0x1f80
    8778:	1680023c 	lui	v0,0x8016
    877c:	90d04224 	addiu	v0,v0,-12144
    8780:	21104300 	addu	v0,v0,v1
    8784:	3c00bfaf 	sw	ra,60(sp)
    8788:	3400b7af 	sw	s7,52(sp)
    878c:	3000b6af 	sw	s6,48(sp)
    8790:	2400b3af 	sw	s3,36(sp)
    8794:	2000b2af 	sw	s2,32(sp)
    8798:	1800b0af 	sw	s0,24(sp)
    879c:	4800a6af 	sw	a2,72(sp)
    87a0:	8c00238e 	lw	v1,140(s1)
    87a4:	fc6d4490 	lbu	a0,28156(v0)
    87a8:	10002d8e 	lw	t5,16(s1)
    87ac:	21187500 	addu	v1,v1,s5
    87b0:	02008230 	andi	v0,a0,0x2
    87b4:	8c0023ae 	sw	v1,140(s1)
    87b8:	04004010 	beqz	v0,0x87cc
    87bc:	1000adaf 	sw	t5,16(sp)
    87c0:	0280023c 	lui	v0,0x8002
    87c4:	f7630008 	j	0x18fdc
    87c8:	c48e5424 	addiu	s4,v0,-28988
    87cc:	04008230 	andi	v0,a0,0x4
    87d0:	02004010 	beqz	v0,0x87dc
    87d4:	0280023c 	lui	v0,0x8002
    87d8:	048f5424 	addiu	s4,v0,-28924
    87dc:	2110a002 	move	v0,s5
    87e0:	a0004010 	beqz	v0,0x8a64
    87e4:	ffffb526 	addiu	s5,s5,-1
    87e8:	0200c233 	andi	v0,s8,0x2
    87ec:	3c004234 	ori	v0,v0,0x3c
    87f0:	1400a2af 	sw	v0,20(sp)
    87f4:	60003626 	addiu	s6,s1,96
    87f8:	12000395 	lhu	v1,18(t0)
    87fc:	4000228e 	lw	v0,64(s1)
    8800:	1a000495 	lhu	a0,26(t0)
    8804:	21604300 	addu	t4,v0,v1
    8808:	21504400 	addu	t2,v0,a0
    880c:	16000395 	lhu	v1,22(t0)
    8810:	00008e8d 	lw	t6,0(t4)
    8814:	00004d8d 	lw	t5,0(t2)
    8818:	21484300 	addu	t1,v0,v1
    881c:	00002f8d 	lw	t7,0(t1)
    8820:	00608e48 	mtc2	t6,$12
    8824:	00708d48 	mtc2	t5,$14
    8828:	00688f48 	mtc2	t7,$13
    882c:	20001725 	addiu	s7,t0,32
	...
    8838:	0600404b 	c2	0x1400006
    883c:	0b000291 	lbu	v0,11(t0)
    8840:	1400ae8f 	lw	t6,20(sp)
    8844:	00000000 	nop
    8848:	25104e00 	or	v0,v0,t6
    884c:	630022a2 	sb	v0,99(s1)
    8850:	70002226 	addiu	v0,s1,112
    8854:	000058e8 	swc2	$24,0(v0)
    8858:	7000228e 	lw	v0,112(s1)
    885c:	00000000 	nop
    8860:	7c004018 	blez	v0,0x8a54
    8864:	00000000 	nop
    8868:	0a000391 	lbu	v1,10(t0)
    886c:	1e000695 	lhu	a2,30(t0)
    8870:	4000258e 	lw	a1,64(s1)
    8874:	04008285 	lh	v0,4(t4)
    8878:	04002485 	lh	a0,4(t1)
    887c:	001e0300 	sll	v1,v1,0x18
    8880:	031e0300 	sra	v1,v1,0x18
    8884:	2138a600 	addu	a3,a1,a2
    8888:	21104400 	addu	v0,v0,a0
    888c:	04004485 	lh	a0,4(t2)
    8890:	0400e584 	lh	a1,4(a3)
    8894:	21104400 	addu	v0,v0,a0
    8898:	21104500 	addu	v0,v0,a1
    889c:	c3110200 	sra	v0,v0,0x7
    88a0:	21186200 	addu	v1,v1,v0
    88a4:	001c0300 	sll	v1,v1,0x10
    88a8:	0400228e 	lw	v0,4(s1)
    88ac:	035c0300 	sra	t3,v1,0x10
    88b0:	2a106201 	slt	v0,t3,v0
    88b4:	67004010 	beqz	v0,0x8a54
    88b8:	00000000 	nop
    88bc:	8000228e 	lw	v0,128(s1)
    88c0:	00000000 	nop
    88c4:	2a104b00 	slt	v0,v0,t3
    88c8:	62004010 	beqz	v0,0x8a54
    88cc:	00000000 	nop
    88d0:	1000268e 	lw	a2,16(s1)
    88d4:	00000000 	nop
    88d8:	3400c224 	addiu	v0,a2,52
    88dc:	100022ae 	sw	v0,16(s1)
    88e0:	0800cce8 	swc2	$12,8(a2)
    88e4:	1400cde8 	swc2	$13,20(a2)
    88e8:	2000cee8 	swc2	$14,32(a2)
    88ec:	10000595 	lhu	a1,16(t0)
    88f0:	2400228e 	lw	v0,36(s1)
    88f4:	14000395 	lhu	v1,20(t0)
    88f8:	18000495 	lhu	a0,24(t0)
    88fc:	21284500 	addu	a1,v0,a1
    8900:	21184300 	addu	v1,v0,v1
    8904:	21104400 	addu	v0,v0,a0
    8908:	0000a0c8 	lwc2	$0,0(a1)
    890c:	0400a1c8 	lwc2	$1,4(a1)
    8910:	000062c8 	lwc2	$2,0(v1)
    8914:	040063c8 	lwc2	$3,4(v1)
    8918:	000044c8 	lwc2	$4,0(v0)
    891c:	040045c8 	lwc2	$5,4(v0)
    8920:	0000e28c 	lw	v0,0(a3)
    8924:	00000000 	nop
    8928:	2c00c2ac 	sw	v0,44(a2)
    892c:	0000c6ca 	lwc2	$6,0(s6)
    8930:	0000028d 	lw	v0,0(t0)
    8934:	00000000 	nop
    8938:	0c00c2ac 	sw	v0,12(a2)
    893c:	06008285 	lh	v0,6(t4)
    8940:	06002385 	lh	v1,6(t1)
    8944:	00000000 	nop
    8948:	21104300 	addu	v0,v0,v1
    894c:	06004385 	lh	v1,6(t2)
    8950:	0600e484 	lh	a0,6(a3)
    8954:	21104300 	addu	v0,v0,v1
    8958:	21104400 	addu	v0,v0,a0
    895c:	83100200 	sra	v0,v0,0x2
    8960:	00408248 	mtc2	v0,$8
    8964:	6000023c 	lui	v0,0x60
    8968:	0400038d 	lw	v1,4(t0)
    896c:	2410c203 	and	v0,s8,v0
    8970:	25186200 	or	v1,v1,v0
    8974:	1800c3ac 	sw	v1,24(a2)
    8978:	1604f84a 	c2	0xf80416
    897c:	0400c724 	addiu	a3,a2,4
    8980:	1000d224 	addiu	s2,a2,16
    8984:	08000295 	lhu	v0,8(t0)
    8988:	1c00d324 	addiu	s3,a2,28
    898c:	2400c2a4 	sh	v0,36(a2)
    8990:	0000f4e8 	swc2	$20,0(a3)
    8994:	000055ea 	swc2	$21,0(s2)
    8998:	000076ea 	swc2	$22,0(s3)
    899c:	1c000395 	lhu	v1,28(t0)
    89a0:	2400228e 	lw	v0,36(s1)
    89a4:	00000000 	nop
    89a8:	21104300 	addu	v0,v0,v1
    89ac:	000040c8 	lwc2	$0,0(v0)
    89b0:	040041c8 	lwc2	$1,4(v0)
    89b4:	0000c6ca 	lwc2	$6,0(s6)
    89b8:	06008c95 	lhu	t4,6(t4)
    89bc:	00000000 	nop
    89c0:	00408c48 	mtc2	t4,$8
    89c4:	0c000295 	lhu	v0,12(t0)
    89c8:	00000000 	nop
    89cc:	3000c2a4 	sh	v0,48(a2)
    89d0:	1304e84a 	c2	0xe80413
    89d4:	ff00053c 	lui	a1,0xff
    89d8:	80200b00 	sll	a0,t3,0x2
    89dc:	ffffa534 	ori	a1,a1,0xffff
    89e0:	4800af8f 	lw	t7,72(sp)
    89e4:	000c023c 	lui	v0,0xc00
    89e8:	21208f00 	addu	a0,a0,t7
    89ec:	0000838c 	lw	v1,0(a0)
    89f0:	2800d024 	addiu	s0,a2,40
    89f4:	24186500 	and	v1,v1,a1
    89f8:	25186200 	or	v1,v1,v0
    89fc:	2428c500 	and	a1,a2,a1
    8a00:	0000c3ac 	sw	v1,0(a2)
    8a04:	000085ac 	sw	a1,0(a0)
    8a08:	000016ea 	swc2	$22,0(s0)
    8a0c:	0100033c 	lui	v1,0x1
    8a10:	00806334 	ori	v1,v1,0x8000
    8a14:	1680023c 	lui	v0,0x8016
    8a18:	90d04224 	addiu	v0,v0,-12144
    8a1c:	21104300 	addu	v0,v0,v1
    8a20:	fc6d4290 	lbu	v0,28156(v0)
    8a24:	00000000 	nop
    8a28:	06004230 	andi	v0,v0,0x6
    8a2c:	0a004010 	beqz	v0,0x8a58
    8a30:	2140e002 	move	t0,s7
    8a34:	09f88002 	jalr	s4
    8a38:	2120e000 	move	a0,a3
    8a3c:	09f88002 	jalr	s4
    8a40:	21204002 	move	a0,s2
    8a44:	09f88002 	jalr	s4
    8a48:	21206002 	move	a0,s3
    8a4c:	09f88002 	jalr	s4
    8a50:	21200002 	move	a0,s0
    8a54:	2140e002 	move	t0,s7
    8a58:	2110a002 	move	v0,s5
    8a5c:	66ff4014 	bnez	v0,0x87f8
    8a60:	ffffb526 	addiu	s5,s5,-1
    8a64:	aa2a033c 	lui	v1,0x2aaa
    8a68:	1000248e 	lw	a0,16(s1)
    8a6c:	1000ad8f 	lw	t5,16(sp)
    8a70:	abaa6334 	ori	v1,v1,0xaaab
    8a74:	23208d00 	subu	a0,a0,t5
    8a78:	83100400 	sra	v0,a0,0x2
    8a7c:	18004300 	mult	v0,v1
    8a80:	9000228e 	lw	v0,144(s1)
    8a84:	c3270400 	sra	a0,a0,0x1f
    8a88:	1c0028ae 	sw	t0,28(s1)
    8a8c:	10700000 	mfhi	t6
    8a90:	43180e00 	sra	v1,t6,0x1
    8a94:	23186400 	subu	v1,v1,a0
    8a98:	21104300 	addu	v0,v0,v1
    8a9c:	900022ae 	sw	v0,144(s1)
    8aa0:	3c00bf8f 	lw	ra,60(sp)
    8aa4:	3800be8f 	lw	s8,56(sp)
    8aa8:	3400b78f 	lw	s7,52(sp)
    8aac:	3000b68f 	lw	s6,48(sp)
    8ab0:	2c00b58f 	lw	s5,44(sp)
    8ab4:	2800b48f 	lw	s4,40(sp)
    8ab8:	2400b38f 	lw	s3,36(sp)
    8abc:	2000b28f 	lw	s2,32(sp)
    8ac0:	1c00b18f 	lw	s1,28(sp)
    8ac4:	1800b08f 	lw	s0,24(sp)
    8ac8:	4000bd27 	addiu	sp,sp,64
    8acc:	0800e003 	jr	ra
    8ad0:	00000000 	nop
    8ad4:	e0ffbd27 	addiu	sp,sp,-32
    8ad8:	42100500 	srl	v0,a1,0x1
    8adc:	1400b1af 	sw	s1,20(sp)
    8ae0:	02005130 	andi	s1,v0,0x2
    8ae4:	0300a530 	andi	a1,a1,0x3
    8ae8:	402d0500 	sll	a1,a1,0x15
    8aec:	25882502 	or	s1,s1,a1
    8af0:	0100053c 	lui	a1,0x1
    8af4:	1000b0af 	sw	s0,16(sp)
    8af8:	801f103c 	lui	s0,0x1f80
    8afc:	ffff8430 	andi	a0,a0,0xffff
    8b00:	80100400 	sll	v0,a0,0x2
    8b04:	21104400 	addu	v0,v0,a0
    8b08:	c0100200 	sll	v0,v0,0x3
    8b0c:	0c004224 	addiu	v0,v0,12
    8b10:	1800bfaf 	sw	ra,24(sp)
    8b14:	0c00048e 	lw	a0,12(s0)
    8b18:	0080a534 	ori	a1,a1,0x8000
    8b1c:	21108200 	addu	v0,a0,v0
    8b20:	200002ae 	sw	v0,32(s0)
    8b24:	0800438c 	lw	v1,8(v0)
    8b28:	1680023c 	lui	v0,0x8016
    8b2c:	90d04224 	addiu	v0,v0,-12144
    8b30:	21304500 	addu	a2,v0,a1
    8b34:	fc6dc590 	lbu	a1,28156(a2)
    8b38:	0c006324 	addiu	v1,v1,12
    8b3c:	21208300 	addu	a0,a0,v1
    8b40:	0200a230 	andi	v0,a1,0x2
    8b44:	0e004010 	beqz	v0,0x8b80
    8b48:	240004ae 	sw	a0,36(s0)
    8b4c:	1000a230 	andi	v0,a1,0x10
    8b50:	06004010 	beqz	v0,0x8b6c
    8b54:	00000000 	nop
    8b58:	f86dc38c 	lw	v1,28152(a2)
    8b5c:	88ff0224 	li	v0,-120
    8b60:	431b0300 	sra	v1,v1,0xd
    8b64:	e1640008 	j	0x19384
    8b68:	23104300 	subu	v0,v0,v1
    8b6c:	f86dc38c 	lw	v1,28152(a2)
    8b70:	a0ff0224 	li	v0,-96
    8b74:	c31a0300 	sra	v1,v1,0xb
    8b78:	e1640008 	j	0x19384
    8b7c:	23104300 	subu	v0,v0,v1
    8b80:	80000224 	li	v0,128
    8b84:	620002a2 	sb	v0,98(s0)
    8b88:	610002a2 	sb	v0,97(s0)
    8b8c:	600002a2 	sb	v0,96(s0)
    8b90:	0100023c 	lui	v0,0x1
    8b94:	00804234 	ori	v0,v0,0x8000
    8b98:	1680033c 	lui	v1,0x8016
    8b9c:	90d06324 	addiu	v1,v1,-12144
    8ba0:	21186200 	addu	v1,v1,v0
    8ba4:	fc6d6390 	lbu	v1,28156(v1)
    8ba8:	00000000 	nop
    8bac:	02006230 	andi	v0,v1,0x2
    8bb0:	0b004010 	beqz	v0,0x8be0
    8bb4:	06000824 	li	t0,6
    8bb8:	04000924 	li	t1,4
    8bbc:	02000a24 	li	t2,2
    8bc0:	00610800 	sll	t4,t0,0x4
    8bc4:	00690900 	sll	t5,t1,0x4
    8bc8:	00710a00 	sll	t6,t2,0x4
    8bcc:	00a8cc48 	ctc2	t4,$21
    8bd0:	00b0cd48 	ctc2	t5,$22
    8bd4:	00b8ce48 	ctc2	t6,$23
    8bd8:	0e650008 	j	0x19438
    8bdc:	00000000 	nop
    8be0:	04006230 	andi	v0,v1,0x4
    8be4:	0b004010 	beqz	v0,0x8c14
    8be8:	02000824 	li	t0,2
    8bec:	06000924 	li	t1,6
    8bf0:	21502001 	move	t2,t1
    8bf4:	00610800 	sll	t4,t0,0x4
    8bf8:	00690900 	sll	t5,t1,0x4
    8bfc:	00710a00 	sll	t6,t2,0x4
    8c00:	00a8cc48 	ctc2	t4,$21
    8c04:	00b0cd48 	ctc2	t5,$22
    8c08:	00b8ce48 	ctc2	t6,$23
    8c0c:	0e650008 	j	0x19438
    8c10:	00000000 	nop
    8c14:	05000824 	li	t0,5
    8c18:	21480001 	move	t1,t0
    8c1c:	21500001 	move	t2,t0
    8c20:	00610800 	sll	t4,t0,0x4
    8c24:	00690900 	sll	t5,t1,0x4
    8c28:	00710a00 	sll	t6,t2,0x4
    8c2c:	00a8cc48 	ctc2	t4,$21
    8c30:	00b0cd48 	ctc2	t5,$22
    8c34:	00b8ce48 	ctc2	t6,$23
    8c38:	2000028e 	lw	v0,32(s0)
    8c3c:	0000068e 	lw	a2,0(s0)
    8c40:	0c00058e 	lw	a1,12(s0)
    8c44:	1000428c 	lw	v0,16(v0)
    8c48:	2000038e 	lw	v1,32(s0)
    8c4c:	0c004224 	addiu	v0,v0,12
    8c50:	2128a200 	addu	a1,a1,v0
    8c54:	1c0005ae 	sw	a1,28(s0)
    8c58:	18006494 	lhu	a0,24(v1)
    8c5c:	3161000c 	jal	0x184c4
    8c60:	21382002 	move	a3,s1
    8c64:	1c00058e 	lw	a1,28(s0)
    8c68:	2000028e 	lw	v0,32(s0)
    8c6c:	0000068e 	lw	a2,0(s0)
    8c70:	1c004494 	lhu	a0,28(v0)
    8c74:	0a62000c 	jal	0x18828
    8c78:	21382002 	move	a3,s1
    8c7c:	1c00058e 	lw	a1,28(s0)
    8c80:	2000028e 	lw	v0,32(s0)
    8c84:	0000068e 	lw	a2,0(s0)
    8c88:	1a004494 	lhu	a0,26(v0)
    8c8c:	e862000c 	jal	0x18ba0
    8c90:	21382002 	move	a3,s1
    8c94:	1c00058e 	lw	a1,28(s0)
    8c98:	2000028e 	lw	v0,32(s0)
    8c9c:	0000068e 	lw	a2,0(s0)
    8ca0:	1e004494 	lhu	a0,30(v0)
    8ca4:	d263000c 	jal	0x18f48
    8ca8:	21382002 	move	a3,s1
    8cac:	1800bf8f 	lw	ra,24(sp)
    8cb0:	1400b18f 	lw	s1,20(sp)
    8cb4:	1000b08f 	lw	s0,16(sp)
    8cb8:	2000bd27 	addiu	sp,sp,32
    8cbc:	0800e003 	jr	ra
    8cc0:	00000000 	nop
    8cc4:	f8ffbd27 	addiu	sp,sp,-8
    8cc8:	21608000 	move	t4,a0
    8ccc:	2140a000 	move	t0,a1
    8cd0:	801f0b3c 	lui	t3,0x1f80
    8cd4:	21188001 	move	v1,t4
    8cd8:	0400b1af 	sw	s1,4(sp)
    8cdc:	0000b0af 	sw	s0,0(sp)
    8ce0:	8c00628d 	lw	v0,140(t3)
    8ce4:	1000788d 	lw	t8,16(t3)
    8ce8:	21104c00 	addu	v0,v0,t4
    8cec:	ffff8c25 	addiu	t4,t4,-1
    8cf0:	63006010 	beqz	v1,0x8e80
    8cf4:	8c0062ad 	sw	v0,140(t3)
    8cf8:	0200e230 	andi	v0,a3,0x2
    8cfc:	24004f34 	ori	t7,v0,0x24
    8d00:	6000023c 	lui	v0,0x60
    8d04:	2438e200 	and	a3,a3,v0
    8d08:	ff000d3c 	lui	t5,0xff
    8d0c:	ffffad35 	ori	t5,t5,0xffff
    8d10:	0e000395 	lhu	v1,14(t0)
    8d14:	4000628d 	lw	v0,64(t3)
    8d18:	12000495 	lhu	a0,18(t0)
    8d1c:	21504300 	addu	t2,v0,v1
    8d20:	21204400 	addu	a0,v0,a0
    8d24:	10000395 	lhu	v1,16(t0)
    8d28:	0000508d 	lw	s0,0(t2)
    8d2c:	0000998c 	lw	t9,0(a0)
    8d30:	21484300 	addu	t1,v0,v1
    8d34:	0000318d 	lw	s1,0(t1)
    8d38:	00609048 	mtc2	s0,$12
    8d3c:	00709948 	mtc2	t9,$14
    8d40:	00689148 	mtc2	s1,$13
    8d44:	14000e25 	addiu	t6,t0,20
	...
    8d50:	0600404b 	c2	0x1400006
    8d54:	0b000291 	lbu	v0,11(t0)
    8d58:	00000000 	nop
    8d5c:	25104f00 	or	v0,v0,t7
    8d60:	630062a1 	sb	v0,99(t3)
    8d64:	70006225 	addiu	v0,t3,112
    8d68:	000058e8 	swc2	$24,0(v0)
    8d6c:	7000628d 	lw	v0,112(t3)
    8d70:	00000000 	nop
    8d74:	3e004018 	blez	v0,0x8e70
    8d78:	5555053c 	lui	a1,0x5555
    8d7c:	5655a534 	ori	a1,a1,0x5556
    8d80:	04004385 	lh	v1,4(t2)
    8d84:	04002285 	lh	v0,4(t1)
    8d88:	04008484 	lh	a0,4(a0)
    8d8c:	21186200 	addu	v1,v1,v0
    8d90:	21186400 	addu	v1,v1,a0
    8d94:	43110300 	sra	v0,v1,0x5
    8d98:	18004500 	mult	v0,a1
    8d9c:	0a000291 	lbu	v0,10(t0)
    8da0:	c31f0300 	sra	v1,v1,0x1f
    8da4:	00160200 	sll	v0,v0,0x18
    8da8:	03160200 	sra	v0,v0,0x18
    8dac:	10800000 	mfhi	s0
    8db0:	23180302 	subu	v1,s0,v1
    8db4:	21104300 	addu	v0,v0,v1
    8db8:	00140200 	sll	v0,v0,0x10
    8dbc:	0400638d 	lw	v1,4(t3)
    8dc0:	03240200 	sra	a0,v0,0x10
    8dc4:	2a188300 	slt	v1,a0,v1
    8dc8:	29006010 	beqz	v1,0x8e70
    8dcc:	00000000 	nop
    8dd0:	8000628d 	lw	v0,128(t3)
    8dd4:	00000000 	nop
    8dd8:	2a104400 	slt	v0,v0,a0
    8ddc:	24004010 	beqz	v0,0x8e70
    8de0:	00000000 	nop
    8de4:	1000658d 	lw	a1,16(t3)
    8de8:	00000000 	nop
    8dec:	2000a224 	addiu	v0,a1,32
    8df0:	100062ad 	sw	v0,16(t3)
    8df4:	0800ace8 	swc2	$12,8(a1)
    8df8:	1000ade8 	swc2	$13,16(a1)
    8dfc:	1800aee8 	swc2	$14,24(a1)
    8e00:	0c000395 	lhu	v1,12(t0)
    8e04:	2400628d 	lw	v0,36(t3)
    8e08:	00000000 	nop
    8e0c:	21104300 	addu	v0,v0,v1
    8e10:	000040c8 	lwc2	$0,0(v0)
    8e14:	040041c8 	lwc2	$1,4(v0)
    8e18:	60006225 	addiu	v0,t3,96
    8e1c:	000046c8 	lwc2	$6,0(v0)
    8e20:	0000028d 	lw	v0,0(t0)
    8e24:	00000000 	nop
    8e28:	0c00a2ac 	sw	v0,12(a1)
    8e2c:	1b04084b 	c2	0x108041b
    8e30:	0400028d 	lw	v0,4(t0)
    8e34:	80200400 	sll	a0,a0,0x2
    8e38:	25104700 	or	v0,v0,a3
    8e3c:	1400a2ac 	sw	v0,20(a1)
    8e40:	08000295 	lhu	v0,8(t0)
    8e44:	21208600 	addu	a0,a0,a2
    8e48:	1c00a2a4 	sh	v0,28(a1)
    8e4c:	0000828c 	lw	v0,0(a0)
    8e50:	0007033c 	lui	v1,0x700
    8e54:	24104d00 	and	v0,v0,t5
    8e58:	25104300 	or	v0,v0,v1
    8e5c:	0000a2ac 	sw	v0,0(a1)
    8e60:	2410ad00 	and	v0,a1,t5
    8e64:	0400a524 	addiu	a1,a1,4
    8e68:	000082ac 	sw	v0,0(a0)
    8e6c:	0000b6e8 	swc2	$22,0(a1)
    8e70:	2140c001 	move	t0,t6
    8e74:	21108001 	move	v0,t4
    8e78:	a5ff4014 	bnez	v0,0x8d10
    8e7c:	ffff8c25 	addiu	t4,t4,-1
    8e80:	1000628d 	lw	v0,16(t3)
    8e84:	00000000 	nop
    8e88:	23105800 	subu	v0,v0,t8
    8e8c:	83180200 	sra	v1,v0,0x2
    8e90:	02006104 	bgez	v1,0x8e9c
    8e94:	1c0068ad 	sw	t0,28(t3)
    8e98:	07006324 	addiu	v1,v1,7
    8e9c:	9000628d 	lw	v0,144(t3)
    8ea0:	c3180300 	sra	v1,v1,0x3
    8ea4:	21104300 	addu	v0,v0,v1
    8ea8:	900062ad 	sw	v0,144(t3)
    8eac:	0400b18f 	lw	s1,4(sp)
    8eb0:	0000b08f 	lw	s0,0(sp)
    8eb4:	0800bd27 	addiu	sp,sp,8
    8eb8:	0800e003 	jr	ra
    8ebc:	00000000 	nop
    8ec0:	f0ffbd27 	addiu	sp,sp,-16
    8ec4:	21688000 	move	t5,a0
    8ec8:	2140a000 	move	t0,a1
    8ecc:	0000b0af 	sw	s0,0(sp)
    8ed0:	2180c000 	move	s0,a2
    8ed4:	801f0a3c 	lui	t2,0x1f80
    8ed8:	2118a001 	move	v1,t5
    8edc:	0c00b3af 	sw	s3,12(sp)
    8ee0:	0800b2af 	sw	s2,8(sp)
    8ee4:	0400b1af 	sw	s1,4(sp)
    8ee8:	8c00428d 	lw	v0,140(t2)
    8eec:	1000598d 	lw	t9,16(t2)
    8ef0:	21104d00 	addu	v0,v0,t5
    8ef4:	ffffad25 	addiu	t5,t5,-1
    8ef8:	69006010 	beqz	v1,0x90a0
    8efc:	8c0042ad 	sw	v0,140(t2)
    8f00:	0200e230 	andi	v0,a3,0x2
    8f04:	2c005834 	ori	t8,v0,0x2c
    8f08:	6000023c 	lui	v0,0x60
    8f0c:	2438e200 	and	a3,a3,v0
    8f10:	ff000e3c 	lui	t6,0xff
    8f14:	ffffce35 	ori	t6,t6,0xffff
    8f18:	12000395 	lhu	v1,18(t0)
    8f1c:	4000428d 	lw	v0,64(t2)
    8f20:	16000495 	lhu	a0,22(t0)
    8f24:	21584300 	addu	t3,v0,v1
    8f28:	21604400 	addu	t4,v0,a0
    8f2c:	14000395 	lhu	v1,20(t0)
    8f30:	0000718d 	lw	s1,0(t3)
    8f34:	0000938d 	lw	s3,0(t4)
    8f38:	21484300 	addu	t1,v0,v1
    8f3c:	0000328d 	lw	s2,0(t1)
    8f40:	00609148 	mtc2	s1,$12
    8f44:	00709348 	mtc2	s3,$14
    8f48:	00689248 	mtc2	s2,$13
    8f4c:	1c000f25 	addiu	t7,t0,28
	...
    8f58:	0600404b 	c2	0x1400006
    8f5c:	0b000291 	lbu	v0,11(t0)
    8f60:	00000000 	nop
    8f64:	25105800 	or	v0,v0,t8
    8f68:	630042a1 	sb	v0,99(t2)
    8f6c:	70004225 	addiu	v0,t2,112
    8f70:	000058e8 	swc2	$24,0(v0)
    8f74:	7000428d 	lw	v0,112(t2)
    8f78:	00000000 	nop
    8f7c:	44004018 	blez	v0,0x9090
    8f80:	00000000 	nop
    8f84:	0a000391 	lbu	v1,10(t0)
    8f88:	18000695 	lhu	a2,24(t0)
    8f8c:	4000458d 	lw	a1,64(t2)
    8f90:	04006285 	lh	v0,4(t3)
    8f94:	04002485 	lh	a0,4(t1)
    8f98:	001e0300 	sll	v1,v1,0x18
    8f9c:	031e0300 	sra	v1,v1,0x18
    8fa0:	2130a600 	addu	a2,a1,a2
    8fa4:	21104400 	addu	v0,v0,a0
    8fa8:	04008485 	lh	a0,4(t4)
    8fac:	0400c584 	lh	a1,4(a2)
    8fb0:	21104400 	addu	v0,v0,a0
    8fb4:	21104500 	addu	v0,v0,a1
    8fb8:	c3110200 	sra	v0,v0,0x7
    8fbc:	21186200 	addu	v1,v1,v0
    8fc0:	001c0300 	sll	v1,v1,0x10
    8fc4:	0400428d 	lw	v0,4(t2)
    8fc8:	03240300 	sra	a0,v1,0x10
    8fcc:	2a108200 	slt	v0,a0,v0
    8fd0:	2f004010 	beqz	v0,0x9090
    8fd4:	00000000 	nop
    8fd8:	8000428d 	lw	v0,128(t2)
    8fdc:	00000000 	nop
    8fe0:	2a104400 	slt	v0,v0,a0
    8fe4:	2a004010 	beqz	v0,0x9090
    8fe8:	00000000 	nop
    8fec:	1000458d 	lw	a1,16(t2)
    8ff0:	00000000 	nop
    8ff4:	2800a224 	addiu	v0,a1,40
    8ff8:	100042ad 	sw	v0,16(t2)
    8ffc:	0800ace8 	swc2	$12,8(a1)
    9000:	1000ade8 	swc2	$13,16(a1)
    9004:	1800aee8 	swc2	$14,24(a1)
    9008:	10000395 	lhu	v1,16(t0)
    900c:	2400428d 	lw	v0,36(t2)
    9010:	00000000 	nop
    9014:	21104300 	addu	v0,v0,v1
    9018:	000040c8 	lwc2	$0,0(v0)
    901c:	040041c8 	lwc2	$1,4(v0)
    9020:	60004225 	addiu	v0,t2,96
    9024:	000046c8 	lwc2	$6,0(v0)
    9028:	0000c28c 	lw	v0,0(a2)
    902c:	00000000 	nop
    9030:	2000a2ac 	sw	v0,32(a1)
    9034:	1b04084b 	c2	0x108041b
    9038:	0000028d 	lw	v0,0(t0)
    903c:	00000000 	nop
    9040:	0c00a2ac 	sw	v0,12(a1)
    9044:	0400028d 	lw	v0,4(t0)
    9048:	00000000 	nop
    904c:	25104700 	or	v0,v0,a3
    9050:	1400a2ac 	sw	v0,20(a1)
    9054:	08000295 	lhu	v0,8(t0)
    9058:	80200400 	sll	a0,a0,0x2
    905c:	1c00a2a4 	sh	v0,28(a1)
    9060:	0c000295 	lhu	v0,12(t0)
    9064:	21209000 	addu	a0,a0,s0
    9068:	2400a2a4 	sh	v0,36(a1)
    906c:	0000828c 	lw	v0,0(a0)
    9070:	0009033c 	lui	v1,0x900
    9074:	24104e00 	and	v0,v0,t6
    9078:	25104300 	or	v0,v0,v1
    907c:	0000a2ac 	sw	v0,0(a1)
    9080:	2410ae00 	and	v0,a1,t6
    9084:	0400a524 	addiu	a1,a1,4
    9088:	000082ac 	sw	v0,0(a0)
    908c:	0000b6e8 	swc2	$22,0(a1)
    9090:	2140e001 	move	t0,t7
    9094:	2110a001 	move	v0,t5
    9098:	9fff4014 	bnez	v0,0x8f18
    909c:	ffffad25 	addiu	t5,t5,-1
    90a0:	6666033c 	lui	v1,0x6666
    90a4:	1000448d 	lw	a0,16(t2)
    90a8:	67666334 	ori	v1,v1,0x6667
    90ac:	23209900 	subu	a0,a0,t9
    90b0:	83100400 	sra	v0,a0,0x2
    90b4:	18004300 	mult	v0,v1
    90b8:	1c0048ad 	sw	t0,28(t2)
    90bc:	c3270400 	sra	a0,a0,0x1f
    90c0:	9000428d 	lw	v0,144(t2)
    90c4:	10880000 	mfhi	s1
    90c8:	83181100 	sra	v1,s1,0x2
    90cc:	23186400 	subu	v1,v1,a0
    90d0:	21104300 	addu	v0,v0,v1
    90d4:	900042ad 	sw	v0,144(t2)
    90d8:	0c00b38f 	lw	s3,12(sp)
    90dc:	0800b28f 	lw	s2,8(sp)
    90e0:	0400b18f 	lw	s1,4(sp)
    90e4:	0000b08f 	lw	s0,0(sp)
    90e8:	1000bd27 	addiu	sp,sp,16
    90ec:	0800e003 	jr	ra
    90f0:	00000000 	nop
    90f4:	f8ffbd27 	addiu	sp,sp,-8
    90f8:	21608000 	move	t4,a0
    90fc:	2140a000 	move	t0,a1
    9100:	801f0b3c 	lui	t3,0x1f80
    9104:	21188001 	move	v1,t4
    9108:	0400b1af 	sw	s1,4(sp)
    910c:	0000b0af 	sw	s0,0(sp)
    9110:	8c00628d 	lw	v0,140(t3)
    9114:	1000788d 	lw	t8,16(t3)
    9118:	21104c00 	addu	v0,v0,t4
    911c:	ffff8c25 	addiu	t4,t4,-1
    9120:	71006010 	beqz	v1,0x92e8
    9124:	8c0062ad 	sw	v0,140(t3)
    9128:	0200e230 	andi	v0,a3,0x2
    912c:	34004f34 	ori	t7,v0,0x34
    9130:	6000023c 	lui	v0,0x60
    9134:	2438e200 	and	a3,a3,v0
    9138:	ff000d3c 	lui	t5,0xff
    913c:	ffffad35 	ori	t5,t5,0xffff
    9140:	0e000395 	lhu	v1,14(t0)
    9144:	4000628d 	lw	v0,64(t3)
    9148:	16000495 	lhu	a0,22(t0)
    914c:	21504300 	addu	t2,v0,v1
    9150:	21204400 	addu	a0,v0,a0
    9154:	12000395 	lhu	v1,18(t0)
    9158:	0000508d 	lw	s0,0(t2)
    915c:	0000998c 	lw	t9,0(a0)
    9160:	21484300 	addu	t1,v0,v1
    9164:	0000318d 	lw	s1,0(t1)
    9168:	00609048 	mtc2	s0,$12
    916c:	00709948 	mtc2	t9,$14
    9170:	00689148 	mtc2	s1,$13
    9174:	18000e25 	addiu	t6,t0,24
	...
    9180:	0600404b 	c2	0x1400006
    9184:	0b000291 	lbu	v0,11(t0)
    9188:	00000000 	nop
    918c:	25104f00 	or	v0,v0,t7
    9190:	630062a1 	sb	v0,99(t3)
    9194:	70006225 	addiu	v0,t3,112
    9198:	000058e8 	swc2	$24,0(v0)
    919c:	7000628d 	lw	v0,112(t3)
    91a0:	00000000 	nop
    91a4:	4c004018 	blez	v0,0x92d8
    91a8:	5555053c 	lui	a1,0x5555
    91ac:	5655a534 	ori	a1,a1,0x5556
    91b0:	04004385 	lh	v1,4(t2)
    91b4:	04002285 	lh	v0,4(t1)
    91b8:	04008484 	lh	a0,4(a0)
    91bc:	21186200 	addu	v1,v1,v0
    91c0:	21186400 	addu	v1,v1,a0
    91c4:	43110300 	sra	v0,v1,0x5
    91c8:	18004500 	mult	v0,a1
    91cc:	0a000291 	lbu	v0,10(t0)
    91d0:	c31f0300 	sra	v1,v1,0x1f
    91d4:	00160200 	sll	v0,v0,0x18
    91d8:	03160200 	sra	v0,v0,0x18
    91dc:	10800000 	mfhi	s0
    91e0:	23180302 	subu	v1,s0,v1
    91e4:	21104300 	addu	v0,v0,v1
    91e8:	00140200 	sll	v0,v0,0x10
    91ec:	0400638d 	lw	v1,4(t3)
    91f0:	034c0200 	sra	t1,v0,0x10
    91f4:	2a182301 	slt	v1,t1,v1
    91f8:	37006010 	beqz	v1,0x92d8
    91fc:	00000000 	nop
    9200:	8000628d 	lw	v0,128(t3)
    9204:	00000000 	nop
    9208:	2a104900 	slt	v0,v0,t1
    920c:	32004010 	beqz	v0,0x92d8
    9210:	00000000 	nop
    9214:	1000718d 	lw	s1,16(t3)
    9218:	00000000 	nop
    921c:	08002cea 	swc2	$12,8(s1)
    9220:	14002dea 	swc2	$13,20(s1)
    9224:	20002eea 	swc2	$14,32(s1)
    9228:	0c000595 	lhu	a1,12(t0)
    922c:	2400628d 	lw	v0,36(t3)
    9230:	10000395 	lhu	v1,16(t0)
    9234:	14000495 	lhu	a0,20(t0)
    9238:	21284500 	addu	a1,v0,a1
    923c:	21184300 	addu	v1,v0,v1
    9240:	21104400 	addu	v0,v0,a0
    9244:	0000a0c8 	lwc2	$0,0(a1)
    9248:	0400a1c8 	lwc2	$1,4(a1)
    924c:	000062c8 	lwc2	$2,0(v1)
    9250:	040063c8 	lwc2	$3,4(v1)
    9254:	000044c8 	lwc2	$4,0(v0)
    9258:	040045c8 	lwc2	$5,4(v0)
    925c:	1000648d 	lw	a0,16(t3)
    9260:	00000000 	nop
    9264:	28008224 	addiu	v0,a0,40
    9268:	100062ad 	sw	v0,16(t3)
    926c:	0000028d 	lw	v0,0(t0)
    9270:	00000000 	nop
    9274:	0c0082ac 	sw	v0,12(a0)
    9278:	60006225 	addiu	v0,t3,96
    927c:	000046c8 	lwc2	$6,0(v0)
    9280:	0400028d 	lw	v0,4(t0)
    9284:	00000000 	nop
    9288:	25104700 	or	v0,v0,a3
    928c:	180082ac 	sw	v0,24(a0)
    9290:	3f04184b 	c2	0x118043f
    9294:	80280900 	sll	a1,t1,0x2
    9298:	08000295 	lhu	v0,8(t0)
    929c:	2128a600 	addu	a1,a1,a2
    92a0:	240082a4 	sh	v0,36(a0)
    92a4:	0000a28c 	lw	v0,0(a1)
    92a8:	0009033c 	lui	v1,0x900
    92ac:	24104d00 	and	v0,v0,t5
    92b0:	25104300 	or	v0,v0,v1
    92b4:	000082ac 	sw	v0,0(a0)
    92b8:	24108d00 	and	v0,a0,t5
    92bc:	04008324 	addiu	v1,a0,4
    92c0:	0000a2ac 	sw	v0,0(a1)
    92c4:	10008224 	addiu	v0,a0,16
    92c8:	1c008424 	addiu	a0,a0,28
    92cc:	000074e8 	swc2	$20,0(v1)
    92d0:	000055e8 	swc2	$21,0(v0)
    92d4:	000096e8 	swc2	$22,0(a0)
    92d8:	2140c001 	move	t0,t6
    92dc:	21108001 	move	v0,t4
    92e0:	97ff4014 	bnez	v0,0x9140
    92e4:	ffff8c25 	addiu	t4,t4,-1
    92e8:	6666033c 	lui	v1,0x6666
    92ec:	1000648d 	lw	a0,16(t3)
    92f0:	67666334 	ori	v1,v1,0x6667
    92f4:	23209800 	subu	a0,a0,t8
    92f8:	83100400 	sra	v0,a0,0x2
    92fc:	18004300 	mult	v0,v1
    9300:	1c0068ad 	sw	t0,28(t3)
    9304:	c3270400 	sra	a0,a0,0x1f
    9308:	9000628d 	lw	v0,144(t3)
    930c:	10c80000 	mfhi	t9
    9310:	83181900 	sra	v1,t9,0x2
    9314:	23186400 	subu	v1,v1,a0
    9318:	21104300 	addu	v0,v0,v1
    931c:	900062ad 	sw	v0,144(t3)
    9320:	0400b18f 	lw	s1,4(sp)
    9324:	0000b08f 	lw	s0,0(sp)
    9328:	0800bd27 	addiu	sp,sp,8
    932c:	0800e003 	jr	ra
    9330:	00000000 	nop
    9334:	e8ffbd27 	addiu	sp,sp,-24
    9338:	21688000 	move	t5,a0
    933c:	2140a000 	move	t0,a1
    9340:	0400b1af 	sw	s1,4(sp)
    9344:	2188c000 	move	s1,a2
    9348:	801f0c3c 	lui	t4,0x1f80
    934c:	2118a001 	move	v1,t5
    9350:	1000b4af 	sw	s4,16(sp)
    9354:	0c00b3af 	sw	s3,12(sp)
    9358:	0800b2af 	sw	s2,8(sp)
    935c:	0000b0af 	sw	s0,0(sp)
    9360:	8c00828d 	lw	v0,140(t4)
    9364:	1000908d 	lw	s0,16(t4)
    9368:	21104d00 	addu	v0,v0,t5
    936c:	ffffad25 	addiu	t5,t5,-1
    9370:	7f006010 	beqz	v1,0x9570
    9374:	8c0082ad 	sw	v0,140(t4)
    9378:	0200e230 	andi	v0,a3,0x2
    937c:	3c005934 	ori	t9,v0,0x3c
    9380:	21788001 	move	t7,t4
    9384:	6000ef35 	ori	t7,t7,0x60
    9388:	6000023c 	lui	v0,0x60
    938c:	2438e200 	and	a3,a3,v0
    9390:	ff000e3c 	lui	t6,0xff
    9394:	ffffce35 	ori	t6,t6,0xffff
    9398:	12000395 	lhu	v1,18(t0)
    939c:	4000828d 	lw	v0,64(t4)
    93a0:	1a000495 	lhu	a0,26(t0)
    93a4:	21504300 	addu	t2,v0,v1
    93a8:	21584400 	addu	t3,v0,a0
    93ac:	16000395 	lhu	v1,22(t0)
    93b0:	0000528d 	lw	s2,0(t2)
    93b4:	0000748d 	lw	s4,0(t3)
    93b8:	21484300 	addu	t1,v0,v1
    93bc:	0000338d 	lw	s3,0(t1)
    93c0:	00609248 	mtc2	s2,$12
    93c4:	00709448 	mtc2	s4,$14
    93c8:	00689348 	mtc2	s3,$13
    93cc:	20001825 	addiu	t8,t0,32
	...
    93d8:	0600404b 	c2	0x1400006
    93dc:	0b000291 	lbu	v0,11(t0)
    93e0:	00000000 	nop
    93e4:	25105900 	or	v0,v0,t9
    93e8:	630082a1 	sb	v0,99(t4)
    93ec:	70008225 	addiu	v0,t4,112
    93f0:	000058e8 	swc2	$24,0(v0)
    93f4:	7000828d 	lw	v0,112(t4)
    93f8:	00000000 	nop
    93fc:	58004018 	blez	v0,0x9560
    9400:	00000000 	nop
    9404:	0a000391 	lbu	v1,10(t0)
    9408:	1e000695 	lhu	a2,30(t0)
    940c:	4000858d 	lw	a1,64(t4)
    9410:	04004285 	lh	v0,4(t2)
    9414:	04002485 	lh	a0,4(t1)
    9418:	001e0300 	sll	v1,v1,0x18
    941c:	031e0300 	sra	v1,v1,0x18
    9420:	2150a600 	addu	t2,a1,a2
    9424:	21104400 	addu	v0,v0,a0
    9428:	04006485 	lh	a0,4(t3)
    942c:	04004585 	lh	a1,4(t2)
    9430:	21104400 	addu	v0,v0,a0
    9434:	21104500 	addu	v0,v0,a1
    9438:	c3110200 	sra	v0,v0,0x7
    943c:	21186200 	addu	v1,v1,v0
    9440:	001c0300 	sll	v1,v1,0x10
    9444:	0400828d 	lw	v0,4(t4)
    9448:	034c0300 	sra	t1,v1,0x10
    944c:	2a102201 	slt	v0,t1,v0
    9450:	43004010 	beqz	v0,0x9560
    9454:	00000000 	nop
    9458:	8000828d 	lw	v0,128(t4)
    945c:	00000000 	nop
    9460:	2a104900 	slt	v0,v0,t1
    9464:	3e004010 	beqz	v0,0x9560
    9468:	00000000 	nop
    946c:	1000858d 	lw	a1,16(t4)
    9470:	00000000 	nop
    9474:	3400a224 	addiu	v0,a1,52
    9478:	100082ad 	sw	v0,16(t4)
    947c:	0800ace8 	swc2	$12,8(a1)
    9480:	1400ade8 	swc2	$13,20(a1)
    9484:	2000aee8 	swc2	$14,32(a1)
    9488:	10000695 	lhu	a2,16(t0)
    948c:	2400828d 	lw	v0,36(t4)
    9490:	14000395 	lhu	v1,20(t0)
    9494:	18000495 	lhu	a0,24(t0)
    9498:	21304600 	addu	a2,v0,a2
    949c:	21184300 	addu	v1,v0,v1
    94a0:	21104400 	addu	v0,v0,a0
    94a4:	0000c0c8 	lwc2	$0,0(a2)
    94a8:	0400c1c8 	lwc2	$1,4(a2)
    94ac:	000062c8 	lwc2	$2,0(v1)
    94b0:	040063c8 	lwc2	$3,4(v1)
    94b4:	000044c8 	lwc2	$4,0(v0)
    94b8:	040045c8 	lwc2	$5,4(v0)
    94bc:	0000428d 	lw	v0,0(t2)
    94c0:	00000000 	nop
    94c4:	2c00a2ac 	sw	v0,44(a1)
    94c8:	0000e6c9 	lwc2	$6,0(t7)
    94cc:	0000028d 	lw	v0,0(t0)
    94d0:	00000000 	nop
    94d4:	0c00a2ac 	sw	v0,12(a1)
    94d8:	3f04184b 	c2	0x118043f
    94dc:	0400028d 	lw	v0,4(t0)
    94e0:	0400a424 	addiu	a0,a1,4
    94e4:	25104700 	or	v0,v0,a3
    94e8:	1800a2ac 	sw	v0,24(a1)
    94ec:	08000295 	lhu	v0,8(t0)
    94f0:	1000a324 	addiu	v1,a1,16
    94f4:	2400a2a4 	sh	v0,36(a1)
    94f8:	1c00a224 	addiu	v0,a1,28
    94fc:	000094e8 	swc2	$20,0(a0)
    9500:	000075e8 	swc2	$21,0(v1)
    9504:	000056e8 	swc2	$22,0(v0)
    9508:	1c000395 	lhu	v1,28(t0)
    950c:	2400828d 	lw	v0,36(t4)
    9510:	00000000 	nop
    9514:	21104300 	addu	v0,v0,v1
    9518:	000040c8 	lwc2	$0,0(v0)
    951c:	040041c8 	lwc2	$1,4(v0)
    9520:	0c000295 	lhu	v0,12(t0)
    9524:	00000000 	nop
    9528:	3000a2a4 	sh	v0,48(a1)
    952c:	0000e6c9 	lwc2	$6,0(t7)
    9530:	80200900 	sll	a0,t1,0x2
    9534:	21209100 	addu	a0,a0,s1
    9538:	0000828c 	lw	v0,0(a0)
    953c:	000c033c 	lui	v1,0xc00
    9540:	24104e00 	and	v0,v0,t6
    9544:	25104300 	or	v0,v0,v1
    9548:	0000a2ac 	sw	v0,0(a1)
    954c:	1b04084b 	c2	0x108041b
    9550:	2410ae00 	and	v0,a1,t6
    9554:	2800a524 	addiu	a1,a1,40
    9558:	000082ac 	sw	v0,0(a0)
    955c:	0000b6e8 	swc2	$22,0(a1)
    9560:	21400003 	move	t0,t8
    9564:	2110a001 	move	v0,t5
    9568:	8bff4014 	bnez	v0,0x9398
    956c:	ffffad25 	addiu	t5,t5,-1
    9570:	aa2a033c 	lui	v1,0x2aaa
    9574:	1000848d 	lw	a0,16(t4)
    9578:	abaa6334 	ori	v1,v1,0xaaab
    957c:	23209000 	subu	a0,a0,s0
    9580:	83100400 	sra	v0,a0,0x2
    9584:	18004300 	mult	v0,v1
    9588:	1c0088ad 	sw	t0,28(t4)
    958c:	c3270400 	sra	a0,a0,0x1f
    9590:	9000828d 	lw	v0,144(t4)
    9594:	10900000 	mfhi	s2
    9598:	43181200 	sra	v1,s2,0x1
    959c:	23186400 	subu	v1,v1,a0
    95a0:	21104300 	addu	v0,v0,v1
    95a4:	900082ad 	sw	v0,144(t4)
    95a8:	1000b48f 	lw	s4,16(sp)
    95ac:	0c00b38f 	lw	s3,12(sp)
    95b0:	0800b28f 	lw	s2,8(sp)
    95b4:	0400b18f 	lw	s1,4(sp)
    95b8:	0000b08f 	lw	s0,0(sp)
    95bc:	1800bd27 	addiu	sp,sp,24
    95c0:	0800e003 	jr	ra
    95c4:	00000000 	nop
    95c8:	e0ffbd27 	addiu	sp,sp,-32
    95cc:	42100500 	srl	v0,a1,0x1
    95d0:	1400b1af 	sw	s1,20(sp)
    95d4:	02005130 	andi	s1,v0,0x2
    95d8:	0300a530 	andi	a1,a1,0x3
    95dc:	402d0500 	sll	a1,a1,0x15
    95e0:	25882502 	or	s1,s1,a1
    95e4:	1000b0af 	sw	s0,16(sp)
    95e8:	801f103c 	lui	s0,0x1f80
    95ec:	ffff8430 	andi	a0,a0,0xffff
    95f0:	80100400 	sll	v0,a0,0x2
    95f4:	21104400 	addu	v0,v0,a0
    95f8:	c0100200 	sll	v0,v0,0x3
    95fc:	0c004224 	addiu	v0,v0,12
    9600:	1800bfaf 	sw	ra,24(sp)
    9604:	0c00048e 	lw	a0,12(s0)
    9608:	0100053c 	lui	a1,0x1
    960c:	21108200 	addu	v0,a0,v0
    9610:	200002ae 	sw	v0,32(s0)
    9614:	0800438c 	lw	v1,8(v0)
    9618:	0080a534 	ori	a1,a1,0x8000
    961c:	0c006324 	addiu	v1,v1,12
    9620:	21188300 	addu	v1,a0,v1
    9624:	240003ae 	sw	v1,36(s0)
    9628:	1000438c 	lw	v1,16(v0)
    962c:	1680023c 	lui	v0,0x8016
    9630:	90d04224 	addiu	v0,v0,-12144
    9634:	21304500 	addu	a2,v0,a1
    9638:	fc6dc590 	lbu	a1,28156(a2)
    963c:	0c006324 	addiu	v1,v1,12
    9640:	21208300 	addu	a0,a0,v1
    9644:	0200a230 	andi	v0,a1,0x2
    9648:	0e004010 	beqz	v0,0x9684
    964c:	1c0004ae 	sw	a0,28(s0)
    9650:	1000a230 	andi	v0,a1,0x10
    9654:	06004010 	beqz	v0,0x9670
    9658:	00000000 	nop
    965c:	f86dc38c 	lw	v1,28152(a2)
    9660:	88ff0224 	li	v0,-120
    9664:	431b0300 	sra	v1,v1,0xd
    9668:	a2670008 	j	0x19e88
    966c:	23104300 	subu	v0,v0,v1
    9670:	f86dc38c 	lw	v1,28152(a2)
    9674:	a0ff0224 	li	v0,-96
    9678:	c31a0300 	sra	v1,v1,0xb
    967c:	a2670008 	j	0x19e88
    9680:	23104300 	subu	v0,v0,v1
    9684:	80000224 	li	v0,128
    9688:	620002a2 	sb	v0,98(s0)
    968c:	610002a2 	sb	v0,97(s0)
    9690:	600002a2 	sb	v0,96(s0)
    9694:	0100023c 	lui	v0,0x1
    9698:	00804234 	ori	v0,v0,0x8000
    969c:	1680033c 	lui	v1,0x8016
    96a0:	90d06324 	addiu	v1,v1,-12144
    96a4:	21186200 	addu	v1,v1,v0
    96a8:	fc6d6390 	lbu	v1,28156(v1)
    96ac:	00000000 	nop
    96b0:	02006230 	andi	v0,v1,0x2
    96b4:	0b004010 	beqz	v0,0x96e4
    96b8:	06000824 	li	t0,6
    96bc:	04000924 	li	t1,4
    96c0:	02000a24 	li	t2,2
    96c4:	00610800 	sll	t4,t0,0x4
    96c8:	00690900 	sll	t5,t1,0x4
    96cc:	00710a00 	sll	t6,t2,0x4
    96d0:	00a8cc48 	ctc2	t4,$21
    96d4:	00b0cd48 	ctc2	t5,$22
    96d8:	00b8ce48 	ctc2	t6,$23
    96dc:	cf670008 	j	0x19f3c
    96e0:	00000000 	nop
    96e4:	04006230 	andi	v0,v1,0x4
    96e8:	0b004010 	beqz	v0,0x9718
    96ec:	02000824 	li	t0,2
    96f0:	06000924 	li	t1,6
    96f4:	21502001 	move	t2,t1
    96f8:	00610800 	sll	t4,t0,0x4
    96fc:	00690900 	sll	t5,t1,0x4
    9700:	00710a00 	sll	t6,t2,0x4
    9704:	00a8cc48 	ctc2	t4,$21
    9708:	00b0cd48 	ctc2	t5,$22
    970c:	00b8ce48 	ctc2	t6,$23
    9710:	cf670008 	j	0x19f3c
    9714:	00000000 	nop
    9718:	05000824 	li	t0,5
    971c:	21480001 	move	t1,t0
    9720:	21500001 	move	t2,t0
    9724:	00610800 	sll	t4,t0,0x4
    9728:	00690900 	sll	t5,t1,0x4
    972c:	00710a00 	sll	t6,t2,0x4
    9730:	00a8cc48 	ctc2	t4,$21
    9734:	00b0cd48 	ctc2	t5,$22
    9738:	00b8ce48 	ctc2	t6,$23
    973c:	1c00058e 	lw	a1,28(s0)
    9740:	2000028e 	lw	v0,32(s0)
    9744:	0000068e 	lw	a2,0(s0)
    9748:	18004494 	lhu	a0,24(v0)
    974c:	3165000c 	jal	0x194c4
    9750:	21382002 	move	a3,s1
    9754:	1c00058e 	lw	a1,28(s0)
    9758:	2000028e 	lw	v0,32(s0)
    975c:	0000068e 	lw	a2,0(s0)
    9760:	1c004494 	lhu	a0,28(v0)
    9764:	b065000c 	jal	0x196c0
    9768:	21382002 	move	a3,s1
    976c:	1c00058e 	lw	a1,28(s0)
    9770:	2000028e 	lw	v0,32(s0)
    9774:	0000068e 	lw	a2,0(s0)
    9778:	1a004494 	lhu	a0,26(v0)
    977c:	3d66000c 	jal	0x198f4
    9780:	21382002 	move	a3,s1
    9784:	1c00058e 	lw	a1,28(s0)
    9788:	2000028e 	lw	v0,32(s0)
    978c:	0000068e 	lw	a2,0(s0)
    9790:	1e004494 	lhu	a0,30(v0)
    9794:	cd66000c 	jal	0x19b34
    9798:	21382002 	move	a3,s1
    979c:	1800bf8f 	lw	ra,24(sp)
    97a0:	1400b18f 	lw	s1,20(sp)
    97a4:	1000b08f 	lw	s0,16(sp)
    97a8:	2000bd27 	addiu	sp,sp,32
    97ac:	0800e003 	jr	ra
    97b0:	00000000 	nop
    97b4:	21288000 	move	a1,a0
    97b8:	0200a290 	lbu	v0,2(a1)
    97bc:	00000000 	nop
    97c0:	5600422c 	sltiu	v0,v0,86
    97c4:	02004014 	bnez	v0,0x97d0
    97c8:	55000224 	li	v0,85
    97cc:	0200a2a0 	sb	v0,2(a1)
    97d0:	0200a290 	lbu	v0,2(a1)
    97d4:	00000000 	nop
    97d8:	40180200 	sll	v1,v0,0x1
    97dc:	21204000 	move	a0,v0
    97e0:	21186200 	addu	v1,v1,v0
    97e4:	40200400 	sll	a0,a0,0x1
    97e8:	0000a3a0 	sb	v1,0(a1)
    97ec:	0800e003 	jr	ra
    97f0:	0100a4a0 	sb	a0,1(a1)
    97f4:	21288000 	move	a1,a0
    97f8:	0000a290 	lbu	v0,0(a1)
    97fc:	00000000 	nop
    9800:	5600422c 	sltiu	v0,v0,86
    9804:	02004014 	bnez	v0,0x9810
    9808:	55000224 	li	v0,85
    980c:	0000a2a0 	sb	v0,0(a1)
    9810:	0000a390 	lbu	v1,0(a1)
    9814:	00000000 	nop
    9818:	40100300 	sll	v0,v1,0x1
    981c:	21206000 	move	a0,v1
    9820:	21104300 	addu	v0,v0,v1
    9824:	0200a2a0 	sb	v0,2(a1)
    9828:	40100400 	sll	v0,a0,0x1
    982c:	21104400 	addu	v0,v0,a0
    9830:	0800e003 	jr	ra
    9834:	0100a2a0 	sb	v0,1(a1)
    9838:	78fcbd27 	addiu	sp,sp,-904
    983c:	7803b6af 	sw	s6,888(sp)
    9840:	21b08000 	move	s6,a0
    9844:	6403b1af 	sw	s1,868(sp)
    9848:	2188a000 	move	s1,a1
    984c:	0100033c 	lui	v1,0x1
    9850:	00806334 	ori	v1,v1,0x8000
    9854:	6803b2af 	sw	s2,872(sp)
    9858:	801f123c 	lui	s2,0x1f80
    985c:	1680023c 	lui	v0,0x8016
    9860:	90d04224 	addiu	v0,v0,-12144
    9864:	21104300 	addu	v0,v0,v1
    9868:	8403bfaf 	sw	ra,900(sp)
    986c:	8003beaf 	sw	s8,896(sp)
    9870:	7c03b7af 	sw	s7,892(sp)
    9874:	7403b5af 	sw	s5,884(sp)
    9878:	7003b4af 	sw	s4,880(sp)
    987c:	6c03b3af 	sw	s3,876(sp)
    9880:	6003b0af 	sw	s0,864(sp)
    9884:	9003a6af 	sw	a2,912(sp)
    9888:	9403a7af 	sw	a3,916(sp)
    988c:	5003a0af 	sw	zero,848(sp)
    9890:	8c00438e 	lw	v1,140(s2)
    9894:	fc6d4490 	lbu	a0,28156(v0)
    9898:	1000488e 	lw	t0,16(s2)
    989c:	21187600 	addu	v1,v1,s6
    98a0:	02008230 	andi	v0,a0,0x2
    98a4:	8c0043ae 	sw	v1,140(s2)
    98a8:	04004010 	beqz	v0,0x98bc
    98ac:	4803a8af 	sw	t0,840(sp)
    98b0:	0280023c 	lui	v0,0x8002
    98b4:	33680008 	j	0x1a0cc
    98b8:	b49f4224 	addiu	v0,v0,-24652
    98bc:	04008230 	andi	v0,a0,0x4
    98c0:	03004010 	beqz	v0,0x98d0
    98c4:	0280023c 	lui	v0,0x8002
    98c8:	f49f4224 	addiu	v0,v0,-24588
    98cc:	5003a2af 	sw	v0,848(sp)
    98d0:	2110c002 	move	v0,s6
    98d4:	4a014010 	beqz	v0,0x9e00
    98d8:	ffffd626 	addiu	s6,s6,-1
    98dc:	5555093c 	lui	t1,0x5555
    98e0:	9403aa8f 	lw	t2,916(sp)
    98e4:	56552935 	ori	t1,t1,0x5556
    98e8:	5403a9af 	sw	t1,852(sp)
    98ec:	03140a00 	sra	v0,t2,0x10
    98f0:	60004230 	andi	v0,v0,0x60
    98f4:	5803a2af 	sw	v0,856(sp)
    98f8:	6000023c 	lui	v0,0x60
    98fc:	24f04201 	and	s8,t2,v0
    9900:	0e002396 	lhu	v1,14(s1)
    9904:	4000428e 	lw	v0,64(s2)
    9908:	12002496 	lhu	a0,18(s1)
    990c:	21984300 	addu	s3,v0,v1
    9910:	21a84400 	addu	s5,v0,a0
    9914:	10002396 	lhu	v1,16(s1)
    9918:	0000688e 	lw	t0,0(s3)
    991c:	0000aa8e 	lw	t2,0(s5)
    9920:	21a04300 	addu	s4,v0,v1
    9924:	0000898e 	lw	t1,0(s4)
    9928:	00608848 	mtc2	t0,$12
    992c:	00708a48 	mtc2	t2,$14
    9930:	00688948 	mtc2	t1,$13
    9934:	14002826 	addiu	t0,s1,20
    9938:	4c03a8af 	sw	t0,844(sp)
	...
    9944:	0600404b 	c2	0x1400006
    9948:	9403a98f 	lw	t1,916(sp)
    994c:	0b002392 	lbu	v1,11(s1)
    9950:	02002231 	andi	v0,t1,0x2
    9954:	24004234 	ori	v0,v0,0x24
    9958:	25186200 	or	v1,v1,v0
    995c:	70004226 	addiu	v0,s2,112
    9960:	630043a2 	sb	v1,99(s2)
    9964:	000058e8 	swc2	$24,0(v0)
    9968:	7000458e 	lw	a1,112(s2)
    996c:	00000000 	nop
    9970:	1f01a018 	blez	a1,0x9df0
    9974:	00000000 	nop
    9978:	04006386 	lh	v1,4(s3)
    997c:	04008286 	lh	v0,4(s4)
    9980:	0400a486 	lh	a0,4(s5)
    9984:	5403aa8f 	lw	t2,852(sp)
    9988:	21186200 	addu	v1,v1,v0
    998c:	21186400 	addu	v1,v1,a0
    9990:	43110300 	sra	v0,v1,0x5
    9994:	18004a00 	mult	v0,t2
    9998:	0a002292 	lbu	v0,10(s1)
    999c:	c31f0300 	sra	v1,v1,0x1f
    99a0:	00160200 	sll	v0,v0,0x18
    99a4:	03160200 	sra	v0,v0,0x18
    99a8:	10400000 	mfhi	t0
    99ac:	23180301 	subu	v1,t0,v1
    99b0:	21104300 	addu	v0,v0,v1
    99b4:	21b84000 	move	s7,v0
    99b8:	00140200 	sll	v0,v0,0x10
    99bc:	0400438e 	lw	v1,4(s2)
    99c0:	03240200 	sra	a0,v0,0x10
    99c4:	2a188300 	slt	v1,a0,v1
    99c8:	09016010 	beqz	v1,0x9df0
    99cc:	00000000 	nop
    99d0:	8000428e 	lw	v0,128(s2)
    99d4:	00000000 	nop
    99d8:	2a104400 	slt	v0,v0,a0
    99dc:	04014010 	beqz	v0,0x9df0
    99e0:	0140a228 	slti	v0,a1,16385
    99e4:	af004014 	bnez	v0,0x9ca4
    99e8:	01000224 	li	v0,1
    99ec:	1000a2af 	sw	v0,16(sp)
    99f0:	7000438e 	lw	v1,112(s2)
    99f4:	00800234 	li	v0,0x8000
    99f8:	2a104300 	slt	v0,v0,v1
    99fc:	08004010 	beqz	v0,0x9a20
    9a00:	02000224 	li	v0,2
    9a04:	1000a2af 	sw	v0,16(sp)
    9a08:	7000438e 	lw	v1,112(s2)
    9a0c:	0100023c 	lui	v0,0x1
    9a10:	2a104300 	slt	v0,v0,v1
    9a14:	02004010 	beqz	v0,0x9a20
    9a18:	03000224 	li	v0,3
    9a1c:	1000a2af 	sw	v0,16(sp)
    9a20:	0c002396 	lhu	v1,12(s1)
    9a24:	2400428e 	lw	v0,36(s2)
    9a28:	00000000 	nop
    9a2c:	21104300 	addu	v0,v0,v1
    9a30:	000040c8 	lwc2	$0,0(v0)
    9a34:	040041c8 	lwc2	$1,4(v0)
    9a38:	40010224 	li	v0,320
    9a3c:	1400a2af 	sw	v0,20(sp)
    9a40:	f0000224 	li	v0,240
    9a44:	1800a2af 	sw	v0,24(sp)
    9a48:	60004226 	addiu	v0,s2,96
    9a4c:	000046c8 	lwc2	$6,0(v0)
    9a50:	1780093c 	lui	t1,0x8017
    9a54:	90502925 	addiu	t1,t1,20624
    9a58:	fc6d2291 	lbu	v0,28156(t1)
    9a5c:	00000000 	nop
    9a60:	10004230 	andi	v0,v0,0x10
    9a64:	26004014 	bnez	v0,0x9b00
    9a68:	00000000 	nop
    9a6c:	06006286 	lh	v0,6(s3)
    9a70:	06008386 	lh	v1,6(s4)
    9a74:	0600a486 	lh	a0,6(s5)
    9a78:	5403aa8f 	lw	t2,852(sp)
    9a7c:	21104300 	addu	v0,v0,v1
    9a80:	21104400 	addu	v0,v0,a0
    9a84:	18004a00 	mult	v0,t2
    9a88:	c3170200 	sra	v0,v0,0x1f
    9a8c:	10400000 	mfhi	t0
    9a90:	23100201 	subu	v0,t0,v0
    9a94:	00408248 	mtc2	v0,$8
	...
    9aa0:	1304e84a 	c2	0xe80413
    9aa4:	02002296 	lhu	v0,2(s1)
    9aa8:	98004396 	lhu	v1,152(s2)
    9aac:	5803a98f 	lw	t1,856(sp)
    9ab0:	21104300 	addu	v0,v0,v1
    9ab4:	1c00a2a7 	sh	v0,28(sp)
    9ab8:	06002296 	lhu	v0,6(s1)
    9abc:	2000a427 	addiu	a0,sp,32
    9ac0:	25104900 	or	v0,v0,t1
    9ac4:	1e00a2a7 	sh	v0,30(sp)
    9ac8:	000096e8 	swc2	$22,0(a0)
    9acc:	17800a3c 	lui	t2,0x8017
    9ad0:	90504a25 	addiu	t2,t2,20624
    9ad4:	fc6d4291 	lbu	v0,28156(t2)
    9ad8:	00000000 	nop
    9adc:	06004230 	andi	v0,v0,0x6
    9ae0:	16004010 	beqz	v0,0x9b3c
    9ae4:	00141700 	sll	v0,s7,0x10
    9ae8:	5003a88f 	lw	t0,848(sp)
    9aec:	00000000 	nop
    9af0:	09f80001 	jalr	t0
    9af4:	00000000 	nop
    9af8:	cf680008 	j	0x1a33c
    9afc:	00141700 	sll	v0,s7,0x10
	...
    9b08:	1b04084b 	c2	0x108041b
    9b0c:	02002296 	lhu	v0,2(s1)
    9b10:	98004396 	lhu	v1,152(s2)
    9b14:	5803a98f 	lw	t1,856(sp)
    9b18:	21104300 	addu	v0,v0,v1
    9b1c:	1c00a2a7 	sh	v0,28(sp)
    9b20:	06002296 	lhu	v0,6(s1)
    9b24:	00000000 	nop
    9b28:	25104900 	or	v0,v0,t1
    9b2c:	1e00a2a7 	sh	v0,30(sp)
    9b30:	2000a227 	addiu	v0,sp,32
    9b34:	000056e8 	swc2	$22,0(v0)
    9b38:	00141700 	sll	v0,s7,0x10
    9b3c:	9003aa8f 	lw	t2,912(sp)
    9b40:	83130200 	sra	v0,v0,0xe
    9b44:	21104201 	addu	v0,t2,v0
    9b48:	2400a2af 	sw	v0,36(sp)
    9b4c:	2800a227 	addiu	v0,sp,40
    9b50:	b800a2af 	sw	v0,184(sp)
    9b54:	4000a227 	addiu	v0,sp,64
    9b58:	bc00a2af 	sw	v0,188(sp)
    9b5c:	5800a227 	addiu	v0,sp,88
    9b60:	c000a2af 	sw	v0,192(sp)
    9b64:	0300628a 	lwl	v0,3(s3)
    9b68:	0000629a 	lwr	v0,0(s3)
    9b6c:	00000000 	nop
    9b70:	3b00a2ab 	swl	v0,59(sp)
    9b74:	3800a2bb 	swr	v0,56(sp)
    9b78:	0300828a 	lwl	v0,3(s4)
    9b7c:	0000829a 	lwr	v0,0(s4)
    9b80:	00000000 	nop
    9b84:	5300a2ab 	swl	v0,83(sp)
    9b88:	5000a2bb 	swr	v0,80(sp)
    9b8c:	0300a28a 	lwl	v0,3(s5)
    9b90:	0000a29a 	lwr	v0,0(s5)
    9b94:	00000000 	nop
    9b98:	6b00a2ab 	swl	v0,107(sp)
    9b9c:	6800a2bb 	swr	v0,104(sp)
    9ba0:	04006286 	lh	v0,4(s3)
    9ba4:	00000000 	nop
    9ba8:	3c00a2af 	sw	v0,60(sp)
    9bac:	04008286 	lh	v0,4(s4)
    9bb0:	00000000 	nop
    9bb4:	5400a2af 	sw	v0,84(sp)
    9bb8:	0400a286 	lh	v0,4(s5)
    9bbc:	00000000 	nop
    9bc0:	6c00a2af 	sw	v0,108(sp)
    9bc4:	0e002396 	lhu	v1,14(s1)
    9bc8:	4800428e 	lw	v0,72(s2)
    9bcc:	00000000 	nop
    9bd0:	21104300 	addu	v0,v0,v1
    9bd4:	03004388 	lwl	v1,3(v0)
    9bd8:	00004398 	lwr	v1,0(v0)
    9bdc:	07004488 	lwl	a0,7(v0)
    9be0:	04004498 	lwr	a0,4(v0)
    9be4:	2b00a3ab 	swl	v1,43(sp)
    9be8:	2800a3bb 	swr	v1,40(sp)
    9bec:	2f00a4ab 	swl	a0,47(sp)
    9bf0:	2c00a4bb 	swr	a0,44(sp)
    9bf4:	10002396 	lhu	v1,16(s1)
    9bf8:	4800428e 	lw	v0,72(s2)
    9bfc:	00000000 	nop
    9c00:	21104300 	addu	v0,v0,v1
    9c04:	03004388 	lwl	v1,3(v0)
    9c08:	00004398 	lwr	v1,0(v0)
    9c0c:	07004488 	lwl	a0,7(v0)
    9c10:	04004498 	lwr	a0,4(v0)
    9c14:	4300a3ab 	swl	v1,67(sp)
    9c18:	4000a3bb 	swr	v1,64(sp)
    9c1c:	4700a4ab 	swl	a0,71(sp)
    9c20:	4400a4bb 	swr	a0,68(sp)
    9c24:	12002396 	lhu	v1,18(s1)
    9c28:	4800428e 	lw	v0,72(s2)
    9c2c:	00000000 	nop
    9c30:	21104300 	addu	v0,v0,v1
    9c34:	03004388 	lwl	v1,3(v0)
    9c38:	00004398 	lwr	v1,0(v0)
    9c3c:	07004488 	lwl	a0,7(v0)
    9c40:	04004498 	lwr	a0,4(v0)
    9c44:	5b00a3ab 	swl	v1,91(sp)
    9c48:	5800a3bb 	swr	v1,88(sp)
    9c4c:	5f00a4ab 	swl	a0,95(sp)
    9c50:	5c00a4bb 	swr	a0,92(sp)
    9c54:	0000228e 	lw	v0,0(s1)
    9c58:	00000000 	nop
    9c5c:	3000a2af 	sw	v0,48(sp)
    9c60:	0400228e 	lw	v0,4(s1)
    9c64:	00000000 	nop
    9c68:	25105e00 	or	v0,v0,s8
    9c6c:	4800a2af 	sw	v0,72(sp)
    9c70:	0800228e 	lw	v0,8(s1)
    9c74:	00000000 	nop
    9c78:	6000a2af 	sw	v0,96(sp)
    9c7c:	1000448e 	lw	a0,16(s2)
    9c80:	b1d6010c 	jal	0x75ac4
    9c84:	1000a527 	addiu	a1,sp,16
    9c88:	1400438e 	lw	v1,20(s2)
    9c8c:	00000000 	nop
    9c90:	2b186200 	sltu	v1,v1,v0
    9c94:	67006014 	bnez	v1,0x9e34
    9c98:	100042ae 	sw	v0,16(s2)
    9c9c:	7c690008 	j	0x1a5f0
    9ca0:	00000000 	nop
    9ca4:	1000508e 	lw	s0,16(s2)
    9ca8:	00000000 	nop
    9cac:	20000226 	addiu	v0,s0,32
    9cb0:	100042ae 	sw	v0,16(s2)
    9cb4:	08000cea 	swc2	$12,8(s0)
    9cb8:	10000dea 	swc2	$13,16(s0)
    9cbc:	18000eea 	swc2	$14,24(s0)
    9cc0:	0c002396 	lhu	v1,12(s1)
    9cc4:	2400428e 	lw	v0,36(s2)
    9cc8:	00000000 	nop
    9ccc:	21104300 	addu	v0,v0,v1
    9cd0:	000040c8 	lwc2	$0,0(v0)
    9cd4:	040041c8 	lwc2	$1,4(v0)
    9cd8:	0000228e 	lw	v0,0(s1)
    9cdc:	00000000 	nop
    9ce0:	0c0002ae 	sw	v0,12(s0)
    9ce4:	60004226 	addiu	v0,s2,96
    9ce8:	000046c8 	lwc2	$6,0(v0)
    9cec:	1780083c 	lui	t0,0x8017
    9cf0:	90500825 	addiu	t0,t0,20624
    9cf4:	fc6d0291 	lbu	v0,28156(t0)
    9cf8:	00000000 	nop
    9cfc:	10004230 	andi	v0,v0,0x10
    9d00:	22004014 	bnez	v0,0x9d8c
    9d04:	00000000 	nop
    9d08:	06006286 	lh	v0,6(s3)
    9d0c:	06008386 	lh	v1,6(s4)
    9d10:	0600a486 	lh	a0,6(s5)
    9d14:	5403a98f 	lw	t1,852(sp)
    9d18:	21104300 	addu	v0,v0,v1
    9d1c:	21104400 	addu	v0,v0,a0
    9d20:	18004900 	mult	v0,t1
    9d24:	c3170200 	sra	v0,v0,0x1f
    9d28:	10500000 	mfhi	t2
    9d2c:	23104201 	subu	v0,t2,v0
    9d30:	00408248 	mtc2	v0,$8
	...
    9d3c:	1304e84a 	c2	0xe80413
    9d40:	0400228e 	lw	v0,4(s1)
    9d44:	00000000 	nop
    9d48:	25105e00 	or	v0,v0,s8
    9d4c:	140002ae 	sw	v0,20(s0)
    9d50:	08002296 	lhu	v0,8(s1)
    9d54:	04000426 	addiu	a0,s0,4
    9d58:	1c0002a6 	sh	v0,28(s0)
    9d5c:	000096e8 	swc2	$22,0(a0)
    9d60:	fc6d0291 	lbu	v0,28156(t0)
    9d64:	00000000 	nop
    9d68:	06004230 	andi	v0,v0,0x6
    9d6c:	14004010 	beqz	v0,0x9dc0
    9d70:	ff00053c 	lui	a1,0xff
    9d74:	5003a88f 	lw	t0,848(sp)
    9d78:	00000000 	nop
    9d7c:	09f80001 	jalr	t0
    9d80:	00000000 	nop
    9d84:	70690008 	j	0x1a5c0
    9d88:	ff00053c 	lui	a1,0xff
	...
    9d94:	1b04084b 	c2	0x108041b
    9d98:	0400228e 	lw	v0,4(s1)
    9d9c:	00000000 	nop
    9da0:	25105e00 	or	v0,v0,s8
    9da4:	140002ae 	sw	v0,20(s0)
    9da8:	08002296 	lhu	v0,8(s1)
    9dac:	00000000 	nop
    9db0:	1c0002a6 	sh	v0,28(s0)
    9db4:	04000226 	addiu	v0,s0,4
    9db8:	000056e8 	swc2	$22,0(v0)
    9dbc:	ff00053c 	lui	a1,0xff
    9dc0:	00241700 	sll	a0,s7,0x10
    9dc4:	83230400 	sra	a0,a0,0xe
    9dc8:	9003a98f 	lw	t1,912(sp)
    9dcc:	ffffa534 	ori	a1,a1,0xffff
    9dd0:	21208900 	addu	a0,a0,t1
    9dd4:	0000838c 	lw	v1,0(a0)
    9dd8:	0007023c 	lui	v0,0x700
    9ddc:	24186500 	and	v1,v1,a1
    9de0:	25186200 	or	v1,v1,v0
    9de4:	24280502 	and	a1,s0,a1
    9de8:	000003ae 	sw	v1,0(s0)
    9dec:	000085ac 	sw	a1,0(a0)
    9df0:	4c03b18f 	lw	s1,844(sp)
    9df4:	2110c002 	move	v0,s6
    9df8:	c1fe4014 	bnez	v0,0x9900
    9dfc:	ffffd626 	addiu	s6,s6,-1
    9e00:	1000428e 	lw	v0,16(s2)
    9e04:	1c0051ae 	sw	s1,28(s2)
    9e08:	4803aa8f 	lw	t2,840(sp)
    9e0c:	00000000 	nop
    9e10:	23104a00 	subu	v0,v0,t2
    9e14:	83180200 	sra	v1,v0,0x2
    9e18:	02006104 	bgez	v1,0x9e24
    9e1c:	00000000 	nop
    9e20:	07006324 	addiu	v1,v1,7
    9e24:	9000428e 	lw	v0,144(s2)
    9e28:	c3180300 	sra	v1,v1,0x3
    9e2c:	21104300 	addu	v0,v0,v1
    9e30:	900042ae 	sw	v0,144(s2)
    9e34:	8403bf8f 	lw	ra,900(sp)
    9e38:	8003be8f 	lw	s8,896(sp)
    9e3c:	7c03b78f 	lw	s7,892(sp)
    9e40:	7803b68f 	lw	s6,888(sp)
    9e44:	7403b58f 	lw	s5,884(sp)
    9e48:	7003b48f 	lw	s4,880(sp)
    9e4c:	6c03b38f 	lw	s3,876(sp)
    9e50:	6803b28f 	lw	s2,872(sp)
    9e54:	6403b18f 	lw	s1,868(sp)
    9e58:	6003b08f 	lw	s0,864(sp)
    9e5c:	8803bd27 	addiu	sp,sp,904
    9e60:	0800e003 	jr	ra
    9e64:	00000000 	nop
    9e68:	21288000 	move	a1,a0
    9e6c:	0200a290 	lbu	v0,2(a1)
    9e70:	00000000 	nop
    9e74:	5600422c 	sltiu	v0,v0,86
    9e78:	02004014 	bnez	v0,0x9e84
    9e7c:	55000224 	li	v0,85
    9e80:	0200a2a0 	sb	v0,2(a1)
    9e84:	0200a290 	lbu	v0,2(a1)
    9e88:	00000000 	nop
    9e8c:	40180200 	sll	v1,v0,0x1
    9e90:	21204000 	move	a0,v0
    9e94:	21186200 	addu	v1,v1,v0
    9e98:	40200400 	sll	a0,a0,0x1
    9e9c:	0000a3a0 	sb	v1,0(a1)
    9ea0:	0800e003 	jr	ra
    9ea4:	0100a4a0 	sb	a0,1(a1)
    9ea8:	21288000 	move	a1,a0
    9eac:	0000a290 	lbu	v0,0(a1)
    9eb0:	00000000 	nop
    9eb4:	5600422c 	sltiu	v0,v0,86
    9eb8:	02004014 	bnez	v0,0x9ec4
    9ebc:	55000224 	li	v0,85
    9ec0:	0000a2a0 	sb	v0,0(a1)
    9ec4:	0000a390 	lbu	v1,0(a1)
    9ec8:	00000000 	nop
    9ecc:	40100300 	sll	v0,v1,0x1
    9ed0:	21206000 	move	a0,v1
    9ed4:	21104300 	addu	v0,v0,v1
    9ed8:	0200a2a0 	sb	v0,2(a1)
    9edc:	40100400 	sll	v0,a0,0x1
    9ee0:	21104400 	addu	v0,v0,a0
    9ee4:	0800e003 	jr	ra
    9ee8:	0100a2a0 	sb	v0,1(a1)
    9eec:	80fcbd27 	addiu	sp,sp,-896
    9ef0:	7403b7af 	sw	s7,884(sp)
    9ef4:	21b88000 	move	s7,a0
    9ef8:	5803b0af 	sw	s0,856(sp)
    9efc:	2180a000 	move	s0,a1
    9f00:	0100033c 	lui	v1,0x1
    9f04:	00806334 	ori	v1,v1,0x8000
    9f08:	6003b2af 	sw	s2,864(sp)
    9f0c:	801f123c 	lui	s2,0x1f80
    9f10:	1680023c 	lui	v0,0x8016
    9f14:	90d04224 	addiu	v0,v0,-12144
    9f18:	21104300 	addu	v0,v0,v1
    9f1c:	7c03bfaf 	sw	ra,892(sp)
    9f20:	7803beaf 	sw	s8,888(sp)
    9f24:	7003b6af 	sw	s6,880(sp)
    9f28:	6c03b5af 	sw	s5,876(sp)
    9f2c:	6803b4af 	sw	s4,872(sp)
    9f30:	6403b3af 	sw	s3,868(sp)
    9f34:	5c03b1af 	sw	s1,860(sp)
    9f38:	8803a6af 	sw	a2,904(sp)
    9f3c:	8c03a7af 	sw	a3,908(sp)
    9f40:	5003a0af 	sw	zero,848(sp)
    9f44:	8c00438e 	lw	v1,140(s2)
    9f48:	fc6d4490 	lbu	a0,28156(v0)
    9f4c:	1000488e 	lw	t0,16(s2)
    9f50:	21187700 	addu	v1,v1,s7
    9f54:	02008230 	andi	v0,a0,0x2
    9f58:	8c0043ae 	sw	v1,140(s2)
    9f5c:	04004010 	beqz	v0,0x9f70
    9f60:	4803a8af 	sw	t0,840(sp)
    9f64:	0280023c 	lui	v0,0x8002
    9f68:	e0690008 	j	0x1a780
    9f6c:	68a64224 	addiu	v0,v0,-22936
    9f70:	04008230 	andi	v0,a0,0x4
    9f74:	03004010 	beqz	v0,0x9f84
    9f78:	0280023c 	lui	v0,0x8002
    9f7c:	a8a64224 	addiu	v0,v0,-22872
    9f80:	5003a2af 	sw	v0,848(sp)
    9f84:	2110e002 	move	v0,s7
    9f88:	7f014010 	beqz	v0,0xa588
    9f8c:	fffff726 	addiu	s7,s7,-1
    9f90:	8c03a98f 	lw	t1,908(sp)
    9f94:	00000000 	nop
    9f98:	03140900 	sra	v0,t1,0x10
    9f9c:	60004230 	andi	v0,v0,0x60
    9fa0:	5403a2af 	sw	v0,852(sp)
    9fa4:	12000396 	lhu	v1,18(s0)
    9fa8:	4000428e 	lw	v0,64(s2)
    9fac:	16000496 	lhu	a0,22(s0)
    9fb0:	21a04300 	addu	s4,v0,v1
    9fb4:	21b04400 	addu	s6,v0,a0
    9fb8:	14000396 	lhu	v1,20(s0)
    9fbc:	00008a8e 	lw	t2,0(s4)
    9fc0:	0000c98e 	lw	t1,0(s6)
    9fc4:	21a84300 	addu	s5,v0,v1
    9fc8:	0000a88e 	lw	t0,0(s5)
    9fcc:	00608a48 	mtc2	t2,$12
    9fd0:	00708948 	mtc2	t1,$14
    9fd4:	00688848 	mtc2	t0,$13
	...
    9fe0:	0600404b 	c2	0x1400006
    9fe4:	70004226 	addiu	v0,s2,112
    9fe8:	1000518e 	lw	s1,16(s2)
    9fec:	000058e8 	swc2	$24,0(v0)
    9ff0:	08002cea 	swc2	$12,8(s1)
    9ff4:	10002dea 	swc2	$13,16(s1)
    9ff8:	18002eea 	swc2	$14,24(s1)
    9ffc:	18000396 	lhu	v1,24(s0)
    a000:	4000428e 	lw	v0,64(s2)
    a004:	00000000 	nop
    a008:	21984300 	addu	s3,v0,v1
    a00c:	00006a8e 	lw	t2,0(s3)
    a010:	00000000 	nop
    a014:	00608a48 	mtc2	t2,$12
	...
    a020:	0600404b 	c2	0x1400006
    a024:	1c000826 	addiu	t0,s0,28
    a028:	74004226 	addiu	v0,s2,116
    a02c:	4c03a8af 	sw	t0,844(sp)
    a030:	000058e8 	swc2	$24,0(v0)
    a034:	7000428e 	lw	v0,112(s2)
    a038:	00000000 	nop
    a03c:	0500401c 	bgtz	v0,0xa054
    a040:	20002226 	addiu	v0,s1,32
    a044:	7400428e 	lw	v0,116(s2)
    a048:	00000000 	nop
    a04c:	4a014104 	bgez	v0,0xa578
    a050:	20002226 	addiu	v0,s1,32
    a054:	00004ce8 	swc2	$12,0(v0)
    a058:	8c03a98f 	lw	t1,908(sp)
    a05c:	0b000392 	lbu	v1,11(s0)
    a060:	02002231 	andi	v0,t1,0x2
    a064:	2c004234 	ori	v0,v0,0x2c
    a068:	25186200 	or	v1,v1,v0
    a06c:	630043a2 	sb	v1,99(s2)
    a070:	0a000392 	lbu	v1,10(s0)
    a074:	04008286 	lh	v0,4(s4)
    a078:	0400a486 	lh	a0,4(s5)
    a07c:	04006586 	lh	a1,4(s3)
    a080:	001e0300 	sll	v1,v1,0x18
    a084:	21104400 	addu	v0,v0,a0
    a088:	0400c486 	lh	a0,4(s6)
    a08c:	031e0300 	sra	v1,v1,0x18
    a090:	21104400 	addu	v0,v0,a0
    a094:	21104500 	addu	v0,v0,a1
    a098:	c3110200 	sra	v0,v0,0x7
    a09c:	21186200 	addu	v1,v1,v0
    a0a0:	21f06000 	move	s8,v1
    a0a4:	001c0300 	sll	v1,v1,0x10
    a0a8:	0400428e 	lw	v0,4(s2)
    a0ac:	031c0300 	sra	v1,v1,0x10
    a0b0:	2a106200 	slt	v0,v1,v0
    a0b4:	30014010 	beqz	v0,0xa578
    a0b8:	00000000 	nop
    a0bc:	8000428e 	lw	v0,128(s2)
    a0c0:	00000000 	nop
    a0c4:	2a104300 	slt	v0,v0,v1
    a0c8:	2b014010 	beqz	v0,0xa578
    a0cc:	00000000 	nop
    a0d0:	7000428e 	lw	v0,112(s2)
    a0d4:	00000000 	nop
    a0d8:	01404228 	slti	v0,v0,16385
    a0dc:	06004010 	beqz	v0,0xa0f8
    a0e0:	01000224 	li	v0,1
    a0e4:	7400428e 	lw	v0,116(s2)
    a0e8:	00000000 	nop
    a0ec:	00c04228 	slti	v0,v0,-16384
    a0f0:	cf004010 	beqz	v0,0xa430
    a0f4:	01000224 	li	v0,1
    a0f8:	1000a2af 	sw	v0,16(sp)
    a0fc:	7000438e 	lw	v1,112(s2)
    a100:	00800234 	li	v0,0x8000
    a104:	2a104300 	slt	v0,v0,v1
    a108:	06004014 	bnez	v0,0xa124
    a10c:	02000224 	li	v0,2
    a110:	7400428e 	lw	v0,116(s2)
    a114:	00000000 	nop
    a118:	00804228 	slti	v0,v0,-32768
    a11c:	0d004010 	beqz	v0,0xa154
    a120:	02000224 	li	v0,2
    a124:	1000a2af 	sw	v0,16(sp)
    a128:	7000438e 	lw	v1,112(s2)
    a12c:	0100023c 	lui	v0,0x1
    a130:	2a104300 	slt	v0,v0,v1
    a134:	06004014 	bnez	v0,0xa150
    a138:	03000224 	li	v0,3
    a13c:	7400428e 	lw	v0,116(s2)
    a140:	ffff033c 	lui	v1,0xffff
    a144:	2a104300 	slt	v0,v0,v1
    a148:	02004010 	beqz	v0,0xa154
    a14c:	03000224 	li	v0,3
    a150:	1000a2af 	sw	v0,16(sp)
    a154:	10000396 	lhu	v1,16(s0)
    a158:	2400428e 	lw	v0,36(s2)
    a15c:	00000000 	nop
    a160:	21104300 	addu	v0,v0,v1
    a164:	000040c8 	lwc2	$0,0(v0)
    a168:	040041c8 	lwc2	$1,4(v0)
    a16c:	40010224 	li	v0,320
    a170:	1400a2af 	sw	v0,20(sp)
    a174:	f0000224 	li	v0,240
    a178:	1800a2af 	sw	v0,24(sp)
    a17c:	60004226 	addiu	v0,s2,96
    a180:	000046c8 	lwc2	$6,0(v0)
    a184:	17800a3c 	lui	t2,0x8017
    a188:	90504a25 	addiu	t2,t2,20624
    a18c:	fc6d4291 	lbu	v0,28156(t2)
    a190:	00000000 	nop
    a194:	10004230 	andi	v0,v0,0x10
    a198:	23004014 	bnez	v0,0xa228
    a19c:	00000000 	nop
    a1a0:	06008286 	lh	v0,6(s4)
    a1a4:	0600a386 	lh	v1,6(s5)
    a1a8:	00000000 	nop
    a1ac:	21104300 	addu	v0,v0,v1
    a1b0:	0600c386 	lh	v1,6(s6)
    a1b4:	06006486 	lh	a0,6(s3)
    a1b8:	21104300 	addu	v0,v0,v1
    a1bc:	21104400 	addu	v0,v0,a0
    a1c0:	83100200 	sra	v0,v0,0x2
    a1c4:	00408248 	mtc2	v0,$8
	...
    a1d0:	1304e84a 	c2	0xe80413
    a1d4:	02000296 	lhu	v0,2(s0)
    a1d8:	98004396 	lhu	v1,152(s2)
    a1dc:	5403a88f 	lw	t0,852(sp)
    a1e0:	21104300 	addu	v0,v0,v1
    a1e4:	1c00a2a7 	sh	v0,28(sp)
    a1e8:	06000296 	lhu	v0,6(s0)
    a1ec:	2000a427 	addiu	a0,sp,32
    a1f0:	25104800 	or	v0,v0,t0
    a1f4:	1e00a2a7 	sh	v0,30(sp)
    a1f8:	000096e8 	swc2	$22,0(a0)
    a1fc:	fc6d4291 	lbu	v0,28156(t2)
    a200:	00000000 	nop
    a204:	06004230 	andi	v0,v0,0x6
    a208:	16004010 	beqz	v0,0xa264
    a20c:	00141e00 	sll	v0,s8,0x10
    a210:	5003a98f 	lw	t1,848(sp)
    a214:	00000000 	nop
    a218:	09f82001 	jalr	t1
    a21c:	00000000 	nop
    a220:	996a0008 	j	0x1aa64
    a224:	00141e00 	sll	v0,s8,0x10
	...
    a230:	1b04084b 	c2	0x108041b
    a234:	02000296 	lhu	v0,2(s0)
    a238:	98004396 	lhu	v1,152(s2)
    a23c:	5403aa8f 	lw	t2,852(sp)
    a240:	21104300 	addu	v0,v0,v1
    a244:	1c00a2a7 	sh	v0,28(sp)
    a248:	06000296 	lhu	v0,6(s0)
    a24c:	00000000 	nop
    a250:	25104a00 	or	v0,v0,t2
    a254:	1e00a2a7 	sh	v0,30(sp)
    a258:	2000a227 	addiu	v0,sp,32
    a25c:	000056e8 	swc2	$22,0(v0)
    a260:	00141e00 	sll	v0,s8,0x10
    a264:	8803a88f 	lw	t0,904(sp)
    a268:	83130200 	sra	v0,v0,0xe
    a26c:	21100201 	addu	v0,t0,v0
    a270:	2400a2af 	sw	v0,36(sp)
    a274:	2800a227 	addiu	v0,sp,40
    a278:	0001a2af 	sw	v0,256(sp)
    a27c:	4000a227 	addiu	v0,sp,64
    a280:	0401a2af 	sw	v0,260(sp)
    a284:	5800a227 	addiu	v0,sp,88
    a288:	0801a2af 	sw	v0,264(sp)
    a28c:	7000a227 	addiu	v0,sp,112
    a290:	0c01a2af 	sw	v0,268(sp)
    a294:	0300828a 	lwl	v0,3(s4)
    a298:	0000829a 	lwr	v0,0(s4)
    a29c:	00000000 	nop
    a2a0:	3b00a2ab 	swl	v0,59(sp)
    a2a4:	3800a2bb 	swr	v0,56(sp)
    a2a8:	0300a28a 	lwl	v0,3(s5)
    a2ac:	0000a29a 	lwr	v0,0(s5)
    a2b0:	00000000 	nop
    a2b4:	5300a2ab 	swl	v0,83(sp)
    a2b8:	5000a2bb 	swr	v0,80(sp)
    a2bc:	0300c28a 	lwl	v0,3(s6)
    a2c0:	0000c29a 	lwr	v0,0(s6)
    a2c4:	00000000 	nop
    a2c8:	6b00a2ab 	swl	v0,107(sp)
    a2cc:	6800a2bb 	swr	v0,104(sp)
    a2d0:	0300628a 	lwl	v0,3(s3)
    a2d4:	0000629a 	lwr	v0,0(s3)
    a2d8:	00000000 	nop
    a2dc:	8300a2ab 	swl	v0,131(sp)
    a2e0:	8000a2bb 	swr	v0,128(sp)
    a2e4:	04008286 	lh	v0,4(s4)
    a2e8:	00000000 	nop
    a2ec:	3c00a2af 	sw	v0,60(sp)
    a2f0:	0400a286 	lh	v0,4(s5)
    a2f4:	00000000 	nop
    a2f8:	5400a2af 	sw	v0,84(sp)
    a2fc:	0400c286 	lh	v0,4(s6)
    a300:	00000000 	nop
    a304:	6c00a2af 	sw	v0,108(sp)
    a308:	04006286 	lh	v0,4(s3)
    a30c:	00000000 	nop
    a310:	8400a2af 	sw	v0,132(sp)
    a314:	12000396 	lhu	v1,18(s0)
    a318:	4800428e 	lw	v0,72(s2)
    a31c:	00000000 	nop
    a320:	21104300 	addu	v0,v0,v1
    a324:	03004388 	lwl	v1,3(v0)
    a328:	00004398 	lwr	v1,0(v0)
    a32c:	07004488 	lwl	a0,7(v0)
    a330:	04004498 	lwr	a0,4(v0)
    a334:	2b00a3ab 	swl	v1,43(sp)
    a338:	2800a3bb 	swr	v1,40(sp)
    a33c:	2f00a4ab 	swl	a0,47(sp)
    a340:	2c00a4bb 	swr	a0,44(sp)
    a344:	14000396 	lhu	v1,20(s0)
    a348:	4800428e 	lw	v0,72(s2)
    a34c:	00000000 	nop
    a350:	21104300 	addu	v0,v0,v1
    a354:	03004388 	lwl	v1,3(v0)
    a358:	00004398 	lwr	v1,0(v0)
    a35c:	07004488 	lwl	a0,7(v0)
    a360:	04004498 	lwr	a0,4(v0)
    a364:	4300a3ab 	swl	v1,67(sp)
    a368:	4000a3bb 	swr	v1,64(sp)
    a36c:	4700a4ab 	swl	a0,71(sp)
    a370:	4400a4bb 	swr	a0,68(sp)
    a374:	16000396 	lhu	v1,22(s0)
    a378:	4800428e 	lw	v0,72(s2)
    a37c:	00000000 	nop
    a380:	21104300 	addu	v0,v0,v1
    a384:	03004388 	lwl	v1,3(v0)
    a388:	00004398 	lwr	v1,0(v0)
    a38c:	07004488 	lwl	a0,7(v0)
    a390:	04004498 	lwr	a0,4(v0)
    a394:	5b00a3ab 	swl	v1,91(sp)
    a398:	5800a3bb 	swr	v1,88(sp)
    a39c:	5f00a4ab 	swl	a0,95(sp)
    a3a0:	5c00a4bb 	swr	a0,92(sp)
    a3a4:	18000396 	lhu	v1,24(s0)
    a3a8:	4800428e 	lw	v0,72(s2)
    a3ac:	00000000 	nop
    a3b0:	21104300 	addu	v0,v0,v1
    a3b4:	03004388 	lwl	v1,3(v0)
    a3b8:	00004398 	lwr	v1,0(v0)
    a3bc:	07004488 	lwl	a0,7(v0)
    a3c0:	04004498 	lwr	a0,4(v0)
    a3c4:	7300a3ab 	swl	v1,115(sp)
    a3c8:	7000a3bb 	swr	v1,112(sp)
    a3cc:	7700a4ab 	swl	a0,119(sp)
    a3d0:	7400a4bb 	swr	a0,116(sp)
    a3d4:	0000028e 	lw	v0,0(s0)
    a3d8:	1000448e 	lw	a0,16(s2)
    a3dc:	8c03a98f 	lw	t1,908(sp)
    a3e0:	3000a2af 	sw	v0,48(sp)
    a3e4:	6000023c 	lui	v0,0x60
    a3e8:	0400038e 	lw	v1,4(s0)
    a3ec:	24102201 	and	v0,t1,v0
    a3f0:	25186200 	or	v1,v1,v0
    a3f4:	4800a3af 	sw	v1,72(sp)
    a3f8:	0800028e 	lw	v0,8(s0)
    a3fc:	00000000 	nop
    a400:	6000a2af 	sw	v0,96(sp)
    a404:	0c00028e 	lw	v0,12(s0)
    a408:	1000a527 	addiu	a1,sp,16
    a40c:	d9d8010c 	jal	0x76364
    a410:	7800a2af 	sw	v0,120(sp)
    a414:	1400438e 	lw	v1,20(s2)
    a418:	00000000 	nop
    a41c:	2b186200 	sltu	v1,v1,v0
    a420:	68006014 	bnez	v1,0xa5c4
    a424:	100042ae 	sw	v0,16(s2)
    a428:	5e6b0008 	j	0x1ad78
    a42c:	00000000 	nop
    a430:	1000428e 	lw	v0,16(s2)
    a434:	00000000 	nop
    a438:	28004224 	addiu	v0,v0,40
    a43c:	100042ae 	sw	v0,16(s2)
    a440:	10000396 	lhu	v1,16(s0)
    a444:	2400428e 	lw	v0,36(s2)
    a448:	00000000 	nop
    a44c:	21104300 	addu	v0,v0,v1
    a450:	000040c8 	lwc2	$0,0(v0)
    a454:	040041c8 	lwc2	$1,4(v0)
    a458:	60004226 	addiu	v0,s2,96
    a45c:	000046c8 	lwc2	$6,0(v0)
    a460:	1780083c 	lui	t0,0x8017
    a464:	0000028e 	lw	v0,0(s0)
    a468:	90500825 	addiu	t0,t0,20624
    a46c:	0c0022ae 	sw	v0,12(s1)
    a470:	6000023c 	lui	v0,0x60
    a474:	8c03aa8f 	lw	t2,908(sp)
    a478:	0400038e 	lw	v1,4(s0)
    a47c:	24104201 	and	v0,t2,v0
    a480:	25186200 	or	v1,v1,v0
    a484:	140023ae 	sw	v1,20(s1)
    a488:	fc6d0291 	lbu	v0,28156(t0)
    a48c:	00000000 	nop
    a490:	10004230 	andi	v0,v0,0x10
    a494:	20004014 	bnez	v0,0xa518
    a498:	00000000 	nop
    a49c:	06008286 	lh	v0,6(s4)
    a4a0:	0600a386 	lh	v1,6(s5)
    a4a4:	00000000 	nop
    a4a8:	21104300 	addu	v0,v0,v1
    a4ac:	0600c386 	lh	v1,6(s6)
    a4b0:	06006486 	lh	a0,6(s3)
    a4b4:	21104300 	addu	v0,v0,v1
    a4b8:	21104400 	addu	v0,v0,a0
    a4bc:	83100200 	sra	v0,v0,0x2
    a4c0:	00408248 	mtc2	v0,$8
	...
    a4cc:	1304e84a 	c2	0xe80413
    a4d0:	08000296 	lhu	v0,8(s0)
    a4d4:	00000000 	nop
    a4d8:	1c0022a6 	sh	v0,28(s1)
    a4dc:	0c000296 	lhu	v0,12(s0)
    a4e0:	04002426 	addiu	a0,s1,4
    a4e4:	240022a6 	sh	v0,36(s1)
    a4e8:	000096e8 	swc2	$22,0(a0)
    a4ec:	fc6d0291 	lbu	v0,28156(t0)
    a4f0:	00000000 	nop
    a4f4:	06004230 	andi	v0,v0,0x6
    a4f8:	13004010 	beqz	v0,0xa548
    a4fc:	ff00053c 	lui	a1,0xff
    a500:	5003a98f 	lw	t1,848(sp)
    a504:	00000000 	nop
    a508:	09f82001 	jalr	t1
    a50c:	00000000 	nop
    a510:	526b0008 	j	0x1ad48
    a514:	ff00053c 	lui	a1,0xff
	...
    a520:	1b04084b 	c2	0x108041b
    a524:	08000296 	lhu	v0,8(s0)
    a528:	00000000 	nop
    a52c:	1c0022a6 	sh	v0,28(s1)
    a530:	0c000296 	lhu	v0,12(s0)
    a534:	00000000 	nop
    a538:	240022a6 	sh	v0,36(s1)
    a53c:	04002226 	addiu	v0,s1,4
    a540:	000056e8 	swc2	$22,0(v0)
    a544:	ff00053c 	lui	a1,0xff
    a548:	00241e00 	sll	a0,s8,0x10
    a54c:	83230400 	sra	a0,a0,0xe
    a550:	8803aa8f 	lw	t2,904(sp)
    a554:	ffffa534 	ori	a1,a1,0xffff
    a558:	21208a00 	addu	a0,a0,t2
    a55c:	0000838c 	lw	v1,0(a0)
    a560:	0009023c 	lui	v0,0x900
    a564:	24186500 	and	v1,v1,a1
    a568:	25186200 	or	v1,v1,v0
    a56c:	24282502 	and	a1,s1,a1
    a570:	000023ae 	sw	v1,0(s1)
    a574:	000085ac 	sw	a1,0(a0)
    a578:	4c03b08f 	lw	s0,844(sp)
    a57c:	2110e002 	move	v0,s7
    a580:	88fe4014 	bnez	v0,0x9fa4
    a584:	fffff726 	addiu	s7,s7,-1
    a588:	6666033c 	lui	v1,0x6666
    a58c:	1000448e 	lw	a0,16(s2)
    a590:	4803a88f 	lw	t0,840(sp)
    a594:	67666334 	ori	v1,v1,0x6667
    a598:	23208800 	subu	a0,a0,t0
    a59c:	83100400 	sra	v0,a0,0x2
    a5a0:	18004300 	mult	v0,v1
    a5a4:	9000428e 	lw	v0,144(s2)
    a5a8:	c3270400 	sra	a0,a0,0x1f
    a5ac:	1c0050ae 	sw	s0,28(s2)
    a5b0:	10480000 	mfhi	t1
    a5b4:	83180900 	sra	v1,t1,0x2
    a5b8:	23186400 	subu	v1,v1,a0
    a5bc:	21104300 	addu	v0,v0,v1
    a5c0:	900042ae 	sw	v0,144(s2)
    a5c4:	7c03bf8f 	lw	ra,892(sp)
    a5c8:	7803be8f 	lw	s8,888(sp)
    a5cc:	7403b78f 	lw	s7,884(sp)
    a5d0:	7003b68f 	lw	s6,880(sp)
    a5d4:	6c03b58f 	lw	s5,876(sp)
    a5d8:	6803b48f 	lw	s4,872(sp)
    a5dc:	6403b38f 	lw	s3,868(sp)
    a5e0:	6003b28f 	lw	s2,864(sp)
    a5e4:	5c03b18f 	lw	s1,860(sp)
    a5e8:	5803b08f 	lw	s0,856(sp)
    a5ec:	8003bd27 	addiu	sp,sp,896
    a5f0:	0800e003 	jr	ra
    a5f4:	00000000 	nop
    a5f8:	21288000 	move	a1,a0
    a5fc:	0200a290 	lbu	v0,2(a1)
    a600:	00000000 	nop
    a604:	5600422c 	sltiu	v0,v0,86
    a608:	02004014 	bnez	v0,0xa614
    a60c:	55000224 	li	v0,85
    a610:	0200a2a0 	sb	v0,2(a1)
    a614:	0200a290 	lbu	v0,2(a1)
    a618:	00000000 	nop
    a61c:	40180200 	sll	v1,v0,0x1
    a620:	21204000 	move	a0,v0
    a624:	21186200 	addu	v1,v1,v0
    a628:	40200400 	sll	a0,a0,0x1
    a62c:	0000a3a0 	sb	v1,0(a1)
    a630:	0800e003 	jr	ra
    a634:	0100a4a0 	sb	a0,1(a1)
    a638:	21288000 	move	a1,a0
    a63c:	0000a290 	lbu	v0,0(a1)
    a640:	00000000 	nop
    a644:	5600422c 	sltiu	v0,v0,86
    a648:	02004014 	bnez	v0,0xa654
    a64c:	55000224 	li	v0,85
    a650:	0000a2a0 	sb	v0,0(a1)
    a654:	0000a390 	lbu	v1,0(a1)
    a658:	00000000 	nop
    a65c:	40100300 	sll	v0,v1,0x1
    a660:	21206000 	move	a0,v1
    a664:	21104300 	addu	v0,v0,v1
    a668:	0200a2a0 	sb	v0,2(a1)
    a66c:	40100400 	sll	v0,a0,0x1
    a670:	21104400 	addu	v0,v0,a0
    a674:	0800e003 	jr	ra
    a678:	0100a2a0 	sb	v0,1(a1)
    a67c:	70fcbd27 	addiu	sp,sp,-912
    a680:	8803beaf 	sw	s8,904(sp)
    a684:	21f08000 	move	s8,a0
    a688:	6c03b1af 	sw	s1,876(sp)
    a68c:	2188a000 	move	s1,a1
    a690:	8403b7af 	sw	s7,900(sp)
    a694:	21b80000 	move	s7,zero
    a698:	0100033c 	lui	v1,0x1
    a69c:	00806334 	ori	v1,v1,0x8000
    a6a0:	7403b3af 	sw	s3,884(sp)
    a6a4:	801f133c 	lui	s3,0x1f80
    a6a8:	1680023c 	lui	v0,0x8016
    a6ac:	90d04224 	addiu	v0,v0,-12144
    a6b0:	21104300 	addu	v0,v0,v1
    a6b4:	8c03bfaf 	sw	ra,908(sp)
    a6b8:	8003b6af 	sw	s6,896(sp)
    a6bc:	7c03b5af 	sw	s5,892(sp)
    a6c0:	7803b4af 	sw	s4,888(sp)
    a6c4:	7003b2af 	sw	s2,880(sp)
    a6c8:	6803b0af 	sw	s0,872(sp)
    a6cc:	9803a6af 	sw	a2,920(sp)
    a6d0:	9c03a7af 	sw	a3,924(sp)
    a6d4:	8c00638e 	lw	v1,140(s3)
    a6d8:	fc6d4490 	lbu	a0,28156(v0)
    a6dc:	1000688e 	lw	t0,16(s3)
    a6e0:	21187e00 	addu	v1,v1,s8
    a6e4:	02008230 	andi	v0,a0,0x2
    a6e8:	8c0063ae 	sw	v1,140(s3)
    a6ec:	04004010 	beqz	v0,0xa700
    a6f0:	4803a8af 	sw	t0,840(sp)
    a6f4:	0280023c 	lui	v0,0x8002
    a6f8:	c46b0008 	j	0x1af10
    a6fc:	f8ad5724 	addiu	s7,v0,-21000
    a700:	04008230 	andi	v0,a0,0x4
    a704:	02004010 	beqz	v0,0xa710
    a708:	0280023c 	lui	v0,0x8002
    a70c:	38ae5724 	addiu	s7,v0,-20936
    a710:	2110c003 	move	v0,s8
    a714:	74014010 	beqz	v0,0xace8
    a718:	ffffde27 	addiu	s8,s8,-1
    a71c:	5555093c 	lui	t1,0x5555
    a720:	9c03aa8f 	lw	t2,924(sp)
    a724:	56552935 	ori	t1,t1,0x5556
    a728:	5c03a9af 	sw	t1,860(sp)
    a72c:	03140a00 	sra	v0,t2,0x10
    a730:	60004230 	andi	v0,v0,0x60
    a734:	6003a2af 	sw	v0,864(sp)
    a738:	6000023c 	lui	v0,0x60
    a73c:	24104201 	and	v0,t2,v0
    a740:	6403a2af 	sw	v0,868(sp)
    a744:	0e002396 	lhu	v1,14(s1)
    a748:	4000628e 	lw	v0,64(s3)
    a74c:	16002496 	lhu	a0,22(s1)
    a750:	21a04300 	addu	s4,v0,v1
    a754:	21b04400 	addu	s6,v0,a0
    a758:	12002396 	lhu	v1,18(s1)
    a75c:	0000888e 	lw	t0,0(s4)
    a760:	0000ca8e 	lw	t2,0(s6)
    a764:	21a84300 	addu	s5,v0,v1
    a768:	0000a98e 	lw	t1,0(s5)
    a76c:	00608848 	mtc2	t0,$12
    a770:	00708a48 	mtc2	t2,$14
    a774:	00688948 	mtc2	t1,$13
    a778:	18002826 	addiu	t0,s1,24
    a77c:	5803a8af 	sw	t0,856(sp)
	...
    a788:	0600404b 	c2	0x1400006
    a78c:	9c03a98f 	lw	t1,924(sp)
    a790:	0b002392 	lbu	v1,11(s1)
    a794:	02002231 	andi	v0,t1,0x2
    a798:	34004234 	ori	v0,v0,0x34
    a79c:	25186200 	or	v1,v1,v0
    a7a0:	70006226 	addiu	v0,s3,112
    a7a4:	630063a2 	sb	v1,99(s3)
    a7a8:	000058e8 	swc2	$24,0(v0)
    a7ac:	7000658e 	lw	a1,112(s3)
    a7b0:	00000000 	nop
    a7b4:	4801a018 	blez	a1,0xacd8
    a7b8:	00000000 	nop
    a7bc:	04008386 	lh	v1,4(s4)
    a7c0:	0400a286 	lh	v0,4(s5)
    a7c4:	0400c486 	lh	a0,4(s6)
    a7c8:	5c03aa8f 	lw	t2,860(sp)
    a7cc:	21186200 	addu	v1,v1,v0
    a7d0:	21186400 	addu	v1,v1,a0
    a7d4:	43110300 	sra	v0,v1,0x5
    a7d8:	18004a00 	mult	v0,t2
    a7dc:	0a002292 	lbu	v0,10(s1)
    a7e0:	c31f0300 	sra	v1,v1,0x1f
    a7e4:	00160200 	sll	v0,v0,0x18
    a7e8:	03160200 	sra	v0,v0,0x18
    a7ec:	10400000 	mfhi	t0
    a7f0:	23180301 	subu	v1,t0,v1
    a7f4:	21104300 	addu	v0,v0,v1
    a7f8:	5003a2a7 	sh	v0,848(sp)
    a7fc:	00140200 	sll	v0,v0,0x10
    a800:	0400638e 	lw	v1,4(s3)
    a804:	03240200 	sra	a0,v0,0x10
    a808:	2a188300 	slt	v1,a0,v1
    a80c:	32016010 	beqz	v1,0xacd8
    a810:	00000000 	nop
    a814:	8000628e 	lw	v0,128(s3)
    a818:	00000000 	nop
    a81c:	2a104400 	slt	v0,v0,a0
    a820:	2d014010 	beqz	v0,0xacd8
    a824:	0140a228 	slti	v0,a1,16385
    a828:	c5004014 	bnez	v0,0xab40
    a82c:	01000224 	li	v0,1
    a830:	1000a2af 	sw	v0,16(sp)
    a834:	7000638e 	lw	v1,112(s3)
    a838:	00800234 	li	v0,0x8000
    a83c:	2a104300 	slt	v0,v0,v1
    a840:	08004010 	beqz	v0,0xa864
    a844:	02000224 	li	v0,2
    a848:	1000a2af 	sw	v0,16(sp)
    a84c:	7000638e 	lw	v1,112(s3)
    a850:	0100023c 	lui	v0,0x1
    a854:	2a104300 	slt	v0,v0,v1
    a858:	02004010 	beqz	v0,0xa864
    a85c:	03000224 	li	v0,3
    a860:	1000a2af 	sw	v0,16(sp)
    a864:	0c002596 	lhu	a1,12(s1)
    a868:	2400628e 	lw	v0,36(s3)
    a86c:	10002396 	lhu	v1,16(s1)
    a870:	14002496 	lhu	a0,20(s1)
    a874:	21284500 	addu	a1,v0,a1
    a878:	21184300 	addu	v1,v0,v1
    a87c:	21104400 	addu	v0,v0,a0
    a880:	0000a0c8 	lwc2	$0,0(a1)
    a884:	0400a1c8 	lwc2	$1,4(a1)
    a888:	000062c8 	lwc2	$2,0(v1)
    a88c:	040063c8 	lwc2	$3,4(v1)
    a890:	000044c8 	lwc2	$4,0(v0)
    a894:	040045c8 	lwc2	$5,4(v0)
    a898:	40010224 	li	v0,320
    a89c:	1400a2af 	sw	v0,20(sp)
    a8a0:	f0000224 	li	v0,240
    a8a4:	1800a2af 	sw	v0,24(sp)
    a8a8:	60006226 	addiu	v0,s3,96
    a8ac:	000046c8 	lwc2	$6,0(v0)
    a8b0:	1780093c 	lui	t1,0x8017
    a8b4:	90502925 	addiu	t1,t1,20624
    a8b8:	fc6d2291 	lbu	v0,28156(t1)
    a8bc:	00000000 	nop
    a8c0:	10004230 	andi	v0,v0,0x10
    a8c4:	2c004014 	bnez	v0,0xa978
    a8c8:	00000000 	nop
    a8cc:	06008286 	lh	v0,6(s4)
    a8d0:	0600a386 	lh	v1,6(s5)
    a8d4:	0600c486 	lh	a0,6(s6)
    a8d8:	5c03aa8f 	lw	t2,860(sp)
    a8dc:	21104300 	addu	v0,v0,v1
    a8e0:	21104400 	addu	v0,v0,a0
    a8e4:	18004a00 	mult	v0,t2
    a8e8:	c3170200 	sra	v0,v0,0x1f
    a8ec:	10400000 	mfhi	t0
    a8f0:	23100201 	subu	v0,t0,v0
    a8f4:	00408248 	mtc2	v0,$8
	...
    a900:	1604f84a 	c2	0xf80416
    a904:	3400a427 	addiu	a0,sp,52
    a908:	4c00b027 	addiu	s0,sp,76
    a90c:	02002296 	lhu	v0,2(s1)
    a910:	98006396 	lhu	v1,152(s3)
    a914:	6003a98f 	lw	t1,864(sp)
    a918:	21104300 	addu	v0,v0,v1
    a91c:	1c00a2a7 	sh	v0,28(sp)
    a920:	06002296 	lhu	v0,6(s1)
    a924:	6400b227 	addiu	s2,sp,100
    a928:	25104900 	or	v0,v0,t1
    a92c:	1e00a2a7 	sh	v0,30(sp)
    a930:	000094e8 	swc2	$20,0(a0)
    a934:	000015ea 	swc2	$21,0(s0)
    a938:	000056ea 	swc2	$22,0(s2)
    a93c:	17800a3c 	lui	t2,0x8017
    a940:	90504a25 	addiu	t2,t2,20624
    a944:	fc6d4291 	lbu	v0,28156(t2)
    a948:	00000000 	nop
    a94c:	06004230 	andi	v0,v0,0x6
    a950:	1a004010 	beqz	v0,0xa9bc
    a954:	00000000 	nop
    a958:	09f8e002 	jalr	s7
    a95c:	00000000 	nop
    a960:	09f8e002 	jalr	s7
    a964:	21200002 	move	a0,s0
    a968:	09f8e002 	jalr	s7
    a96c:	21204002 	move	a0,s2
    a970:	6f6c0008 	j	0x1b1bc
    a974:	00000000 	nop
	...
    a980:	3f04184b 	c2	0x118043f
    a984:	3400a427 	addiu	a0,sp,52
    a988:	02002296 	lhu	v0,2(s1)
    a98c:	98006396 	lhu	v1,152(s3)
    a990:	6003a88f 	lw	t0,864(sp)
    a994:	21104300 	addu	v0,v0,v1
    a998:	1c00a2a7 	sh	v0,28(sp)
    a99c:	06002296 	lhu	v0,6(s1)
    a9a0:	4c00a327 	addiu	v1,sp,76
    a9a4:	25104800 	or	v0,v0,t0
    a9a8:	1e00a2a7 	sh	v0,30(sp)
    a9ac:	6400a227 	addiu	v0,sp,100
    a9b0:	000094e8 	swc2	$20,0(a0)
    a9b4:	000075e8 	swc2	$21,0(v1)
    a9b8:	000056e8 	swc2	$22,0(v0)
    a9bc:	6300628a 	lwl	v0,99(s3)
    a9c0:	6000629a 	lwr	v0,96(s3)
    a9c4:	00000000 	nop
    a9c8:	2300a2ab 	swl	v0,35(sp)
    a9cc:	2000a2bb 	swr	v0,32(sp)
    a9d0:	5003a997 	lhu	t1,848(sp)
    a9d4:	9803aa8f 	lw	t2,920(sp)
    a9d8:	00140900 	sll	v0,t1,0x10
    a9dc:	83130200 	sra	v0,v0,0xe
    a9e0:	21104201 	addu	v0,t2,v0
    a9e4:	2400a2af 	sw	v0,36(sp)
    a9e8:	2800a227 	addiu	v0,sp,40
    a9ec:	b800a2af 	sw	v0,184(sp)
    a9f0:	4000a227 	addiu	v0,sp,64
    a9f4:	bc00a2af 	sw	v0,188(sp)
    a9f8:	5800a227 	addiu	v0,sp,88
    a9fc:	c000a2af 	sw	v0,192(sp)
    aa00:	0300828a 	lwl	v0,3(s4)
    aa04:	0000829a 	lwr	v0,0(s4)
    aa08:	00000000 	nop
    aa0c:	3b00a2ab 	swl	v0,59(sp)
    aa10:	3800a2bb 	swr	v0,56(sp)
    aa14:	0300a28a 	lwl	v0,3(s5)
    aa18:	0000a29a 	lwr	v0,0(s5)
    aa1c:	00000000 	nop
    aa20:	5300a2ab 	swl	v0,83(sp)
    aa24:	5000a2bb 	swr	v0,80(sp)
    aa28:	0300c28a 	lwl	v0,3(s6)
    aa2c:	0000c29a 	lwr	v0,0(s6)
    aa30:	00000000 	nop
    aa34:	6b00a2ab 	swl	v0,107(sp)
    aa38:	6800a2bb 	swr	v0,104(sp)
    aa3c:	04008286 	lh	v0,4(s4)
    aa40:	00000000 	nop
    aa44:	3c00a2af 	sw	v0,60(sp)
    aa48:	0400a286 	lh	v0,4(s5)
    aa4c:	00000000 	nop
    aa50:	5400a2af 	sw	v0,84(sp)
    aa54:	0400c286 	lh	v0,4(s6)
    aa58:	00000000 	nop
    aa5c:	6c00a2af 	sw	v0,108(sp)
    aa60:	0e002396 	lhu	v1,14(s1)
    aa64:	4800628e 	lw	v0,72(s3)
    aa68:	00000000 	nop
    aa6c:	21104300 	addu	v0,v0,v1
    aa70:	03004388 	lwl	v1,3(v0)
    aa74:	00004398 	lwr	v1,0(v0)
    aa78:	07004488 	lwl	a0,7(v0)
    aa7c:	04004498 	lwr	a0,4(v0)
    aa80:	2b00a3ab 	swl	v1,43(sp)
    aa84:	2800a3bb 	swr	v1,40(sp)
    aa88:	2f00a4ab 	swl	a0,47(sp)
    aa8c:	2c00a4bb 	swr	a0,44(sp)
    aa90:	12002396 	lhu	v1,18(s1)
    aa94:	4800628e 	lw	v0,72(s3)
    aa98:	00000000 	nop
    aa9c:	21104300 	addu	v0,v0,v1
    aaa0:	03004388 	lwl	v1,3(v0)
    aaa4:	00004398 	lwr	v1,0(v0)
    aaa8:	07004488 	lwl	a0,7(v0)
    aaac:	04004498 	lwr	a0,4(v0)
    aab0:	4300a3ab 	swl	v1,67(sp)
    aab4:	4000a3bb 	swr	v1,64(sp)
    aab8:	4700a4ab 	swl	a0,71(sp)
    aabc:	4400a4bb 	swr	a0,68(sp)
    aac0:	16002396 	lhu	v1,22(s1)
    aac4:	4800628e 	lw	v0,72(s3)
    aac8:	00000000 	nop
    aacc:	21104300 	addu	v0,v0,v1
    aad0:	03004388 	lwl	v1,3(v0)
    aad4:	00004398 	lwr	v1,0(v0)
    aad8:	07004488 	lwl	a0,7(v0)
    aadc:	04004498 	lwr	a0,4(v0)
    aae0:	5b00a3ab 	swl	v1,91(sp)
    aae4:	5800a3bb 	swr	v1,88(sp)
    aae8:	5f00a4ab 	swl	a0,95(sp)
    aaec:	5c00a4bb 	swr	a0,92(sp)
    aaf0:	0000228e 	lw	v0,0(s1)
    aaf4:	00000000 	nop
    aaf8:	3000a2af 	sw	v0,48(sp)
    aafc:	0400228e 	lw	v0,4(s1)
    ab00:	6403a88f 	lw	t0,868(sp)
    ab04:	00000000 	nop
    ab08:	25104800 	or	v0,v0,t0
    ab0c:	4800a2af 	sw	v0,72(sp)
    ab10:	1000648e 	lw	a0,16(s3)
    ab14:	0800228e 	lw	v0,8(s1)
    ab18:	1000a527 	addiu	a1,sp,16
    ab1c:	b1d7010c 	jal	0x75ec4
    ab20:	6000a2af 	sw	v0,96(sp)
    ab24:	1400638e 	lw	v1,20(s3)
    ab28:	00000000 	nop
    ab2c:	2b186200 	sltu	v1,v1,v0
    ab30:	7c006014 	bnez	v1,0xad24
    ab34:	100062ae 	sw	v0,16(s3)
    ab38:	366d0008 	j	0x1b4d8
    ab3c:	00000000 	nop
    ab40:	1000708e 	lw	s0,16(s3)
    ab44:	00000000 	nop
    ab48:	28000226 	addiu	v0,s0,40
    ab4c:	100062ae 	sw	v0,16(s3)
    ab50:	08000cea 	swc2	$12,8(s0)
    ab54:	14000dea 	swc2	$13,20(s0)
    ab58:	20000eea 	swc2	$14,32(s0)
    ab5c:	0c002596 	lhu	a1,12(s1)
    ab60:	2400628e 	lw	v0,36(s3)
    ab64:	10002396 	lhu	v1,16(s1)
    ab68:	14002496 	lhu	a0,20(s1)
    ab6c:	21284500 	addu	a1,v0,a1
    ab70:	21184300 	addu	v1,v0,v1
    ab74:	21104400 	addu	v0,v0,a0
    ab78:	0000a0c8 	lwc2	$0,0(a1)
    ab7c:	0400a1c8 	lwc2	$1,4(a1)
    ab80:	000062c8 	lwc2	$2,0(v1)
    ab84:	040063c8 	lwc2	$3,4(v1)
    ab88:	000044c8 	lwc2	$4,0(v0)
    ab8c:	040045c8 	lwc2	$5,4(v0)
    ab90:	0000228e 	lw	v0,0(s1)
    ab94:	00000000 	nop
    ab98:	0c0002ae 	sw	v0,12(s0)
    ab9c:	60006226 	addiu	v0,s3,96
    aba0:	000046c8 	lwc2	$6,0(v0)
    aba4:	1780093c 	lui	t1,0x8017
    aba8:	90502925 	addiu	t1,t1,20624
    abac:	fc6d2291 	lbu	v0,28156(t1)
    abb0:	00000000 	nop
    abb4:	10004230 	andi	v0,v0,0x10
    abb8:	2a004014 	bnez	v0,0xac64
    abbc:	00000000 	nop
    abc0:	06008286 	lh	v0,6(s4)
    abc4:	0600a386 	lh	v1,6(s5)
    abc8:	0600c486 	lh	a0,6(s6)
    abcc:	5c03aa8f 	lw	t2,860(sp)
    abd0:	21104300 	addu	v0,v0,v1
    abd4:	21104400 	addu	v0,v0,a0
    abd8:	18004a00 	mult	v0,t2
    abdc:	c3170200 	sra	v0,v0,0x1f
    abe0:	10400000 	mfhi	t0
    abe4:	23100201 	subu	v0,t0,v0
    abe8:	00408248 	mtc2	v0,$8
	...
    abf4:	1604f84a 	c2	0xf80416
    abf8:	04000426 	addiu	a0,s0,4
    abfc:	0400228e 	lw	v0,4(s1)
    ac00:	6403a98f 	lw	t1,868(sp)
    ac04:	1c001226 	addiu	s2,s0,28
    ac08:	25104900 	or	v0,v0,t1
    ac0c:	180002ae 	sw	v0,24(s0)
    ac10:	08002296 	lhu	v0,8(s1)
    ac14:	10001126 	addiu	s1,s0,16
    ac18:	240002a6 	sh	v0,36(s0)
    ac1c:	000094e8 	swc2	$20,0(a0)
    ac20:	000035ea 	swc2	$21,0(s1)
    ac24:	000056ea 	swc2	$22,0(s2)
    ac28:	17800a3c 	lui	t2,0x8017
    ac2c:	90504a25 	addiu	t2,t2,20624
    ac30:	fc6d4291 	lbu	v0,28156(t2)
    ac34:	00000000 	nop
    ac38:	06004230 	andi	v0,v0,0x6
    ac3c:	19004010 	beqz	v0,0xaca4
    ac40:	ff00053c 	lui	a1,0xff
    ac44:	09f8e002 	jalr	s7
    ac48:	00000000 	nop
    ac4c:	09f8e002 	jalr	s7
    ac50:	21202002 	move	a0,s1
    ac54:	09f8e002 	jalr	s7
    ac58:	21204002 	move	a0,s2
    ac5c:	296d0008 	j	0x1b4a4
    ac60:	ff00053c 	lui	a1,0xff
	...
    ac6c:	3f04184b 	c2	0x118043f
    ac70:	0400228e 	lw	v0,4(s1)
    ac74:	6403a88f 	lw	t0,868(sp)
    ac78:	04000426 	addiu	a0,s0,4
    ac7c:	25104800 	or	v0,v0,t0
    ac80:	180002ae 	sw	v0,24(s0)
    ac84:	08002296 	lhu	v0,8(s1)
    ac88:	10000326 	addiu	v1,s0,16
    ac8c:	240002a6 	sh	v0,36(s0)
    ac90:	1c000226 	addiu	v0,s0,28
    ac94:	000094e8 	swc2	$20,0(a0)
    ac98:	000075e8 	swc2	$21,0(v1)
    ac9c:	000056e8 	swc2	$22,0(v0)
    aca0:	ff00053c 	lui	a1,0xff
    aca4:	ffffa534 	ori	a1,a1,0xffff
    aca8:	5003a997 	lhu	t1,848(sp)
    acac:	9803aa8f 	lw	t2,920(sp)
    acb0:	00240900 	sll	a0,t1,0x10
    acb4:	83230400 	sra	a0,a0,0xe
    acb8:	21208a00 	addu	a0,a0,t2
    acbc:	0000838c 	lw	v1,0(a0)
    acc0:	0009023c 	lui	v0,0x900
    acc4:	24186500 	and	v1,v1,a1
    acc8:	25186200 	or	v1,v1,v0
    accc:	24280502 	and	a1,s0,a1
    acd0:	000003ae 	sw	v1,0(s0)
    acd4:	000085ac 	sw	a1,0(a0)
    acd8:	5803b18f 	lw	s1,856(sp)
    acdc:	2110c003 	move	v0,s8
    ace0:	98fe4014 	bnez	v0,0xa744
    ace4:	ffffde27 	addiu	s8,s8,-1
    ace8:	6666033c 	lui	v1,0x6666
    acec:	1000648e 	lw	a0,16(s3)
    acf0:	4803a88f 	lw	t0,840(sp)
    acf4:	67666334 	ori	v1,v1,0x6667
    acf8:	23208800 	subu	a0,a0,t0
    acfc:	83100400 	sra	v0,a0,0x2
    ad00:	18004300 	mult	v0,v1
    ad04:	9000628e 	lw	v0,144(s3)
    ad08:	c3270400 	sra	a0,a0,0x1f
    ad0c:	1c0071ae 	sw	s1,28(s3)
    ad10:	10480000 	mfhi	t1
    ad14:	83180900 	sra	v1,t1,0x2
    ad18:	23186400 	subu	v1,v1,a0
    ad1c:	21104300 	addu	v0,v0,v1
    ad20:	900062ae 	sw	v0,144(s3)
    ad24:	8c03bf8f 	lw	ra,908(sp)
    ad28:	8803be8f 	lw	s8,904(sp)
    ad2c:	8403b78f 	lw	s7,900(sp)
    ad30:	8003b68f 	lw	s6,896(sp)
    ad34:	7c03b58f 	lw	s5,892(sp)
    ad38:	7803b48f 	lw	s4,888(sp)
    ad3c:	7403b38f 	lw	s3,884(sp)
    ad40:	7003b28f 	lw	s2,880(sp)
    ad44:	6c03b18f 	lw	s1,876(sp)
    ad48:	6803b08f 	lw	s0,872(sp)
    ad4c:	9003bd27 	addiu	sp,sp,912
    ad50:	0800e003 	jr	ra
    ad54:	00000000 	nop
    ad58:	21288000 	move	a1,a0
    ad5c:	0200a290 	lbu	v0,2(a1)
    ad60:	00000000 	nop
    ad64:	5600422c 	sltiu	v0,v0,86
    ad68:	02004014 	bnez	v0,0xad74
    ad6c:	55000224 	li	v0,85
    ad70:	0200a2a0 	sb	v0,2(a1)
    ad74:	0200a290 	lbu	v0,2(a1)
    ad78:	00000000 	nop
    ad7c:	40180200 	sll	v1,v0,0x1
    ad80:	21204000 	move	a0,v0
    ad84:	21186200 	addu	v1,v1,v0
    ad88:	40200400 	sll	a0,a0,0x1
    ad8c:	0000a3a0 	sb	v1,0(a1)
    ad90:	0800e003 	jr	ra
    ad94:	0100a4a0 	sb	a0,1(a1)
    ad98:	21288000 	move	a1,a0
    ad9c:	0000a290 	lbu	v0,0(a1)
    ada0:	00000000 	nop
    ada4:	5600422c 	sltiu	v0,v0,86
    ada8:	02004014 	bnez	v0,0xadb4
    adac:	55000224 	li	v0,85
    adb0:	0000a2a0 	sb	v0,0(a1)
    adb4:	0000a390 	lbu	v1,0(a1)
    adb8:	00000000 	nop
    adbc:	40100300 	sll	v0,v1,0x1
    adc0:	21206000 	move	a0,v1
    adc4:	21104300 	addu	v0,v0,v1
    adc8:	0200a2a0 	sb	v0,2(a1)
    adcc:	40100400 	sll	v0,a0,0x1
    add0:	21104400 	addu	v0,v0,a0
    add4:	0800e003 	jr	ra
    add8:	0100a2a0 	sb	v0,1(a1)
    addc:	78fcbd27 	addiu	sp,sp,-904
    ade0:	6003b0af 	sw	s0,864(sp)
    ade4:	2180a000 	move	s0,a1
    ade8:	8003beaf 	sw	s8,896(sp)
    adec:	21f00000 	move	s8,zero
    adf0:	0100033c 	lui	v1,0x1
    adf4:	00806334 	ori	v1,v1,0x8000
    adf8:	6403b1af 	sw	s1,868(sp)
    adfc:	801f113c 	lui	s1,0x1f80
    ae00:	1680023c 	lui	v0,0x8016
    ae04:	90d04224 	addiu	v0,v0,-12144
    ae08:	21104300 	addu	v0,v0,v1
    ae0c:	8403bfaf 	sw	ra,900(sp)
    ae10:	7c03b7af 	sw	s7,892(sp)
    ae14:	7803b6af 	sw	s6,888(sp)
    ae18:	7403b5af 	sw	s5,884(sp)
    ae1c:	7003b4af 	sw	s4,880(sp)
    ae20:	6c03b3af 	sw	s3,876(sp)
    ae24:	6803b2af 	sw	s2,872(sp)
    ae28:	8803a4af 	sw	a0,904(sp)
    ae2c:	9003a6af 	sw	a2,912(sp)
    ae30:	9403a7af 	sw	a3,916(sp)
    ae34:	8c00238e 	lw	v1,140(s1)
    ae38:	fc6d4490 	lbu	a0,28156(v0)
    ae3c:	8803a98f 	lw	t1,904(sp)
    ae40:	10002a8e 	lw	t2,16(s1)
    ae44:	21186900 	addu	v1,v1,t1
    ae48:	02008230 	andi	v0,a0,0x2
    ae4c:	8c0023ae 	sw	v1,140(s1)
    ae50:	04004010 	beqz	v0,0xae64
    ae54:	4803aaaf 	sw	t2,840(sp)
    ae58:	0280023c 	lui	v0,0x8002
    ae5c:	9d6d0008 	j	0x1b674
    ae60:	58b55e24 	addiu	s8,v0,-19112
    ae64:	04008230 	andi	v0,a0,0x4
    ae68:	02004010 	beqz	v0,0xae74
    ae6c:	0280023c 	lui	v0,0x8002
    ae70:	98b55e24 	addiu	s8,v0,-19048
    ae74:	8803a28f 	lw	v0,904(sp)
    ae78:	00000000 	nop
    ae7c:	21584000 	move	t3,v0
    ae80:	ffff6b25 	addiu	t3,t3,-1
    ae84:	06024010 	beqz	v0,0xb6a0
    ae88:	8803abaf 	sw	t3,904(sp)
    ae8c:	3400a927 	addiu	t1,sp,52
    ae90:	4c00aa27 	addiu	t2,sp,76
    ae94:	6400ab27 	addiu	t3,sp,100
    ae98:	5003a9af 	sw	t1,848(sp)
    ae9c:	7c00a927 	addiu	t1,sp,124
    aea0:	5403aaaf 	sw	t2,852(sp)
    aea4:	5803abaf 	sw	t3,856(sp)
    aea8:	5c03a9af 	sw	t1,860(sp)
    aeac:	12000396 	lhu	v1,18(s0)
    aeb0:	4000228e 	lw	v0,64(s1)
    aeb4:	1a000496 	lhu	a0,26(s0)
    aeb8:	21a04300 	addu	s4,v0,v1
    aebc:	21b84400 	addu	s7,v0,a0
    aec0:	16000396 	lhu	v1,22(s0)
    aec4:	00008a8e 	lw	t2,0(s4)
    aec8:	0000e98e 	lw	t1,0(s7)
    aecc:	21a84300 	addu	s5,v0,v1
    aed0:	0000ab8e 	lw	t3,0(s5)
    aed4:	00608a48 	mtc2	t2,$12
    aed8:	00708948 	mtc2	t1,$14
    aedc:	00688b48 	mtc2	t3,$13
	...
    aee8:	0600404b 	c2	0x1400006
    aeec:	70002226 	addiu	v0,s1,112
    aef0:	1000268e 	lw	a2,16(s1)
    aef4:	000058e8 	swc2	$24,0(v0)
    aef8:	0800cce8 	swc2	$12,8(a2)
    aefc:	1400cde8 	swc2	$13,20(a2)
    af00:	2000cee8 	swc2	$14,32(a2)
    af04:	1e000396 	lhu	v1,30(s0)
    af08:	4000228e 	lw	v0,64(s1)
    af0c:	00000000 	nop
    af10:	21b04300 	addu	s6,v0,v1
    af14:	0000ca8e 	lw	t2,0(s6)
    af18:	00000000 	nop
    af1c:	00608a48 	mtc2	t2,$12
	...
    af28:	0600404b 	c2	0x1400006
    af2c:	20000b26 	addiu	t3,s0,32
    af30:	74002226 	addiu	v0,s1,116
    af34:	4c03abaf 	sw	t3,844(sp)
    af38:	000058e8 	swc2	$24,0(v0)
    af3c:	7000228e 	lw	v0,112(s1)
    af40:	00000000 	nop
    af44:	0500401c 	bgtz	v0,0xaf5c
    af48:	2c00c224 	addiu	v0,a2,44
    af4c:	7400228e 	lw	v0,116(s1)
    af50:	00000000 	nop
    af54:	cb014104 	bgez	v0,0xb684
    af58:	2c00c224 	addiu	v0,a2,44
    af5c:	00004ce8 	swc2	$12,0(v0)
    af60:	9403a98f 	lw	t1,916(sp)
    af64:	0b000392 	lbu	v1,11(s0)
    af68:	02002231 	andi	v0,t1,0x2
    af6c:	3c004234 	ori	v0,v0,0x3c
    af70:	25186200 	or	v1,v1,v0
    af74:	630023a2 	sb	v1,99(s1)
    af78:	0a000392 	lbu	v1,10(s0)
    af7c:	04008286 	lh	v0,4(s4)
    af80:	0400a486 	lh	a0,4(s5)
    af84:	0400c586 	lh	a1,4(s6)
    af88:	001e0300 	sll	v1,v1,0x18
    af8c:	21104400 	addu	v0,v0,a0
    af90:	0400e486 	lh	a0,4(s7)
    af94:	031e0300 	sra	v1,v1,0x18
    af98:	21104400 	addu	v0,v0,a0
    af9c:	21104500 	addu	v0,v0,a1
    afa0:	c3110200 	sra	v0,v0,0x7
    afa4:	21186200 	addu	v1,v1,v0
    afa8:	21386000 	move	a3,v1
    afac:	001c0300 	sll	v1,v1,0x10
    afb0:	0400228e 	lw	v0,4(s1)
    afb4:	03440300 	sra	t0,v1,0x10
    afb8:	2a100201 	slt	v0,t0,v0
    afbc:	b1014010 	beqz	v0,0xb684
    afc0:	00000000 	nop
    afc4:	8000228e 	lw	v0,128(s1)
    afc8:	00000000 	nop
    afcc:	2a104800 	slt	v0,v0,t0
    afd0:	ac014010 	beqz	v0,0xb684
    afd4:	00000000 	nop
    afd8:	7000228e 	lw	v0,112(s1)
    afdc:	00000000 	nop
    afe0:	01404228 	slti	v0,v0,16385
    afe4:	06004010 	beqz	v0,0xb000
    afe8:	01000224 	li	v0,1
    afec:	7400228e 	lw	v0,116(s1)
    aff0:	00000000 	nop
    aff4:	00c04228 	slti	v0,v0,-16384
    aff8:	14014010 	beqz	v0,0xb44c
    affc:	01000224 	li	v0,1
    b000:	1000a2af 	sw	v0,16(sp)
    b004:	7000238e 	lw	v1,112(s1)
    b008:	00800234 	li	v0,0x8000
    b00c:	2a104300 	slt	v0,v0,v1
    b010:	06004014 	bnez	v0,0xb02c
    b014:	02000224 	li	v0,2
    b018:	7400228e 	lw	v0,116(s1)
    b01c:	00000000 	nop
    b020:	00804228 	slti	v0,v0,-32768
    b024:	0d004010 	beqz	v0,0xb05c
    b028:	02000224 	li	v0,2
    b02c:	1000a2af 	sw	v0,16(sp)
    b030:	7000238e 	lw	v1,112(s1)
    b034:	0100023c 	lui	v0,0x1
    b038:	2a104300 	slt	v0,v0,v1
    b03c:	06004014 	bnez	v0,0xb058
    b040:	03000224 	li	v0,3
    b044:	7400228e 	lw	v0,116(s1)
    b048:	ffff033c 	lui	v1,0xffff
    b04c:	2a104300 	slt	v0,v0,v1
    b050:	02004010 	beqz	v0,0xb05c
    b054:	03000224 	li	v0,3
    b058:	1000a2af 	sw	v0,16(sp)
    b05c:	10000596 	lhu	a1,16(s0)
    b060:	2400228e 	lw	v0,36(s1)
    b064:	14000396 	lhu	v1,20(s0)
    b068:	18000496 	lhu	a0,24(s0)
    b06c:	21284500 	addu	a1,v0,a1
    b070:	21184300 	addu	v1,v0,v1
    b074:	21104400 	addu	v0,v0,a0
    b078:	0000a0c8 	lwc2	$0,0(a1)
    b07c:	0400a1c8 	lwc2	$1,4(a1)
    b080:	000062c8 	lwc2	$2,0(v1)
    b084:	040063c8 	lwc2	$3,4(v1)
    b088:	000044c8 	lwc2	$4,0(v0)
    b08c:	040045c8 	lwc2	$5,4(v0)
    b090:	40010224 	li	v0,320
    b094:	1400a2af 	sw	v0,20(sp)
    b098:	f0000224 	li	v0,240
    b09c:	1800a2af 	sw	v0,24(sp)
    b0a0:	60002226 	addiu	v0,s1,96
    b0a4:	000046c8 	lwc2	$6,0(v0)
    b0a8:	17800a3c 	lui	t2,0x8017
    b0ac:	90504a25 	addiu	t2,t2,20624
    b0b0:	fc6d4291 	lbu	v0,28156(t2)
    b0b4:	00000000 	nop
    b0b8:	10004230 	andi	v0,v0,0x10
    b0bc:	4c004014 	bnez	v0,0xb1f0
    b0c0:	00000000 	nop
    b0c4:	06008286 	lh	v0,6(s4)
    b0c8:	0600a386 	lh	v1,6(s5)
    b0cc:	00000000 	nop
    b0d0:	21104300 	addu	v0,v0,v1
    b0d4:	0600e386 	lh	v1,6(s7)
    b0d8:	0600c486 	lh	a0,6(s6)
    b0dc:	21104300 	addu	v0,v0,v1
    b0e0:	21104400 	addu	v0,v0,a0
    b0e4:	83100200 	sra	v0,v0,0x2
    b0e8:	00408248 	mtc2	v0,$8
	...
    b0f4:	1604f84a 	c2	0xf80416
    b0f8:	02000296 	lhu	v0,2(s0)
    b0fc:	98002396 	lhu	v1,152(s1)
    b100:	9403ab8f 	lw	t3,916(sp)
    b104:	5003a98f 	lw	t1,848(sp)
    b108:	5403aa8f 	lw	t2,852(sp)
    b10c:	21104300 	addu	v0,v0,v1
    b110:	1c00a2a7 	sh	v0,28(sp)
    b114:	03140b00 	sra	v0,t3,0x10
    b118:	60004230 	andi	v0,v0,0x60
    b11c:	06000396 	lhu	v1,6(s0)
    b120:	5803ab8f 	lw	t3,856(sp)
    b124:	25186200 	or	v1,v1,v0
    b128:	1e00a3a7 	sh	v1,30(sp)
    b12c:	000034e9 	swc2	$20,0(t1)
    b130:	000055e9 	swc2	$21,0(t2)
    b134:	000076e9 	swc2	$22,0(t3)
    b138:	1c000396 	lhu	v1,28(s0)
    b13c:	2400228e 	lw	v0,36(s1)
    b140:	00000000 	nop
    b144:	21104300 	addu	v0,v0,v1
    b148:	000040c8 	lwc2	$0,0(v0)
    b14c:	040041c8 	lwc2	$1,4(v0)
	...
    b158:	1304e84a 	c2	0xe80413
    b15c:	6300228a 	lwl	v0,99(s1)
    b160:	6000229a 	lwr	v0,96(s1)
    b164:	00000000 	nop
    b168:	2300a2ab 	swl	v0,35(sp)
    b16c:	2000a2bb 	swr	v0,32(sp)
    b170:	00140700 	sll	v0,a3,0x10
    b174:	83130200 	sra	v0,v0,0xe
    b178:	9003a98f 	lw	t1,912(sp)
    b17c:	5c03aa8f 	lw	t2,860(sp)
    b180:	21102201 	addu	v0,t1,v0
    b184:	2400a2af 	sw	v0,36(sp)
    b188:	000056e9 	swc2	$22,0(t2)
    b18c:	17800b3c 	lui	t3,0x8017
    b190:	90506b25 	addiu	t3,t3,20624
    b194:	fc6d6291 	lbu	v0,28156(t3)
    b198:	00000000 	nop
    b19c:	06004230 	andi	v0,v0,0x6
    b1a0:	3c004010 	beqz	v0,0xb294
    b1a4:	2800a227 	addiu	v0,sp,40
    b1a8:	04008586 	lh	a1,4(s4)
    b1ac:	5003a48f 	lw	a0,848(sp)
    b1b0:	09f8c003 	jalr	s8
    b1b4:	00000000 	nop
    b1b8:	0400a586 	lh	a1,4(s5)
    b1bc:	5403a48f 	lw	a0,852(sp)
    b1c0:	09f8c003 	jalr	s8
    b1c4:	00000000 	nop
    b1c8:	0400e586 	lh	a1,4(s7)
    b1cc:	5803a48f 	lw	a0,856(sp)
    b1d0:	09f8c003 	jalr	s8
    b1d4:	00000000 	nop
    b1d8:	0400c586 	lh	a1,4(s6)
    b1dc:	5c03a48f 	lw	a0,860(sp)
    b1e0:	09f8c003 	jalr	s8
    b1e4:	00000000 	nop
    b1e8:	a56e0008 	j	0x1ba94
    b1ec:	2800a227 	addiu	v0,sp,40
	...
    b1f8:	3f04184b 	c2	0x118043f
    b1fc:	02000296 	lhu	v0,2(s0)
    b200:	98002396 	lhu	v1,152(s1)
    b204:	9403a98f 	lw	t1,916(sp)
    b208:	5003aa8f 	lw	t2,848(sp)
    b20c:	5403ab8f 	lw	t3,852(sp)
    b210:	21104300 	addu	v0,v0,v1
    b214:	1c00a2a7 	sh	v0,28(sp)
    b218:	03140900 	sra	v0,t1,0x10
    b21c:	60004230 	andi	v0,v0,0x60
    b220:	06000396 	lhu	v1,6(s0)
    b224:	5803a98f 	lw	t1,856(sp)
    b228:	25186200 	or	v1,v1,v0
    b22c:	1e00a3a7 	sh	v1,30(sp)
    b230:	000054e9 	swc2	$20,0(t2)
    b234:	000075e9 	swc2	$21,0(t3)
    b238:	000036e9 	swc2	$22,0(t1)
    b23c:	1c000396 	lhu	v1,28(s0)
    b240:	2400228e 	lw	v0,36(s1)
    b244:	00000000 	nop
    b248:	21104300 	addu	v0,v0,v1
    b24c:	000040c8 	lwc2	$0,0(v0)
    b250:	040041c8 	lwc2	$1,4(v0)
	...
    b25c:	1b04084b 	c2	0x108041b
    b260:	6300228a 	lwl	v0,99(s1)
    b264:	6000229a 	lwr	v0,96(s1)
    b268:	00000000 	nop
    b26c:	2300a2ab 	swl	v0,35(sp)
    b270:	2000a2bb 	swr	v0,32(sp)
    b274:	00140700 	sll	v0,a3,0x10
    b278:	83130200 	sra	v0,v0,0xe
    b27c:	9003aa8f 	lw	t2,912(sp)
    b280:	5c03ab8f 	lw	t3,860(sp)
    b284:	21104201 	addu	v0,t2,v0
    b288:	2400a2af 	sw	v0,36(sp)
    b28c:	000076e9 	swc2	$22,0(t3)
    b290:	2800a227 	addiu	v0,sp,40
    b294:	0001a2af 	sw	v0,256(sp)
    b298:	4000a227 	addiu	v0,sp,64
    b29c:	0401a2af 	sw	v0,260(sp)
    b2a0:	5800a227 	addiu	v0,sp,88
    b2a4:	0801a2af 	sw	v0,264(sp)
    b2a8:	7000a227 	addiu	v0,sp,112
    b2ac:	0c01a2af 	sw	v0,268(sp)
    b2b0:	0300828a 	lwl	v0,3(s4)
    b2b4:	0000829a 	lwr	v0,0(s4)
    b2b8:	00000000 	nop
    b2bc:	3b00a2ab 	swl	v0,59(sp)
    b2c0:	3800a2bb 	swr	v0,56(sp)
    b2c4:	0300a28a 	lwl	v0,3(s5)
    b2c8:	0000a29a 	lwr	v0,0(s5)
    b2cc:	00000000 	nop
    b2d0:	5300a2ab 	swl	v0,83(sp)
    b2d4:	5000a2bb 	swr	v0,80(sp)
    b2d8:	0300e28a 	lwl	v0,3(s7)
    b2dc:	0000e29a 	lwr	v0,0(s7)
    b2e0:	00000000 	nop
    b2e4:	6b00a2ab 	swl	v0,107(sp)
    b2e8:	6800a2bb 	swr	v0,104(sp)
    b2ec:	0300c28a 	lwl	v0,3(s6)
    b2f0:	0000c29a 	lwr	v0,0(s6)
    b2f4:	00000000 	nop
    b2f8:	8300a2ab 	swl	v0,131(sp)
    b2fc:	8000a2bb 	swr	v0,128(sp)
    b300:	04008286 	lh	v0,4(s4)
    b304:	00000000 	nop
    b308:	3c00a2af 	sw	v0,60(sp)
    b30c:	0400a286 	lh	v0,4(s5)
    b310:	00000000 	nop
    b314:	5400a2af 	sw	v0,84(sp)
    b318:	0400e286 	lh	v0,4(s7)
    b31c:	00000000 	nop
    b320:	6c00a2af 	sw	v0,108(sp)
    b324:	0400c286 	lh	v0,4(s6)
    b328:	00000000 	nop
    b32c:	8400a2af 	sw	v0,132(sp)
    b330:	12000396 	lhu	v1,18(s0)
    b334:	4800228e 	lw	v0,72(s1)
    b338:	00000000 	nop
    b33c:	21104300 	addu	v0,v0,v1
    b340:	03004388 	lwl	v1,3(v0)
    b344:	00004398 	lwr	v1,0(v0)
    b348:	07004488 	lwl	a0,7(v0)
    b34c:	04004498 	lwr	a0,4(v0)
    b350:	2b00a3ab 	swl	v1,43(sp)
    b354:	2800a3bb 	swr	v1,40(sp)
    b358:	2f00a4ab 	swl	a0,47(sp)
    b35c:	2c00a4bb 	swr	a0,44(sp)
    b360:	16000396 	lhu	v1,22(s0)
    b364:	4800228e 	lw	v0,72(s1)
    b368:	00000000 	nop
    b36c:	21104300 	addu	v0,v0,v1
    b370:	03004388 	lwl	v1,3(v0)
    b374:	00004398 	lwr	v1,0(v0)
    b378:	07004488 	lwl	a0,7(v0)
    b37c:	04004498 	lwr	a0,4(v0)
    b380:	4300a3ab 	swl	v1,67(sp)
    b384:	4000a3bb 	swr	v1,64(sp)
    b388:	4700a4ab 	swl	a0,71(sp)
    b38c:	4400a4bb 	swr	a0,68(sp)
    b390:	1a000396 	lhu	v1,26(s0)
    b394:	4800228e 	lw	v0,72(s1)
    b398:	00000000 	nop
    b39c:	21104300 	addu	v0,v0,v1
    b3a0:	03004388 	lwl	v1,3(v0)
    b3a4:	00004398 	lwr	v1,0(v0)
    b3a8:	07004488 	lwl	a0,7(v0)
    b3ac:	04004498 	lwr	a0,4(v0)
    b3b0:	5b00a3ab 	swl	v1,91(sp)
    b3b4:	5800a3bb 	swr	v1,88(sp)
    b3b8:	5f00a4ab 	swl	a0,95(sp)
    b3bc:	5c00a4bb 	swr	a0,92(sp)
    b3c0:	1e000396 	lhu	v1,30(s0)
    b3c4:	4800228e 	lw	v0,72(s1)
    b3c8:	00000000 	nop
    b3cc:	21104300 	addu	v0,v0,v1
    b3d0:	03004388 	lwl	v1,3(v0)
    b3d4:	00004398 	lwr	v1,0(v0)
    b3d8:	07004488 	lwl	a0,7(v0)
    b3dc:	04004498 	lwr	a0,4(v0)
    b3e0:	7300a3ab 	swl	v1,115(sp)
    b3e4:	7000a3bb 	swr	v1,112(sp)
    b3e8:	7700a4ab 	swl	a0,119(sp)
    b3ec:	7400a4bb 	swr	a0,116(sp)
    b3f0:	0000028e 	lw	v0,0(s0)
    b3f4:	1000248e 	lw	a0,16(s1)
    b3f8:	9403a98f 	lw	t1,916(sp)
    b3fc:	3000a2af 	sw	v0,48(sp)
    b400:	6000023c 	lui	v0,0x60
    b404:	0400038e 	lw	v1,4(s0)
    b408:	24102201 	and	v0,t1,v0
    b40c:	25186200 	or	v1,v1,v0
    b410:	4800a3af 	sw	v1,72(sp)
    b414:	0800028e 	lw	v0,8(s0)
    b418:	00000000 	nop
    b41c:	6000a2af 	sw	v0,96(sp)
    b420:	0c00028e 	lw	v0,12(s0)
    b424:	1000a527 	addiu	a1,sp,16
    b428:	21da010c 	jal	0x76884
    b42c:	7800a2af 	sw	v0,120(sp)
    b430:	1400238e 	lw	v1,20(s1)
    b434:	00000000 	nop
    b438:	2b186200 	sltu	v1,v1,v0
    b43c:	a7006014 	bnez	v1,0xb6dc
    b440:	100022ae 	sw	v0,16(s1)
    b444:	a16f0008 	j	0x1be84
    b448:	00000000 	nop
    b44c:	10000596 	lhu	a1,16(s0)
    b450:	2400228e 	lw	v0,36(s1)
    b454:	14000396 	lhu	v1,20(s0)
    b458:	18000496 	lhu	a0,24(s0)
    b45c:	21284500 	addu	a1,v0,a1
    b460:	21184300 	addu	v1,v0,v1
    b464:	21104400 	addu	v0,v0,a0
    b468:	0000a0c8 	lwc2	$0,0(a1)
    b46c:	0400a1c8 	lwc2	$1,4(a1)
    b470:	000062c8 	lwc2	$2,0(v1)
    b474:	040063c8 	lwc2	$3,4(v1)
    b478:	000044c8 	lwc2	$4,0(v0)
    b47c:	040045c8 	lwc2	$5,4(v0)
    b480:	0000028e 	lw	v0,0(s0)
    b484:	00000000 	nop
    b488:	0c00c2ac 	sw	v0,12(a2)
    b48c:	60002226 	addiu	v0,s1,96
    b490:	000046c8 	lwc2	$6,0(v0)
    b494:	17800a3c 	lui	t2,0x8017
    b498:	90504a25 	addiu	t2,t2,20624
    b49c:	fc6d4291 	lbu	v0,28156(t2)
    b4a0:	00000000 	nop
    b4a4:	10004230 	andi	v0,v0,0x10
    b4a8:	48004014 	bnez	v0,0xb5cc
    b4ac:	00000000 	nop
    b4b0:	06008286 	lh	v0,6(s4)
    b4b4:	0600a386 	lh	v1,6(s5)
    b4b8:	00000000 	nop
    b4bc:	21104300 	addu	v0,v0,v1
    b4c0:	0600e386 	lh	v1,6(s7)
    b4c4:	0600c486 	lh	a0,6(s6)
    b4c8:	21104300 	addu	v0,v0,v1
    b4cc:	21104400 	addu	v0,v0,a0
    b4d0:	83100200 	sra	v0,v0,0x2
    b4d4:	00408248 	mtc2	v0,$8
	...
    b4e0:	1604f84a 	c2	0xf80416
    b4e4:	6000023c 	lui	v0,0x60
    b4e8:	0400c724 	addiu	a3,a2,4
    b4ec:	1000d224 	addiu	s2,a2,16
    b4f0:	9403ab8f 	lw	t3,916(sp)
    b4f4:	0400038e 	lw	v1,4(s0)
    b4f8:	24106201 	and	v0,t3,v0
    b4fc:	25186200 	or	v1,v1,v0
    b500:	1800c3ac 	sw	v1,24(a2)
    b504:	08000296 	lhu	v0,8(s0)
    b508:	1c00d324 	addiu	s3,a2,28
    b50c:	2400c2a4 	sh	v0,36(a2)
    b510:	0000f4e8 	swc2	$20,0(a3)
    b514:	000055ea 	swc2	$21,0(s2)
    b518:	000076ea 	swc2	$22,0(s3)
    b51c:	1c000396 	lhu	v1,28(s0)
    b520:	2400228e 	lw	v0,36(s1)
    b524:	00000000 	nop
    b528:	21104300 	addu	v0,v0,v1
    b52c:	000040c8 	lwc2	$0,0(v0)
    b530:	040041c8 	lwc2	$1,4(v0)
	...
    b53c:	1304e84a 	c2	0xe80413
    b540:	ff00053c 	lui	a1,0xff
    b544:	80200800 	sll	a0,t0,0x2
    b548:	0c000296 	lhu	v0,12(s0)
    b54c:	ffffa534 	ori	a1,a1,0xffff
    b550:	3000c2a4 	sh	v0,48(a2)
    b554:	9003a98f 	lw	t1,912(sp)
    b558:	2800d024 	addiu	s0,a2,40
    b55c:	21208900 	addu	a0,a0,t1
    b560:	0000838c 	lw	v1,0(a0)
    b564:	000c023c 	lui	v0,0xc00
    b568:	24186500 	and	v1,v1,a1
    b56c:	25186200 	or	v1,v1,v0
    b570:	2428c500 	and	a1,a2,a1
    b574:	0000c3ac 	sw	v1,0(a2)
    b578:	000085ac 	sw	a1,0(a0)
    b57c:	000016ea 	swc2	$22,0(s0)
    b580:	fc6d4291 	lbu	v0,28156(t2)
    b584:	00000000 	nop
    b588:	06004230 	andi	v0,v0,0x6
    b58c:	39004010 	beqz	v0,0xb674
    b590:	00000000 	nop
    b594:	04008586 	lh	a1,4(s4)
    b598:	09f8c003 	jalr	s8
    b59c:	2120e000 	move	a0,a3
    b5a0:	0400a586 	lh	a1,4(s5)
    b5a4:	09f8c003 	jalr	s8
    b5a8:	21204002 	move	a0,s2
    b5ac:	0400e586 	lh	a1,4(s7)
    b5b0:	09f8c003 	jalr	s8
    b5b4:	21206002 	move	a0,s3
    b5b8:	0400c586 	lh	a1,4(s6)
    b5bc:	09f8c003 	jalr	s8
    b5c0:	21200002 	move	a0,s0
    b5c4:	9d6f0008 	j	0x1be74
    b5c8:	00000000 	nop
	...
    b5d4:	3f04184b 	c2	0x118043f
    b5d8:	6000023c 	lui	v0,0x60
    b5dc:	0400c424 	addiu	a0,a2,4
    b5e0:	9403aa8f 	lw	t2,916(sp)
    b5e4:	0400038e 	lw	v1,4(s0)
    b5e8:	24104201 	and	v0,t2,v0
    b5ec:	25186200 	or	v1,v1,v0
    b5f0:	1800c3ac 	sw	v1,24(a2)
    b5f4:	08000296 	lhu	v0,8(s0)
    b5f8:	1000c324 	addiu	v1,a2,16
    b5fc:	2400c2a4 	sh	v0,36(a2)
    b600:	1c00c224 	addiu	v0,a2,28
    b604:	000094e8 	swc2	$20,0(a0)
    b608:	000075e8 	swc2	$21,0(v1)
    b60c:	000056e8 	swc2	$22,0(v0)
    b610:	1c000396 	lhu	v1,28(s0)
    b614:	2400228e 	lw	v0,36(s1)
    b618:	00000000 	nop
    b61c:	21104300 	addu	v0,v0,v1
    b620:	000040c8 	lwc2	$0,0(v0)
    b624:	040041c8 	lwc2	$1,4(v0)
	...
    b630:	1b04084b 	c2	0x108041b
    b634:	ff00053c 	lui	a1,0xff
    b638:	0c000296 	lhu	v0,12(s0)
    b63c:	80200800 	sll	a0,t0,0x2
    b640:	3000c2a4 	sh	v0,48(a2)
    b644:	9003ab8f 	lw	t3,912(sp)
    b648:	ffffa534 	ori	a1,a1,0xffff
    b64c:	21208b00 	addu	a0,a0,t3
    b650:	0000838c 	lw	v1,0(a0)
    b654:	000c023c 	lui	v0,0xc00
    b658:	24186500 	and	v1,v1,a1
    b65c:	25186200 	or	v1,v1,v0
    b660:	2428c500 	and	a1,a2,a1
    b664:	2800c224 	addiu	v0,a2,40
    b668:	0000c3ac 	sw	v1,0(a2)
    b66c:	000085ac 	sw	a1,0(a0)
    b670:	000056e8 	swc2	$22,0(v0)
    b674:	1000228e 	lw	v0,16(s1)
    b678:	00000000 	nop
    b67c:	34004224 	addiu	v0,v0,52
    b680:	100022ae 	sw	v0,16(s1)
    b684:	4c03b08f 	lw	s0,844(sp)
    b688:	8803a28f 	lw	v0,904(sp)
    b68c:	00000000 	nop
    b690:	21484000 	move	t1,v0
    b694:	ffff2925 	addiu	t1,t1,-1
    b698:	04fe4014 	bnez	v0,0xaeac
    b69c:	8803a9af 	sw	t1,904(sp)
    b6a0:	aa2a033c 	lui	v1,0x2aaa
    b6a4:	1000248e 	lw	a0,16(s1)
    b6a8:	4803aa8f 	lw	t2,840(sp)
    b6ac:	abaa6334 	ori	v1,v1,0xaaab
    b6b0:	23208a00 	subu	a0,a0,t2
    b6b4:	83100400 	sra	v0,a0,0x2
    b6b8:	18004300 	mult	v0,v1
    b6bc:	9000228e 	lw	v0,144(s1)
    b6c0:	c3270400 	sra	a0,a0,0x1f
    b6c4:	1c0030ae 	sw	s0,28(s1)
    b6c8:	10580000 	mfhi	t3
    b6cc:	43180b00 	sra	v1,t3,0x1
    b6d0:	23186400 	subu	v1,v1,a0
    b6d4:	21104300 	addu	v0,v0,v1
    b6d8:	900022ae 	sw	v0,144(s1)
    b6dc:	8403bf8f 	lw	ra,900(sp)
    b6e0:	8003be8f 	lw	s8,896(sp)
    b6e4:	7c03b78f 	lw	s7,892(sp)
    b6e8:	7803b68f 	lw	s6,888(sp)
    b6ec:	7403b58f 	lw	s5,884(sp)
    b6f0:	7003b48f 	lw	s4,880(sp)
    b6f4:	6c03b38f 	lw	s3,876(sp)
    b6f8:	6803b28f 	lw	s2,872(sp)
    b6fc:	6403b18f 	lw	s1,868(sp)
    b700:	6003b08f 	lw	s0,864(sp)
    b704:	8803bd27 	addiu	sp,sp,904
    b708:	0800e003 	jr	ra
    b70c:	00000000 	nop
    b710:	e0ffbd27 	addiu	sp,sp,-32
    b714:	42100500 	srl	v0,a1,0x1
    b718:	1400b1af 	sw	s1,20(sp)
    b71c:	02005130 	andi	s1,v0,0x2
    b720:	0300a530 	andi	a1,a1,0x3
    b724:	402d0500 	sll	a1,a1,0x15
    b728:	25882502 	or	s1,s1,a1
    b72c:	0100053c 	lui	a1,0x1
    b730:	1000b0af 	sw	s0,16(sp)
    b734:	801f103c 	lui	s0,0x1f80
    b738:	ffff8430 	andi	a0,a0,0xffff
    b73c:	80100400 	sll	v0,a0,0x2
    b740:	21104400 	addu	v0,v0,a0
    b744:	c0100200 	sll	v0,v0,0x3
    b748:	0c004224 	addiu	v0,v0,12
    b74c:	1800bfaf 	sw	ra,24(sp)
    b750:	0c00048e 	lw	a0,12(s0)
    b754:	0080a534 	ori	a1,a1,0x8000
    b758:	21108200 	addu	v0,a0,v0
    b75c:	200002ae 	sw	v0,32(s0)
    b760:	0800438c 	lw	v1,8(v0)
    b764:	1680023c 	lui	v0,0x8016
    b768:	90d04224 	addiu	v0,v0,-12144
    b76c:	21304500 	addu	a2,v0,a1
    b770:	fc6dc590 	lbu	a1,28156(a2)
    b774:	0c006324 	addiu	v1,v1,12
    b778:	21208300 	addu	a0,a0,v1
    b77c:	0200a230 	andi	v0,a1,0x2
    b780:	0e004010 	beqz	v0,0xb7bc
    b784:	240004ae 	sw	a0,36(s0)
    b788:	1000a230 	andi	v0,a1,0x10
    b78c:	06004010 	beqz	v0,0xb7a8
    b790:	00000000 	nop
    b794:	f86dc38c 	lw	v1,28152(a2)
    b798:	88ff0224 	li	v0,-120
    b79c:	431b0300 	sra	v1,v1,0xd
    b7a0:	f06f0008 	j	0x1bfc0
    b7a4:	23104300 	subu	v0,v0,v1
    b7a8:	f86dc38c 	lw	v1,28152(a2)
    b7ac:	a0ff0224 	li	v0,-96
    b7b0:	c31a0300 	sra	v1,v1,0xb
    b7b4:	f06f0008 	j	0x1bfc0
    b7b8:	23104300 	subu	v0,v0,v1
    b7bc:	80000224 	li	v0,128
    b7c0:	620002a2 	sb	v0,98(s0)
    b7c4:	610002a2 	sb	v0,97(s0)
    b7c8:	600002a2 	sb	v0,96(s0)
    b7cc:	0100023c 	lui	v0,0x1
    b7d0:	00804234 	ori	v0,v0,0x8000
    b7d4:	1680033c 	lui	v1,0x8016
    b7d8:	90d06324 	addiu	v1,v1,-12144
    b7dc:	21186200 	addu	v1,v1,v0
    b7e0:	fc6d6390 	lbu	v1,28156(v1)
    b7e4:	00000000 	nop
    b7e8:	02006230 	andi	v0,v1,0x2
    b7ec:	0b004010 	beqz	v0,0xb81c
    b7f0:	06000824 	li	t0,6
    b7f4:	04000924 	li	t1,4
    b7f8:	02000a24 	li	t2,2
    b7fc:	00610800 	sll	t4,t0,0x4
    b800:	00690900 	sll	t5,t1,0x4
    b804:	00710a00 	sll	t6,t2,0x4
    b808:	00a8cc48 	ctc2	t4,$21
    b80c:	00b0cd48 	ctc2	t5,$22
    b810:	00b8ce48 	ctc2	t6,$23
    b814:	1d700008 	j	0x1c074
    b818:	00000000 	nop
    b81c:	04006230 	andi	v0,v1,0x4
    b820:	0b004010 	beqz	v0,0xb850
    b824:	02000824 	li	t0,2
    b828:	06000924 	li	t1,6
    b82c:	21502001 	move	t2,t1
    b830:	00610800 	sll	t4,t0,0x4
    b834:	00690900 	sll	t5,t1,0x4
    b838:	00710a00 	sll	t6,t2,0x4
    b83c:	00a8cc48 	ctc2	t4,$21
    b840:	00b0cd48 	ctc2	t5,$22
    b844:	00b8ce48 	ctc2	t6,$23
    b848:	1d700008 	j	0x1c074
    b84c:	00000000 	nop
    b850:	05000824 	li	t0,5
    b854:	21480001 	move	t1,t0
    b858:	21500001 	move	t2,t0
    b85c:	00610800 	sll	t4,t0,0x4
    b860:	00690900 	sll	t5,t1,0x4
    b864:	00710a00 	sll	t6,t2,0x4
    b868:	00a8cc48 	ctc2	t4,$21
    b86c:	00b0cd48 	ctc2	t5,$22
    b870:	00b8ce48 	ctc2	t6,$23
    b874:	2000028e 	lw	v0,32(s0)
    b878:	0000068e 	lw	a2,0(s0)
    b87c:	0c00058e 	lw	a1,12(s0)
    b880:	1000428c 	lw	v0,16(v0)
    b884:	2000038e 	lw	v1,32(s0)
    b888:	0c004224 	addiu	v0,v0,12
    b88c:	2128a200 	addu	a1,a1,v0
    b890:	1c0005ae 	sw	a1,28(s0)
    b894:	18006494 	lhu	a0,24(v1)
    b898:	0e68000c 	jal	0x1a038
    b89c:	21382002 	move	a3,s1
    b8a0:	1c00058e 	lw	a1,28(s0)
    b8a4:	2000028e 	lw	v0,32(s0)
    b8a8:	0000068e 	lw	a2,0(s0)
    b8ac:	1c004494 	lhu	a0,28(v0)
    b8b0:	bb69000c 	jal	0x1a6ec
    b8b4:	21382002 	move	a3,s1
    b8b8:	1c00058e 	lw	a1,28(s0)
    b8bc:	2000028e 	lw	v0,32(s0)
    b8c0:	0000068e 	lw	a2,0(s0)
    b8c4:	1a004494 	lhu	a0,26(v0)
    b8c8:	9f6b000c 	jal	0x1ae7c
    b8cc:	21382002 	move	a3,s1
    b8d0:	1c00058e 	lw	a1,28(s0)
    b8d4:	2000028e 	lw	v0,32(s0)
    b8d8:	0000068e 	lw	a2,0(s0)
    b8dc:	1e004494 	lhu	a0,30(v0)
    b8e0:	776d000c 	jal	0x1b5dc
    b8e4:	21382002 	move	a3,s1
    b8e8:	1800bf8f 	lw	ra,24(sp)
    b8ec:	1400b18f 	lw	s1,20(sp)
    b8f0:	1000b08f 	lw	s0,16(sp)
    b8f4:	2000bd27 	addiu	sp,sp,32
    b8f8:	0800e003 	jr	ra
    b8fc:	00000000 	nop
    b900:	98ffbd27 	addiu	sp,sp,-104
    b904:	21280000 	move	a1,zero
    b908:	2130a000 	move	a2,a1
    b90c:	1b80023c 	lui	v0,0x801b
    b910:	6000b0af 	sw	s0,96(sp)
    b914:	48595024 	addiu	s0,v0,22856
    b918:	6400bfaf 	sw	ra,100(sp)
    b91c:	9c18010c 	jal	0x46270
    b920:	ca4400a6 	sh	zero,17610(s0)
    b924:	1000a427 	addiu	a0,sp,16
    b928:	21280000 	move	a1,zero
    b92c:	5753000c 	jal	0x14d5c
    b930:	10000624 	li	a2,16
    b934:	ca440796 	lhu	a3,17610(s0)
    b938:	ffff0224 	li	v0,-1
    b93c:	ffffe724 	addiu	a3,a3,-1
    b940:	1700e210 	beq	a3,v0,0xb9a0
    b944:	1880023c 	lui	v0,0x8018
    b948:	d0d64a24 	addiu	t2,v0,-10544
    b94c:	1000a927 	addiu	t1,sp,16
    b950:	40100700 	sll	v0,a3,0x1
    b954:	21405000 	addu	t0,v0,s0
    b958:	21300000 	move	a2,zero
    b95c:	ce440295 	lhu	v0,17614(t0)
    b960:	21202001 	move	a0,t1
    b964:	80110200 	sll	v0,v0,0x6
    b968:	21284a00 	addu	a1,v0,t2
    b96c:	0000a28c 	lw	v0,0(a1)
    b970:	0400a524 	addiu	a1,a1,4
    b974:	0000838c 	lw	v1,0(a0)
    b978:	0100c624 	addiu	a2,a2,1
    b97c:	25186200 	or	v1,v1,v0
    b980:	000083ac 	sw	v1,0(a0)
    b984:	1000c228 	slti	v0,a2,16
    b988:	f8ff4014 	bnez	v0,0xb96c
    b98c:	04008424 	addiu	a0,a0,4
    b990:	ffffe724 	addiu	a3,a3,-1
    b994:	ffff0224 	li	v0,-1
    b998:	efffe214 	bne	a3,v0,0xb958
    b99c:	feff0825 	addiu	t0,t0,-2
    b9a0:	1c80023c 	lui	v0,0x801c
    b9a4:	149e40a4 	sh	zero,-25068(v0)
    b9a8:	21300000 	move	a2,zero
    b9ac:	2138c000 	move	a3,a2
    b9b0:	1b80083c 	lui	t0,0x801b
    b9b4:	20590a25 	addiu	t2,t0,22816
    b9b8:	01000924 	li	t1,1
    b9bc:	1000a327 	addiu	v1,sp,16
    b9c0:	21200000 	move	a0,zero
    b9c4:	1b80023c 	lui	v0,0x801b
    b9c8:	48594524 	addiu	a1,v0,22856
    b9cc:	0000628c 	lw	v0,0(v1)
    b9d0:	00000000 	nop
    b9d4:	01004230 	andi	v0,v0,0x1
    b9d8:	12004010 	beqz	v0,0xba24
    b9dc:	00000000 	nop
    b9e0:	20590285 	lh	v0,22816(t0)
    b9e4:	00000000 	nop
    b9e8:	05004914 	bne	v0,t1,0xba00
    b9ec:	00000000 	nop
    b9f0:	1d004291 	lbu	v0,29(t2)
    b9f4:	00000000 	nop
    b9f8:	0a004014 	bnez	v0,0xba24
    b9fc:	00000000 	nop
    ba00:	cc44a294 	lhu	v0,17612(a1)
    ba04:	00000000 	nop
    ba08:	40100200 	sll	v0,v0,0x1
    ba0c:	21104500 	addu	v0,v0,a1
    ba10:	ce4547a4 	sh	a3,17870(v0)
    ba14:	cc44a294 	lhu	v0,17612(a1)
    ba18:	00000000 	nop
    ba1c:	01004224 	addiu	v0,v0,1
    ba20:	cc44a2a4 	sh	v0,17612(a1)
    ba24:	0000628c 	lw	v0,0(v1)
    ba28:	01008424 	addiu	a0,a0,1
    ba2c:	42100200 	srl	v0,v0,0x1
    ba30:	000062ac 	sw	v0,0(v1)
    ba34:	20008228 	slti	v0,a0,32
    ba38:	e4ff4014 	bnez	v0,0xb9cc
    ba3c:	0100e724 	addiu	a3,a3,1
    ba40:	0100c624 	addiu	a2,a2,1
    ba44:	1000c228 	slti	v0,a2,16
    ba48:	ddff4014 	bnez	v0,0xb9c0
    ba4c:	04006324 	addiu	v1,v1,4
    ba50:	6400bf8f 	lw	ra,100(sp)
    ba54:	6000b08f 	lw	s0,96(sp)
    ba58:	6800bd27 	addiu	sp,sp,104
    ba5c:	0800e003 	jr	ra
    ba60:	00000000 	nop
    ba64:	c8ffbd27 	addiu	sp,sp,-56
    ba68:	3000beaf 	sw	s8,48(sp)
    ba6c:	801f1e3c 	lui	s8,0x1f80
    ba70:	1a80023c 	lui	v0,0x801a
    ba74:	288f4224 	addiu	v0,v0,-28888
    ba78:	3400bfaf 	sw	ra,52(sp)
    ba7c:	2c00b7af 	sw	s7,44(sp)
    ba80:	2800b6af 	sw	s6,40(sp)
    ba84:	2400b5af 	sw	s5,36(sp)
    ba88:	2000b4af 	sw	s4,32(sp)
    ba8c:	1c00b3af 	sw	s3,28(sp)
    ba90:	1800b2af 	sw	s2,24(sp)
    ba94:	1400b1af 	sw	s1,20(sp)
    ba98:	1000b0af 	sw	s0,16(sp)
    ba9c:	6a024384 	lh	v1,618(v0)
    baa0:	68025784 	lh	s7,616(v0)
    baa4:	00000000 	nop
    baa8:	0108e22a 	slti	v0,s7,2049
    baac:	04004014 	bnez	v0,0xbac0
    bab0:	00047224 	addiu	s2,v1,1024
    bab4:	00100224 	li	v0,4096
    bab8:	b1700008 	j	0x1c2c4
    babc:	23885700 	subu	s1,v0,s7
    bac0:	2188e002 	move	s1,s7
    bac4:	c0101100 	sll	v0,s1,0x3
    bac8:	21105100 	addu	v0,v0,s1
    bacc:	c0100200 	sll	v0,v0,0x3
    bad0:	21105100 	addu	v0,v0,s1
    bad4:	c0100200 	sll	v0,v0,0x3
    bad8:	02004104 	bgez	v0,0xbae4
    badc:	00000000 	nop
    bae0:	ff034224 	addiu	v0,v0,1023
    bae4:	83120200 	sra	v0,v0,0xa
    bae8:	00025124 	addiu	s1,v0,512
    baec:	31d1010c 	jal	0x744c4
    baf0:	21204002 	move	a0,s2
    baf4:	21204002 	move	a0,s2
    baf8:	fdd0010c 	jal	0x743f4
    bafc:	21b04000 	move	s6,v0
    bb00:	23805102 	subu	s0,s2,s1
    bb04:	21200002 	move	a0,s0
    bb08:	31d1010c 	jal	0x744c4
    bb0c:	21a04000 	move	s4,v0
    bb10:	21200002 	move	a0,s0
    bb14:	fdd0010c 	jal	0x743f4
    bb18:	21a84000 	move	s5,v0
    bb1c:	21805102 	addu	s0,s2,s1
    bb20:	21200002 	move	a0,s0
    bb24:	31d1010c 	jal	0x744c4
    bb28:	21984000 	move	s3,v0
    bb2c:	21200002 	move	a0,s0
    bb30:	fdd0010c 	jal	0x743f4
    bb34:	21904000 	move	s2,v0
    bb38:	2120e002 	move	a0,s7
    bb3c:	31d1010c 	jal	0x744c4
    bb40:	21884000 	move	s1,v0
    bb44:	2120e002 	move	a0,s7
    bb48:	fdd0010c 	jal	0x743f4
    bb4c:	21804000 	move	s0,v0
    bb50:	40201000 	sll	a0,s0,0x1
    bb54:	21209000 	addu	a0,a0,s0
    bb58:	80200400 	sll	a0,a0,0x2
    bb5c:	23200402 	subu	a0,s0,a0
    bb60:	03230400 	sra	a0,a0,0xc
    bb64:	18009600 	mult	a0,s6
    bb68:	12280000 	mflo	a1
	...
    bb74:	18009400 	mult	a0,s4
    bb78:	12200000 	mflo	a0
    bb7c:	00191000 	sll	v1,s0,0x4
    bb80:	031b0300 	sra	v1,v1,0xc
    bb84:	18007500 	mult	v1,s5
    bb88:	12400000 	mflo	t0
	...
    bb94:	18007300 	mult	v1,s3
    bb98:	12300000 	mflo	a2
	...
    bba4:	18007200 	mult	v1,s2
    bba8:	12580000 	mflo	t3
	...
    bbb4:	18007100 	mult	v1,s1
    bbb8:	c0801000 	sll	s0,s0,0x3
    bbbc:	12480000 	mflo	t1
    bbc0:	23801000 	negu	s0,s0
    bbc4:	03831000 	sra	s0,s0,0xc
    bbc8:	18001602 	mult	s0,s6
    bbcc:	12600000 	mflo	t4
	...
    bbd8:	18001402 	mult	s0,s4
    bbdc:	00390400 	sll	a3,a0,0x4
    bbe0:	033c0700 	sra	a3,a3,0x10
    bbe4:	2118c400 	addu	v1,a2,a0
    bbe8:	00190300 	sll	v1,v1,0x4
    bbec:	031c0300 	sra	v1,v1,0x10
    bbf0:	23186700 	subu	v1,v1,a3
    bbf4:	00310500 	sll	a2,a1,0x4
    bbf8:	03340600 	sra	a2,a2,0x10
    bbfc:	12680000 	mflo	t5
    bc00:	f001c3af 	sw	v1,496(s8)
    bc04:	23180300 	negu	v1,v1
    bc08:	18006600 	mult	v1,a2
    bc0c:	21180501 	addu	v1,t0,a1
    bc10:	00190300 	sll	v1,v1,0x4
    bc14:	12500000 	mflo	t2
    bc18:	031c0300 	sra	v1,v1,0x10
    bc1c:	23186600 	subu	v1,v1,a2
    bc20:	18006700 	mult	v1,a3
    bc24:	21202401 	addu	a0,t1,a0
    bc28:	00210400 	sll	a0,a0,0x4
    bc2c:	03240400 	sra	a0,a0,0x10
    bc30:	23208700 	subu	a0,a0,a3
    bc34:	f401c4af 	sw	a0,500(s8)
    bc38:	f801c3af 	sw	v1,504(s8)
    bc3c:	12400000 	mflo	t0
    bc40:	21188000 	move	v1,a0
    bc44:	23180300 	negu	v1,v1
    bc48:	18006600 	mult	v1,a2
    bc4c:	21286501 	addu	a1,t3,a1
    bc50:	00290500 	sll	a1,a1,0x4
    bc54:	032c0500 	sra	a1,a1,0x10
    bc58:	2328a600 	subu	a1,a1,a2
    bc5c:	12200000 	mflo	a0
    bc60:	fc01c5af 	sw	a1,508(s8)
    bc64:	2118a000 	move	v1,a1
    bc68:	18006700 	mult	v1,a3
    bc6c:	0802c2af 	sw	v0,520(s8)
    bc70:	03130c00 	sra	v0,t4,0xc
    bc74:	ea01c2a7 	sh	v0,490(s8)
    bc78:	03130d00 	sra	v0,t5,0xc
    bc7c:	ee01c2a7 	sh	v0,494(s8)
    bc80:	21104801 	addu	v0,t2,t0
    bc84:	0002c2af 	sw	v0,512(s8)
    bc88:	12180000 	mflo	v1
    bc8c:	21108300 	addu	v0,a0,v1
    bc90:	0402c2af 	sw	v0,516(s8)
    bc94:	3400bf8f 	lw	ra,52(sp)
    bc98:	3000be8f 	lw	s8,48(sp)
    bc9c:	2c00b78f 	lw	s7,44(sp)
    bca0:	2800b68f 	lw	s6,40(sp)
    bca4:	2400b58f 	lw	s5,36(sp)
    bca8:	2000b48f 	lw	s4,32(sp)
    bcac:	1c00b38f 	lw	s3,28(sp)
    bcb0:	1800b28f 	lw	s2,24(sp)
    bcb4:	1400b18f 	lw	s1,20(sp)
    bcb8:	1000b08f 	lw	s0,16(sp)
    bcbc:	3800bd27 	addiu	sp,sp,56
    bcc0:	0800e003 	jr	ra
    bcc4:	00000000 	nop
    bcc8:	801f063c 	lui	a2,0x1f80
    bccc:	1a80023c 	lui	v0,0x801a
    bcd0:	288f4b24 	addiu	t3,v0,-28888
    bcd4:	2801c38c 	lw	v1,296(a2)
    bcd8:	4802628d 	lw	v0,584(t3)
    bcdc:	00000000 	nop
    bce0:	23206200 	subu	a0,v1,v0
    bce4:	02008104 	bgez	a0,0xbcf0
    bce8:	00000000 	nop
    bcec:	ff078424 	addiu	a0,a0,2047
    bcf0:	3001c38c 	lw	v1,304(a2)
    bcf4:	5002628d 	lw	v0,592(t3)
    bcf8:	00000000 	nop
    bcfc:	23286200 	subu	a1,v1,v0
    bd00:	ea01c294 	lhu	v0,490(a2)
    bd04:	c31a0400 	sra	v1,a0,0xb
    bd08:	00140200 	sll	v0,v0,0x10
    bd0c:	03540200 	sra	t2,v0,0x10
    bd10:	0200a104 	bgez	a1,0xbd1c
    bd14:	21406a00 	addu	t0,v1,t2
    bd18:	ff07a524 	addiu	a1,a1,2047
    bd1c:	ee01c294 	lhu	v0,494(a2)
    bd20:	c31a0500 	sra	v1,a1,0xb
    bd24:	00140200 	sll	v0,v0,0x10
    bd28:	034c0200 	sra	t1,v0,0x10
    bd2c:	e801c290 	lbu	v0,488(a2)
    bd30:	00000000 	nop
    bd34:	1c004014 	bnez	v0,0xbda8
    bd38:	21386900 	addu	a3,v1,t1
    bd3c:	f001c28c 	lw	v0,496(a2)
    bd40:	00000000 	nop
    bd44:	18004800 	mult	v0,t0
    bd48:	12200000 	mflo	a0
    bd4c:	f801c28c 	lw	v0,504(a2)
    bd50:	00000000 	nop
    bd54:	18004700 	mult	v0,a3
    bd58:	12180000 	mflo	v1
    bd5c:	f401c28c 	lw	v0,500(a2)
    bd60:	00000000 	nop
    bd64:	18004800 	mult	v0,t0
    bd68:	12280000 	mflo	a1
    bd6c:	fc01c28c 	lw	v0,508(a2)
    bd70:	00000000 	nop
    bd74:	18004700 	mult	v0,a3
    bd78:	23188300 	subu	v1,a0,v1
    bd7c:	0002c28c 	lw	v0,512(a2)
    bd80:	0402c48c 	lw	a0,516(a2)
    bd84:	21186200 	addu	v1,v1,v0
    bd88:	12680000 	mflo	t5
    bd8c:	2310ad00 	subu	v0,a1,t5
    bd90:	0300601c 	bgtz	v1,0xbda0
    bd94:	21104400 	addu	v0,v0,a0
    bd98:	03004104 	bgez	v0,0xbda8
    bd9c:	00000000 	nop
    bda0:	81710008 	j	0x1c604
    bda4:	00010224 	li	v0,256
    bda8:	2c01c48c 	lw	a0,300(a2)
    bdac:	4c02638d 	lw	v1,588(t3)
    bdb0:	0802c28c 	lw	v0,520(a2)
    bdb4:	23208300 	subu	a0,a0,v1
    bdb8:	c0100200 	sll	v0,v0,0x3
    bdbc:	23100200 	negu	v0,v0
    bdc0:	03130200 	sra	v0,v0,0xc
    bdc4:	02008104 	bgez	a0,0xbdd0
    bdc8:	ec01c2a4 	sh	v0,492(a2)
    bdcc:	ff078424 	addiu	a0,a0,2047
    bdd0:	23100a01 	subu	v0,t0,t2
    bdd4:	18004200 	mult	v0,v0
    bdd8:	12180000 	mflo	v1
    bddc:	2310e900 	subu	v0,a3,t1
    bde0:	00000000 	nop
    bde4:	18004200 	mult	v0,v0
    bde8:	12100000 	mflo	v0
    bdec:	c3220400 	sra	a0,a0,0xb
    bdf0:	00000000 	nop
    bdf4:	18008400 	mult	a0,a0
    bdf8:	21106200 	addu	v0,v1,v0
    bdfc:	12200000 	mflo	a0
    be00:	21104400 	addu	v0,v0,a0
    be04:	0800e003 	jr	ra
    be08:	00000000 	nop
    be0c:	c8ffbd27 	addiu	sp,sp,-56
    be10:	0100043c 	lui	a0,0x1
    be14:	00808434 	ori	a0,a0,0x8000
    be18:	1680023c 	lui	v0,0x8016
    be1c:	90d04724 	addiu	a3,v0,-12144
    be20:	2120e400 	addu	a0,a3,a0
    be24:	3400bfaf 	sw	ra,52(sp)
    be28:	3000beaf 	sw	s8,48(sp)
    be2c:	2c00b7af 	sw	s7,44(sp)
    be30:	2800b6af 	sw	s6,40(sp)
    be34:	2400b5af 	sw	s5,36(sp)
    be38:	2000b4af 	sw	s4,32(sp)
    be3c:	1c00b3af 	sw	s3,28(sp)
    be40:	1800b2af 	sw	s2,24(sp)
    be44:	1400b1af 	sw	s1,20(sp)
    be48:	1000b0af 	sw	s0,16(sp)
    be4c:	006e828c 	lw	v0,28160(a0)
    be50:	00000000 	nop
    be54:	c2120200 	srl	v0,v0,0xb
    be58:	18004200 	mult	v0,v0
    be5c:	1b80023c 	lui	v0,0x801b
    be60:	48594624 	addiu	a2,v0,22856
    be64:	046e828c 	lw	v0,28164(a0)
    be68:	12b80000 	mflo	s7
    be6c:	c2120200 	srl	v0,v0,0xb
    be70:	00000000 	nop
    be74:	18004200 	mult	v0,v0
    be78:	086e838c 	lw	v1,28168(a0)
    be7c:	801f143c 	lui	s4,0x1f80
    be80:	6a006384 	lh	v1,106(v1)
    be84:	cc44d194 	lhu	s1,17612(a2)
    be88:	12b00000 	mflo	s6
    be8c:	02006104 	bgez	v1,0xbe98
    be90:	21286000 	move	a1,v1
    be94:	ff076524 	addiu	a1,v1,2047
    be98:	c3120500 	sra	v0,a1,0xb
    be9c:	02004424 	addiu	a0,v0,2
    bea0:	18008400 	mult	a0,a0
    bea4:	ffff3126 	addiu	s1,s1,-1
    bea8:	ffff0224 	li	v0,-1
    beac:	12a80000 	mflo	s5
    beb0:	46002212 	beq	s1,v0,0xbfcc
    beb4:	2198c000 	move	s3,a2
    beb8:	21f0e000 	move	s8,a3
    bebc:	40101100 	sll	v0,s1,0x1
    bec0:	21905300 	addu	s2,v0,s3
    bec4:	0100043c 	lui	a0,0x1
    bec8:	1880083c 	lui	t0,0x8018
    becc:	d0be0825 	addiu	t0,t0,-16688
    bed0:	ce454396 	lhu	v1,17870(s2)
    bed4:	00808434 	ori	a0,a0,0x8000
    bed8:	40100300 	sll	v0,v1,0x1
    bedc:	21104300 	addu	v0,v0,v1
    bee0:	80100200 	sll	v0,v0,0x2
    bee4:	21804800 	addu	s0,v0,t0
    bee8:	08000292 	lbu	v0,8(s0)
    beec:	2120c403 	addu	a0,s8,a0
    bef0:	00130200 	sll	v0,v0,0xc
    bef4:	280182ae 	sw	v0,296(s4)
    bef8:	09000392 	lbu	v1,9(s0)
    befc:	0b000292 	lbu	v0,11(s0)
    bf00:	001b0300 	sll	v1,v1,0xc
    bf04:	80ff4224 	addiu	v0,v0,-128
    bf08:	c0110200 	sll	v0,v0,0x7
    bf0c:	21186200 	addu	v1,v1,v0
    bf10:	2c0183ae 	sw	v1,300(s4)
    bf14:	0a000292 	lbu	v0,10(s0)
    bf18:	156e8390 	lbu	v1,28181(a0)
    bf1c:	00130200 	sll	v0,v0,0xc
    bf20:	e80183a2 	sb	v1,488(s4)
    bf24:	300182ae 	sw	v0,304(s4)
    bf28:	04000292 	lbu	v0,4(s0)
    bf2c:	00000000 	nop
    bf30:	01004230 	andi	v0,v0,0x1
    bf34:	3271000c 	jal	0x1c4c8
    bf38:	040002a2 	sb	v0,4(s0)
    bf3c:	21184000 	move	v1,v0
    bf40:	2a10a302 	slt	v0,s5,v1
    bf44:	15004010 	beqz	v0,0xbf9c
    bf48:	2a107700 	slt	v0,v1,s7
    bf4c:	cc446296 	lhu	v0,17612(s3)
    bf50:	00000000 	nop
    bf54:	ffff4224 	addiu	v0,v0,-1
    bf58:	cc4462a6 	sh	v0,17612(s3)
    bf5c:	cc446296 	lhu	v0,17612(s3)
    bf60:	00000000 	nop
    bf64:	2a102202 	slt	v0,s1,v0
    bf68:	14004010 	beqz	v0,0xbfbc
    bf6c:	21202002 	move	a0,s1
    bf70:	21184002 	move	v1,s2
    bf74:	d0456294 	lhu	v0,17872(v1)
    bf78:	01008424 	addiu	a0,a0,1
    bf7c:	ce4562a4 	sh	v0,17870(v1)
    bf80:	cc446296 	lhu	v0,17612(s3)
    bf84:	00000000 	nop
    bf88:	2a108200 	slt	v0,a0,v0
    bf8c:	f9ff4014 	bnez	v0,0xbf74
    bf90:	02006324 	addiu	v1,v1,2
    bf94:	f0710008 	j	0x1c7c0
    bf98:	ffff3126 	addiu	s1,s1,-1
    bf9c:	03004010 	beqz	v0,0xbfac
    bfa0:	2a10c302 	slt	v0,s6,v1
    bfa4:	05004014 	bnez	v0,0xbfbc
    bfa8:	00000000 	nop
    bfac:	04000292 	lbu	v0,4(s0)
    bfb0:	00000000 	nop
    bfb4:	02004234 	ori	v0,v0,0x2
    bfb8:	040002a2 	sb	v0,4(s0)
    bfbc:	ffff3126 	addiu	s1,s1,-1
    bfc0:	ffff0224 	li	v0,-1
    bfc4:	beff2216 	bne	s1,v0,0xbec0
    bfc8:	40101100 	sll	v0,s1,0x1
    bfcc:	3400bf8f 	lw	ra,52(sp)
    bfd0:	3000be8f 	lw	s8,48(sp)
    bfd4:	2c00b78f 	lw	s7,44(sp)
    bfd8:	2800b68f 	lw	s6,40(sp)
    bfdc:	2400b58f 	lw	s5,36(sp)
    bfe0:	2000b48f 	lw	s4,32(sp)
    bfe4:	1c00b38f 	lw	s3,28(sp)
    bfe8:	1800b28f 	lw	s2,24(sp)
    bfec:	1400b18f 	lw	s1,20(sp)
    bff0:	1000b08f 	lw	s0,16(sp)
    bff4:	3800bd27 	addiu	sp,sp,56
    bff8:	0800e003 	jr	ra
    bffc:	00000000 	nop
    c000:	1b80023c 	lui	v0,0x801b
    c004:	48594324 	addiu	v1,v0,22856
    c008:	cc446794 	lhu	a3,17612(v1)
    c00c:	ffff0224 	li	v0,-1
    c010:	ffffe724 	addiu	a3,a3,-1
    c014:	1a00e210 	beq	a3,v0,0xc080
    c018:	1880023c 	lui	v0,0x8018
    c01c:	d0be4a24 	addiu	t2,v0,-16688
    c020:	ffff0924 	li	t1,-1
    c024:	40100700 	sll	v0,a3,0x1
    c028:	21404300 	addu	t0,v0,v1
    c02c:	ce450295 	lhu	v0,17870(t0)
    c030:	00000000 	nop
    c034:	40180200 	sll	v1,v0,0x1
    c038:	21186200 	addu	v1,v1,v0
    c03c:	80180300 	sll	v1,v1,0x2
    c040:	21186a00 	addu	v1,v1,t2
    c044:	08006290 	lbu	v0,8(v1)
    c048:	00000000 	nop
    c04c:	09004414 	bne	v0,a0,0xc074
    c050:	00000000 	nop
    c054:	09006290 	lbu	v0,9(v1)
    c058:	00000000 	nop
    c05c:	05004514 	bne	v0,a1,0xc074
    c060:	00000000 	nop
    c064:	0a006290 	lbu	v0,10(v1)
    c068:	00000000 	nop
    c06c:	05004610 	beq	v0,a2,0xc084
    c070:	01000224 	li	v0,1
    c074:	ffffe724 	addiu	a3,a3,-1
    c078:	ecffe914 	bne	a3,t1,0xc02c
    c07c:	feff0825 	addiu	t0,t0,-2
    c080:	21100000 	move	v0,zero
    c084:	0800e003 	jr	ra
    c088:	00000000 	nop
    c08c:	1b80023c 	lui	v0,0x801b
    c090:	48594524 	addiu	a1,v0,22856
    c094:	cc44a394 	lhu	v1,17612(a1)
    c098:	ffff0224 	li	v0,-1
    c09c:	ffff6324 	addiu	v1,v1,-1
    c0a0:	0c006210 	beq	v1,v0,0xc0d4
    c0a4:	00000000 	nop
    c0a8:	ffff8430 	andi	a0,a0,0xffff
    c0ac:	21304000 	move	a2,v0
    c0b0:	40100300 	sll	v0,v1,0x1
    c0b4:	21284500 	addu	a1,v0,a1
    c0b8:	ce45a294 	lhu	v0,17870(a1)
    c0bc:	00000000 	nop
    c0c0:	05008210 	beq	a0,v0,0xc0d8
    c0c4:	01000224 	li	v0,1
    c0c8:	ffff6324 	addiu	v1,v1,-1
    c0cc:	faff6614 	bne	v1,a2,0xc0b8
    c0d0:	feffa524 	addiu	a1,a1,-2
    c0d4:	21100000 	move	v0,zero
    c0d8:	0800e003 	jr	ra
    c0dc:	00000000 	nop
    c0e0:	d8ffbd27 	addiu	sp,sp,-40
    c0e4:	1c80023c 	lui	v0,0x801c
    c0e8:	38a14224 	addiu	v0,v0,-24264
    c0ec:	1400b1af 	sw	s1,20(sp)
    c0f0:	3f001124 	li	s1,63
    c0f4:	1c00b3af 	sw	s3,28(sp)
    c0f8:	01001324 	li	s3,1
    c0fc:	1800b2af 	sw	s2,24(sp)
    c100:	21904000 	move	s2,v0
    c104:	1000b0af 	sw	s0,16(sp)
    c108:	04005026 	addiu	s0,s2,4
    c10c:	2000bfaf 	sw	ra,32(sp)
    c110:	006140a0 	sb	zero,24832(v0)
    c114:	ffff0492 	lbu	a0,-1(s0)
    c118:	02000224 	li	v0,2
    c11c:	1d008210 	beq	a0,v0,0xc194
    c120:	00000000 	nop
    c124:	01000392 	lbu	v1,1(s0)
    c128:	00000000 	nop
    c12c:	03007310 	beq	v1,s3,0xc13c
    c130:	05000224 	li	v0,5
    c134:	17006214 	bne	v1,v0,0xc194
    c138:	00000000 	nop
    c13c:	06009310 	beq	a0,s3,0xc158
    c140:	00000000 	nop
    c144:	22000496 	lhu	a0,34(s0)
    c148:	2372000c 	jal	0x1c88c
    c14c:	00000000 	nop
    c150:	10004010 	beqz	v0,0xc194
    c154:	00000000 	nop
    c158:	00614292 	lbu	v0,24832(s2)
    c15c:	00000000 	nop
    c160:	0c00422c 	sltiu	v0,v0,12
    c164:	10004010 	beqz	v0,0xc1a8
    c168:	3f000324 	li	v1,63
    c16c:	00614292 	lbu	v0,24832(s2)
    c170:	23187100 	subu	v1,v1,s1
    c174:	40100200 	sll	v0,v0,0x1
    c178:	21105200 	addu	v0,v0,s2
    c17c:	046143a4 	sh	v1,24836(v0)
    c180:	00614292 	lbu	v0,24832(s2)
    c184:	00000000 	nop
    c188:	01004224 	addiu	v0,v0,1
    c18c:	66720008 	j	0x1c998
    c190:	006142a2 	sb	v0,24832(s2)
    c194:	000000a2 	sb	zero,0(s0)
    c198:	ffff3126 	addiu	s1,s1,-1
    c19c:	ffff0224 	li	v0,-1
    c1a0:	dcff2216 	bne	s1,v0,0xc114
    c1a4:	d4001026 	addiu	s0,s0,212
    c1a8:	2000bf8f 	lw	ra,32(sp)
    c1ac:	1c00b38f 	lw	s3,28(sp)
    c1b0:	1800b28f 	lw	s2,24(sp)
    c1b4:	1400b18f 	lw	s1,20(sp)
    c1b8:	1000b08f 	lw	s0,16(sp)
    c1bc:	2800bd27 	addiu	sp,sp,40
    c1c0:	0800e003 	jr	ra
    c1c4:	00000000 	nop
    c1c8:	e0ffbd27 	addiu	sp,sp,-32
    c1cc:	1c80023c 	lui	v0,0x801c
    c1d0:	30224224 	addiu	v0,v0,8752
    c1d4:	e0e04324 	addiu	v1,v0,-7968
    c1d8:	1400b1af 	sw	s1,20(sp)
    c1dc:	ef001124 	li	s1,239
    c1e0:	1800b2af 	sw	s2,24(sp)
    c1e4:	21906000 	move	s2,v1
    c1e8:	1000b0af 	sw	s0,16(sp)
    c1ec:	07005024 	addiu	s0,v0,7
    c1f0:	1c00bfaf 	sw	ra,28(sp)
    c1f4:	747260a0 	sb	zero,29300(v1)
    c1f8:	03000296 	lhu	v0,3(s0)
    c1fc:	00000000 	nop
    c200:	1801422c 	sltiu	v0,v0,280
    c204:	20004010 	beqz	v0,0xc288
    c208:	00000000 	nop
    c20c:	fdff0292 	lbu	v0,-3(s0)
    c210:	01000496 	lhu	a0,1(s0)
    c214:	7f004230 	andi	v0,v0,0x7f
    c218:	2372000c 	jal	0x1c88c
    c21c:	fdff02a2 	sb	v0,-3(s0)
    c220:	05004014 	bnez	v0,0xc238
    c224:	ec000224 	li	v0,236
    c228:	feff0392 	lbu	v1,-2(s0)
    c22c:	00000000 	nop
    c230:	16006214 	bne	v1,v0,0xc28c
    c234:	00000000 	nop
    c238:	74724292 	lbu	v0,29300(s2)
    c23c:	00000000 	nop
    c240:	6000422c 	sltiu	v0,v0,96
    c244:	15004010 	beqz	v0,0xc29c
    c248:	00000000 	nop
    c24c:	fdff0292 	lbu	v0,-3(s0)
    c250:	00000000 	nop
    c254:	80004234 	ori	v0,v0,0x80
    c258:	fdff02a2 	sb	v0,-3(s0)
    c25c:	ef000224 	li	v0,239
    c260:	74724392 	lbu	v1,29300(s2)
    c264:	23105100 	subu	v0,v0,s1
    c268:	40180300 	sll	v1,v1,0x1
    c26c:	21187200 	addu	v1,v1,s2
    c270:	b47162a4 	sh	v0,29108(v1)
    c274:	74724292 	lbu	v0,29300(s2)
    c278:	00000000 	nop
    c27c:	01004224 	addiu	v0,v0,1
    c280:	a3720008 	j	0x1ca8c
    c284:	747242a2 	sb	v0,29300(s2)
    c288:	000000a2 	sb	zero,0(s0)
    c28c:	ffff3126 	addiu	s1,s1,-1
    c290:	ffff0224 	li	v0,-1
    c294:	d8ff2216 	bne	s1,v0,0xc1f8
    c298:	58001026 	addiu	s0,s0,88
    c29c:	1c00bf8f 	lw	ra,28(sp)
    c2a0:	1800b28f 	lw	s2,24(sp)
    c2a4:	1400b18f 	lw	s1,20(sp)
    c2a8:	1000b08f 	lw	s0,16(sp)
    c2ac:	2000bd27 	addiu	sp,sp,32
    c2b0:	0800e003 	jr	ra
    c2b4:	00000000 	nop
    c2b8:	d8ffbd27 	addiu	sp,sp,-40
    c2bc:	1d80023c 	lui	v0,0x801d
    c2c0:	1800b2af 	sw	s2,24(sp)
    c2c4:	08ae5224 	addiu	s2,v0,-20984
    c2c8:	f0c84326 	addiu	v1,s2,-14096
    c2cc:	1400b1af 	sw	s1,20(sp)
    c2d0:	3f001124 	li	s1,63
    c2d4:	1b80023c 	lui	v0,0x801b
    c2d8:	2000b4af 	sw	s4,32(sp)
    c2dc:	20595424 	addiu	s4,v0,22816
    c2e0:	1c00b3af 	sw	s3,28(sp)
    c2e4:	21986000 	move	s3,v1
    c2e8:	1000b0af 	sw	s0,16(sp)
    c2ec:	02005026 	addiu	s0,s2,2
    c2f0:	2400bfaf 	sw	ra,36(sp)
    c2f4:	060060a0 	sb	zero,6(v1)
    c2f8:	00004396 	lhu	v1,0(s2)
    c2fc:	ffff0234 	li	v0,0xffff
    c300:	13006210 	beq	v1,v0,0xc350
    c304:	00000000 	nop
    c308:	2a000392 	lbu	v1,42(s0)
    c30c:	09008292 	lbu	v0,9(s4)
    c310:	00000000 	nop
    c314:	0e006214 	bne	v1,v0,0xc350
    c318:	00000000 	nop
    c31c:	00000496 	lhu	a0,0(s0)
    c320:	2372000c 	jal	0x1c88c
    c324:	00000000 	nop
    c328:	09004010 	beqz	v0,0xc350
    c32c:	3f000324 	li	v1,63
    c330:	06006292 	lbu	v0,6(s3)
    c334:	23187100 	subu	v1,v1,s1
    c338:	21105300 	addu	v0,v0,s3
    c33c:	070043a0 	sb	v1,7(v0)
    c340:	06006292 	lbu	v0,6(s3)
    c344:	00000000 	nop
    c348:	01004224 	addiu	v0,v0,1
    c34c:	060062a2 	sb	v0,6(s3)
    c350:	30001026 	addiu	s0,s0,48
    c354:	ffff3126 	addiu	s1,s1,-1
    c358:	ffff0224 	li	v0,-1
    c35c:	e6ff2216 	bne	s1,v0,0xc2f8
    c360:	30005226 	addiu	s2,s2,48
    c364:	2400bf8f 	lw	ra,36(sp)
    c368:	2000b48f 	lw	s4,32(sp)
    c36c:	1c00b38f 	lw	s3,28(sp)
    c370:	1800b28f 	lw	s2,24(sp)
    c374:	1400b18f 	lw	s1,20(sp)
    c378:	1000b08f 	lw	s0,16(sp)
    c37c:	2800bd27 	addiu	sp,sp,40
    c380:	0800e003 	jr	ra
    c384:	00000000 	nop
    c388:	1b80023c 	lui	v0,0x801b
    c38c:	48594324 	addiu	v1,v0,22856
    c390:	cc446794 	lhu	a3,17612(v1)
    c394:	ffff0224 	li	v0,-1
    c398:	ffffe724 	addiu	a3,a3,-1
    c39c:	9400e210 	beq	a3,v0,0xc5f0
    c3a0:	801f053c 	lui	a1,0x1f80
    c3a4:	21706000 	move	t6,v1
    c3a8:	1880023c 	lui	v0,0x8018
    c3ac:	d0be4d24 	addiu	t5,v0,-16688
    c3b0:	1a80023c 	lui	v0,0x801a
    c3b4:	288f4824 	addiu	t0,v0,-28888
    c3b8:	00800a34 	li	t2,0x8000
    c3bc:	ffff0934 	li	t1,0xffff
    c3c0:	ff7f0b24 	li	t3,32767
    c3c4:	00110700 	sll	v0,a3,0x4
    c3c8:	21304400 	addu	a2,v0,a0
    c3cc:	40100700 	sll	v0,a3,0x1
    c3d0:	21104e00 	addu	v0,v0,t6
    c3d4:	ce454294 	lhu	v0,17870(v0)
    c3d8:	00000000 	nop
    c3dc:	40200200 	sll	a0,v0,0x1
    c3e0:	21208200 	addu	a0,a0,v0
    c3e4:	80200400 	sll	a0,a0,0x2
    c3e8:	21208d00 	addu	a0,a0,t5
    c3ec:	08008290 	lbu	v0,8(a0)
    c3f0:	00000000 	nop
    c3f4:	00130200 	sll	v0,v0,0xc
    c3f8:	2801a2ac 	sw	v0,296(a1)
    c3fc:	09008390 	lbu	v1,9(a0)
    c400:	0b008290 	lbu	v0,11(a0)
    c404:	001b0300 	sll	v1,v1,0xc
    c408:	80ff4224 	addiu	v0,v0,-128
    c40c:	c0110200 	sll	v0,v0,0x7
    c410:	21186200 	addu	v1,v1,v0
    c414:	2801a28c 	lw	v0,296(a1)
    c418:	2c01a3ac 	sw	v1,300(a1)
    c41c:	4802038d 	lw	v1,584(t0)
    c420:	0a008490 	lbu	a0,10(a0)
    c424:	0c02a0ac 	sw	zero,524(a1)
    c428:	23104300 	subu	v0,v0,v1
    c42c:	2801a2ac 	sw	v0,296(a1)
    c430:	ce020285 	lh	v0,718(t0)
    c434:	4c02038d 	lw	v1,588(t0)
    c438:	00230400 	sll	a0,a0,0xc
    c43c:	3001a4ac 	sw	a0,304(a1)
    c440:	d2020485 	lh	a0,722(t0)
    c444:	21186200 	addu	v1,v1,v0
    c448:	2c01a28c 	lw	v0,300(a1)
    c44c:	21186400 	addu	v1,v1,a0
    c450:	23104300 	subu	v0,v0,v1
    c454:	3001a38c 	lw	v1,304(a1)
    c458:	2c01a2ac 	sw	v0,300(a1)
    c45c:	5002048d 	lw	a0,592(t0)
    c460:	2801a28c 	lw	v0,296(a1)
    c464:	23186400 	subu	v1,v1,a0
    c468:	21104a00 	addu	v0,v0,t2
    c46c:	2b102201 	sltu	v0,t1,v0
    c470:	0b004014 	bnez	v0,0xc4a0
    c474:	3001a3ac 	sw	v1,304(a1)
    c478:	2c01a38c 	lw	v1,300(a1)
    c47c:	00000000 	nop
    c480:	2a106301 	slt	v0,t3,v1
    c484:	06004014 	bnez	v0,0xc4a0
    c488:	00806228 	slti	v0,v1,-32768
    c48c:	04004014 	bnez	v0,0xc4a0
    c490:	00000000 	nop
    c494:	3001a38c 	lw	v1,304(a1)
    c498:	42730008 	j	0x1cd08
    c49c:	2a106301 	slt	v0,t3,v1
    c4a0:	2801a28c 	lw	v0,296(a1)
    c4a4:	3001a38c 	lw	v1,304(a1)
    c4a8:	43100200 	sra	v0,v0,0x1
    c4ac:	2801a2ac 	sw	v0,296(a1)
    c4b0:	2c01a28c 	lw	v0,300(a1)
    c4b4:	43180300 	sra	v1,v1,0x1
    c4b8:	3001a3ac 	sw	v1,304(a1)
    c4bc:	0c02a38c 	lw	v1,524(a1)
    c4c0:	43100200 	sra	v0,v0,0x1
    c4c4:	2c01a2ac 	sw	v0,300(a1)
    c4c8:	2801a28c 	lw	v0,296(a1)
    c4cc:	01006324 	addiu	v1,v1,1
    c4d0:	21104a00 	addu	v0,v0,t2
    c4d4:	2b102201 	sltu	v0,t1,v0
    c4d8:	f1ff4014 	bnez	v0,0xc4a0
    c4dc:	0c02a3ac 	sw	v1,524(a1)
    c4e0:	2c01a38c 	lw	v1,300(a1)
    c4e4:	ff7f0424 	li	a0,32767
    c4e8:	2a108300 	slt	v0,a0,v1
    c4ec:	ecff4014 	bnez	v0,0xc4a0
    c4f0:	00806228 	slti	v0,v1,-32768
    c4f4:	eaff4014 	bnez	v0,0xc4a0
    c4f8:	00000000 	nop
    c4fc:	3001a38c 	lw	v1,304(a1)
    c500:	00000000 	nop
    c504:	2a108300 	slt	v0,a0,v1
    c508:	e5ff4014 	bnez	v0,0xc4a0
    c50c:	00806228 	slti	v0,v1,-32768
    c510:	e3ff4014 	bnez	v0,0xc4a0
    c514:	00000000 	nop
    c518:	2801a294 	lhu	v0,296(a1)
    c51c:	2c01a394 	lhu	v1,300(a1)
    c520:	3001a494 	lhu	a0,304(a1)
    c524:	2001a2a4 	sh	v0,288(a1)
    c528:	2001a224 	addiu	v0,a1,288
    c52c:	2201a3a4 	sh	v1,290(a1)
    c530:	2401a4a4 	sh	a0,292(a1)
    c534:	000040c8 	lwc2	$0,0(v0)
    c538:	040041c8 	lwc2	$1,4(v0)
	...
    c544:	1200484a 	c2	0x480012
    c548:	a800a224 	addiu	v0,a1,168
    c54c:	000059e8 	swc2	$25,0(v0)
    c550:	04005ae8 	swc2	$26,4(v0)
    c554:	08005be8 	swc2	$27,8(v0)
    c558:	5800a224 	addiu	v0,a1,88
    c55c:	00f84c48 	cfc2	t4,$31
    c560:	00000000 	nop
    c564:	00004cac 	sw	t4,0(v0)
    c568:	0c02a28c 	lw	v0,524(a1)
    c56c:	00000000 	nop
    c570:	0c00c2ac 	sw	v0,12(a2)
    c574:	0c02a38c 	lw	v1,524(a1)
    c578:	ffff0224 	li	v0,-1
    c57c:	ffff6324 	addiu	v1,v1,-1
    c580:	0f006210 	beq	v1,v0,0xc5c0
    c584:	0c02a3ac 	sw	v1,524(a1)
    c588:	21204000 	move	a0,v0
    c58c:	a800a28c 	lw	v0,168(a1)
    c590:	ac00a38c 	lw	v1,172(a1)
    c594:	40100200 	sll	v0,v0,0x1
    c598:	a800a2ac 	sw	v0,168(a1)
    c59c:	b000a28c 	lw	v0,176(a1)
    c5a0:	40180300 	sll	v1,v1,0x1
    c5a4:	ac00a3ac 	sw	v1,172(a1)
    c5a8:	0c02a38c 	lw	v1,524(a1)
    c5ac:	40100200 	sll	v0,v0,0x1
    c5b0:	ffff6324 	addiu	v1,v1,-1
    c5b4:	b000a2ac 	sw	v0,176(a1)
    c5b8:	f4ff6414 	bne	v1,a0,0xc58c
    c5bc:	0c02a3ac 	sw	v1,524(a1)
    c5c0:	a800a28c 	lw	v0,168(a1)
    c5c4:	00000000 	nop
    c5c8:	0000c2ac 	sw	v0,0(a2)
    c5cc:	ac00a28c 	lw	v0,172(a1)
    c5d0:	00000000 	nop
    c5d4:	0400c2ac 	sw	v0,4(a2)
    c5d8:	b000a28c 	lw	v0,176(a1)
    c5dc:	ffffe724 	addiu	a3,a3,-1
    c5e0:	0800c2ac 	sw	v0,8(a2)
    c5e4:	ffff0224 	li	v0,-1
    c5e8:	78ffe214 	bne	a3,v0,0xc3cc
    c5ec:	f0ffc624 	addiu	a2,a2,-16
    c5f0:	0800e003 	jr	ra
    c5f4:	00000000 	nop
    c5f8:	f0ffbd27 	addiu	sp,sp,-16
    c5fc:	0800b2af 	sw	s2,8(sp)
    c600:	21908000 	move	s2,a0
    c604:	1b80023c 	lui	v0,0x801b
    c608:	48594324 	addiu	v1,v0,22856
    c60c:	0c00b3af 	sw	s3,12(sp)
    c610:	0400b1af 	sw	s1,4(sp)
    c614:	0000b0af 	sw	s0,0(sp)
    c618:	cc446a94 	lhu	t2,17612(v1)
    c61c:	ffff0224 	li	v0,-1
    c620:	ffff4a25 	addiu	t2,t2,-1
    c624:	f8004211 	beq	t2,v0,0xca08
    c628:	801f083c 	lui	t0,0x1f80
    c62c:	21886000 	move	s1,v1
    c630:	1880023c 	lui	v0,0x8018
    c634:	d0be5024 	addiu	s0,v0,-16688
    c638:	1880023c 	lui	v0,0x8018
    c63c:	b8bd5924 	addiu	t9,v0,-16968
    c640:	ffff0f24 	li	t7,-1
    c644:	e10f1824 	li	t8,4065
    c648:	40100a00 	sll	v0,t2,0x1
    c64c:	21105100 	addu	v0,v0,s1
    c650:	ce454294 	lhu	v0,17870(v0)
    c654:	00000000 	nop
    c658:	40180200 	sll	v1,v0,0x1
    c65c:	21186200 	addu	v1,v1,v0
    c660:	80180300 	sll	v1,v1,0x2
    c664:	21187000 	addu	v1,v1,s0
    c668:	03006290 	lbu	v0,3(v1)
    c66c:	00000000 	nop
    c670:	03004230 	andi	v0,v0,0x3
    c674:	e40102ad 	sw	v0,484(t0)
    c678:	40110200 	sll	v0,v0,0x5
    c67c:	21105900 	addu	v0,v0,t9
    c680:	00004c8c 	lw	t4,0(v0)
    c684:	04004d8c 	lw	t5,4(v0)
    c688:	0000cc48 	ctc2	t4,$0
    c68c:	0008cd48 	ctc2	t5,$1
    c690:	08004c8c 	lw	t4,8(v0)
    c694:	0c004d8c 	lw	t5,12(v0)
    c698:	10004e8c 	lw	t6,16(v0)
    c69c:	0010cc48 	ctc2	t4,$2
    c6a0:	0018cd48 	ctc2	t5,$3
    c6a4:	0020ce48 	ctc2	t6,$4
    c6a8:	00110a00 	sll	v0,t2,0x4
    c6ac:	21104202 	addu	v0,s2,v0
    c6b0:	00004c8c 	lw	t4,0(v0)
    c6b4:	04004d8c 	lw	t5,4(v0)
    c6b8:	08004e8c 	lw	t6,8(v0)
    c6bc:	0028cc48 	ctc2	t4,$5
    c6c0:	0030cd48 	ctc2	t5,$6
    c6c4:	0038ce48 	ctc2	t6,$7
    c6c8:	00006390 	lbu	v1,0(v1)
    c6cc:	00000000 	nop
    c6d0:	80100300 	sll	v0,v1,0x2
    c6d4:	21104300 	addu	v0,v0,v1
    c6d8:	c0100200 	sll	v0,v0,0x3
    c6dc:	0c00038d 	lw	v1,12(t0)
    c6e0:	0c004224 	addiu	v0,v0,12
    c6e4:	21186200 	addu	v1,v1,v0
    c6e8:	200003ad 	sw	v1,32(t0)
    c6ec:	0000628c 	lw	v0,0(v1)
    c6f0:	0c00038d 	lw	v1,12(t0)
    c6f4:	2000048d 	lw	a0,32(t0)
    c6f8:	0c004224 	addiu	v0,v0,12
    c6fc:	21186200 	addu	v1,v1,v0
    c700:	3400028d 	lw	v0,52(t0)
    c704:	3c0003ad 	sw	v1,60(t0)
    c708:	400003ad 	sw	v1,64(t0)
    c70c:	380002ad 	sw	v0,56(t0)
    c710:	0400838c 	lw	v1,4(a0)
    c714:	aaaa023c 	lui	v0,0xaaaa
    c718:	abaa4234 	ori	v0,v0,0xaaab
    c71c:	19006200 	multu	v1,v0
    c720:	3400078d 	lw	a3,52(t0)
    c724:	3c00098d 	lw	t1,60(t0)
    c728:	10980000 	mfhi	s3
    c72c:	42301300 	srl	a2,s3,0x1
    c730:	ffffc624 	addiu	a2,a2,-1
    c734:	6800cf10 	beq	a2,t7,0xc8d8
    c738:	00000000 	nop
    c73c:	1600e524 	addiu	a1,a3,22
    c740:	000020c9 	lwc2	$0,0(t1)
    c744:	040021c9 	lwc2	$1,4(t1)
    c748:	080022c9 	lwc2	$2,8(t1)
    c74c:	0c0023c9 	lwc2	$3,12(t1)
    c750:	100024c9 	lwc2	$4,16(t1)
    c754:	140025c9 	lwc2	$5,20(t1)
	...
    c760:	3000284a 	c2	0x280030
    c764:	0800e324 	addiu	v1,a3,8
    c768:	1000e224 	addiu	v0,a3,16
    c76c:	0000ece8 	swc2	$12,0(a3)
    c770:	00006de8 	swc2	$13,0(v1)
    c774:	00004ee8 	swc2	$14,0(v0)
    c778:	0400e424 	addiu	a0,a3,4
    c77c:	0c00e324 	addiu	v1,a3,12
    c780:	1400e224 	addiu	v0,a3,20
    c784:	000091e8 	swc2	$17,0(a0)
    c788:	000072e8 	swc2	$18,0(v1)
    c78c:	000053e8 	swc2	$19,0(v0)
    c790:	6400048d 	lw	a0,100(t0)
    c794:	6800028d 	lw	v0,104(t0)
    c798:	00000000 	nop
    c79c:	37008210 	beq	a0,v0,0xc87c
    c7a0:	23104400 	subu	v0,v0,a0
    c7a4:	eeffa384 	lh	v1,-18(a1)
    c7a8:	00000000 	nop
    c7ac:	23186400 	subu	v1,v1,a0
    c7b0:	001b0300 	sll	v1,v1,0xc
    c7b4:	1a006200 	div	zero,v1,v0
    c7b8:	02004014 	bnez	v0,0xc7c4
    c7bc:	00000000 	nop
    c7c0:	0d000700 	break	0x7
    c7c4:	ffff0124 	li	at,-1
    c7c8:	04004114 	bne	v0,at,0xc7dc
    c7cc:	0080013c 	lui	at,0x8000
    c7d0:	02006114 	bne	v1,at,0xc7dc
    c7d4:	00000000 	nop
    c7d8:	0d000600 	break	0x6
    c7dc:	12180000 	mflo	v1
    c7e0:	f6ffa284 	lh	v0,-10(a1)
    c7e4:	f0ffa3a4 	sh	v1,-16(a1)
    c7e8:	6400048d 	lw	a0,100(t0)
    c7ec:	6800038d 	lw	v1,104(t0)
    c7f0:	23104400 	subu	v0,v0,a0
    c7f4:	00130200 	sll	v0,v0,0xc
    c7f8:	23186400 	subu	v1,v1,a0
    c7fc:	1a004300 	div	zero,v0,v1
    c800:	02006014 	bnez	v1,0xc80c
    c804:	00000000 	nop
    c808:	0d000700 	break	0x7
    c80c:	ffff0124 	li	at,-1
    c810:	04006114 	bne	v1,at,0xc824
    c814:	0080013c 	lui	at,0x8000
    c818:	02004114 	bne	v0,at,0xc824
    c81c:	00000000 	nop
    c820:	0d000600 	break	0x6
    c824:	12100000 	mflo	v0
    c828:	00000000 	nop
    c82c:	f8ffa2a4 	sh	v0,-8(a1)
    c830:	feffa284 	lh	v0,-2(a1)
    c834:	6400048d 	lw	a0,100(t0)
    c838:	6800038d 	lw	v1,104(t0)
    c83c:	23104400 	subu	v0,v0,a0
    c840:	00130200 	sll	v0,v0,0xc
    c844:	23186400 	subu	v1,v1,a0
    c848:	1a004300 	div	zero,v0,v1
    c84c:	02006014 	bnez	v1,0xc858
    c850:	00000000 	nop
    c854:	0d000700 	break	0x7
    c858:	ffff0124 	li	at,-1
    c85c:	04006114 	bne	v1,at,0xc870
    c860:	0080013c 	lui	at,0x8000
    c864:	02004114 	bne	v0,at,0xc870
    c868:	00000000 	nop
    c86c:	0d000600 	break	0x6
    c870:	12100000 	mflo	v0
    c874:	22740008 	j	0x1d088
    c878:	0000a2a4 	sh	v0,0(a1)
    c87c:	f0ffa0a4 	sh	zero,-16(a1)
    c880:	f8ffa0a4 	sh	zero,-8(a1)
    c884:	0000a0a4 	sh	zero,0(a1)
    c888:	f0ffa284 	lh	v0,-16(a1)
    c88c:	00000000 	nop
    c890:	02004104 	bgez	v0,0xc89c
    c894:	00000000 	nop
    c898:	f0ffa0a4 	sh	zero,-16(a1)
    c89c:	f8ffa284 	lh	v0,-8(a1)
    c8a0:	00000000 	nop
    c8a4:	02004104 	bgez	v0,0xc8b0
    c8a8:	00000000 	nop
    c8ac:	f8ffa0a4 	sh	zero,-8(a1)
    c8b0:	0000a284 	lh	v0,0(a1)
    c8b4:	00000000 	nop
    c8b8:	02004104 	bgez	v0,0xc8c4
    c8bc:	00000000 	nop
    c8c0:	0000a0a4 	sh	zero,0(a1)
    c8c4:	1800a524 	addiu	a1,a1,24
    c8c8:	1800e724 	addiu	a3,a3,24
    c8cc:	ffffc624 	addiu	a2,a2,-1
    c8d0:	9bffcf14 	bne	a2,t7,0xc740
    c8d4:	18002925 	addiu	t1,t1,24
    c8d8:	2000028d 	lw	v0,32(t0)
    c8dc:	00000000 	nop
    c8e0:	0400438c 	lw	v1,4(v0)
    c8e4:	aaaa023c 	lui	v0,0xaaaa
    c8e8:	abaa4234 	ori	v0,v0,0xaaab
    c8ec:	19006200 	multu	v1,v0
    c8f0:	10980000 	mfhi	s3
    c8f4:	42301300 	srl	a2,s3,0x1
    c8f8:	40100600 	sll	v0,a2,0x1
    c8fc:	21104600 	addu	v0,v0,a2
    c900:	23306200 	subu	a2,v1,v0
    c904:	ffffc624 	addiu	a2,a2,-1
    c908:	3200cf10 	beq	a2,t7,0xc9d4
    c90c:	00000000 	nop
    c910:	ffff0b24 	li	t3,-1
    c914:	0600e524 	addiu	a1,a3,6
    c918:	000020c9 	lwc2	$0,0(t1)
    c91c:	040021c9 	lwc2	$1,4(t1)
	...
    c928:	0100184a 	c2	0x180001
    c92c:	0000eee8 	swc2	$14,0(a3)
    c930:	0400e224 	addiu	v0,a3,4
    c934:	000053e8 	swc2	$19,0(v0)
    c938:	6400048d 	lw	a0,100(t0)
    c93c:	6800028d 	lw	v0,104(t0)
    c940:	00000000 	nop
    c944:	12008210 	beq	a0,v0,0xc990
    c948:	23104400 	subu	v0,v0,a0
    c94c:	feffa384 	lh	v1,-2(a1)
    c950:	00000000 	nop
    c954:	23186400 	subu	v1,v1,a0
    c958:	001b0300 	sll	v1,v1,0xc
    c95c:	1a006200 	div	zero,v1,v0
    c960:	02004014 	bnez	v0,0xc96c
    c964:	00000000 	nop
    c968:	0d000700 	break	0x7
    c96c:	ffff0124 	li	at,-1
    c970:	04004114 	bne	v0,at,0xc984
    c974:	0080013c 	lui	at,0x8000
    c978:	02006114 	bne	v1,at,0xc984
    c97c:	00000000 	nop
    c980:	0d000600 	break	0x6
    c984:	12180000 	mflo	v1
    c988:	65740008 	j	0x1d194
    c98c:	0000a3a4 	sh	v1,0(a1)
    c990:	0000a0a4 	sh	zero,0(a1)
    c994:	0000a284 	lh	v0,0(a1)
    c998:	00000000 	nop
    c99c:	e20f4228 	slti	v0,v0,4066
    c9a0:	02004014 	bnez	v0,0xc9ac
    c9a4:	00000000 	nop
    c9a8:	0000b8a4 	sh	t8,0(a1)
    c9ac:	0000a284 	lh	v0,0(a1)
    c9b0:	00000000 	nop
    c9b4:	02004104 	bgez	v0,0xc9c0
    c9b8:	00000000 	nop
    c9bc:	0000a0a4 	sh	zero,0(a1)
    c9c0:	0800a524 	addiu	a1,a1,8
    c9c4:	0800e724 	addiu	a3,a3,8
    c9c8:	ffffc624 	addiu	a2,a2,-1
    c9cc:	d2ffcb14 	bne	a2,t3,0xc918
    c9d0:	08002925 	addiu	t1,t1,8
    c9d4:	ffff4a25 	addiu	t2,t2,-1
    c9d8:	2000038d 	lw	v1,32(t0)
    c9dc:	b001028d 	lw	v0,432(t0)
    c9e0:	0400638c 	lw	v1,4(v1)
    c9e4:	2000048d 	lw	a0,32(t0)
    c9e8:	21104300 	addu	v0,v0,v1
    c9ec:	b00102ad 	sw	v0,432(t0)
    c9f0:	0400828c 	lw	v0,4(a0)
    c9f4:	3400038d 	lw	v1,52(t0)
    c9f8:	c0100200 	sll	v0,v0,0x3
    c9fc:	21186200 	addu	v1,v1,v0
    ca00:	11ff4f15 	bne	t2,t7,0xc648
    ca04:	340003ad 	sw	v1,52(t0)
    ca08:	0c00b38f 	lw	s3,12(sp)
    ca0c:	0800b28f 	lw	s2,8(sp)
    ca10:	0400b18f 	lw	s1,4(sp)
    ca14:	0000b08f 	lw	s0,0(sp)
    ca18:	1000bd27 	addiu	sp,sp,16
    ca1c:	0800e003 	jr	ra
    ca20:	00000000 	nop
    ca24:	21288000 	move	a1,a0
    ca28:	0200a290 	lbu	v0,2(a1)
    ca2c:	00000000 	nop
    ca30:	5600422c 	sltiu	v0,v0,86
    ca34:	02004014 	bnez	v0,0xca40
    ca38:	55000224 	li	v0,85
    ca3c:	0200a2a0 	sb	v0,2(a1)
    ca40:	0200a290 	lbu	v0,2(a1)
    ca44:	00000000 	nop
    ca48:	40180200 	sll	v1,v0,0x1
    ca4c:	21204000 	move	a0,v0
    ca50:	21186200 	addu	v1,v1,v0
    ca54:	40200400 	sll	a0,a0,0x1
    ca58:	0000a3a0 	sb	v1,0(a1)
    ca5c:	0800e003 	jr	ra
    ca60:	0100a4a0 	sb	a0,1(a1)
    ca64:	21288000 	move	a1,a0
    ca68:	0000a290 	lbu	v0,0(a1)
    ca6c:	00000000 	nop
    ca70:	5600422c 	sltiu	v0,v0,86
    ca74:	02004014 	bnez	v0,0xca80
    ca78:	55000224 	li	v0,85
    ca7c:	0000a2a0 	sb	v0,0(a1)
    ca80:	0000a390 	lbu	v1,0(a1)
    ca84:	00000000 	nop
    ca88:	40100300 	sll	v0,v1,0x1
    ca8c:	21206000 	move	a0,v1
    ca90:	21104300 	addu	v0,v0,v1
    ca94:	0200a2a0 	sb	v0,2(a1)
    ca98:	40100400 	sll	v0,a0,0x1
    ca9c:	21104400 	addu	v0,v0,a0
    caa0:	0800e003 	jr	ra
    caa4:	0100a2a0 	sb	v0,1(a1)
    caa8:	a0fdbd27 	addiu	sp,sp,-608
    caac:	5802beaf 	sw	s8,600(sp)
    cab0:	21f00000 	move	s8,zero
    cab4:	0100033c 	lui	v1,0x1
    cab8:	1c80023c 	lui	v0,0x801c
    cabc:	149e4294 	lhu	v0,-25068(v0)
    cac0:	00806334 	ori	v1,v1,0x8000
    cac4:	5c02bfaf 	sw	ra,604(sp)
    cac8:	5402b7af 	sw	s7,596(sp)
    cacc:	5002b6af 	sw	s6,592(sp)
    cad0:	4c02b5af 	sw	s5,588(sp)
    cad4:	4802b4af 	sw	s4,584(sp)
    cad8:	4402b3af 	sw	s3,580(sp)
    cadc:	4002b2af 	sw	s2,576(sp)
    cae0:	3c02b1af 	sw	s1,572(sp)
    cae4:	3802b0af 	sw	s0,568(sp)
    cae8:	6002a4af 	sw	a0,608(sp)
    caec:	2802a2af 	sw	v0,552(sp)
    caf0:	1680023c 	lui	v0,0x8016
    caf4:	90d04224 	addiu	v0,v0,-12144
    caf8:	21104300 	addu	v0,v0,v1
    cafc:	fc6d4390 	lbu	v1,28156(v0)
    cb00:	00000000 	nop
    cb04:	02006230 	andi	v0,v1,0x2
    cb08:	04004010 	beqz	v0,0xcb1c
    cb0c:	801f113c 	lui	s1,0x1f80
    cb10:	0280023c 	lui	v0,0x8002
    cb14:	cb740008 	j	0x1d32c
    cb18:	24d25e24 	addiu	s8,v0,-11740
    cb1c:	04006230 	andi	v0,v1,0x4
    cb20:	02004010 	beqz	v0,0xcb2c
    cb24:	0280023c 	lui	v0,0x8002
    cb28:	64d25e24 	addiu	s8,v0,-11676
    cb2c:	2802a78f 	lw	a3,552(sp)
    cb30:	ffff0224 	li	v0,-1
    cb34:	ffffe724 	addiu	a3,a3,-1
    cb38:	dc01e210 	beq	a3,v0,0xd2ac
    cb3c:	2802a7af 	sw	a3,552(sp)
    cb40:	3400a827 	addiu	t0,sp,52
    cb44:	4c00a927 	addiu	t1,sp,76
    cb48:	6400a727 	addiu	a3,sp,100
    cb4c:	2c02a8af 	sw	t0,556(sp)
    cb50:	3002a9af 	sw	t1,560(sp)
    cb54:	3402a7af 	sw	a3,564(sp)
    cb58:	1b80033c 	lui	v1,0x801b
    cb5c:	2802a88f 	lw	t0,552(sp)
    cb60:	48596324 	addiu	v1,v1,22856
    cb64:	40100800 	sll	v0,t0,0x1
    cb68:	21104300 	addu	v0,v0,v1
    cb6c:	ce454294 	lhu	v0,17870(v0)
    cb70:	00000000 	nop
    cb74:	40180200 	sll	v1,v0,0x1
    cb78:	21186200 	addu	v1,v1,v0
    cb7c:	80180300 	sll	v1,v1,0x2
    cb80:	1880023c 	lui	v0,0x8018
    cb84:	d0be4224 	addiu	v0,v0,-16688
    cb88:	21206200 	addu	a0,v1,v0
    cb8c:	04008290 	lbu	v0,4(a0)
    cb90:	00000000 	nop
    cb94:	03004230 	andi	v0,v0,0x3
    cb98:	0d004014 	bnez	v0,0xcbd0
    cb9c:	00000000 	nop
    cba0:	00008390 	lbu	v1,0(a0)
    cba4:	00000000 	nop
    cba8:	80100300 	sll	v0,v1,0x2
    cbac:	21104300 	addu	v0,v0,v1
    cbb0:	c0100200 	sll	v0,v0,0x3
    cbb4:	0c00238e 	lw	v1,12(s1)
    cbb8:	0c004224 	addiu	v0,v0,12
    cbbc:	21186200 	addu	v1,v1,v0
    cbc0:	200023ae 	sw	v1,32(s1)
    cbc4:	0400628c 	lw	v0,4(v1)
    cbc8:	a2760008 	j	0x1da88
    cbcc:	00000000 	nop
    cbd0:	03008290 	lbu	v0,3(a0)
    cbd4:	00000000 	nop
    cbd8:	03004230 	andi	v0,v0,0x3
    cbdc:	80180200 	sll	v1,v0,0x2
    cbe0:	21186200 	addu	v1,v1,v0
    cbe4:	e40122ae 	sw	v0,484(s1)
    cbe8:	c403228e 	lw	v0,964(s1)
    cbec:	80180300 	sll	v1,v1,0x2
    cbf0:	21104300 	addu	v0,v0,v1
    cbf4:	00004c8c 	lw	t4,0(v0)
    cbf8:	04004d8c 	lw	t5,4(v0)
    cbfc:	0040cc48 	ctc2	t4,$8
    cc00:	0048cd48 	ctc2	t5,$9
    cc04:	08004c8c 	lw	t4,8(v0)
    cc08:	0c004d8c 	lw	t5,12(v0)
    cc0c:	10004e8c 	lw	t6,16(v0)
    cc10:	0050cc48 	ctc2	t4,$10
    cc14:	0058cd48 	ctc2	t5,$11
    cc18:	0060ce48 	ctc2	t6,$12
    cc1c:	00008390 	lbu	v1,0(a0)
    cc20:	00000000 	nop
    cc24:	80100300 	sll	v0,v1,0x2
    cc28:	21104300 	addu	v0,v0,v1
    cc2c:	c0100200 	sll	v0,v0,0x3
    cc30:	0c00238e 	lw	v1,12(s1)
    cc34:	0c004224 	addiu	v0,v0,12
    cc38:	21186200 	addu	v1,v1,v0
    cc3c:	200023ae 	sw	v1,32(s1)
    cc40:	0000638c 	lw	v1,0(v1)
    cc44:	0c00228e 	lw	v0,12(s1)
    cc48:	2000248e 	lw	a0,32(s1)
    cc4c:	0c006324 	addiu	v1,v1,12
    cc50:	21104300 	addu	v0,v0,v1
    cc54:	3c0022ae 	sw	v0,60(s1)
    cc58:	0800838c 	lw	v1,8(a0)
    cc5c:	0c00228e 	lw	v0,12(s1)
    cc60:	0c006324 	addiu	v1,v1,12
    cc64:	21104300 	addu	v0,v0,v1
    cc68:	240022ae 	sw	v0,36(s1)
    cc6c:	1000828c 	lw	v0,16(a0)
    cc70:	18009794 	lhu	s7,24(a0)
    cc74:	0c00248e 	lw	a0,12(s1)
    cc78:	b401238e 	lw	v1,436(s1)
    cc7c:	0c004224 	addiu	v0,v0,12
    cc80:	21a08200 	addu	s4,a0,v0
    cc84:	21187700 	addu	v1,v1,s7
    cc88:	2110e002 	move	v0,s7
    cc8c:	fffff726 	addiu	s7,s7,-1
    cc90:	7a014010 	beqz	v0,0xd27c
    cc94:	b40123ae 	sw	v1,436(s1)
    cc98:	08009226 	addiu	s2,s4,8
    cc9c:	06004396 	lhu	v1,6(s2)
    cca0:	3400228e 	lw	v0,52(s1)
    cca4:	0a004496 	lhu	a0,10(s2)
    cca8:	21b04300 	addu	s6,v0,v1
    ccac:	21a84400 	addu	s5,v0,a0
    ccb0:	08004396 	lhu	v1,8(s2)
    ccb4:	0000c98e 	lw	t1,0(s6)
    ccb8:	0000a88e 	lw	t0,0(s5)
    ccbc:	21984300 	addu	s3,v0,v1
    ccc0:	0000678e 	lw	a3,0(s3)
    ccc4:	00608948 	mtc2	t1,$12
    ccc8:	00708848 	mtc2	t0,$14
    cccc:	00688748 	mtc2	a3,$13
	...
    ccd8:	0600404b 	c2	0x1400006
    ccdc:	03004292 	lbu	v0,3(s2)
    cce0:	00000000 	nop
    cce4:	34004234 	ori	v0,v0,0x34
    cce8:	470022a2 	sb	v0,71(s1)
    ccec:	70002226 	addiu	v0,s1,112
    ccf0:	000058e8 	swc2	$24,0(v0)
    ccf4:	7000228e 	lw	v0,112(s1)
    ccf8:	00000000 	nop
    ccfc:	5a014018 	blez	v0,0xd268
    cd00:	00000000 	nop
    cd04:	1000298e 	lw	t1,16(s1)
    cd08:	00000000 	nop
    cd0c:	08002ce9 	swc2	$12,8(t1)
    cd10:	14002de9 	swc2	$13,20(t1)
    cd14:	20002ee9 	swc2	$14,32(t1)
    cd18:	0400c286 	lh	v0,4(s6)
    cd1c:	00000000 	nop
    cd20:	840022ae 	sw	v0,132(s1)
    cd24:	800022ae 	sw	v0,128(s1)
    cd28:	04006386 	lh	v1,4(s3)
    cd2c:	00000000 	nop
    cd30:	2a104300 	slt	v0,v0,v1
    cd34:	03004010 	beqz	v0,0xcd44
    cd38:	00000000 	nop
    cd3c:	840023ae 	sw	v1,132(s1)
    cd40:	04006386 	lh	v1,4(s3)
    cd44:	8000228e 	lw	v0,128(s1)
    cd48:	00000000 	nop
    cd4c:	2a106200 	slt	v0,v1,v0
    cd50:	02004010 	beqz	v0,0xcd5c
    cd54:	00000000 	nop
    cd58:	800023ae 	sw	v1,128(s1)
    cd5c:	0400a386 	lh	v1,4(s5)
    cd60:	8400228e 	lw	v0,132(s1)
    cd64:	00000000 	nop
    cd68:	2a104300 	slt	v0,v0,v1
    cd6c:	03004010 	beqz	v0,0xcd7c
    cd70:	00000000 	nop
    cd74:	840023ae 	sw	v1,132(s1)
    cd78:	0400a386 	lh	v1,4(s5)
    cd7c:	8000228e 	lw	v0,128(s1)
    cd80:	00000000 	nop
    cd84:	2a106200 	slt	v0,v1,v0
    cd88:	02004010 	beqz	v0,0xcd94
    cd8c:	00000000 	nop
    cd90:	800023ae 	sw	v1,128(s1)
    cd94:	8400228e 	lw	v0,132(s1)
    cd98:	02004382 	lb	v1,2(s2)
    cd9c:	43110200 	sra	v0,v0,0x5
    cda0:	21184300 	addu	v1,v0,v1
    cda4:	00106228 	slti	v0,v1,4096
    cda8:	2f014010 	beqz	v0,0xd268
    cdac:	880023ae 	sw	v1,136(s1)
    cdb0:	8c00228e 	lw	v0,140(s1)
    cdb4:	00000000 	nop
    cdb8:	2a106200 	slt	v0,v1,v0
    cdbc:	2a014014 	bnez	v0,0xd268
    cdc0:	00000000 	nop
    cdc4:	7000228e 	lw	v0,112(s1)
    cdc8:	00000000 	nop
    cdcc:	01404228 	slti	v0,v0,16385
    cdd0:	cc004014 	bnez	v0,0xd104
    cdd4:	01000224 	li	v0,1
    cdd8:	1000a2af 	sw	v0,16(sp)
    cddc:	7000238e 	lw	v1,112(s1)
    cde0:	00800234 	li	v0,0x8000
    cde4:	2a104300 	slt	v0,v0,v1
    cde8:	08004010 	beqz	v0,0xce0c
    cdec:	02000224 	li	v0,2
    cdf0:	1000a2af 	sw	v0,16(sp)
    cdf4:	7000238e 	lw	v1,112(s1)
    cdf8:	0100023c 	lui	v0,0x1
    cdfc:	2a104300 	slt	v0,v0,v1
    ce00:	02004010 	beqz	v0,0xce0c
    ce04:	03000224 	li	v0,3
    ce08:	1000a2af 	sw	v0,16(sp)
    ce0c:	40010224 	li	v0,320
    ce10:	1400a2af 	sw	v0,20(sp)
    ce14:	f0000224 	li	v0,240
    ce18:	1800a2af 	sw	v0,24(sp)
    ce1c:	faff4296 	lhu	v0,-6(s2)
    ce20:	00000000 	nop
    ce24:	1c00a2a7 	sh	v0,28(sp)
    ce28:	feff4296 	lhu	v0,-2(s2)
    ce2c:	00000000 	nop
    ce30:	1e00a2a7 	sh	v0,30(sp)
    ce34:	04004396 	lhu	v1,4(s2)
    ce38:	2400228e 	lw	v0,36(s1)
    ce3c:	00000000 	nop
    ce40:	21104300 	addu	v0,v0,v1
    ce44:	000040c8 	lwc2	$0,0(v0)
    ce48:	040041c8 	lwc2	$1,4(v0)
    ce4c:	44002226 	addiu	v0,s1,68
    ce50:	000046c8 	lwc2	$6,0(v0)
	...
    ce5c:	1b04084b 	c2	0x108041b
    ce60:	2c002226 	addiu	v0,s1,44
    ce64:	000056e8 	swc2	$22,0(v0)
    ce68:	000046c8 	lwc2	$6,0(v0)
    ce6c:	0600c796 	lhu	a3,6(s6)
    ce70:	00000000 	nop
    ce74:	00408748 	mtc2	a3,$8
	...
    ce80:	1000784a 	c2	0x780010
    ce84:	2c02a88f 	lw	t0,556(sp)
    ce88:	00000000 	nop
    ce8c:	000016e9 	swc2	$22,0(t0)
    ce90:	06006996 	lhu	t1,6(s3)
    ce94:	00000000 	nop
    ce98:	00408948 	mtc2	t1,$8
	...
    cea4:	1000784a 	c2	0x780010
    cea8:	3002a78f 	lw	a3,560(sp)
    ceac:	00000000 	nop
    ceb0:	0000f6e8 	swc2	$22,0(a3)
    ceb4:	0600a896 	lhu	t0,6(s5)
    ceb8:	00000000 	nop
    cebc:	00408848 	mtc2	t0,$8
	...
    cec8:	1000784a 	c2	0x780010
    cecc:	3402a98f 	lw	t1,564(sp)
    ced0:	00000000 	nop
    ced4:	000036e9 	swc2	$22,0(t1)
    ced8:	0100023c 	lui	v0,0x1
    cedc:	00804234 	ori	v0,v0,0x8000
    cee0:	1680073c 	lui	a3,0x8016
    cee4:	90d0e724 	addiu	a3,a3,-12144
    cee8:	2180e200 	addu	s0,a3,v0
    ceec:	fc6d0292 	lbu	v0,28156(s0)
    cef0:	00000000 	nop
    cef4:	06004230 	andi	v0,v0,0x6
    cef8:	0a004010 	beqz	v0,0xcf24
    cefc:	00000000 	nop
    cf00:	2c02a48f 	lw	a0,556(sp)
    cf04:	09f8c003 	jalr	s8
    cf08:	00000000 	nop
    cf0c:	3002a48f 	lw	a0,560(sp)
    cf10:	09f8c003 	jalr	s8
    cf14:	00000000 	nop
    cf18:	3402a48f 	lw	a0,564(sp)
    cf1c:	09f8c003 	jalr	s8
    cf20:	00000000 	nop
    cf24:	e401228e 	lw	v0,484(s1)
    cf28:	286d0326 	addiu	v1,s0,27944
    cf2c:	40110200 	sll	v0,v0,0x5
    cf30:	21104300 	addu	v0,v0,v1
    cf34:	00004c8c 	lw	t4,0(v0)
    cf38:	04004d8c 	lw	t5,4(v0)
    cf3c:	0000cc48 	ctc2	t4,$0
    cf40:	0008cd48 	ctc2	t5,$1
    cf44:	08004c8c 	lw	t4,8(v0)
    cf48:	0c004d8c 	lw	t5,12(v0)
    cf4c:	10004e8c 	lw	t6,16(v0)
    cf50:	0010cc48 	ctc2	t4,$2
    cf54:	0018cd48 	ctc2	t5,$3
    cf58:	0020ce48 	ctc2	t6,$4
    cf5c:	2802a88f 	lw	t0,552(sp)
    cf60:	6002a98f 	lw	t1,608(sp)
    cf64:	00110800 	sll	v0,t0,0x4
    cf68:	21102201 	addu	v0,t1,v0
    cf6c:	00004c8c 	lw	t4,0(v0)
    cf70:	04004d8c 	lw	t5,4(v0)
    cf74:	08004e8c 	lw	t6,8(v0)
    cf78:	0028cc48 	ctc2	t4,$5
    cf7c:	0030cd48 	ctc2	t5,$6
    cf80:	0038ce48 	ctc2	t6,$7
    cf84:	4700228a 	lwl	v0,71(s1)
    cf88:	4400229a 	lwr	v0,68(s1)
    cf8c:	00000000 	nop
    cf90:	2300a2ab 	swl	v0,35(sp)
    cf94:	2000a2bb 	swr	v0,32(sp)
    cf98:	2800a227 	addiu	v0,sp,40
    cf9c:	b800a2af 	sw	v0,184(sp)
    cfa0:	4000a227 	addiu	v0,sp,64
    cfa4:	bc00a2af 	sw	v0,188(sp)
    cfa8:	5800a227 	addiu	v0,sp,88
    cfac:	c000a2af 	sw	v0,192(sp)
    cfb0:	8800228e 	lw	v0,136(s1)
    cfb4:	0000238e 	lw	v1,0(s1)
    cfb8:	80100200 	sll	v0,v0,0x2
    cfbc:	21186200 	addu	v1,v1,v0
    cfc0:	2400a3af 	sw	v1,36(sp)
    cfc4:	0300c28a 	lwl	v0,3(s6)
    cfc8:	0000c29a 	lwr	v0,0(s6)
    cfcc:	00000000 	nop
    cfd0:	3b00a2ab 	swl	v0,59(sp)
    cfd4:	3800a2bb 	swr	v0,56(sp)
    cfd8:	0300628a 	lwl	v0,3(s3)
    cfdc:	0000629a 	lwr	v0,0(s3)
    cfe0:	00000000 	nop
    cfe4:	5300a2ab 	swl	v0,83(sp)
    cfe8:	5000a2bb 	swr	v0,80(sp)
    cfec:	0300a28a 	lwl	v0,3(s5)
    cff0:	0000a29a 	lwr	v0,0(s5)
    cff4:	00000000 	nop
    cff8:	6b00a2ab 	swl	v0,107(sp)
    cffc:	6800a2bb 	swr	v0,104(sp)
    d000:	0400c286 	lh	v0,4(s6)
    d004:	00000000 	nop
    d008:	3c00a2af 	sw	v0,60(sp)
    d00c:	04006286 	lh	v0,4(s3)
    d010:	00000000 	nop
    d014:	5400a2af 	sw	v0,84(sp)
    d018:	0400a286 	lh	v0,4(s5)
    d01c:	00000000 	nop
    d020:	6c00a2af 	sw	v0,108(sp)
    d024:	06004396 	lhu	v1,6(s2)
    d028:	3c00228e 	lw	v0,60(s1)
    d02c:	00000000 	nop
    d030:	21104300 	addu	v0,v0,v1
    d034:	03004388 	lwl	v1,3(v0)
    d038:	00004398 	lwr	v1,0(v0)
    d03c:	07004488 	lwl	a0,7(v0)
    d040:	04004498 	lwr	a0,4(v0)
    d044:	2b00a3ab 	swl	v1,43(sp)
    d048:	2800a3bb 	swr	v1,40(sp)
    d04c:	2f00a4ab 	swl	a0,47(sp)
    d050:	2c00a4bb 	swr	a0,44(sp)
    d054:	08004396 	lhu	v1,8(s2)
    d058:	3c00228e 	lw	v0,60(s1)
    d05c:	00000000 	nop
    d060:	21104300 	addu	v0,v0,v1
    d064:	03004388 	lwl	v1,3(v0)
    d068:	00004398 	lwr	v1,0(v0)
    d06c:	07004488 	lwl	a0,7(v0)
    d070:	04004498 	lwr	a0,4(v0)
    d074:	4300a3ab 	swl	v1,67(sp)
    d078:	4000a3bb 	swr	v1,64(sp)
    d07c:	4700a4ab 	swl	a0,71(sp)
    d080:	4400a4bb 	swr	a0,68(sp)
    d084:	0a004396 	lhu	v1,10(s2)
    d088:	3c00228e 	lw	v0,60(s1)
    d08c:	00000000 	nop
    d090:	21104300 	addu	v0,v0,v1
    d094:	03004388 	lwl	v1,3(v0)
    d098:	00004398 	lwr	v1,0(v0)
    d09c:	07004488 	lwl	a0,7(v0)
    d0a0:	04004498 	lwr	a0,4(v0)
    d0a4:	5b00a3ab 	swl	v1,91(sp)
    d0a8:	5800a3bb 	swr	v1,88(sp)
    d0ac:	5f00a4ab 	swl	a0,95(sp)
    d0b0:	5c00a4bb 	swr	a0,92(sp)
    d0b4:	0000828e 	lw	v0,0(s4)
    d0b8:	14009426 	addiu	s4,s4,20
    d0bc:	3000a2af 	sw	v0,48(sp)
    d0c0:	1000248e 	lw	a0,16(s1)
    d0c4:	fcff428e 	lw	v0,-4(s2)
    d0c8:	1000a527 	addiu	a1,sp,16
    d0cc:	4800a2af 	sw	v0,72(sp)
    d0d0:	0000428e 	lw	v0,0(s2)
    d0d4:	14005226 	addiu	s2,s2,20
    d0d8:	b1d7010c 	jal	0x75ec4
    d0dc:	6000a2af 	sw	v0,96(sp)
    d0e0:	100022ae 	sw	v0,16(s1)
    d0e4:	01000224 	li	v0,1
    d0e8:	1000a48f 	lw	a0,16(sp)
    d0ec:	c001238e 	lw	v1,448(s1)
    d0f0:	04108200 	sllv	v0,v0,a0
    d0f4:	04108200 	sllv	v0,v0,a0
    d0f8:	21186200 	addu	v1,v1,v0
    d0fc:	9c760008 	j	0x1da70
    d100:	c00123ae 	sw	v1,448(s1)
    d104:	1000258e 	lw	a1,16(s1)
    d108:	1400228e 	lw	v0,20(s1)
    d10c:	2800a324 	addiu	v1,a1,40
    d110:	2b104300 	sltu	v0,v0,v1
    d114:	65004014 	bnez	v0,0xd2ac
    d118:	00000000 	nop
    d11c:	bc01228e 	lw	v0,444(s1)
    d120:	100023ae 	sw	v1,16(s1)
    d124:	01004224 	addiu	v0,v0,1
    d128:	bc0122ae 	sw	v0,444(s1)
    d12c:	04004396 	lhu	v1,4(s2)
    d130:	2400228e 	lw	v0,36(s1)
    d134:	00000000 	nop
    d138:	21104300 	addu	v0,v0,v1
    d13c:	000040c8 	lwc2	$0,0(v0)
    d140:	040041c8 	lwc2	$1,4(v0)
    d144:	44002226 	addiu	v0,s1,68
    d148:	000046c8 	lwc2	$6,0(v0)
	...
    d154:	1b04084b 	c2	0x108041b
    d158:	0000828e 	lw	v0,0(s4)
    d15c:	00000000 	nop
    d160:	0c00a2ac 	sw	v0,12(a1)
    d164:	fcff428e 	lw	v0,-4(s2)
    d168:	00000000 	nop
    d16c:	1800a2ac 	sw	v0,24(a1)
    d170:	2c002226 	addiu	v0,s1,44
    d174:	000056e8 	swc2	$22,0(v0)
    d178:	000046c8 	lwc2	$6,0(v0)
    d17c:	0600d696 	lhu	s6,6(s6)
    d180:	00000000 	nop
    d184:	00409648 	mtc2	s6,$8
	...
    d190:	1000784a 	c2	0x780010
    d194:	00004296 	lhu	v0,0(s2)
    d198:	0400a624 	addiu	a2,a1,4
    d19c:	2400a2a4 	sh	v0,36(a1)
    d1a0:	0000d6e8 	swc2	$22,0(a2)
    d1a4:	06007396 	lhu	s3,6(s3)
    d1a8:	00000000 	nop
    d1ac:	00409348 	mtc2	s3,$8
	...
    d1b8:	1000784a 	c2	0x780010
    d1bc:	ff00043c 	lui	a0,0xff
    d1c0:	ffff8434 	ori	a0,a0,0xffff
    d1c4:	1000b324 	addiu	s3,a1,16
    d1c8:	8800228e 	lw	v0,136(s1)
    d1cc:	0000238e 	lw	v1,0(s1)
    d1d0:	80100200 	sll	v0,v0,0x2
    d1d4:	21104300 	addu	v0,v0,v1
    d1d8:	0000428c 	lw	v0,0(v0)
    d1dc:	0009033c 	lui	v1,0x900
    d1e0:	24104400 	and	v0,v0,a0
    d1e4:	25104300 	or	v0,v0,v1
    d1e8:	0000a2ac 	sw	v0,0(a1)
    d1ec:	000076ea 	swc2	$22,0(s3)
    d1f0:	0600b596 	lhu	s5,6(s5)
    d1f4:	00000000 	nop
    d1f8:	00409548 	mtc2	s5,$8
	...
    d204:	1000784a 	c2	0x780010
    d208:	2420a400 	and	a0,a1,a0
    d20c:	1c00b024 	addiu	s0,a1,28
    d210:	8800228e 	lw	v0,136(s1)
    d214:	0000238e 	lw	v1,0(s1)
    d218:	80100200 	sll	v0,v0,0x2
    d21c:	21104300 	addu	v0,v0,v1
    d220:	000044ac 	sw	a0,0(v0)
    d224:	000016ea 	swc2	$22,0(s0)
    d228:	0100023c 	lui	v0,0x1
    d22c:	00804234 	ori	v0,v0,0x8000
    d230:	1680073c 	lui	a3,0x8016
    d234:	90d0e724 	addiu	a3,a3,-12144
    d238:	2110e200 	addu	v0,a3,v0
    d23c:	fc6d4290 	lbu	v0,28156(v0)
    d240:	00000000 	nop
    d244:	06004230 	andi	v0,v0,0x6
    d248:	07004010 	beqz	v0,0xd268
    d24c:	00000000 	nop
    d250:	09f8c003 	jalr	s8
    d254:	2120c000 	move	a0,a2
    d258:	09f8c003 	jalr	s8
    d25c:	21206002 	move	a0,s3
    d260:	09f8c003 	jalr	s8
    d264:	21200002 	move	a0,s0
    d268:	14005226 	addiu	s2,s2,20
    d26c:	14009426 	addiu	s4,s4,20
    d270:	2110e002 	move	v0,s7
    d274:	89fe4014 	bnez	v0,0xcc9c
    d278:	fffff726 	addiu	s7,s7,-1
    d27c:	2000228e 	lw	v0,32(s1)
    d280:	00000000 	nop
    d284:	0400428c 	lw	v0,4(v0)
    d288:	3400238e 	lw	v1,52(s1)
    d28c:	c0100200 	sll	v0,v0,0x3
    d290:	21186200 	addu	v1,v1,v0
    d294:	340023ae 	sw	v1,52(s1)
    d298:	2802a88f 	lw	t0,552(sp)
    d29c:	ffff0224 	li	v0,-1
    d2a0:	ffff0825 	addiu	t0,t0,-1
    d2a4:	2cfe0215 	bne	t0,v0,0xcb58
    d2a8:	2802a8af 	sw	t0,552(sp)
    d2ac:	5c02bf8f 	lw	ra,604(sp)
    d2b0:	5802be8f 	lw	s8,600(sp)
    d2b4:	5402b78f 	lw	s7,596(sp)
    d2b8:	5002b68f 	lw	s6,592(sp)
    d2bc:	4c02b58f 	lw	s5,588(sp)
    d2c0:	4802b48f 	lw	s4,584(sp)
    d2c4:	4402b38f 	lw	s3,580(sp)
    d2c8:	4002b28f 	lw	s2,576(sp)
    d2cc:	3c02b18f 	lw	s1,572(sp)
    d2d0:	3802b08f 	lw	s0,568(sp)
    d2d4:	6002bd27 	addiu	sp,sp,608
    d2d8:	0800e003 	jr	ra
    d2dc:	00000000 	nop
    d2e0:	21288000 	move	a1,a0
    d2e4:	0200a290 	lbu	v0,2(a1)
    d2e8:	00000000 	nop
    d2ec:	5600422c 	sltiu	v0,v0,86
    d2f0:	02004014 	bnez	v0,0xd2fc
    d2f4:	55000224 	li	v0,85
    d2f8:	0200a2a0 	sb	v0,2(a1)
    d2fc:	0200a290 	lbu	v0,2(a1)
    d300:	00000000 	nop
    d304:	40180200 	sll	v1,v0,0x1
    d308:	21204000 	move	a0,v0
    d30c:	21186200 	addu	v1,v1,v0
    d310:	40200400 	sll	a0,a0,0x1
    d314:	0000a3a0 	sb	v1,0(a1)
    d318:	0800e003 	jr	ra
    d31c:	0100a4a0 	sb	a0,1(a1)
    d320:	21288000 	move	a1,a0
    d324:	0000a290 	lbu	v0,0(a1)
    d328:	00000000 	nop
    d32c:	5600422c 	sltiu	v0,v0,86
    d330:	02004014 	bnez	v0,0xd33c
    d334:	55000224 	li	v0,85
    d338:	0000a2a0 	sb	v0,0(a1)
    d33c:	0000a390 	lbu	v1,0(a1)
    d340:	00000000 	nop
    d344:	40100300 	sll	v0,v1,0x1
    d348:	21206000 	move	a0,v1
    d34c:	21104300 	addu	v0,v0,v1
    d350:	0200a2a0 	sb	v0,2(a1)
    d354:	40100400 	sll	v0,a0,0x1
    d358:	21104400 	addu	v0,v0,a0
    d35c:	0800e003 	jr	ra
    d360:	0100a2a0 	sb	v0,1(a1)
    d364:	78fcbd27 	addiu	sp,sp,-904
    d368:	8003beaf 	sw	s8,896(sp)
    d36c:	21f00000 	move	s8,zero
    d370:	0100033c 	lui	v1,0x1
    d374:	1c80023c 	lui	v0,0x801c
    d378:	149e4294 	lhu	v0,-25068(v0)
    d37c:	00806334 	ori	v1,v1,0x8000
    d380:	8403bfaf 	sw	ra,900(sp)
    d384:	7c03b7af 	sw	s7,892(sp)
    d388:	7803b6af 	sw	s6,888(sp)
    d38c:	7403b5af 	sw	s5,884(sp)
    d390:	7003b4af 	sw	s4,880(sp)
    d394:	6c03b3af 	sw	s3,876(sp)
    d398:	6803b2af 	sw	s2,872(sp)
    d39c:	6403b1af 	sw	s1,868(sp)
    d3a0:	6003b0af 	sw	s0,864(sp)
    d3a4:	8803a4af 	sw	a0,904(sp)
    d3a8:	4803a2af 	sw	v0,840(sp)
    d3ac:	1680023c 	lui	v0,0x8016
    d3b0:	90d04224 	addiu	v0,v0,-12144
    d3b4:	21104300 	addu	v0,v0,v1
    d3b8:	fc6d4390 	lbu	v1,28156(v0)
    d3bc:	00000000 	nop
    d3c0:	02006230 	andi	v0,v1,0x2
    d3c4:	04004010 	beqz	v0,0xd3d8
    d3c8:	801f103c 	lui	s0,0x1f80
    d3cc:	0280023c 	lui	v0,0x8002
    d3d0:	fa760008 	j	0x1dbe8
    d3d4:	e0da5e24 	addiu	s8,v0,-9504
    d3d8:	04006230 	andi	v0,v1,0x4
    d3dc:	02004010 	beqz	v0,0xd3e8
    d3e0:	0280023c 	lui	v0,0x8002
    d3e4:	20db5e24 	addiu	s8,v0,-9440
    d3e8:	4803a78f 	lw	a3,840(sp)
    d3ec:	ffff0224 	li	v0,-1
    d3f0:	ffffe724 	addiu	a3,a3,-1
    d3f4:	3c02e210 	beq	a3,v0,0xdce8
    d3f8:	4803a7af 	sw	a3,840(sp)
    d3fc:	3400a827 	addiu	t0,sp,52
    d400:	4c00a927 	addiu	t1,sp,76
    d404:	6400a727 	addiu	a3,sp,100
    d408:	5003a8af 	sw	t0,848(sp)
    d40c:	7c00a827 	addiu	t0,sp,124
    d410:	5403a9af 	sw	t1,852(sp)
    d414:	5803a7af 	sw	a3,856(sp)
    d418:	5c03a8af 	sw	t0,860(sp)
    d41c:	1b80033c 	lui	v1,0x801b
    d420:	4803a98f 	lw	t1,840(sp)
    d424:	48596324 	addiu	v1,v1,22856
    d428:	40100900 	sll	v0,t1,0x1
    d42c:	21104300 	addu	v0,v0,v1
    d430:	ce454294 	lhu	v0,17870(v0)
    d434:	00000000 	nop
    d438:	40180200 	sll	v1,v0,0x1
    d43c:	21186200 	addu	v1,v1,v0
    d440:	80180300 	sll	v1,v1,0x2
    d444:	1880023c 	lui	v0,0x8018
    d448:	d0be4224 	addiu	v0,v0,-16688
    d44c:	21206200 	addu	a0,v1,v0
    d450:	04008290 	lbu	v0,4(a0)
    d454:	00000000 	nop
    d458:	03004230 	andi	v0,v0,0x3
    d45c:	0d004014 	bnez	v0,0xd494
    d460:	00000000 	nop
    d464:	00008390 	lbu	v1,0(a0)
    d468:	00000000 	nop
    d46c:	80100300 	sll	v0,v1,0x2
    d470:	21104300 	addu	v0,v0,v1
    d474:	c0100200 	sll	v0,v0,0x3
    d478:	0c00038e 	lw	v1,12(s0)
    d47c:	0c004224 	addiu	v0,v0,12
    d480:	21186200 	addu	v1,v1,v0
    d484:	200003ae 	sw	v1,32(s0)
    d488:	0400628c 	lw	v0,4(v1)
    d48c:	31790008 	j	0x1e4c4
    d490:	00000000 	nop
    d494:	03008290 	lbu	v0,3(a0)
    d498:	00000000 	nop
    d49c:	03004230 	andi	v0,v0,0x3
    d4a0:	80180200 	sll	v1,v0,0x2
    d4a4:	21186200 	addu	v1,v1,v0
    d4a8:	e40102ae 	sw	v0,484(s0)
    d4ac:	c403028e 	lw	v0,964(s0)
    d4b0:	80180300 	sll	v1,v1,0x2
    d4b4:	21104300 	addu	v0,v0,v1
    d4b8:	00004c8c 	lw	t4,0(v0)
    d4bc:	04004d8c 	lw	t5,4(v0)
    d4c0:	0040cc48 	ctc2	t4,$8
    d4c4:	0048cd48 	ctc2	t5,$9
    d4c8:	08004c8c 	lw	t4,8(v0)
    d4cc:	0c004d8c 	lw	t5,12(v0)
    d4d0:	10004e8c 	lw	t6,16(v0)
    d4d4:	0050cc48 	ctc2	t4,$10
    d4d8:	0058cd48 	ctc2	t5,$11
    d4dc:	0060ce48 	ctc2	t6,$12
    d4e0:	00008390 	lbu	v1,0(a0)
    d4e4:	00000000 	nop
    d4e8:	80100300 	sll	v0,v1,0x2
    d4ec:	21104300 	addu	v0,v0,v1
    d4f0:	c0100200 	sll	v0,v0,0x3
    d4f4:	0c00038e 	lw	v1,12(s0)
    d4f8:	0c004224 	addiu	v0,v0,12
    d4fc:	21186200 	addu	v1,v1,v0
    d500:	200003ae 	sw	v1,32(s0)
    d504:	0000638c 	lw	v1,0(v1)
    d508:	0c00028e 	lw	v0,12(s0)
    d50c:	2000048e 	lw	a0,32(s0)
    d510:	0c006324 	addiu	v1,v1,12
    d514:	21104300 	addu	v0,v0,v1
    d518:	3c0002ae 	sw	v0,60(s0)
    d51c:	0800838c 	lw	v1,8(a0)
    d520:	0c00028e 	lw	v0,12(s0)
    d524:	0c006324 	addiu	v1,v1,12
    d528:	21104300 	addu	v0,v0,v1
    d52c:	240002ae 	sw	v0,36(s0)
    d530:	1000828c 	lw	v0,16(a0)
    d534:	1c008794 	lhu	a3,28(a0)
    d538:	0c004224 	addiu	v0,v0,12
    d53c:	4c03a7af 	sw	a3,844(sp)
    d540:	0c00038e 	lw	v1,12(s0)
    d544:	18008494 	lhu	a0,24(a0)
    d548:	21a86200 	addu	s5,v1,v0
    d54c:	80100400 	sll	v0,a0,0x2
    d550:	21104400 	addu	v0,v0,a0
    d554:	80100200 	sll	v0,v0,0x2
    d558:	21a8a202 	addu	s5,s5,v0
    d55c:	b401038e 	lw	v1,436(s0)
    d560:	2110e000 	move	v0,a3
    d564:	21186700 	addu	v1,v1,a3
    d568:	ffffe724 	addiu	a3,a3,-1
    d56c:	4c03a7af 	sw	a3,844(sp)
    d570:	d1014010 	beqz	v0,0xdcb8
    d574:	b40103ae 	sw	v1,436(s0)
    d578:	0c00b226 	addiu	s2,s5,12
    d57c:	06004396 	lhu	v1,6(s2)
    d580:	3400028e 	lw	v0,52(s0)
    d584:	0a004496 	lhu	a0,10(s2)
    d588:	21a04300 	addu	s4,v0,v1
    d58c:	21b04400 	addu	s6,v0,a0
    d590:	08004396 	lhu	v1,8(s2)
    d594:	0000888e 	lw	t0,0(s4)
    d598:	0000c78e 	lw	a3,0(s6)
    d59c:	21984300 	addu	s3,v0,v1
    d5a0:	0000698e 	lw	t1,0(s3)
    d5a4:	00608848 	mtc2	t0,$12
    d5a8:	00708748 	mtc2	a3,$14
    d5ac:	00688948 	mtc2	t1,$13
	...
    d5b8:	0600404b 	c2	0x1400006
    d5bc:	ffff4292 	lbu	v0,-1(s2)
    d5c0:	00000000 	nop
    d5c4:	3c004234 	ori	v0,v0,0x3c
    d5c8:	470002a2 	sb	v0,71(s0)
    d5cc:	70000226 	addiu	v0,s0,112
    d5d0:	000058e8 	swc2	$24,0(v0)
    d5d4:	0c004396 	lhu	v1,12(s2)
    d5d8:	3400028e 	lw	v0,52(s0)
    d5dc:	1000088e 	lw	t0,16(s0)
    d5e0:	21b84300 	addu	s7,v0,v1
    d5e4:	08000ce9 	swc2	$12,8(t0)
    d5e8:	14000de9 	swc2	$13,20(t0)
    d5ec:	20000ee9 	swc2	$14,32(t0)
    d5f0:	0000e98e 	lw	t1,0(s7)
    d5f4:	00000000 	nop
    d5f8:	00608948 	mtc2	t1,$12
	...
    d604:	0600404b 	c2	0x1400006
    d608:	74000226 	addiu	v0,s0,116
    d60c:	000058e8 	swc2	$24,0(v0)
    d610:	7000028e 	lw	v0,112(s0)
    d614:	00000000 	nop
    d618:	0500401c 	bgtz	v0,0xd630
    d61c:	00000000 	nop
    d620:	7400028e 	lw	v0,116(s0)
    d624:	00000000 	nop
    d628:	9b014104 	bgez	v0,0xdc98
    d62c:	00000000 	nop
    d630:	1000028e 	lw	v0,16(s0)
    d634:	00000000 	nop
    d638:	2c004224 	addiu	v0,v0,44
    d63c:	00004ce8 	swc2	$12,0(v0)
    d640:	04008286 	lh	v0,4(s4)
    d644:	00000000 	nop
    d648:	840002ae 	sw	v0,132(s0)
    d64c:	800002ae 	sw	v0,128(s0)
    d650:	04006386 	lh	v1,4(s3)
    d654:	00000000 	nop
    d658:	2a104300 	slt	v0,v0,v1
    d65c:	03004010 	beqz	v0,0xd66c
    d660:	00000000 	nop
    d664:	840003ae 	sw	v1,132(s0)
    d668:	04006386 	lh	v1,4(s3)
    d66c:	8000028e 	lw	v0,128(s0)
    d670:	00000000 	nop
    d674:	2a106200 	slt	v0,v1,v0
    d678:	02004010 	beqz	v0,0xd684
    d67c:	00000000 	nop
    d680:	800003ae 	sw	v1,128(s0)
    d684:	0400c386 	lh	v1,4(s6)
    d688:	8400028e 	lw	v0,132(s0)
    d68c:	00000000 	nop
    d690:	2a104300 	slt	v0,v0,v1
    d694:	03004010 	beqz	v0,0xd6a4
    d698:	00000000 	nop
    d69c:	840003ae 	sw	v1,132(s0)
    d6a0:	0400c386 	lh	v1,4(s6)
    d6a4:	8000028e 	lw	v0,128(s0)
    d6a8:	00000000 	nop
    d6ac:	2a106200 	slt	v0,v1,v0
    d6b0:	02004010 	beqz	v0,0xd6bc
    d6b4:	00000000 	nop
    d6b8:	800003ae 	sw	v1,128(s0)
    d6bc:	0400e386 	lh	v1,4(s7)
    d6c0:	8400028e 	lw	v0,132(s0)
    d6c4:	00000000 	nop
    d6c8:	2a104300 	slt	v0,v0,v1
    d6cc:	03004010 	beqz	v0,0xd6dc
    d6d0:	00000000 	nop
    d6d4:	840003ae 	sw	v1,132(s0)
    d6d8:	0400e386 	lh	v1,4(s7)
    d6dc:	8000028e 	lw	v0,128(s0)
    d6e0:	00000000 	nop
    d6e4:	2a106200 	slt	v0,v1,v0
    d6e8:	02004010 	beqz	v0,0xd6f4
    d6ec:	00000000 	nop
    d6f0:	800003ae 	sw	v1,128(s0)
    d6f4:	8400028e 	lw	v0,132(s0)
    d6f8:	feff4382 	lb	v1,-2(s2)
    d6fc:	43110200 	sra	v0,v0,0x5
    d700:	21184300 	addu	v1,v0,v1
    d704:	00106228 	slti	v0,v1,4096
    d708:	63014010 	beqz	v0,0xdc98
    d70c:	880003ae 	sw	v1,136(s0)
    d710:	8c00028e 	lw	v0,140(s0)
    d714:	00000000 	nop
    d718:	2a106200 	slt	v0,v1,v0
    d71c:	5e014014 	bnez	v0,0xdc98
    d720:	00000000 	nop
    d724:	7000028e 	lw	v0,112(s0)
    d728:	00000000 	nop
    d72c:	01404228 	slti	v0,v0,16385
    d730:	06004010 	beqz	v0,0xd74c
    d734:	01000224 	li	v0,1
    d738:	7400028e 	lw	v0,116(s0)
    d73c:	00000000 	nop
    d740:	00c04228 	slti	v0,v0,-16384
    d744:	ef004010 	beqz	v0,0xdb04
    d748:	01000224 	li	v0,1
    d74c:	1000a2af 	sw	v0,16(sp)
    d750:	7000038e 	lw	v1,112(s0)
    d754:	00800234 	li	v0,0x8000
    d758:	2a104300 	slt	v0,v0,v1
    d75c:	06004014 	bnez	v0,0xd778
    d760:	02000224 	li	v0,2
    d764:	7400028e 	lw	v0,116(s0)
    d768:	00000000 	nop
    d76c:	00804228 	slti	v0,v0,-32768
    d770:	02004010 	beqz	v0,0xd77c
    d774:	02000224 	li	v0,2
    d778:	1000a2af 	sw	v0,16(sp)
    d77c:	40010224 	li	v0,320
    d780:	1400a2af 	sw	v0,20(sp)
    d784:	f0000224 	li	v0,240
    d788:	1800a2af 	sw	v0,24(sp)
    d78c:	f6ff4296 	lhu	v0,-10(s2)
    d790:	00000000 	nop
    d794:	1c00a2a7 	sh	v0,28(sp)
    d798:	faff4296 	lhu	v0,-6(s2)
    d79c:	00000000 	nop
    d7a0:	1e00a2a7 	sh	v0,30(sp)
    d7a4:	04004396 	lhu	v1,4(s2)
    d7a8:	2400028e 	lw	v0,36(s0)
    d7ac:	00000000 	nop
    d7b0:	21104300 	addu	v0,v0,v1
    d7b4:	000040c8 	lwc2	$0,0(v0)
    d7b8:	040041c8 	lwc2	$1,4(v0)
    d7bc:	44000226 	addiu	v0,s0,68
    d7c0:	000046c8 	lwc2	$6,0(v0)
	...
    d7cc:	1b04084b 	c2	0x108041b
    d7d0:	2c000226 	addiu	v0,s0,44
    d7d4:	000056e8 	swc2	$22,0(v0)
    d7d8:	000046c8 	lwc2	$6,0(v0)
    d7dc:	06008796 	lhu	a3,6(s4)
    d7e0:	00000000 	nop
    d7e4:	00408748 	mtc2	a3,$8
	...
    d7f0:	1000784a 	c2	0x780010
    d7f4:	5003a88f 	lw	t0,848(sp)
    d7f8:	00000000 	nop
    d7fc:	000016e9 	swc2	$22,0(t0)
    d800:	06006996 	lhu	t1,6(s3)
    d804:	00000000 	nop
    d808:	00408948 	mtc2	t1,$8
	...
    d814:	1000784a 	c2	0x780010
    d818:	5403a78f 	lw	a3,852(sp)
    d81c:	00000000 	nop
    d820:	0000f6e8 	swc2	$22,0(a3)
    d824:	0600c896 	lhu	t0,6(s6)
    d828:	00000000 	nop
    d82c:	00408848 	mtc2	t0,$8
	...
    d838:	1000784a 	c2	0x780010
    d83c:	5803a98f 	lw	t1,856(sp)
    d840:	00000000 	nop
    d844:	000036e9 	swc2	$22,0(t1)
    d848:	0600e796 	lhu	a3,6(s7)
    d84c:	00000000 	nop
    d850:	00408748 	mtc2	a3,$8
	...
    d85c:	1000784a 	c2	0x780010
    d860:	5c03a88f 	lw	t0,860(sp)
    d864:	00000000 	nop
    d868:	000016e9 	swc2	$22,0(t0)
    d86c:	0100023c 	lui	v0,0x1
    d870:	00804234 	ori	v0,v0,0x8000
    d874:	1680093c 	lui	t1,0x8016
    d878:	90d02925 	addiu	t1,t1,-12144
    d87c:	21882201 	addu	s1,t1,v0
    d880:	fc6d2292 	lbu	v0,28156(s1)
    d884:	00000000 	nop
    d888:	06004230 	andi	v0,v0,0x6
    d88c:	0d004010 	beqz	v0,0xd8c4
    d890:	00000000 	nop
    d894:	5003a48f 	lw	a0,848(sp)
    d898:	09f8c003 	jalr	s8
    d89c:	00000000 	nop
    d8a0:	5403a48f 	lw	a0,852(sp)
    d8a4:	09f8c003 	jalr	s8
    d8a8:	00000000 	nop
    d8ac:	5803a48f 	lw	a0,856(sp)
    d8b0:	09f8c003 	jalr	s8
    d8b4:	00000000 	nop
    d8b8:	5c03a48f 	lw	a0,860(sp)
    d8bc:	09f8c003 	jalr	s8
    d8c0:	00000000 	nop
    d8c4:	e401028e 	lw	v0,484(s0)
    d8c8:	286d2326 	addiu	v1,s1,27944
    d8cc:	40110200 	sll	v0,v0,0x5
    d8d0:	21104300 	addu	v0,v0,v1
    d8d4:	00004c8c 	lw	t4,0(v0)
    d8d8:	04004d8c 	lw	t5,4(v0)
    d8dc:	0000cc48 	ctc2	t4,$0
    d8e0:	0008cd48 	ctc2	t5,$1
    d8e4:	08004c8c 	lw	t4,8(v0)
    d8e8:	0c004d8c 	lw	t5,12(v0)
    d8ec:	10004e8c 	lw	t6,16(v0)
    d8f0:	0010cc48 	ctc2	t4,$2
    d8f4:	0018cd48 	ctc2	t5,$3
    d8f8:	0020ce48 	ctc2	t6,$4
    d8fc:	4803a78f 	lw	a3,840(sp)
    d900:	8803a88f 	lw	t0,904(sp)
    d904:	00110700 	sll	v0,a3,0x4
    d908:	21100201 	addu	v0,t0,v0
    d90c:	00004c8c 	lw	t4,0(v0)
    d910:	04004d8c 	lw	t5,4(v0)
    d914:	08004e8c 	lw	t6,8(v0)
    d918:	0028cc48 	ctc2	t4,$5
    d91c:	0030cd48 	ctc2	t5,$6
    d920:	0038ce48 	ctc2	t6,$7
    d924:	4700028a 	lwl	v0,71(s0)
    d928:	4400029a 	lwr	v0,68(s0)
    d92c:	00000000 	nop
    d930:	2300a2ab 	swl	v0,35(sp)
    d934:	2000a2bb 	swr	v0,32(sp)
    d938:	2800a227 	addiu	v0,sp,40
    d93c:	0001a2af 	sw	v0,256(sp)
    d940:	4000a227 	addiu	v0,sp,64
    d944:	0401a2af 	sw	v0,260(sp)
    d948:	5800a227 	addiu	v0,sp,88
    d94c:	0801a2af 	sw	v0,264(sp)
    d950:	7000a227 	addiu	v0,sp,112
    d954:	0c01a2af 	sw	v0,268(sp)
    d958:	8800028e 	lw	v0,136(s0)
    d95c:	0000038e 	lw	v1,0(s0)
    d960:	80100200 	sll	v0,v0,0x2
    d964:	21186200 	addu	v1,v1,v0
    d968:	2400a3af 	sw	v1,36(sp)
    d96c:	0300828a 	lwl	v0,3(s4)
    d970:	0000829a 	lwr	v0,0(s4)
    d974:	00000000 	nop
    d978:	3b00a2ab 	swl	v0,59(sp)
    d97c:	3800a2bb 	swr	v0,56(sp)
    d980:	0300628a 	lwl	v0,3(s3)
    d984:	0000629a 	lwr	v0,0(s3)
    d988:	00000000 	nop
    d98c:	5300a2ab 	swl	v0,83(sp)
    d990:	5000a2bb 	swr	v0,80(sp)
    d994:	0300c28a 	lwl	v0,3(s6)
    d998:	0000c29a 	lwr	v0,0(s6)
    d99c:	00000000 	nop
    d9a0:	6b00a2ab 	swl	v0,107(sp)
    d9a4:	6800a2bb 	swr	v0,104(sp)
    d9a8:	0300e28a 	lwl	v0,3(s7)
    d9ac:	0000e29a 	lwr	v0,0(s7)
    d9b0:	00000000 	nop
    d9b4:	8300a2ab 	swl	v0,131(sp)
    d9b8:	8000a2bb 	swr	v0,128(sp)
    d9bc:	04008286 	lh	v0,4(s4)
    d9c0:	00000000 	nop
    d9c4:	3c00a2af 	sw	v0,60(sp)
    d9c8:	04006286 	lh	v0,4(s3)
    d9cc:	00000000 	nop
    d9d0:	5400a2af 	sw	v0,84(sp)
    d9d4:	0400c286 	lh	v0,4(s6)
    d9d8:	00000000 	nop
    d9dc:	6c00a2af 	sw	v0,108(sp)
    d9e0:	0400e286 	lh	v0,4(s7)
    d9e4:	00000000 	nop
    d9e8:	8400a2af 	sw	v0,132(sp)
    d9ec:	06004396 	lhu	v1,6(s2)
    d9f0:	3c00028e 	lw	v0,60(s0)
    d9f4:	00000000 	nop
    d9f8:	21104300 	addu	v0,v0,v1
    d9fc:	03004388 	lwl	v1,3(v0)
    da00:	00004398 	lwr	v1,0(v0)
    da04:	07004488 	lwl	a0,7(v0)
    da08:	04004498 	lwr	a0,4(v0)
    da0c:	2b00a3ab 	swl	v1,43(sp)
    da10:	2800a3bb 	swr	v1,40(sp)
    da14:	2f00a4ab 	swl	a0,47(sp)
    da18:	2c00a4bb 	swr	a0,44(sp)
    da1c:	08004396 	lhu	v1,8(s2)
    da20:	3c00028e 	lw	v0,60(s0)
    da24:	00000000 	nop
    da28:	21104300 	addu	v0,v0,v1
    da2c:	03004388 	lwl	v1,3(v0)
    da30:	00004398 	lwr	v1,0(v0)
    da34:	07004488 	lwl	a0,7(v0)
    da38:	04004498 	lwr	a0,4(v0)
    da3c:	4300a3ab 	swl	v1,67(sp)
    da40:	4000a3bb 	swr	v1,64(sp)
    da44:	4700a4ab 	swl	a0,71(sp)
    da48:	4400a4bb 	swr	a0,68(sp)
    da4c:	0a004396 	lhu	v1,10(s2)
    da50:	3c00028e 	lw	v0,60(s0)
    da54:	00000000 	nop
    da58:	21104300 	addu	v0,v0,v1
    da5c:	03004388 	lwl	v1,3(v0)
    da60:	00004398 	lwr	v1,0(v0)
    da64:	07004488 	lwl	a0,7(v0)
    da68:	04004498 	lwr	a0,4(v0)
    da6c:	5b00a3ab 	swl	v1,91(sp)
    da70:	5800a3bb 	swr	v1,88(sp)
    da74:	5f00a4ab 	swl	a0,95(sp)
    da78:	5c00a4bb 	swr	a0,92(sp)
    da7c:	0c004396 	lhu	v1,12(s2)
    da80:	3c00028e 	lw	v0,60(s0)
    da84:	1000048e 	lw	a0,16(s0)
    da88:	21104300 	addu	v0,v0,v1
    da8c:	03004388 	lwl	v1,3(v0)
    da90:	00004398 	lwr	v1,0(v0)
    da94:	07004588 	lwl	a1,7(v0)
    da98:	04004598 	lwr	a1,4(v0)
    da9c:	7300a3ab 	swl	v1,115(sp)
    daa0:	7000a3bb 	swr	v1,112(sp)
    daa4:	7700a5ab 	swl	a1,119(sp)
    daa8:	7400a5bb 	swr	a1,116(sp)
    daac:	0000a28e 	lw	v0,0(s5)
    dab0:	00000000 	nop
    dab4:	3000a2af 	sw	v0,48(sp)
    dab8:	f8ff428e 	lw	v0,-8(s2)
    dabc:	1c00b526 	addiu	s5,s5,28
    dac0:	4800a2af 	sw	v0,72(sp)
    dac4:	fcff428e 	lw	v0,-4(s2)
    dac8:	1000a527 	addiu	a1,sp,16
    dacc:	6000a2af 	sw	v0,96(sp)
    dad0:	0000428e 	lw	v0,0(s2)
    dad4:	1c005226 	addiu	s2,s2,28
    dad8:	21da010c 	jal	0x76884
    dadc:	7800a2af 	sw	v0,120(sp)
    dae0:	100002ae 	sw	v0,16(s0)
    dae4:	01000224 	li	v0,1
    dae8:	1000a48f 	lw	a0,16(sp)
    daec:	c001038e 	lw	v1,448(s0)
    daf0:	04108200 	sllv	v0,v0,a0
    daf4:	04108200 	sllv	v0,v0,a0
    daf8:	21186200 	addu	v1,v1,v0
    dafc:	28790008 	j	0x1e4a0
    db00:	c00103ae 	sw	v1,448(s0)
    db04:	1000058e 	lw	a1,16(s0)
    db08:	1400028e 	lw	v0,20(s0)
    db0c:	3400a324 	addiu	v1,a1,52
    db10:	2b104300 	sltu	v0,v0,v1
    db14:	74004014 	bnez	v0,0xdce8
    db18:	00000000 	nop
    db1c:	bc01028e 	lw	v0,444(s0)
    db20:	100003ae 	sw	v1,16(s0)
    db24:	01004224 	addiu	v0,v0,1
    db28:	bc0102ae 	sw	v0,444(s0)
    db2c:	04004396 	lhu	v1,4(s2)
    db30:	2400028e 	lw	v0,36(s0)
    db34:	00000000 	nop
    db38:	21104300 	addu	v0,v0,v1
    db3c:	000040c8 	lwc2	$0,0(v0)
    db40:	040041c8 	lwc2	$1,4(v0)
    db44:	44000226 	addiu	v0,s0,68
    db48:	000046c8 	lwc2	$6,0(v0)
	...
    db54:	1b04084b 	c2	0x108041b
    db58:	0000a28e 	lw	v0,0(s5)
    db5c:	00000000 	nop
    db60:	0c00a2ac 	sw	v0,12(a1)
    db64:	f8ff428e 	lw	v0,-8(s2)
    db68:	00000000 	nop
    db6c:	1800a2ac 	sw	v0,24(a1)
    db70:	2c000226 	addiu	v0,s0,44
    db74:	000056e8 	swc2	$22,0(v0)
    db78:	000046c8 	lwc2	$6,0(v0)
    db7c:	06009496 	lhu	s4,6(s4)
    db80:	00000000 	nop
    db84:	00409448 	mtc2	s4,$8
	...
    db90:	1000784a 	c2	0x780010
    db94:	fcff4296 	lhu	v0,-4(s2)
    db98:	0400a624 	addiu	a2,a1,4
    db9c:	2400a2a4 	sh	v0,36(a1)
    dba0:	0000d6e8 	swc2	$22,0(a2)
    dba4:	06007396 	lhu	s3,6(s3)
    dba8:	00000000 	nop
    dbac:	00409348 	mtc2	s3,$8
	...
    dbb8:	1000784a 	c2	0x780010
    dbbc:	00004296 	lhu	v0,0(s2)
    dbc0:	1000b424 	addiu	s4,a1,16
    dbc4:	3000a2a4 	sh	v0,48(a1)
    dbc8:	000096ea 	swc2	$22,0(s4)
    dbcc:	0600d696 	lhu	s6,6(s6)
    dbd0:	00000000 	nop
    dbd4:	00409648 	mtc2	s6,$8
	...
    dbe0:	1000784a 	c2	0x780010
    dbe4:	ff00043c 	lui	a0,0xff
    dbe8:	ffff8434 	ori	a0,a0,0xffff
    dbec:	1c00b324 	addiu	s3,a1,28
    dbf0:	8800028e 	lw	v0,136(s0)
    dbf4:	0000038e 	lw	v1,0(s0)
    dbf8:	80100200 	sll	v0,v0,0x2
    dbfc:	21104300 	addu	v0,v0,v1
    dc00:	0000428c 	lw	v0,0(v0)
    dc04:	000c033c 	lui	v1,0xc00
    dc08:	24104400 	and	v0,v0,a0
    dc0c:	25104300 	or	v0,v0,v1
    dc10:	0000a2ac 	sw	v0,0(a1)
    dc14:	000076ea 	swc2	$22,0(s3)
    dc18:	0600f796 	lhu	s7,6(s7)
    dc1c:	00000000 	nop
    dc20:	00409748 	mtc2	s7,$8
	...
    dc2c:	1000784a 	c2	0x780010
    dc30:	2420a400 	and	a0,a1,a0
    dc34:	2800b124 	addiu	s1,a1,40
    dc38:	8800028e 	lw	v0,136(s0)
    dc3c:	0000038e 	lw	v1,0(s0)
    dc40:	80100200 	sll	v0,v0,0x2
    dc44:	21104300 	addu	v0,v0,v1
    dc48:	000044ac 	sw	a0,0(v0)
    dc4c:	000036ea 	swc2	$22,0(s1)
    dc50:	0100023c 	lui	v0,0x1
    dc54:	00804234 	ori	v0,v0,0x8000
    dc58:	1680073c 	lui	a3,0x8016
    dc5c:	90d0e724 	addiu	a3,a3,-12144
    dc60:	2110e200 	addu	v0,a3,v0
    dc64:	fc6d4290 	lbu	v0,28156(v0)
    dc68:	00000000 	nop
    dc6c:	06004230 	andi	v0,v0,0x6
    dc70:	09004010 	beqz	v0,0xdc98
    dc74:	00000000 	nop
    dc78:	09f8c003 	jalr	s8
    dc7c:	2120c000 	move	a0,a2
    dc80:	09f8c003 	jalr	s8
    dc84:	21208002 	move	a0,s4
    dc88:	09f8c003 	jalr	s8
    dc8c:	21206002 	move	a0,s3
    dc90:	09f8c003 	jalr	s8
    dc94:	21202002 	move	a0,s1
    dc98:	1c005226 	addiu	s2,s2,28
    dc9c:	1c00b526 	addiu	s5,s5,28
    dca0:	4c03a28f 	lw	v0,844(sp)
    dca4:	00000000 	nop
    dca8:	21404000 	move	t0,v0
    dcac:	ffff0825 	addiu	t0,t0,-1
    dcb0:	32fe4014 	bnez	v0,0xd57c
    dcb4:	4c03a8af 	sw	t0,844(sp)
    dcb8:	2000028e 	lw	v0,32(s0)
    dcbc:	00000000 	nop
    dcc0:	0400428c 	lw	v0,4(v0)
    dcc4:	3400038e 	lw	v1,52(s0)
    dcc8:	c0100200 	sll	v0,v0,0x3
    dccc:	21186200 	addu	v1,v1,v0
    dcd0:	340003ae 	sw	v1,52(s0)
    dcd4:	4803a98f 	lw	t1,840(sp)
    dcd8:	ffff0224 	li	v0,-1
    dcdc:	ffff2925 	addiu	t1,t1,-1
    dce0:	cefd2215 	bne	t1,v0,0xd41c
    dce4:	4803a9af 	sw	t1,840(sp)
    dce8:	8403bf8f 	lw	ra,900(sp)
    dcec:	8003be8f 	lw	s8,896(sp)
    dcf0:	7c03b78f 	lw	s7,892(sp)
    dcf4:	7803b68f 	lw	s6,888(sp)
    dcf8:	7403b58f 	lw	s5,884(sp)
    dcfc:	7003b48f 	lw	s4,880(sp)
    dd00:	6c03b38f 	lw	s3,876(sp)
    dd04:	6803b28f 	lw	s2,872(sp)
    dd08:	6403b18f 	lw	s1,868(sp)
    dd0c:	6003b08f 	lw	s0,864(sp)
    dd10:	8803bd27 	addiu	sp,sp,904
    dd14:	0800e003 	jr	ra
    dd18:	00000000 	nop
    dd1c:	21288000 	move	a1,a0
    dd20:	0200a290 	lbu	v0,2(a1)
    dd24:	00000000 	nop
    dd28:	5600422c 	sltiu	v0,v0,86
    dd2c:	02004014 	bnez	v0,0xdd38
    dd30:	55000224 	li	v0,85
    dd34:	0200a2a0 	sb	v0,2(a1)
    dd38:	0200a290 	lbu	v0,2(a1)
    dd3c:	00000000 	nop
    dd40:	40180200 	sll	v1,v0,0x1
    dd44:	21204000 	move	a0,v0
    dd48:	21186200 	addu	v1,v1,v0
    dd4c:	40200400 	sll	a0,a0,0x1
    dd50:	0000a3a0 	sb	v1,0(a1)
    dd54:	0800e003 	jr	ra
    dd58:	0100a4a0 	sb	a0,1(a1)
    dd5c:	21288000 	move	a1,a0
    dd60:	0000a290 	lbu	v0,0(a1)
    dd64:	00000000 	nop
    dd68:	5600422c 	sltiu	v0,v0,86
    dd6c:	02004014 	bnez	v0,0xdd78
    dd70:	55000224 	li	v0,85
    dd74:	0000a2a0 	sb	v0,0(a1)
    dd78:	0000a390 	lbu	v1,0(a1)
    dd7c:	00000000 	nop
    dd80:	40100300 	sll	v0,v1,0x1
    dd84:	21206000 	move	a0,v1
    dd88:	21104300 	addu	v0,v0,v1
    dd8c:	0200a2a0 	sb	v0,2(a1)
    dd90:	40100400 	sll	v0,a0,0x1
    dd94:	21104400 	addu	v0,v0,a0
    dd98:	0800e003 	jr	ra
    dd9c:	0100a2a0 	sb	v0,1(a1)
    dda0:	a0fdbd27 	addiu	sp,sp,-608
    dda4:	5402b7af 	sw	s7,596(sp)
    dda8:	21b80000 	move	s7,zero
    ddac:	0100033c 	lui	v1,0x1
    ddb0:	00806334 	ori	v1,v1,0x8000
    ddb4:	1c80023c 	lui	v0,0x801c
    ddb8:	5802beaf 	sw	s8,600(sp)
    ddbc:	149e5e94 	lhu	s8,-25068(v0)
    ddc0:	1680023c 	lui	v0,0x8016
    ddc4:	90d04224 	addiu	v0,v0,-12144
    ddc8:	21104300 	addu	v0,v0,v1
    ddcc:	5c02bfaf 	sw	ra,604(sp)
    ddd0:	5002b6af 	sw	s6,592(sp)
    ddd4:	4c02b5af 	sw	s5,588(sp)
    ddd8:	4802b4af 	sw	s4,584(sp)
    dddc:	4402b3af 	sw	s3,580(sp)
    dde0:	4002b2af 	sw	s2,576(sp)
    dde4:	3c02b1af 	sw	s1,572(sp)
    dde8:	3802b0af 	sw	s0,568(sp)
    ddec:	6002a4af 	sw	a0,608(sp)
    ddf0:	fc6d4390 	lbu	v1,28156(v0)
    ddf4:	00000000 	nop
    ddf8:	02006230 	andi	v0,v1,0x2
    ddfc:	04004010 	beqz	v0,0xde10
    de00:	801f123c 	lui	s2,0x1f80
    de04:	0280023c 	lui	v0,0x8002
    de08:	88790008 	j	0x1e620
    de0c:	1ce55724 	addiu	s7,v0,-6884
    de10:	04006230 	andi	v0,v1,0x4
    de14:	02004010 	beqz	v0,0xde20
    de18:	0280023c 	lui	v0,0x8002
    de1c:	5ce55724 	addiu	s7,v0,-6820
    de20:	ffffde27 	addiu	s8,s8,-1
    de24:	ffff0224 	li	v0,-1
    de28:	f201c213 	beq	s8,v0,0xe5f4
    de2c:	3400a727 	addiu	a3,sp,52
    de30:	4c00a827 	addiu	t0,sp,76
    de34:	6400a927 	addiu	t1,sp,100
    de38:	2802a7af 	sw	a3,552(sp)
    de3c:	2c02a8af 	sw	t0,556(sp)
    de40:	3002a9af 	sw	t1,560(sp)
    de44:	1b80033c 	lui	v1,0x801b
    de48:	48596324 	addiu	v1,v1,22856
    de4c:	40101e00 	sll	v0,s8,0x1
    de50:	21104300 	addu	v0,v0,v1
    de54:	ce454294 	lhu	v0,17870(v0)
    de58:	00000000 	nop
    de5c:	40180200 	sll	v1,v0,0x1
    de60:	21186200 	addu	v1,v1,v0
    de64:	80180300 	sll	v1,v1,0x2
    de68:	1880023c 	lui	v0,0x8018
    de6c:	d0be4224 	addiu	v0,v0,-16688
    de70:	21206200 	addu	a0,v1,v0
    de74:	04008290 	lbu	v0,4(a0)
    de78:	00000000 	nop
    de7c:	03004230 	andi	v0,v0,0x3
    de80:	0d004014 	bnez	v0,0xdeb8
    de84:	00000000 	nop
    de88:	00008390 	lbu	v1,0(a0)
    de8c:	00000000 	nop
    de90:	80100300 	sll	v0,v1,0x2
    de94:	21104300 	addu	v0,v0,v1
    de98:	c0100200 	sll	v0,v0,0x3
    de9c:	0c00438e 	lw	v1,12(s2)
    dea0:	0c004224 	addiu	v0,v0,12
    dea4:	21186200 	addu	v1,v1,v0
    dea8:	200043ae 	sw	v1,32(s2)
    deac:	0400628c 	lw	v0,4(v1)
    deb0:	767b0008 	j	0x1edd8
    deb4:	00000000 	nop
    deb8:	03008290 	lbu	v0,3(a0)
    debc:	00000000 	nop
    dec0:	03004230 	andi	v0,v0,0x3
    dec4:	80180200 	sll	v1,v0,0x2
    dec8:	21186200 	addu	v1,v1,v0
    decc:	e40142ae 	sw	v0,484(s2)
    ded0:	c403428e 	lw	v0,964(s2)
    ded4:	80180300 	sll	v1,v1,0x2
    ded8:	21104300 	addu	v0,v0,v1
    dedc:	00004c8c 	lw	t4,0(v0)
    dee0:	04004d8c 	lw	t5,4(v0)
    dee4:	0040cc48 	ctc2	t4,$8
    dee8:	0048cd48 	ctc2	t5,$9
    deec:	08004c8c 	lw	t4,8(v0)
    def0:	0c004d8c 	lw	t5,12(v0)
    def4:	10004e8c 	lw	t6,16(v0)
    def8:	0050cc48 	ctc2	t4,$10
    defc:	0058cd48 	ctc2	t5,$11
    df00:	0060ce48 	ctc2	t6,$12
    df04:	00008390 	lbu	v1,0(a0)
    df08:	00000000 	nop
    df0c:	80100300 	sll	v0,v1,0x2
    df10:	21104300 	addu	v0,v0,v1
    df14:	c0100200 	sll	v0,v0,0x3
    df18:	0c00438e 	lw	v1,12(s2)
    df1c:	0c004224 	addiu	v0,v0,12
    df20:	21186200 	addu	v1,v1,v0
    df24:	200043ae 	sw	v1,32(s2)
    df28:	0000638c 	lw	v1,0(v1)
    df2c:	0c00428e 	lw	v0,12(s2)
    df30:	2000448e 	lw	a0,32(s2)
    df34:	0c006324 	addiu	v1,v1,12
    df38:	21104300 	addu	v0,v0,v1
    df3c:	21288000 	move	a1,a0
    df40:	3c0042ae 	sw	v0,60(s2)
    df44:	0800838c 	lw	v1,8(a0)
    df48:	0c00428e 	lw	v0,12(s2)
    df4c:	0c006324 	addiu	v1,v1,12
    df50:	21104300 	addu	v0,v0,v1
    df54:	240042ae 	sw	v0,36(s2)
    df58:	1000a28c 	lw	v0,16(a1)
    df5c:	0c00438e 	lw	v1,12(s2)
    df60:	1800a494 	lhu	a0,24(a1)
    df64:	0c004224 	addiu	v0,v0,12
    df68:	21a06200 	addu	s4,v1,v0
    df6c:	80100400 	sll	v0,a0,0x2
    df70:	21104400 	addu	v0,v0,a0
    df74:	80100200 	sll	v0,v0,0x2
    df78:	21a08202 	addu	s4,s4,v0
    df7c:	1c00a394 	lhu	v1,28(a1)
    df80:	1a00a494 	lhu	a0,26(a1)
    df84:	c0100300 	sll	v0,v1,0x3
    df88:	23104300 	subu	v0,v0,v1
    df8c:	80100200 	sll	v0,v0,0x2
    df90:	21a08202 	addu	s4,s4,v0
    df94:	840144ae 	sw	a0,388(s2)
    df98:	21188000 	move	v1,a0
    df9c:	b401428e 	lw	v0,436(s2)
    dfa0:	ffff6324 	addiu	v1,v1,-1
    dfa4:	840143ae 	sw	v1,388(s2)
    dfa8:	21104400 	addu	v0,v0,a0
    dfac:	b40142ae 	sw	v0,436(s2)
    dfb0:	ffff0224 	li	v0,-1
    dfb4:	85016210 	beq	v1,v0,0xe5cc
    dfb8:	00000000 	nop
    dfbc:	14009126 	addiu	s1,s4,20
    dfc0:	faff2396 	lhu	v1,-6(s1)
    dfc4:	3400428e 	lw	v0,52(s2)
    dfc8:	02002496 	lhu	a0,2(s1)
    dfcc:	21a84300 	addu	s5,v0,v1
    dfd0:	21b04400 	addu	s6,v0,a0
    dfd4:	feff2396 	lhu	v1,-2(s1)
    dfd8:	0000a78e 	lw	a3,0(s5)
    dfdc:	0000c98e 	lw	t1,0(s6)
    dfe0:	21984300 	addu	s3,v0,v1
    dfe4:	0000688e 	lw	t0,0(s3)
    dfe8:	00608748 	mtc2	a3,$12
    dfec:	00708948 	mtc2	t1,$14
    dff0:	00688848 	mtc2	t0,$13
	...
    dffc:	0600404b 	c2	0x1400006
    e000:	f7ff2292 	lbu	v0,-9(s1)
    e004:	00000000 	nop
    e008:	34004234 	ori	v0,v0,0x34
    e00c:	470042a2 	sb	v0,71(s2)
    e010:	70004226 	addiu	v0,s2,112
    e014:	000058e8 	swc2	$24,0(v0)
    e018:	7000428e 	lw	v0,112(s2)
    e01c:	00000000 	nop
    e020:	63014018 	blez	v0,0xe5b0
    e024:	00000000 	nop
    e028:	1000478e 	lw	a3,16(s2)
    e02c:	00000000 	nop
    e030:	0800ece8 	swc2	$12,8(a3)
    e034:	1400ede8 	swc2	$13,20(a3)
    e038:	2000eee8 	swc2	$14,32(a3)
    e03c:	0400a286 	lh	v0,4(s5)
    e040:	00000000 	nop
    e044:	840042ae 	sw	v0,132(s2)
    e048:	800042ae 	sw	v0,128(s2)
    e04c:	04006386 	lh	v1,4(s3)
    e050:	00000000 	nop
    e054:	2a104300 	slt	v0,v0,v1
    e058:	03004010 	beqz	v0,0xe068
    e05c:	00000000 	nop
    e060:	840043ae 	sw	v1,132(s2)
    e064:	04006386 	lh	v1,4(s3)
    e068:	8000428e 	lw	v0,128(s2)
    e06c:	00000000 	nop
    e070:	2a106200 	slt	v0,v1,v0
    e074:	02004010 	beqz	v0,0xe080
    e078:	00000000 	nop
    e07c:	800043ae 	sw	v1,128(s2)
    e080:	0400c386 	lh	v1,4(s6)
    e084:	8400428e 	lw	v0,132(s2)
    e088:	00000000 	nop
    e08c:	2a104300 	slt	v0,v0,v1
    e090:	03004010 	beqz	v0,0xe0a0
    e094:	00000000 	nop
    e098:	840043ae 	sw	v1,132(s2)
    e09c:	0400c386 	lh	v1,4(s6)
    e0a0:	8000428e 	lw	v0,128(s2)
    e0a4:	00000000 	nop
    e0a8:	2a106200 	slt	v0,v1,v0
    e0ac:	02004010 	beqz	v0,0xe0b8
    e0b0:	00000000 	nop
    e0b4:	800043ae 	sw	v1,128(s2)
    e0b8:	8400428e 	lw	v0,132(s2)
    e0bc:	f6ff2382 	lb	v1,-10(s1)
    e0c0:	43110200 	sra	v0,v0,0x5
    e0c4:	21184300 	addu	v1,v0,v1
    e0c8:	00106228 	slti	v0,v1,4096
    e0cc:	38014010 	beqz	v0,0xe5b0
    e0d0:	880043ae 	sw	v1,136(s2)
    e0d4:	8c00428e 	lw	v0,140(s2)
    e0d8:	00000000 	nop
    e0dc:	2a106200 	slt	v0,v1,v0
    e0e0:	33014014 	bnez	v0,0xe5b0
    e0e4:	00000000 	nop
    e0e8:	7000428e 	lw	v0,112(s2)
    e0ec:	00000000 	nop
    e0f0:	01404228 	slti	v0,v0,16385
    e0f4:	d1004014 	bnez	v0,0xe43c
    e0f8:	01000224 	li	v0,1
    e0fc:	1000a2af 	sw	v0,16(sp)
    e100:	7000438e 	lw	v1,112(s2)
    e104:	00800234 	li	v0,0x8000
    e108:	2a104300 	slt	v0,v0,v1
    e10c:	08004010 	beqz	v0,0xe130
    e110:	02000224 	li	v0,2
    e114:	1000a2af 	sw	v0,16(sp)
    e118:	7000438e 	lw	v1,112(s2)
    e11c:	0100023c 	lui	v0,0x1
    e120:	2a104300 	slt	v0,v0,v1
    e124:	02004010 	beqz	v0,0xe130
    e128:	03000224 	li	v0,3
    e12c:	1000a2af 	sw	v0,16(sp)
    e130:	40010224 	li	v0,320
    e134:	1400a2af 	sw	v0,20(sp)
    e138:	f0000224 	li	v0,240
    e13c:	1800a2af 	sw	v0,24(sp)
    e140:	eeff2296 	lhu	v0,-18(s1)
    e144:	00000000 	nop
    e148:	1c00a2a7 	sh	v0,28(sp)
    e14c:	f2ff2296 	lhu	v0,-14(s1)
    e150:	00000000 	nop
    e154:	1e00a2a7 	sh	v0,30(sp)
    e158:	44004226 	addiu	v0,s2,68
    e15c:	000046c8 	lwc2	$6,0(v0)
    e160:	f8ff2396 	lhu	v1,-8(s1)
    e164:	2400428e 	lw	v0,36(s2)
    e168:	00000000 	nop
    e16c:	21104300 	addu	v0,v0,v1
    e170:	000040c8 	lwc2	$0,0(v0)
    e174:	040041c8 	lwc2	$1,4(v0)
    e178:	0600a896 	lhu	t0,6(s5)
    e17c:	00000000 	nop
    e180:	00408848 	mtc2	t0,$8
	...
    e18c:	1304e84a 	c2	0xe80413
    e190:	2802a98f 	lw	t1,552(sp)
    e194:	00000000 	nop
    e198:	000036e9 	swc2	$22,0(t1)
    e19c:	fcff2396 	lhu	v1,-4(s1)
    e1a0:	2400428e 	lw	v0,36(s2)
    e1a4:	00000000 	nop
    e1a8:	21104300 	addu	v0,v0,v1
    e1ac:	000040c8 	lwc2	$0,0(v0)
    e1b0:	040041c8 	lwc2	$1,4(v0)
    e1b4:	06006796 	lhu	a3,6(s3)
    e1b8:	00000000 	nop
    e1bc:	00408748 	mtc2	a3,$8
	...
    e1c8:	1304e84a 	c2	0xe80413
    e1cc:	2c02a88f 	lw	t0,556(sp)
    e1d0:	00000000 	nop
    e1d4:	000016e9 	swc2	$22,0(t0)
    e1d8:	00002396 	lhu	v1,0(s1)
    e1dc:	2400428e 	lw	v0,36(s2)
    e1e0:	00000000 	nop
    e1e4:	21104300 	addu	v0,v0,v1
    e1e8:	000040c8 	lwc2	$0,0(v0)
    e1ec:	040041c8 	lwc2	$1,4(v0)
    e1f0:	0600c996 	lhu	t1,6(s6)
    e1f4:	00000000 	nop
    e1f8:	00408948 	mtc2	t1,$8
	...
    e204:	1304e84a 	c2	0xe80413
    e208:	3002a78f 	lw	a3,560(sp)
    e20c:	00000000 	nop
    e210:	0000f6e8 	swc2	$22,0(a3)
    e214:	0100023c 	lui	v0,0x1
    e218:	00804234 	ori	v0,v0,0x8000
    e21c:	1680083c 	lui	t0,0x8016
    e220:	90d00825 	addiu	t0,t0,-12144
    e224:	21800201 	addu	s0,t0,v0
    e228:	fc6d0292 	lbu	v0,28156(s0)
    e22c:	00000000 	nop
    e230:	06004230 	andi	v0,v0,0x6
    e234:	0a004010 	beqz	v0,0xe260
    e238:	00000000 	nop
    e23c:	2802a48f 	lw	a0,552(sp)
    e240:	09f8e002 	jalr	s7
    e244:	00000000 	nop
    e248:	2c02a48f 	lw	a0,556(sp)
    e24c:	09f8e002 	jalr	s7
    e250:	00000000 	nop
    e254:	3002a48f 	lw	a0,560(sp)
    e258:	09f8e002 	jalr	s7
    e25c:	00000000 	nop
    e260:	e401428e 	lw	v0,484(s2)
    e264:	286d0326 	addiu	v1,s0,27944
    e268:	40110200 	sll	v0,v0,0x5
    e26c:	21104300 	addu	v0,v0,v1
    e270:	00004c8c 	lw	t4,0(v0)
    e274:	04004d8c 	lw	t5,4(v0)
    e278:	0000cc48 	ctc2	t4,$0
    e27c:	0008cd48 	ctc2	t5,$1
    e280:	08004c8c 	lw	t4,8(v0)
    e284:	0c004d8c 	lw	t5,12(v0)
    e288:	10004e8c 	lw	t6,16(v0)
    e28c:	0010cc48 	ctc2	t4,$2
    e290:	0018cd48 	ctc2	t5,$3
    e294:	0020ce48 	ctc2	t6,$4
    e298:	6002a98f 	lw	t1,608(sp)
    e29c:	00111e00 	sll	v0,s8,0x4
    e2a0:	21102201 	addu	v0,t1,v0
    e2a4:	00004c8c 	lw	t4,0(v0)
    e2a8:	04004d8c 	lw	t5,4(v0)
    e2ac:	08004e8c 	lw	t6,8(v0)
    e2b0:	0028cc48 	ctc2	t4,$5
    e2b4:	0030cd48 	ctc2	t5,$6
    e2b8:	0038ce48 	ctc2	t6,$7
    e2bc:	4700428a 	lwl	v0,71(s2)
    e2c0:	4400429a 	lwr	v0,68(s2)
    e2c4:	00000000 	nop
    e2c8:	2300a2ab 	swl	v0,35(sp)
    e2cc:	2000a2bb 	swr	v0,32(sp)
    e2d0:	2800a227 	addiu	v0,sp,40
    e2d4:	b800a2af 	sw	v0,184(sp)
    e2d8:	4000a227 	addiu	v0,sp,64
    e2dc:	bc00a2af 	sw	v0,188(sp)
    e2e0:	5800a227 	addiu	v0,sp,88
    e2e4:	c000a2af 	sw	v0,192(sp)
    e2e8:	8800428e 	lw	v0,136(s2)
    e2ec:	0000438e 	lw	v1,0(s2)
    e2f0:	80100200 	sll	v0,v0,0x2
    e2f4:	21186200 	addu	v1,v1,v0
    e2f8:	2400a3af 	sw	v1,36(sp)
    e2fc:	0300a28a 	lwl	v0,3(s5)
    e300:	0000a29a 	lwr	v0,0(s5)
    e304:	00000000 	nop
    e308:	3b00a2ab 	swl	v0,59(sp)
    e30c:	3800a2bb 	swr	v0,56(sp)
    e310:	0300628a 	lwl	v0,3(s3)
    e314:	0000629a 	lwr	v0,0(s3)
    e318:	00000000 	nop
    e31c:	5300a2ab 	swl	v0,83(sp)
    e320:	5000a2bb 	swr	v0,80(sp)
    e324:	0300c28a 	lwl	v0,3(s6)
    e328:	0000c29a 	lwr	v0,0(s6)
    e32c:	00000000 	nop
    e330:	6b00a2ab 	swl	v0,107(sp)
    e334:	6800a2bb 	swr	v0,104(sp)
    e338:	0400a286 	lh	v0,4(s5)
    e33c:	00000000 	nop
    e340:	3c00a2af 	sw	v0,60(sp)
    e344:	04006286 	lh	v0,4(s3)
    e348:	00000000 	nop
    e34c:	5400a2af 	sw	v0,84(sp)
    e350:	0400c286 	lh	v0,4(s6)
    e354:	00000000 	nop
    e358:	6c00a2af 	sw	v0,108(sp)
    e35c:	faff2396 	lhu	v1,-6(s1)
    e360:	3c00428e 	lw	v0,60(s2)
    e364:	00000000 	nop
    e368:	21104300 	addu	v0,v0,v1
    e36c:	03004388 	lwl	v1,3(v0)
    e370:	00004398 	lwr	v1,0(v0)
    e374:	07004488 	lwl	a0,7(v0)
    e378:	04004498 	lwr	a0,4(v0)
    e37c:	2b00a3ab 	swl	v1,43(sp)
    e380:	2800a3bb 	swr	v1,40(sp)
    e384:	2f00a4ab 	swl	a0,47(sp)
    e388:	2c00a4bb 	swr	a0,44(sp)
    e38c:	feff2396 	lhu	v1,-2(s1)
    e390:	3c00428e 	lw	v0,60(s2)
    e394:	00000000 	nop
    e398:	21104300 	addu	v0,v0,v1
    e39c:	03004388 	lwl	v1,3(v0)
    e3a0:	00004398 	lwr	v1,0(v0)
    e3a4:	07004488 	lwl	a0,7(v0)
    e3a8:	04004498 	lwr	a0,4(v0)
    e3ac:	4300a3ab 	swl	v1,67(sp)
    e3b0:	4000a3bb 	swr	v1,64(sp)
    e3b4:	4700a4ab 	swl	a0,71(sp)
    e3b8:	4400a4bb 	swr	a0,68(sp)
    e3bc:	02002396 	lhu	v1,2(s1)
    e3c0:	3c00428e 	lw	v0,60(s2)
    e3c4:	00000000 	nop
    e3c8:	21104300 	addu	v0,v0,v1
    e3cc:	03004388 	lwl	v1,3(v0)
    e3d0:	00004398 	lwr	v1,0(v0)
    e3d4:	07004488 	lwl	a0,7(v0)
    e3d8:	04004498 	lwr	a0,4(v0)
    e3dc:	5b00a3ab 	swl	v1,91(sp)
    e3e0:	5800a3bb 	swr	v1,88(sp)
    e3e4:	5f00a4ab 	swl	a0,95(sp)
    e3e8:	5c00a4bb 	swr	a0,92(sp)
    e3ec:	0000828e 	lw	v0,0(s4)
    e3f0:	18009426 	addiu	s4,s4,24
    e3f4:	3000a2af 	sw	v0,48(sp)
    e3f8:	1000448e 	lw	a0,16(s2)
    e3fc:	f0ff228e 	lw	v0,-16(s1)
    e400:	1000a527 	addiu	a1,sp,16
    e404:	4800a2af 	sw	v0,72(sp)
    e408:	f4ff228e 	lw	v0,-12(s1)
    e40c:	18003126 	addiu	s1,s1,24
    e410:	b1d7010c 	jal	0x75ec4
    e414:	6000a2af 	sw	v0,96(sp)
    e418:	100042ae 	sw	v0,16(s2)
    e41c:	01000224 	li	v0,1
    e420:	1000a48f 	lw	a0,16(sp)
    e424:	c001438e 	lw	v1,448(s2)
    e428:	04108200 	sllv	v0,v0,a0
    e42c:	04108200 	sllv	v0,v0,a0
    e430:	21186200 	addu	v1,v1,v0
    e434:	6e7b0008 	j	0x1edb8
    e438:	c00143ae 	sw	v1,448(s2)
    e43c:	1000458e 	lw	a1,16(s2)
    e440:	1400428e 	lw	v0,20(s2)
    e444:	2800a324 	addiu	v1,a1,40
    e448:	2b104300 	sltu	v0,v0,v1
    e44c:	69004014 	bnez	v0,0xe5f4
    e450:	00000000 	nop
    e454:	bc01428e 	lw	v0,444(s2)
    e458:	100043ae 	sw	v1,16(s2)
    e45c:	01004224 	addiu	v0,v0,1
    e460:	bc0142ae 	sw	v0,444(s2)
    e464:	44004226 	addiu	v0,s2,68
    e468:	000046c8 	lwc2	$6,0(v0)
    e46c:	f8ff2396 	lhu	v1,-8(s1)
    e470:	2400428e 	lw	v0,36(s2)
    e474:	00000000 	nop
    e478:	21104300 	addu	v0,v0,v1
    e47c:	000040c8 	lwc2	$0,0(v0)
    e480:	040041c8 	lwc2	$1,4(v0)
    e484:	0600b596 	lhu	s5,6(s5)
    e488:	00000000 	nop
    e48c:	00409548 	mtc2	s5,$8
    e490:	0000828e 	lw	v0,0(s4)
    e494:	00000000 	nop
    e498:	0c00a2ac 	sw	v0,12(a1)
    e49c:	1304e84a 	c2	0xe80413
    e4a0:	f0ff228e 	lw	v0,-16(s1)
    e4a4:	00000000 	nop
    e4a8:	1800a2ac 	sw	v0,24(a1)
    e4ac:	f4ff2296 	lhu	v0,-12(s1)
    e4b0:	0400a624 	addiu	a2,a1,4
    e4b4:	2400a2a4 	sh	v0,36(a1)
    e4b8:	0000d6e8 	swc2	$22,0(a2)
    e4bc:	fcff2396 	lhu	v1,-4(s1)
    e4c0:	2400428e 	lw	v0,36(s2)
    e4c4:	00000000 	nop
    e4c8:	21104300 	addu	v0,v0,v1
    e4cc:	000040c8 	lwc2	$0,0(v0)
    e4d0:	040041c8 	lwc2	$1,4(v0)
    e4d4:	06007396 	lhu	s3,6(s3)
    e4d8:	00000000 	nop
    e4dc:	00409348 	mtc2	s3,$8
	...
    e4e8:	1304e84a 	c2	0xe80413
    e4ec:	ff00043c 	lui	a0,0xff
    e4f0:	ffff8434 	ori	a0,a0,0xffff
    e4f4:	1000b324 	addiu	s3,a1,16
    e4f8:	8800428e 	lw	v0,136(s2)
    e4fc:	0000438e 	lw	v1,0(s2)
    e500:	80100200 	sll	v0,v0,0x2
    e504:	21104300 	addu	v0,v0,v1
    e508:	0000428c 	lw	v0,0(v0)
    e50c:	0009033c 	lui	v1,0x900
    e510:	24104400 	and	v0,v0,a0
    e514:	25104300 	or	v0,v0,v1
    e518:	0000a2ac 	sw	v0,0(a1)
    e51c:	000076ea 	swc2	$22,0(s3)
    e520:	00002396 	lhu	v1,0(s1)
    e524:	2400428e 	lw	v0,36(s2)
    e528:	00000000 	nop
    e52c:	21104300 	addu	v0,v0,v1
    e530:	000040c8 	lwc2	$0,0(v0)
    e534:	040041c8 	lwc2	$1,4(v0)
    e538:	0600d696 	lhu	s6,6(s6)
    e53c:	00000000 	nop
    e540:	00409648 	mtc2	s6,$8
	...
    e54c:	1304e84a 	c2	0xe80413
    e550:	2420a400 	and	a0,a1,a0
    e554:	1c00b024 	addiu	s0,a1,28
    e558:	8800428e 	lw	v0,136(s2)
    e55c:	0000438e 	lw	v1,0(s2)
    e560:	80100200 	sll	v0,v0,0x2
    e564:	21104300 	addu	v0,v0,v1
    e568:	000044ac 	sw	a0,0(v0)
    e56c:	000016ea 	swc2	$22,0(s0)
    e570:	0100023c 	lui	v0,0x1
    e574:	00804234 	ori	v0,v0,0x8000
    e578:	1680073c 	lui	a3,0x8016
    e57c:	90d0e724 	addiu	a3,a3,-12144
    e580:	2110e200 	addu	v0,a3,v0
    e584:	fc6d4290 	lbu	v0,28156(v0)
    e588:	00000000 	nop
    e58c:	06004230 	andi	v0,v0,0x6
    e590:	07004010 	beqz	v0,0xe5b0
    e594:	00000000 	nop
    e598:	09f8e002 	jalr	s7
    e59c:	2120c000 	move	a0,a2
    e5a0:	09f8e002 	jalr	s7
    e5a4:	21206002 	move	a0,s3
    e5a8:	09f8e002 	jalr	s7
    e5ac:	21200002 	move	a0,s0
    e5b0:	18003126 	addiu	s1,s1,24
    e5b4:	18009426 	addiu	s4,s4,24
    e5b8:	8401438e 	lw	v1,388(s2)
    e5bc:	ffff0224 	li	v0,-1
    e5c0:	ffff6324 	addiu	v1,v1,-1
    e5c4:	7efe6214 	bne	v1,v0,0xdfc0
    e5c8:	840143ae 	sw	v1,388(s2)
    e5cc:	2000428e 	lw	v0,32(s2)
    e5d0:	00000000 	nop
    e5d4:	0400428c 	lw	v0,4(v0)
    e5d8:	3400438e 	lw	v1,52(s2)
    e5dc:	c0100200 	sll	v0,v0,0x3
    e5e0:	21186200 	addu	v1,v1,v0
    e5e4:	ffffde27 	addiu	s8,s8,-1
    e5e8:	ffff0224 	li	v0,-1
    e5ec:	15fec217 	bne	s8,v0,0xde44
    e5f0:	340043ae 	sw	v1,52(s2)
    e5f4:	5c02bf8f 	lw	ra,604(sp)
    e5f8:	5802be8f 	lw	s8,600(sp)
    e5fc:	5402b78f 	lw	s7,596(sp)
    e600:	5002b68f 	lw	s6,592(sp)
    e604:	4c02b58f 	lw	s5,588(sp)
    e608:	4802b48f 	lw	s4,584(sp)
    e60c:	4402b38f 	lw	s3,580(sp)
    e610:	4002b28f 	lw	s2,576(sp)
    e614:	3c02b18f 	lw	s1,572(sp)
    e618:	3802b08f 	lw	s0,568(sp)
    e61c:	6002bd27 	addiu	sp,sp,608
    e620:	0800e003 	jr	ra
    e624:	00000000 	nop
    e628:	21288000 	move	a1,a0
    e62c:	0200a290 	lbu	v0,2(a1)
    e630:	00000000 	nop
    e634:	5600422c 	sltiu	v0,v0,86
    e638:	02004014 	bnez	v0,0xe644
    e63c:	55000224 	li	v0,85
    e640:	0200a2a0 	sb	v0,2(a1)
    e644:	0200a290 	lbu	v0,2(a1)
    e648:	00000000 	nop
    e64c:	40180200 	sll	v1,v0,0x1
    e650:	21204000 	move	a0,v0
    e654:	21186200 	addu	v1,v1,v0
    e658:	40200400 	sll	a0,a0,0x1
    e65c:	0000a3a0 	sb	v1,0(a1)
    e660:	0800e003 	jr	ra
    e664:	0100a4a0 	sb	a0,1(a1)
    e668:	21288000 	move	a1,a0
    e66c:	0000a290 	lbu	v0,0(a1)
    e670:	00000000 	nop
    e674:	5600422c 	sltiu	v0,v0,86
    e678:	02004014 	bnez	v0,0xe684
    e67c:	55000224 	li	v0,85
    e680:	0000a2a0 	sb	v0,0(a1)
    e684:	0000a390 	lbu	v1,0(a1)
    e688:	00000000 	nop
    e68c:	40100300 	sll	v0,v1,0x1
    e690:	21206000 	move	a0,v1
    e694:	21104300 	addu	v0,v0,v1
    e698:	0200a2a0 	sb	v0,2(a1)
    e69c:	40100400 	sll	v0,a0,0x1
    e6a0:	21104400 	addu	v0,v0,a0
    e6a4:	0800e003 	jr	ra
    e6a8:	0100a2a0 	sb	v0,1(a1)
    e6ac:	78fcbd27 	addiu	sp,sp,-904
    e6b0:	0100033c 	lui	v1,0x1
    e6b4:	1c80023c 	lui	v0,0x801c
    e6b8:	149e4294 	lhu	v0,-25068(v0)
    e6bc:	00806334 	ori	v1,v1,0x8000
    e6c0:	8403bfaf 	sw	ra,900(sp)
    e6c4:	8003beaf 	sw	s8,896(sp)
    e6c8:	7c03b7af 	sw	s7,892(sp)
    e6cc:	7803b6af 	sw	s6,888(sp)
    e6d0:	7403b5af 	sw	s5,884(sp)
    e6d4:	7003b4af 	sw	s4,880(sp)
    e6d8:	6c03b3af 	sw	s3,876(sp)
    e6dc:	6803b2af 	sw	s2,872(sp)
    e6e0:	6403b1af 	sw	s1,868(sp)
    e6e4:	6003b0af 	sw	s0,864(sp)
    e6e8:	8803a4af 	sw	a0,904(sp)
    e6ec:	4c03a0af 	sw	zero,844(sp)
    e6f0:	4803a2af 	sw	v0,840(sp)
    e6f4:	1680023c 	lui	v0,0x8016
    e6f8:	90d04224 	addiu	v0,v0,-12144
    e6fc:	21104300 	addu	v0,v0,v1
    e700:	fc6d4390 	lbu	v1,28156(v0)
    e704:	00000000 	nop
    e708:	02006230 	andi	v0,v1,0x2
    e70c:	04004010 	beqz	v0,0xe720
    e710:	801f103c 	lui	s0,0x1f80
    e714:	0280023c 	lui	v0,0x8002
    e718:	cc7b0008 	j	0x1ef30
    e71c:	28ee4224 	addiu	v0,v0,-4568
    e720:	04006230 	andi	v0,v1,0x4
    e724:	03004010 	beqz	v0,0xe734
    e728:	0280023c 	lui	v0,0x8002
    e72c:	68ee4224 	addiu	v0,v0,-4504
    e730:	4c03a2af 	sw	v0,844(sp)
    e734:	4803a78f 	lw	a3,840(sp)
    e738:	ffff0224 	li	v0,-1
    e73c:	ffffe724 	addiu	a3,a3,-1
    e740:	7702e210 	beq	a3,v0,0xf120
    e744:	4803a7af 	sw	a3,840(sp)
    e748:	3400a827 	addiu	t0,sp,52
    e74c:	4c00a927 	addiu	t1,sp,76
    e750:	6400a727 	addiu	a3,sp,100
    e754:	5003a8af 	sw	t0,848(sp)
    e758:	5403a9af 	sw	t1,852(sp)
    e75c:	5803a7af 	sw	a3,856(sp)
    e760:	1b80033c 	lui	v1,0x801b
    e764:	4803a88f 	lw	t0,840(sp)
    e768:	48596324 	addiu	v1,v1,22856
    e76c:	40100800 	sll	v0,t0,0x1
    e770:	21104300 	addu	v0,v0,v1
    e774:	ce454294 	lhu	v0,17870(v0)
    e778:	00000000 	nop
    e77c:	40180200 	sll	v1,v0,0x1
    e780:	21186200 	addu	v1,v1,v0
    e784:	80180300 	sll	v1,v1,0x2
    e788:	1880023c 	lui	v0,0x8018
    e78c:	d0be4224 	addiu	v0,v0,-16688
    e790:	21206200 	addu	a0,v1,v0
    e794:	04008290 	lbu	v0,4(a0)
    e798:	00000000 	nop
    e79c:	03004230 	andi	v0,v0,0x3
    e7a0:	0d004014 	bnez	v0,0xe7d8
    e7a4:	00000000 	nop
    e7a8:	00008390 	lbu	v1,0(a0)
    e7ac:	00000000 	nop
    e7b0:	80100300 	sll	v0,v1,0x2
    e7b4:	21104300 	addu	v0,v0,v1
    e7b8:	c0100200 	sll	v0,v0,0x3
    e7bc:	0c00038e 	lw	v1,12(s0)
    e7c0:	0c004224 	addiu	v0,v0,12
    e7c4:	21186200 	addu	v1,v1,v0
    e7c8:	200003ae 	sw	v1,32(s0)
    e7cc:	0400628c 	lw	v0,4(v1)
    e7d0:	3f7e0008 	j	0x1f8fc
    e7d4:	00000000 	nop
    e7d8:	03008290 	lbu	v0,3(a0)
    e7dc:	00000000 	nop
    e7e0:	03004230 	andi	v0,v0,0x3
    e7e4:	80180200 	sll	v1,v0,0x2
    e7e8:	21186200 	addu	v1,v1,v0
    e7ec:	e40102ae 	sw	v0,484(s0)
    e7f0:	c403028e 	lw	v0,964(s0)
    e7f4:	80180300 	sll	v1,v1,0x2
    e7f8:	21104300 	addu	v0,v0,v1
    e7fc:	00004c8c 	lw	t4,0(v0)
    e800:	04004d8c 	lw	t5,4(v0)
    e804:	0040cc48 	ctc2	t4,$8
    e808:	0048cd48 	ctc2	t5,$9
    e80c:	08004c8c 	lw	t4,8(v0)
    e810:	0c004d8c 	lw	t5,12(v0)
    e814:	10004e8c 	lw	t6,16(v0)
    e818:	0050cc48 	ctc2	t4,$10
    e81c:	0058cd48 	ctc2	t5,$11
    e820:	0060ce48 	ctc2	t6,$12
    e824:	00008390 	lbu	v1,0(a0)
    e828:	00000000 	nop
    e82c:	80100300 	sll	v0,v1,0x2
    e830:	21104300 	addu	v0,v0,v1
    e834:	c0100200 	sll	v0,v0,0x3
    e838:	0c00038e 	lw	v1,12(s0)
    e83c:	0c004224 	addiu	v0,v0,12
    e840:	21186200 	addu	v1,v1,v0
    e844:	200003ae 	sw	v1,32(s0)
    e848:	0000638c 	lw	v1,0(v1)
    e84c:	0c00028e 	lw	v0,12(s0)
    e850:	2000048e 	lw	a0,32(s0)
    e854:	0c006324 	addiu	v1,v1,12
    e858:	21104300 	addu	v0,v0,v1
    e85c:	21288000 	move	a1,a0
    e860:	3c0002ae 	sw	v0,60(s0)
    e864:	0800838c 	lw	v1,8(a0)
    e868:	0c00028e 	lw	v0,12(s0)
    e86c:	0c006324 	addiu	v1,v1,12
    e870:	21104300 	addu	v0,v0,v1
    e874:	240002ae 	sw	v0,36(s0)
    e878:	1000a28c 	lw	v0,16(a1)
    e87c:	0c00038e 	lw	v1,12(s0)
    e880:	1800a494 	lhu	a0,24(a1)
    e884:	0c004224 	addiu	v0,v0,12
    e888:	21a06200 	addu	s4,v1,v0
    e88c:	80100400 	sll	v0,a0,0x2
    e890:	21104400 	addu	v0,v0,a0
    e894:	80100200 	sll	v0,v0,0x2
    e898:	21a08202 	addu	s4,s4,v0
    e89c:	1c00a394 	lhu	v1,28(a1)
    e8a0:	1e00a494 	lhu	a0,30(a1)
    e8a4:	c0100300 	sll	v0,v1,0x3
    e8a8:	23104300 	subu	v0,v0,v1
    e8ac:	80100200 	sll	v0,v0,0x2
    e8b0:	1a00a394 	lhu	v1,26(a1)
    e8b4:	21a08202 	addu	s4,s4,v0
    e8b8:	840104ae 	sw	a0,388(s0)
    e8bc:	40100300 	sll	v0,v1,0x1
    e8c0:	21104300 	addu	v0,v0,v1
    e8c4:	c0100200 	sll	v0,v0,0x3
    e8c8:	21a08202 	addu	s4,s4,v0
    e8cc:	21188000 	move	v1,a0
    e8d0:	b401028e 	lw	v0,436(s0)
    e8d4:	ffff6324 	addiu	v1,v1,-1
    e8d8:	840103ae 	sw	v1,388(s0)
    e8dc:	21104400 	addu	v0,v0,a0
    e8e0:	b40102ae 	sw	v0,436(s0)
    e8e4:	ffff0224 	li	v0,-1
    e8e8:	01026210 	beq	v1,v0,0xf0f0
    e8ec:	00000000 	nop
    e8f0:	1c009126 	addiu	s1,s4,28
    e8f4:	f6ff2396 	lhu	v1,-10(s1)
    e8f8:	3400028e 	lw	v0,52(s0)
    e8fc:	feff2496 	lhu	a0,-2(s1)
    e900:	21b84300 	addu	s7,v0,v1
    e904:	21b04400 	addu	s6,v0,a0
    e908:	faff2396 	lhu	v1,-6(s1)
    e90c:	0000e98e 	lw	t1,0(s7)
    e910:	0000c88e 	lw	t0,0(s6)
    e914:	21a84300 	addu	s5,v0,v1
    e918:	0000a78e 	lw	a3,0(s5)
    e91c:	00608948 	mtc2	t1,$12
    e920:	00708848 	mtc2	t0,$14
    e924:	00688748 	mtc2	a3,$13
	...
    e930:	0600404b 	c2	0x1400006
    e934:	efff2292 	lbu	v0,-17(s1)
    e938:	00000000 	nop
    e93c:	3c004234 	ori	v0,v0,0x3c
    e940:	470002a2 	sb	v0,71(s0)
    e944:	70000226 	addiu	v0,s0,112
    e948:	000058e8 	swc2	$24,0(v0)
    e94c:	1000098e 	lw	t1,16(s0)
    e950:	00000000 	nop
    e954:	08002ce9 	swc2	$12,8(t1)
    e958:	14002de9 	swc2	$13,20(t1)
    e95c:	20002ee9 	swc2	$14,32(t1)
    e960:	02002396 	lhu	v1,2(s1)
    e964:	3400028e 	lw	v0,52(s0)
    e968:	00000000 	nop
    e96c:	21f04300 	addu	s8,v0,v1
    e970:	0000c78f 	lw	a3,0(s8)
    e974:	00000000 	nop
    e978:	00608748 	mtc2	a3,$12
	...
    e984:	0600404b 	c2	0x1400006
    e988:	74000226 	addiu	v0,s0,116
    e98c:	000058e8 	swc2	$24,0(v0)
    e990:	7000028e 	lw	v0,112(s0)
    e994:	00000000 	nop
    e998:	0500401c 	bgtz	v0,0xe9b0
    e99c:	00000000 	nop
    e9a0:	7400028e 	lw	v0,116(s0)
    e9a4:	00000000 	nop
    e9a8:	ca014104 	bgez	v0,0xf0d4
    e9ac:	00000000 	nop
    e9b0:	1000028e 	lw	v0,16(s0)
    e9b4:	00000000 	nop
    e9b8:	2c004224 	addiu	v0,v0,44
    e9bc:	00004ce8 	swc2	$12,0(v0)
    e9c0:	0400e286 	lh	v0,4(s7)
    e9c4:	00000000 	nop
    e9c8:	840002ae 	sw	v0,132(s0)
    e9cc:	800002ae 	sw	v0,128(s0)
    e9d0:	0400a386 	lh	v1,4(s5)
    e9d4:	00000000 	nop
    e9d8:	2a104300 	slt	v0,v0,v1
    e9dc:	03004010 	beqz	v0,0xe9ec
    e9e0:	00000000 	nop
    e9e4:	840003ae 	sw	v1,132(s0)
    e9e8:	0400a386 	lh	v1,4(s5)
    e9ec:	8000028e 	lw	v0,128(s0)
    e9f0:	00000000 	nop
    e9f4:	2a106200 	slt	v0,v1,v0
    e9f8:	02004010 	beqz	v0,0xea04
    e9fc:	00000000 	nop
    ea00:	800003ae 	sw	v1,128(s0)
    ea04:	0400c386 	lh	v1,4(s6)
    ea08:	8400028e 	lw	v0,132(s0)
    ea0c:	00000000 	nop
    ea10:	2a104300 	slt	v0,v0,v1
    ea14:	03004010 	beqz	v0,0xea24
    ea18:	00000000 	nop
    ea1c:	840003ae 	sw	v1,132(s0)
    ea20:	0400c386 	lh	v1,4(s6)
    ea24:	8000028e 	lw	v0,128(s0)
    ea28:	00000000 	nop
    ea2c:	2a106200 	slt	v0,v1,v0
    ea30:	02004010 	beqz	v0,0xea3c
    ea34:	00000000 	nop
    ea38:	800003ae 	sw	v1,128(s0)
    ea3c:	0400c387 	lh	v1,4(s8)
    ea40:	8400028e 	lw	v0,132(s0)
    ea44:	00000000 	nop
    ea48:	2a104300 	slt	v0,v0,v1
    ea4c:	03004010 	beqz	v0,0xea5c
    ea50:	00000000 	nop
    ea54:	840003ae 	sw	v1,132(s0)
    ea58:	0400c387 	lh	v1,4(s8)
    ea5c:	8000028e 	lw	v0,128(s0)
    ea60:	00000000 	nop
    ea64:	2a106200 	slt	v0,v1,v0
    ea68:	02004010 	beqz	v0,0xea74
    ea6c:	00000000 	nop
    ea70:	800003ae 	sw	v1,128(s0)
    ea74:	8400028e 	lw	v0,132(s0)
    ea78:	eeff2382 	lb	v1,-18(s1)
    ea7c:	43110200 	sra	v0,v0,0x5
    ea80:	21184300 	addu	v1,v0,v1
    ea84:	00106228 	slti	v0,v1,4096
    ea88:	92014010 	beqz	v0,0xf0d4
    ea8c:	880003ae 	sw	v1,136(s0)
    ea90:	8c00028e 	lw	v0,140(s0)
    ea94:	00000000 	nop
    ea98:	2a106200 	slt	v0,v1,v0
    ea9c:	8d014014 	bnez	v0,0xf0d4
    eaa0:	00000000 	nop
    eaa4:	7000028e 	lw	v0,112(s0)
    eaa8:	00000000 	nop
    eaac:	01404228 	slti	v0,v0,16385
    eab0:	06004010 	beqz	v0,0xeacc
    eab4:	01000224 	li	v0,1
    eab8:	7400028e 	lw	v0,116(s0)
    eabc:	00000000 	nop
    eac0:	00c04228 	slti	v0,v0,-16384
    eac4:	0c014010 	beqz	v0,0xeef8
    eac8:	01000224 	li	v0,1
    eacc:	1000a2af 	sw	v0,16(sp)
    ead0:	7000038e 	lw	v1,112(s0)
    ead4:	00800234 	li	v0,0x8000
    ead8:	2a104300 	slt	v0,v0,v1
    eadc:	06004014 	bnez	v0,0xeaf8
    eae0:	02000224 	li	v0,2
    eae4:	7400028e 	lw	v0,116(s0)
    eae8:	00000000 	nop
    eaec:	00804228 	slti	v0,v0,-32768
    eaf0:	0d004010 	beqz	v0,0xeb28
    eaf4:	02000224 	li	v0,2
    eaf8:	1000a2af 	sw	v0,16(sp)
    eafc:	7000038e 	lw	v1,112(s0)
    eb00:	0100023c 	lui	v0,0x1
    eb04:	2a104300 	slt	v0,v0,v1
    eb08:	06004014 	bnez	v0,0xeb24
    eb0c:	03000224 	li	v0,3
    eb10:	7400028e 	lw	v0,116(s0)
    eb14:	ffff033c 	lui	v1,0xffff
    eb18:	2a104300 	slt	v0,v0,v1
    eb1c:	02004010 	beqz	v0,0xeb28
    eb20:	03000224 	li	v0,3
    eb24:	1000a2af 	sw	v0,16(sp)
    eb28:	40010224 	li	v0,320
    eb2c:	1400a2af 	sw	v0,20(sp)
    eb30:	f0000224 	li	v0,240
    eb34:	1800a2af 	sw	v0,24(sp)
    eb38:	e6ff2296 	lhu	v0,-26(s1)
    eb3c:	00000000 	nop
    eb40:	1c00a2a7 	sh	v0,28(sp)
    eb44:	eaff2296 	lhu	v0,-22(s1)
    eb48:	00000000 	nop
    eb4c:	1e00a2a7 	sh	v0,30(sp)
    eb50:	44000226 	addiu	v0,s0,68
    eb54:	000046c8 	lwc2	$6,0(v0)
    eb58:	f4ff2396 	lhu	v1,-12(s1)
    eb5c:	2400028e 	lw	v0,36(s0)
    eb60:	00000000 	nop
    eb64:	21104300 	addu	v0,v0,v1
    eb68:	000040c8 	lwc2	$0,0(v0)
    eb6c:	040041c8 	lwc2	$1,4(v0)
    eb70:	0600e896 	lhu	t0,6(s7)
    eb74:	00000000 	nop
    eb78:	00408848 	mtc2	t0,$8
	...
    eb84:	1304e84a 	c2	0xe80413
    eb88:	5003a98f 	lw	t1,848(sp)
    eb8c:	00000000 	nop
    eb90:	000036e9 	swc2	$22,0(t1)
    eb94:	f8ff2396 	lhu	v1,-8(s1)
    eb98:	2400028e 	lw	v0,36(s0)
    eb9c:	00000000 	nop
    eba0:	21104300 	addu	v0,v0,v1
    eba4:	000040c8 	lwc2	$0,0(v0)
    eba8:	040041c8 	lwc2	$1,4(v0)
    ebac:	0600a796 	lhu	a3,6(s5)
    ebb0:	00000000 	nop
    ebb4:	00408748 	mtc2	a3,$8
	...
    ebc0:	1304e84a 	c2	0xe80413
    ebc4:	5403a88f 	lw	t0,852(sp)
    ebc8:	00000000 	nop
    ebcc:	000016e9 	swc2	$22,0(t0)
    ebd0:	fcff2396 	lhu	v1,-4(s1)
    ebd4:	2400028e 	lw	v0,36(s0)
    ebd8:	00000000 	nop
    ebdc:	21104300 	addu	v0,v0,v1
    ebe0:	000040c8 	lwc2	$0,0(v0)
    ebe4:	040041c8 	lwc2	$1,4(v0)
    ebe8:	0600c996 	lhu	t1,6(s6)
    ebec:	00000000 	nop
    ebf0:	00408948 	mtc2	t1,$8
	...
    ebfc:	1304e84a 	c2	0xe80413
    ec00:	5803a78f 	lw	a3,856(sp)
    ec04:	00000000 	nop
    ec08:	0000f6e8 	swc2	$22,0(a3)
    ec0c:	00002396 	lhu	v1,0(s1)
    ec10:	2400028e 	lw	v0,36(s0)
    ec14:	00000000 	nop
    ec18:	21104300 	addu	v0,v0,v1
    ec1c:	000040c8 	lwc2	$0,0(v0)
    ec20:	040041c8 	lwc2	$1,4(v0)
    ec24:	0600c897 	lhu	t0,6(s8)
    ec28:	00000000 	nop
    ec2c:	00408848 	mtc2	t0,$8
	...
    ec38:	1304e84a 	c2	0xe80413
    ec3c:	7c00b227 	addiu	s2,sp,124
    ec40:	000056ea 	swc2	$22,0(s2)
    ec44:	0100023c 	lui	v0,0x1
    ec48:	00804234 	ori	v0,v0,0x8000
    ec4c:	1680093c 	lui	t1,0x8016
    ec50:	90d02925 	addiu	t1,t1,-12144
    ec54:	21982201 	addu	s3,t1,v0
    ec58:	fc6d6292 	lbu	v0,28156(s3)
    ec5c:	00000000 	nop
    ec60:	06004230 	andi	v0,v0,0x6
    ec64:	14004010 	beqz	v0,0xecb8
    ec68:	00000000 	nop
    ec6c:	5003a48f 	lw	a0,848(sp)
    ec70:	4c03a78f 	lw	a3,844(sp)
    ec74:	00000000 	nop
    ec78:	09f8e000 	jalr	a3
    ec7c:	00000000 	nop
    ec80:	5403a48f 	lw	a0,852(sp)
    ec84:	4c03a88f 	lw	t0,844(sp)
    ec88:	00000000 	nop
    ec8c:	09f80001 	jalr	t0
    ec90:	00000000 	nop
    ec94:	5803a48f 	lw	a0,856(sp)
    ec98:	4c03a98f 	lw	t1,844(sp)
    ec9c:	00000000 	nop
    eca0:	09f82001 	jalr	t1
    eca4:	00000000 	nop
    eca8:	4c03a78f 	lw	a3,844(sp)
    ecac:	00000000 	nop
    ecb0:	09f8e000 	jalr	a3
    ecb4:	21204002 	move	a0,s2
    ecb8:	e401028e 	lw	v0,484(s0)
    ecbc:	286d6326 	addiu	v1,s3,27944
    ecc0:	40110200 	sll	v0,v0,0x5
    ecc4:	21104300 	addu	v0,v0,v1
    ecc8:	00004c8c 	lw	t4,0(v0)
    eccc:	04004d8c 	lw	t5,4(v0)
    ecd0:	0000cc48 	ctc2	t4,$0
    ecd4:	0008cd48 	ctc2	t5,$1
    ecd8:	08004c8c 	lw	t4,8(v0)
    ecdc:	0c004d8c 	lw	t5,12(v0)
    ece0:	10004e8c 	lw	t6,16(v0)
    ece4:	0010cc48 	ctc2	t4,$2
    ece8:	0018cd48 	ctc2	t5,$3
    ecec:	0020ce48 	ctc2	t6,$4
    ecf0:	4803a88f 	lw	t0,840(sp)
    ecf4:	8803a98f 	lw	t1,904(sp)
    ecf8:	00110800 	sll	v0,t0,0x4
    ecfc:	21102201 	addu	v0,t1,v0
    ed00:	00004c8c 	lw	t4,0(v0)
    ed04:	04004d8c 	lw	t5,4(v0)
    ed08:	08004e8c 	lw	t6,8(v0)
    ed0c:	0028cc48 	ctc2	t4,$5
    ed10:	0030cd48 	ctc2	t5,$6
    ed14:	0038ce48 	ctc2	t6,$7
    ed18:	4700028a 	lwl	v0,71(s0)
    ed1c:	4400029a 	lwr	v0,68(s0)
    ed20:	00000000 	nop
    ed24:	2300a2ab 	swl	v0,35(sp)
    ed28:	2000a2bb 	swr	v0,32(sp)
    ed2c:	2800a227 	addiu	v0,sp,40
    ed30:	0001a2af 	sw	v0,256(sp)
    ed34:	4000a227 	addiu	v0,sp,64
    ed38:	0401a2af 	sw	v0,260(sp)
    ed3c:	5800a227 	addiu	v0,sp,88
    ed40:	0801a2af 	sw	v0,264(sp)
    ed44:	7000a227 	addiu	v0,sp,112
    ed48:	0c01a2af 	sw	v0,268(sp)
    ed4c:	8800028e 	lw	v0,136(s0)
    ed50:	0000038e 	lw	v1,0(s0)
    ed54:	80100200 	sll	v0,v0,0x2
    ed58:	21186200 	addu	v1,v1,v0
    ed5c:	2400a3af 	sw	v1,36(sp)
    ed60:	0300e28a 	lwl	v0,3(s7)
    ed64:	0000e29a 	lwr	v0,0(s7)
    ed68:	00000000 	nop
    ed6c:	3b00a2ab 	swl	v0,59(sp)
    ed70:	3800a2bb 	swr	v0,56(sp)
    ed74:	0300a28a 	lwl	v0,3(s5)
    ed78:	0000a29a 	lwr	v0,0(s5)
    ed7c:	00000000 	nop
    ed80:	5300a2ab 	swl	v0,83(sp)
    ed84:	5000a2bb 	swr	v0,80(sp)
    ed88:	0300c28a 	lwl	v0,3(s6)
    ed8c:	0000c29a 	lwr	v0,0(s6)
    ed90:	00000000 	nop
    ed94:	6b00a2ab 	swl	v0,107(sp)
    ed98:	6800a2bb 	swr	v0,104(sp)
    ed9c:	0300c28b 	lwl	v0,3(s8)
    eda0:	0000c29b 	lwr	v0,0(s8)
    eda4:	00000000 	nop
    eda8:	8300a2ab 	swl	v0,131(sp)
    edac:	8000a2bb 	swr	v0,128(sp)
    edb0:	0400e286 	lh	v0,4(s7)
    edb4:	00000000 	nop
    edb8:	3c00a2af 	sw	v0,60(sp)
    edbc:	0400a286 	lh	v0,4(s5)
    edc0:	00000000 	nop
    edc4:	5400a2af 	sw	v0,84(sp)
    edc8:	0400c286 	lh	v0,4(s6)
    edcc:	00000000 	nop
    edd0:	6c00a2af 	sw	v0,108(sp)
    edd4:	0400c287 	lh	v0,4(s8)
    edd8:	00000000 	nop
    eddc:	8400a2af 	sw	v0,132(sp)
    ede0:	f6ff2396 	lhu	v1,-10(s1)
    ede4:	3c00028e 	lw	v0,60(s0)
    ede8:	00000000 	nop
    edec:	21104300 	addu	v0,v0,v1
    edf0:	03004388 	lwl	v1,3(v0)
    edf4:	00004398 	lwr	v1,0(v0)
    edf8:	07004488 	lwl	a0,7(v0)
    edfc:	04004498 	lwr	a0,4(v0)
    ee00:	2b00a3ab 	swl	v1,43(sp)
    ee04:	2800a3bb 	swr	v1,40(sp)
    ee08:	2f00a4ab 	swl	a0,47(sp)
    ee0c:	2c00a4bb 	swr	a0,44(sp)
    ee10:	faff2396 	lhu	v1,-6(s1)
    ee14:	3c00028e 	lw	v0,60(s0)
    ee18:	00000000 	nop
    ee1c:	21104300 	addu	v0,v0,v1
    ee20:	03004388 	lwl	v1,3(v0)
    ee24:	00004398 	lwr	v1,0(v0)
    ee28:	07004488 	lwl	a0,7(v0)
    ee2c:	04004498 	lwr	a0,4(v0)
    ee30:	4300a3ab 	swl	v1,67(sp)
    ee34:	4000a3bb 	swr	v1,64(sp)
    ee38:	4700a4ab 	swl	a0,71(sp)
    ee3c:	4400a4bb 	swr	a0,68(sp)
    ee40:	feff2396 	lhu	v1,-2(s1)
    ee44:	3c00028e 	lw	v0,60(s0)
    ee48:	00000000 	nop
    ee4c:	21104300 	addu	v0,v0,v1
    ee50:	03004388 	lwl	v1,3(v0)
    ee54:	00004398 	lwr	v1,0(v0)
    ee58:	07004488 	lwl	a0,7(v0)
    ee5c:	04004498 	lwr	a0,4(v0)
    ee60:	5b00a3ab 	swl	v1,91(sp)
    ee64:	5800a3bb 	swr	v1,88(sp)
    ee68:	5f00a4ab 	swl	a0,95(sp)
    ee6c:	5c00a4bb 	swr	a0,92(sp)
    ee70:	02002396 	lhu	v1,2(s1)
    ee74:	3c00028e 	lw	v0,60(s0)
    ee78:	1000048e 	lw	a0,16(s0)
    ee7c:	21104300 	addu	v0,v0,v1
    ee80:	03004388 	lwl	v1,3(v0)
    ee84:	00004398 	lwr	v1,0(v0)
    ee88:	07004588 	lwl	a1,7(v0)
    ee8c:	04004598 	lwr	a1,4(v0)
    ee90:	7300a3ab 	swl	v1,115(sp)
    ee94:	7000a3bb 	swr	v1,112(sp)
    ee98:	7700a5ab 	swl	a1,119(sp)
    ee9c:	7400a5bb 	swr	a1,116(sp)
    eea0:	0000828e 	lw	v0,0(s4)
    eea4:	00000000 	nop
    eea8:	3000a2af 	sw	v0,48(sp)
    eeac:	e8ff228e 	lw	v0,-24(s1)
    eeb0:	20009426 	addiu	s4,s4,32
    eeb4:	4800a2af 	sw	v0,72(sp)
    eeb8:	ecff228e 	lw	v0,-20(s1)
    eebc:	1000a527 	addiu	a1,sp,16
    eec0:	6000a2af 	sw	v0,96(sp)
    eec4:	f0ff228e 	lw	v0,-16(s1)
    eec8:	20003126 	addiu	s1,s1,32
    eecc:	21da010c 	jal	0x76884
    eed0:	7800a2af 	sw	v0,120(sp)
    eed4:	100002ae 	sw	v0,16(s0)
    eed8:	01000224 	li	v0,1
    eedc:	1000a48f 	lw	a0,16(sp)
    eee0:	c001038e 	lw	v1,448(s0)
    eee4:	04108200 	sllv	v0,v0,a0
    eee8:	04108200 	sllv	v0,v0,a0
    eeec:	21186200 	addu	v1,v1,v0
    eef0:	377e0008 	j	0x1f8dc
    eef4:	c00103ae 	sw	v1,448(s0)
    eef8:	1000058e 	lw	a1,16(s0)
    eefc:	1400028e 	lw	v0,20(s0)
    ef00:	3400a324 	addiu	v1,a1,52
    ef04:	2b104300 	sltu	v0,v0,v1
    ef08:	85004014 	bnez	v0,0xf120
    ef0c:	00000000 	nop
    ef10:	bc01028e 	lw	v0,444(s0)
    ef14:	100003ae 	sw	v1,16(s0)
    ef18:	01004224 	addiu	v0,v0,1
    ef1c:	bc0102ae 	sw	v0,444(s0)
    ef20:	44000226 	addiu	v0,s0,68
    ef24:	000046c8 	lwc2	$6,0(v0)
    ef28:	f4ff2396 	lhu	v1,-12(s1)
    ef2c:	2400028e 	lw	v0,36(s0)
    ef30:	00000000 	nop
    ef34:	21104300 	addu	v0,v0,v1
    ef38:	000040c8 	lwc2	$0,0(v0)
    ef3c:	040041c8 	lwc2	$1,4(v0)
    ef40:	0600f796 	lhu	s7,6(s7)
    ef44:	00000000 	nop
    ef48:	00409748 	mtc2	s7,$8
    ef4c:	0000828e 	lw	v0,0(s4)
    ef50:	00000000 	nop
    ef54:	0c00a2ac 	sw	v0,12(a1)
    ef58:	1304e84a 	c2	0xe80413
    ef5c:	e8ff228e 	lw	v0,-24(s1)
    ef60:	00000000 	nop
    ef64:	1800a2ac 	sw	v0,24(a1)
    ef68:	ecff2296 	lhu	v0,-20(s1)
    ef6c:	0400a624 	addiu	a2,a1,4
    ef70:	2400a2a4 	sh	v0,36(a1)
    ef74:	0000d6e8 	swc2	$22,0(a2)
    ef78:	f8ff2396 	lhu	v1,-8(s1)
    ef7c:	2400028e 	lw	v0,36(s0)
    ef80:	00000000 	nop
    ef84:	21104300 	addu	v0,v0,v1
    ef88:	000040c8 	lwc2	$0,0(v0)
    ef8c:	040041c8 	lwc2	$1,4(v0)
    ef90:	0600b596 	lhu	s5,6(s5)
    ef94:	00000000 	nop
    ef98:	00409548 	mtc2	s5,$8
	...
    efa4:	1304e84a 	c2	0xe80413
    efa8:	f0ff2296 	lhu	v0,-16(s1)
    efac:	1000b524 	addiu	s5,a1,16
    efb0:	3000a2a4 	sh	v0,48(a1)
    efb4:	0000b6ea 	swc2	$22,0(s5)
    efb8:	fcff2396 	lhu	v1,-4(s1)
    efbc:	2400028e 	lw	v0,36(s0)
    efc0:	00000000 	nop
    efc4:	21104300 	addu	v0,v0,v1
    efc8:	000040c8 	lwc2	$0,0(v0)
    efcc:	040041c8 	lwc2	$1,4(v0)
    efd0:	0600d696 	lhu	s6,6(s6)
    efd4:	00000000 	nop
    efd8:	00409648 	mtc2	s6,$8
	...
    efe4:	1304e84a 	c2	0xe80413
    efe8:	ff00043c 	lui	a0,0xff
    efec:	ffff8434 	ori	a0,a0,0xffff
    eff0:	1c00b324 	addiu	s3,a1,28
    eff4:	8800028e 	lw	v0,136(s0)
    eff8:	0000038e 	lw	v1,0(s0)
    effc:	80100200 	sll	v0,v0,0x2
    f000:	21104300 	addu	v0,v0,v1
    f004:	0000428c 	lw	v0,0(v0)
    f008:	000c033c 	lui	v1,0xc00
    f00c:	24104400 	and	v0,v0,a0
    f010:	25104300 	or	v0,v0,v1
    f014:	0000a2ac 	sw	v0,0(a1)
    f018:	000076ea 	swc2	$22,0(s3)
    f01c:	00002396 	lhu	v1,0(s1)
    f020:	2400028e 	lw	v0,36(s0)
    f024:	00000000 	nop
    f028:	21104300 	addu	v0,v0,v1
    f02c:	000040c8 	lwc2	$0,0(v0)
    f030:	040041c8 	lwc2	$1,4(v0)
    f034:	0600de97 	lhu	s8,6(s8)
    f038:	00000000 	nop
    f03c:	00409e48 	mtc2	s8,$8
	...
    f048:	1304e84a 	c2	0xe80413
    f04c:	2420a400 	and	a0,a1,a0
    f050:	2800b224 	addiu	s2,a1,40
    f054:	8800028e 	lw	v0,136(s0)
    f058:	0000038e 	lw	v1,0(s0)
    f05c:	80100200 	sll	v0,v0,0x2
    f060:	21104300 	addu	v0,v0,v1
    f064:	000044ac 	sw	a0,0(v0)
    f068:	000056ea 	swc2	$22,0(s2)
    f06c:	0100023c 	lui	v0,0x1
    f070:	00804234 	ori	v0,v0,0x8000
    f074:	1680083c 	lui	t0,0x8016
    f078:	90d00825 	addiu	t0,t0,-12144
    f07c:	21100201 	addu	v0,t0,v0
    f080:	fc6d4290 	lbu	v0,28156(v0)
    f084:	00000000 	nop
    f088:	06004230 	andi	v0,v0,0x6
    f08c:	11004010 	beqz	v0,0xf0d4
    f090:	00000000 	nop
    f094:	4c03a98f 	lw	t1,844(sp)
    f098:	00000000 	nop
    f09c:	09f82001 	jalr	t1
    f0a0:	2120c000 	move	a0,a2
    f0a4:	4c03a78f 	lw	a3,844(sp)
    f0a8:	00000000 	nop
    f0ac:	09f8e000 	jalr	a3
    f0b0:	2120a002 	move	a0,s5
    f0b4:	4c03a88f 	lw	t0,844(sp)
    f0b8:	00000000 	nop
    f0bc:	09f80001 	jalr	t0
    f0c0:	21206002 	move	a0,s3
    f0c4:	4c03a98f 	lw	t1,844(sp)
    f0c8:	00000000 	nop
    f0cc:	09f82001 	jalr	t1
    f0d0:	21204002 	move	a0,s2
    f0d4:	20003126 	addiu	s1,s1,32
    f0d8:	20009426 	addiu	s4,s4,32
    f0dc:	8401038e 	lw	v1,388(s0)
    f0e0:	ffff0224 	li	v0,-1
    f0e4:	ffff6324 	addiu	v1,v1,-1
    f0e8:	02fe6214 	bne	v1,v0,0xe8f4
    f0ec:	840103ae 	sw	v1,388(s0)
    f0f0:	2000028e 	lw	v0,32(s0)
    f0f4:	00000000 	nop
    f0f8:	0400428c 	lw	v0,4(v0)
    f0fc:	3400038e 	lw	v1,52(s0)
    f100:	c0100200 	sll	v0,v0,0x3
    f104:	21186200 	addu	v1,v1,v0
    f108:	340003ae 	sw	v1,52(s0)
    f10c:	4803a78f 	lw	a3,840(sp)
    f110:	ffff0224 	li	v0,-1
    f114:	ffffe724 	addiu	a3,a3,-1
    f118:	91fde214 	bne	a3,v0,0xe760
    f11c:	4803a7af 	sw	a3,840(sp)
    f120:	8403bf8f 	lw	ra,900(sp)
    f124:	8003be8f 	lw	s8,896(sp)
    f128:	7c03b78f 	lw	s7,892(sp)
    f12c:	7803b68f 	lw	s6,888(sp)
    f130:	7403b58f 	lw	s5,884(sp)
    f134:	7003b48f 	lw	s4,880(sp)
    f138:	6c03b38f 	lw	s3,876(sp)
    f13c:	6803b28f 	lw	s2,872(sp)
    f140:	6403b18f 	lw	s1,868(sp)
    f144:	6003b08f 	lw	s0,864(sp)
    f148:	8803bd27 	addiu	sp,sp,904
    f14c:	0800e003 	jr	ra
    f150:	00000000 	nop
    f154:	f0ffbd27 	addiu	sp,sp,-16
    f158:	1b80023c 	lui	v0,0x801b
    f15c:	48594324 	addiu	v1,v0,22856
    f160:	0800b2af 	sw	s2,8(sp)
    f164:	0400b1af 	sw	s1,4(sp)
    f168:	0000b0af 	sw	s0,0(sp)
    f16c:	cc446b94 	lhu	t3,17612(v1)
    f170:	ffff0224 	li	v0,-1
    f174:	ffff6b25 	addiu	t3,t3,-1
    f178:	db006211 	beq	t3,v0,0xf4e8
    f17c:	801f053c 	lui	a1,0x1f80
    f180:	21c86000 	move	t9,v1
    f184:	1880023c 	lui	v0,0x8018
    f188:	d0be5824 	addiu	t8,v0,-16688
    f18c:	ff000f3c 	lui	t7,0xff
    f190:	ffffef35 	ori	t7,t7,0xffff
    f194:	40100b00 	sll	v0,t3,0x1
    f198:	21105900 	addu	v0,v0,t9
    f19c:	ce454394 	lhu	v1,17870(v0)
    f1a0:	00000000 	nop
    f1a4:	40100300 	sll	v0,v1,0x1
    f1a8:	21104300 	addu	v0,v0,v1
    f1ac:	80100200 	sll	v0,v0,0x2
    f1b0:	21205800 	addu	a0,v0,t8
    f1b4:	04008290 	lbu	v0,4(a0)
    f1b8:	00000000 	nop
    f1bc:	03004230 	andi	v0,v0,0x3
    f1c0:	0d004010 	beqz	v0,0xf1f8
    f1c4:	00000000 	nop
    f1c8:	00008390 	lbu	v1,0(a0)
    f1cc:	00000000 	nop
    f1d0:	80100300 	sll	v0,v1,0x2
    f1d4:	21104300 	addu	v0,v0,v1
    f1d8:	c0100200 	sll	v0,v0,0x3
    f1dc:	0c00a38c 	lw	v1,12(a1)
    f1e0:	0c004224 	addiu	v0,v0,12
    f1e4:	21186200 	addu	v1,v1,v0
    f1e8:	2000a3ac 	sw	v1,32(a1)
    f1ec:	0400628c 	lw	v0,4(v1)
    f1f0:	337f0008 	j	0x1fccc
    f1f4:	00000000 	nop
    f1f8:	03008290 	lbu	v0,3(a0)
    f1fc:	00000000 	nop
    f200:	03004230 	andi	v0,v0,0x3
    f204:	80180200 	sll	v1,v0,0x2
    f208:	21186200 	addu	v1,v1,v0
    f20c:	e401a2ac 	sw	v0,484(a1)
    f210:	c403a28c 	lw	v0,964(a1)
    f214:	80180300 	sll	v1,v1,0x2
    f218:	21104300 	addu	v0,v0,v1
    f21c:	00004c8c 	lw	t4,0(v0)
    f220:	04004d8c 	lw	t5,4(v0)
    f224:	0040cc48 	ctc2	t4,$8
    f228:	0048cd48 	ctc2	t5,$9
    f22c:	08004c8c 	lw	t4,8(v0)
    f230:	0c004d8c 	lw	t5,12(v0)
    f234:	10004e8c 	lw	t6,16(v0)
    f238:	0050cc48 	ctc2	t4,$10
    f23c:	0058cd48 	ctc2	t5,$11
    f240:	0060ce48 	ctc2	t6,$12
    f244:	00008390 	lbu	v1,0(a0)
    f248:	00000000 	nop
    f24c:	80100300 	sll	v0,v1,0x2
    f250:	21104300 	addu	v0,v0,v1
    f254:	c0100200 	sll	v0,v0,0x3
    f258:	0c00a38c 	lw	v1,12(a1)
    f25c:	0c004224 	addiu	v0,v0,12
    f260:	21186200 	addu	v1,v1,v0
    f264:	2000a3ac 	sw	v1,32(a1)
    f268:	0000638c 	lw	v1,0(v1)
    f26c:	0c00a28c 	lw	v0,12(a1)
    f270:	2000a48c 	lw	a0,32(a1)
    f274:	0c006324 	addiu	v1,v1,12
    f278:	21104300 	addu	v0,v0,v1
    f27c:	3c00a2ac 	sw	v0,60(a1)
    f280:	0800838c 	lw	v1,8(a0)
    f284:	0c00a28c 	lw	v0,12(a1)
    f288:	0c006324 	addiu	v1,v1,12
    f28c:	21104300 	addu	v0,v0,v1
    f290:	2400a2ac 	sw	v0,36(a1)
    f294:	1000828c 	lw	v0,16(a0)
    f298:	18008a94 	lhu	t2,24(a0)
    f29c:	0c00a48c 	lw	a0,12(a1)
    f2a0:	b401a38c 	lw	v1,436(a1)
    f2a4:	0c004224 	addiu	v0,v0,12
    f2a8:	21488200 	addu	t1,a0,v0
    f2ac:	21186a00 	addu	v1,v1,t2
    f2b0:	21104001 	move	v0,t2
    f2b4:	ffff4a25 	addiu	t2,t2,-1
    f2b8:	81004010 	beqz	v0,0xf4c0
    f2bc:	b401a3ac 	sw	v1,436(a1)
    f2c0:	08002625 	addiu	a2,t1,8
    f2c4:	0600c394 	lhu	v1,6(a2)
    f2c8:	3400a28c 	lw	v0,52(a1)
    f2cc:	0a00c494 	lhu	a0,10(a2)
    f2d0:	21404300 	addu	t0,v0,v1
    f2d4:	21204400 	addu	a0,v0,a0
    f2d8:	0800c394 	lhu	v1,8(a2)
    f2dc:	0000108d 	lw	s0,0(t0)
    f2e0:	0000928c 	lw	s2,0(a0)
    f2e4:	21384300 	addu	a3,v0,v1
    f2e8:	0000f18c 	lw	s1,0(a3)
    f2ec:	00609048 	mtc2	s0,$12
    f2f0:	00709248 	mtc2	s2,$14
    f2f4:	00689148 	mtc2	s1,$13
	...
    f300:	0600404b 	c2	0x1400006
    f304:	0300c290 	lbu	v0,3(a2)
    f308:	00000000 	nop
    f30c:	24004234 	ori	v0,v0,0x24
    f310:	4700a2a0 	sb	v0,71(a1)
    f314:	7000a224 	addiu	v0,a1,112
    f318:	000058e8 	swc2	$24,0(v0)
    f31c:	7000a28c 	lw	v0,112(a1)
    f320:	00000000 	nop
    f324:	31004018 	blez	v0,0xf3ec
    f328:	00000000 	nop
    f32c:	1000b08c 	lw	s0,16(a1)
    f330:	00000000 	nop
    f334:	08000cea 	swc2	$12,8(s0)
    f338:	10000dea 	swc2	$13,16(s0)
    f33c:	18000eea 	swc2	$14,24(s0)
    f340:	04000285 	lh	v0,4(t0)
    f344:	00000000 	nop
    f348:	8400a2ac 	sw	v0,132(a1)
    f34c:	8000a2ac 	sw	v0,128(a1)
    f350:	0400e384 	lh	v1,4(a3)
    f354:	00000000 	nop
    f358:	2a104300 	slt	v0,v0,v1
    f35c:	03004010 	beqz	v0,0xf36c
    f360:	00000000 	nop
    f364:	8400a3ac 	sw	v1,132(a1)
    f368:	0400e384 	lh	v1,4(a3)
    f36c:	8000a28c 	lw	v0,128(a1)
    f370:	00000000 	nop
    f374:	2a106200 	slt	v0,v1,v0
    f378:	02004010 	beqz	v0,0xf384
    f37c:	00000000 	nop
    f380:	8000a3ac 	sw	v1,128(a1)
    f384:	04008384 	lh	v1,4(a0)
    f388:	8400a28c 	lw	v0,132(a1)
    f38c:	00000000 	nop
    f390:	2a104300 	slt	v0,v0,v1
    f394:	03004010 	beqz	v0,0xf3a4
    f398:	00000000 	nop
    f39c:	8400a3ac 	sw	v1,132(a1)
    f3a0:	04008384 	lh	v1,4(a0)
    f3a4:	8000a28c 	lw	v0,128(a1)
    f3a8:	00000000 	nop
    f3ac:	2a106200 	slt	v0,v1,v0
    f3b0:	02004010 	beqz	v0,0xf3bc
    f3b4:	00000000 	nop
    f3b8:	8000a3ac 	sw	v1,128(a1)
    f3bc:	8400a28c 	lw	v0,132(a1)
    f3c0:	0200c380 	lb	v1,2(a2)
    f3c4:	43110200 	sra	v0,v0,0x5
    f3c8:	21184300 	addu	v1,v0,v1
    f3cc:	00106228 	slti	v0,v1,4096
    f3d0:	06004010 	beqz	v0,0xf3ec
    f3d4:	8800a3ac 	sw	v1,136(a1)
    f3d8:	8c00a28c 	lw	v0,140(a1)
    f3dc:	00000000 	nop
    f3e0:	2a106200 	slt	v0,v1,v0
    f3e4:	04004010 	beqz	v0,0xf3f8
    f3e8:	00000000 	nop
    f3ec:	1400c624 	addiu	a2,a2,20
    f3f0:	2d7f0008 	j	0x1fcb4
    f3f4:	14002925 	addiu	t1,t1,20
    f3f8:	1000a48c 	lw	a0,16(a1)
    f3fc:	1400a28c 	lw	v0,20(a1)
    f400:	20008324 	addiu	v1,a0,32
    f404:	2b104300 	sltu	v0,v0,v1
    f408:	37004014 	bnez	v0,0xf4e8
    f40c:	00000000 	nop
    f410:	bc01a28c 	lw	v0,444(a1)
    f414:	1000a3ac 	sw	v1,16(a1)
    f418:	01004224 	addiu	v0,v0,1
    f41c:	bc01a2ac 	sw	v0,444(a1)
    f420:	0400c394 	lhu	v1,4(a2)
    f424:	2400a28c 	lw	v0,36(a1)
    f428:	00000000 	nop
    f42c:	21104300 	addu	v0,v0,v1
    f430:	000040c8 	lwc2	$0,0(v0)
    f434:	040041c8 	lwc2	$1,4(v0)
    f438:	4400a224 	addiu	v0,a1,68
    f43c:	000046c8 	lwc2	$6,0(v0)
    f440:	0000228d 	lw	v0,0(t1)
    f444:	00000000 	nop
    f448:	0c0082ac 	sw	v0,12(a0)
    f44c:	fcffc28c 	lw	v0,-4(a2)
    f450:	00000000 	nop
    f454:	140082ac 	sw	v0,20(a0)
    f458:	1b04084b 	c2	0x108041b
    f45c:	0000c294 	lhu	v0,0(a2)
    f460:	00000000 	nop
    f464:	1c0082a4 	sh	v0,28(a0)
    f468:	8800a28c 	lw	v0,136(a1)
    f46c:	0000a38c 	lw	v1,0(a1)
    f470:	80100200 	sll	v0,v0,0x2
    f474:	21104300 	addu	v0,v0,v1
    f478:	0000428c 	lw	v0,0(v0)
    f47c:	0007033c 	lui	v1,0x700
    f480:	24104f00 	and	v0,v0,t7
    f484:	25104300 	or	v0,v0,v1
    f488:	000082ac 	sw	v0,0(a0)
    f48c:	04008224 	addiu	v0,a0,4
    f490:	000056e8 	swc2	$22,0(v0)
    f494:	1400c624 	addiu	a2,a2,20
    f498:	14002925 	addiu	t1,t1,20
    f49c:	8800a28c 	lw	v0,136(a1)
    f4a0:	0000a38c 	lw	v1,0(a1)
    f4a4:	80100200 	sll	v0,v0,0x2
    f4a8:	21104300 	addu	v0,v0,v1
    f4ac:	24188f00 	and	v1,a0,t7
    f4b0:	000043ac 	sw	v1,0(v0)
    f4b4:	21104001 	move	v0,t2
    f4b8:	82ff4014 	bnez	v0,0xf2c4
    f4bc:	ffff4a25 	addiu	t2,t2,-1
    f4c0:	2000a28c 	lw	v0,32(a1)
    f4c4:	00000000 	nop
    f4c8:	0400428c 	lw	v0,4(v0)
    f4cc:	3400a38c 	lw	v1,52(a1)
    f4d0:	c0100200 	sll	v0,v0,0x3
    f4d4:	21186200 	addu	v1,v1,v0
    f4d8:	ffff6b25 	addiu	t3,t3,-1
    f4dc:	ffff0224 	li	v0,-1
    f4e0:	2cff6215 	bne	t3,v0,0xf194
    f4e4:	3400a3ac 	sw	v1,52(a1)
    f4e8:	0800b28f 	lw	s2,8(sp)
    f4ec:	0400b18f 	lw	s1,4(sp)
    f4f0:	0000b08f 	lw	s0,0(sp)
    f4f4:	1000bd27 	addiu	sp,sp,16
    f4f8:	0800e003 	jr	ra
    f4fc:	00000000 	nop
    f500:	f0ffbd27 	addiu	sp,sp,-16
    f504:	1b80023c 	lui	v0,0x801b
    f508:	48594324 	addiu	v1,v0,22856
    f50c:	0800b2af 	sw	s2,8(sp)
    f510:	0400b1af 	sw	s1,4(sp)
    f514:	0000b0af 	sw	s0,0(sp)
    f518:	cc446f94 	lhu	t7,17612(v1)
    f51c:	ffff0224 	li	v0,-1
    f520:	ffffef25 	addiu	t7,t7,-1
    f524:	0901e211 	beq	t7,v0,0xf94c
    f528:	801f053c 	lui	a1,0x1f80
    f52c:	21c86000 	move	t9,v1
    f530:	ff00183c 	lui	t8,0xff
    f534:	ffff1837 	ori	t8,t8,0xffff
    f538:	40100f00 	sll	v0,t7,0x1
    f53c:	21105900 	addu	v0,v0,t9
    f540:	ce454294 	lhu	v0,17870(v0)
    f544:	00000000 	nop
    f548:	40180200 	sll	v1,v0,0x1
    f54c:	21186200 	addu	v1,v1,v0
    f550:	80180300 	sll	v1,v1,0x2
    f554:	1880023c 	lui	v0,0x8018
    f558:	d0be4224 	addiu	v0,v0,-16688
    f55c:	21206200 	addu	a0,v1,v0
    f560:	04008290 	lbu	v0,4(a0)
    f564:	00000000 	nop
    f568:	03004230 	andi	v0,v0,0x3
    f56c:	0d004010 	beqz	v0,0xf5a4
    f570:	00000000 	nop
    f574:	00008390 	lbu	v1,0(a0)
    f578:	00000000 	nop
    f57c:	80100300 	sll	v0,v1,0x2
    f580:	21104300 	addu	v0,v0,v1
    f584:	c0100200 	sll	v0,v0,0x3
    f588:	0c00a38c 	lw	v1,12(a1)
    f58c:	0c004224 	addiu	v0,v0,12
    f590:	21186200 	addu	v1,v1,v0
    f594:	2000a3ac 	sw	v1,32(a1)
    f598:	0400628c 	lw	v0,4(v1)
    f59c:	4c800008 	j	0x20130
    f5a0:	00000000 	nop
    f5a4:	03008290 	lbu	v0,3(a0)
    f5a8:	00000000 	nop
    f5ac:	03004230 	andi	v0,v0,0x3
    f5b0:	80180200 	sll	v1,v0,0x2
    f5b4:	21186200 	addu	v1,v1,v0
    f5b8:	e401a2ac 	sw	v0,484(a1)
    f5bc:	c403a28c 	lw	v0,964(a1)
    f5c0:	80180300 	sll	v1,v1,0x2
    f5c4:	21104300 	addu	v0,v0,v1
    f5c8:	00004c8c 	lw	t4,0(v0)
    f5cc:	04004d8c 	lw	t5,4(v0)
    f5d0:	0040cc48 	ctc2	t4,$8
    f5d4:	0048cd48 	ctc2	t5,$9
    f5d8:	08004c8c 	lw	t4,8(v0)
    f5dc:	0c004d8c 	lw	t5,12(v0)
    f5e0:	10004e8c 	lw	t6,16(v0)
    f5e4:	0050cc48 	ctc2	t4,$10
    f5e8:	0058cd48 	ctc2	t5,$11
    f5ec:	0060ce48 	ctc2	t6,$12
    f5f0:	00008390 	lbu	v1,0(a0)
    f5f4:	00000000 	nop
    f5f8:	80100300 	sll	v0,v1,0x2
    f5fc:	21104300 	addu	v0,v0,v1
    f600:	c0100200 	sll	v0,v0,0x3
    f604:	0c00a38c 	lw	v1,12(a1)
    f608:	0c004224 	addiu	v0,v0,12
    f60c:	21186200 	addu	v1,v1,v0
    f610:	2000a3ac 	sw	v1,32(a1)
    f614:	0000638c 	lw	v1,0(v1)
    f618:	0c00a28c 	lw	v0,12(a1)
    f61c:	2000a48c 	lw	a0,32(a1)
    f620:	0c006324 	addiu	v1,v1,12
    f624:	21104300 	addu	v0,v0,v1
    f628:	3c00a2ac 	sw	v0,60(a1)
    f62c:	0800838c 	lw	v1,8(a0)
    f630:	0c00a28c 	lw	v0,12(a1)
    f634:	0c006324 	addiu	v1,v1,12
    f638:	21104300 	addu	v0,v0,v1
    f63c:	2400a2ac 	sw	v0,36(a1)
    f640:	1000828c 	lw	v0,16(a0)
    f644:	1c008b94 	lhu	t3,28(a0)
    f648:	0c00a38c 	lw	v1,12(a1)
    f64c:	18008494 	lhu	a0,24(a0)
    f650:	0c004224 	addiu	v0,v0,12
    f654:	21506200 	addu	t2,v1,v0
    f658:	80100400 	sll	v0,a0,0x2
    f65c:	21104400 	addu	v0,v0,a0
    f660:	80100200 	sll	v0,v0,0x2
    f664:	21504201 	addu	t2,t2,v0
    f668:	b401a38c 	lw	v1,436(a1)
    f66c:	21106001 	move	v0,t3
    f670:	21186b00 	addu	v1,v1,t3
    f674:	ffff6b25 	addiu	t3,t3,-1
    f678:	aa004010 	beqz	v0,0xf924
    f67c:	b401a3ac 	sw	v1,436(a1)
    f680:	0c004625 	addiu	a2,t2,12
    f684:	0600c394 	lhu	v1,6(a2)
    f688:	3400a28c 	lw	v0,52(a1)
    f68c:	0a00c494 	lhu	a0,10(a2)
    f690:	21404300 	addu	t0,v0,v1
    f694:	21204400 	addu	a0,v0,a0
    f698:	0800c394 	lhu	v1,8(a2)
    f69c:	0000108d 	lw	s0,0(t0)
    f6a0:	0000928c 	lw	s2,0(a0)
    f6a4:	21384300 	addu	a3,v0,v1
    f6a8:	0000f18c 	lw	s1,0(a3)
    f6ac:	00609048 	mtc2	s0,$12
    f6b0:	00709248 	mtc2	s2,$14
    f6b4:	00689148 	mtc2	s1,$13
	...
    f6c0:	0600404b 	c2	0x1400006
    f6c4:	ffffc290 	lbu	v0,-1(a2)
    f6c8:	00000000 	nop
    f6cc:	2c004234 	ori	v0,v0,0x2c
    f6d0:	4700a2a0 	sb	v0,71(a1)
    f6d4:	7000a224 	addiu	v0,a1,112
    f6d8:	000058e8 	swc2	$24,0(v0)
    f6dc:	0c00c394 	lhu	v1,12(a2)
    f6e0:	3400a28c 	lw	v0,52(a1)
    f6e4:	1000b08c 	lw	s0,16(a1)
    f6e8:	21484300 	addu	t1,v0,v1
    f6ec:	08000cea 	swc2	$12,8(s0)
    f6f0:	10000dea 	swc2	$13,16(s0)
    f6f4:	18000eea 	swc2	$14,24(s0)
    f6f8:	0000318d 	lw	s1,0(t1)
    f6fc:	00000000 	nop
    f700:	00609148 	mtc2	s1,$12
	...
    f70c:	0600404b 	c2	0x1400006
    f710:	7400a224 	addiu	v0,a1,116
    f714:	000058e8 	swc2	$24,0(v0)
    f718:	7000a28c 	lw	v0,112(a1)
    f71c:	00000000 	nop
    f720:	0500401c 	bgtz	v0,0xf738
    f724:	00000000 	nop
    f728:	7400a28c 	lw	v0,116(a1)
    f72c:	00000000 	nop
    f730:	3e004104 	bgez	v0,0xf82c
    f734:	00000000 	nop
    f738:	1000a28c 	lw	v0,16(a1)
    f73c:	00000000 	nop
    f740:	20004224 	addiu	v0,v0,32
    f744:	00004ce8 	swc2	$12,0(v0)
    f748:	04000285 	lh	v0,4(t0)
    f74c:	00000000 	nop
    f750:	8400a2ac 	sw	v0,132(a1)
    f754:	8000a2ac 	sw	v0,128(a1)
    f758:	0400e384 	lh	v1,4(a3)
    f75c:	00000000 	nop
    f760:	2a104300 	slt	v0,v0,v1
    f764:	03004010 	beqz	v0,0xf774
    f768:	00000000 	nop
    f76c:	8400a3ac 	sw	v1,132(a1)
    f770:	0400e384 	lh	v1,4(a3)
    f774:	8000a28c 	lw	v0,128(a1)
    f778:	00000000 	nop
    f77c:	2a106200 	slt	v0,v1,v0
    f780:	02004010 	beqz	v0,0xf78c
    f784:	00000000 	nop
    f788:	8000a3ac 	sw	v1,128(a1)
    f78c:	04008384 	lh	v1,4(a0)
    f790:	8400a28c 	lw	v0,132(a1)
    f794:	00000000 	nop
    f798:	2a104300 	slt	v0,v0,v1
    f79c:	03004010 	beqz	v0,0xf7ac
    f7a0:	00000000 	nop
    f7a4:	8400a3ac 	sw	v1,132(a1)
    f7a8:	04008384 	lh	v1,4(a0)
    f7ac:	8000a28c 	lw	v0,128(a1)
    f7b0:	00000000 	nop
    f7b4:	2a106200 	slt	v0,v1,v0
    f7b8:	02004010 	beqz	v0,0xf7c4
    f7bc:	00000000 	nop
    f7c0:	8000a3ac 	sw	v1,128(a1)
    f7c4:	04002385 	lh	v1,4(t1)
    f7c8:	8400a28c 	lw	v0,132(a1)
    f7cc:	00000000 	nop
    f7d0:	2a104300 	slt	v0,v0,v1
    f7d4:	03004010 	beqz	v0,0xf7e4
    f7d8:	00000000 	nop
    f7dc:	8400a3ac 	sw	v1,132(a1)
    f7e0:	04002385 	lh	v1,4(t1)
    f7e4:	8000a28c 	lw	v0,128(a1)
    f7e8:	00000000 	nop
    f7ec:	2a106200 	slt	v0,v1,v0
    f7f0:	02004010 	beqz	v0,0xf7fc
    f7f4:	00000000 	nop
    f7f8:	8000a3ac 	sw	v1,128(a1)
    f7fc:	8400a28c 	lw	v0,132(a1)
    f800:	feffc380 	lb	v1,-2(a2)
    f804:	43110200 	sra	v0,v0,0x5
    f808:	21184300 	addu	v1,v0,v1
    f80c:	00106228 	slti	v0,v1,4096
    f810:	06004010 	beqz	v0,0xf82c
    f814:	8800a3ac 	sw	v1,136(a1)
    f818:	8c00a28c 	lw	v0,140(a1)
    f81c:	00000000 	nop
    f820:	2a106200 	slt	v0,v1,v0
    f824:	04004010 	beqz	v0,0xf838
    f828:	00000000 	nop
    f82c:	1c00c624 	addiu	a2,a2,28
    f830:	46800008 	j	0x20118
    f834:	1c004a25 	addiu	t2,t2,28
    f838:	1000a48c 	lw	a0,16(a1)
    f83c:	1400a28c 	lw	v0,20(a1)
    f840:	28008324 	addiu	v1,a0,40
    f844:	2b104300 	sltu	v0,v0,v1
    f848:	40004014 	bnez	v0,0xf94c
    f84c:	00000000 	nop
    f850:	bc01a28c 	lw	v0,444(a1)
    f854:	1000a3ac 	sw	v1,16(a1)
    f858:	01004224 	addiu	v0,v0,1
    f85c:	bc01a2ac 	sw	v0,444(a1)
    f860:	f6ffc294 	lhu	v0,-10(a2)
    f864:	00000000 	nop
    f868:	0e0082a4 	sh	v0,14(a0)
    f86c:	faffc294 	lhu	v0,-6(a2)
    f870:	00000000 	nop
    f874:	160082a4 	sh	v0,22(a0)
    f878:	0400c394 	lhu	v1,4(a2)
    f87c:	2400a28c 	lw	v0,36(a1)
    f880:	00000000 	nop
    f884:	21104300 	addu	v0,v0,v1
    f888:	000040c8 	lwc2	$0,0(v0)
    f88c:	040041c8 	lwc2	$1,4(v0)
    f890:	4400a224 	addiu	v0,a1,68
    f894:	000046c8 	lwc2	$6,0(v0)
    f898:	0000428d 	lw	v0,0(t2)
    f89c:	00000000 	nop
    f8a0:	0c0082ac 	sw	v0,12(a0)
    f8a4:	f8ffc28c 	lw	v0,-8(a2)
    f8a8:	00000000 	nop
    f8ac:	140082ac 	sw	v0,20(a0)
    f8b0:	1b04084b 	c2	0x108041b
    f8b4:	fcffc294 	lhu	v0,-4(a2)
    f8b8:	00000000 	nop
    f8bc:	1c0082a4 	sh	v0,28(a0)
    f8c0:	0000c294 	lhu	v0,0(a2)
    f8c4:	00000000 	nop
    f8c8:	240082a4 	sh	v0,36(a0)
    f8cc:	04008224 	addiu	v0,a0,4
    f8d0:	000056e8 	swc2	$22,0(v0)
    f8d4:	1c00c624 	addiu	a2,a2,28
    f8d8:	1c004a25 	addiu	t2,t2,28
    f8dc:	8800a28c 	lw	v0,136(a1)
    f8e0:	0000a38c 	lw	v1,0(a1)
    f8e4:	80100200 	sll	v0,v0,0x2
    f8e8:	21104300 	addu	v0,v0,v1
    f8ec:	0000428c 	lw	v0,0(v0)
    f8f0:	0009033c 	lui	v1,0x900
    f8f4:	24105800 	and	v0,v0,t8
    f8f8:	25104300 	or	v0,v0,v1
    f8fc:	000082ac 	sw	v0,0(a0)
    f900:	8800a28c 	lw	v0,136(a1)
    f904:	0000a38c 	lw	v1,0(a1)
    f908:	80100200 	sll	v0,v0,0x2
    f90c:	21104300 	addu	v0,v0,v1
    f910:	24189800 	and	v1,a0,t8
    f914:	000043ac 	sw	v1,0(v0)
    f918:	21106001 	move	v0,t3
    f91c:	59ff4014 	bnez	v0,0xf684
    f920:	ffff6b25 	addiu	t3,t3,-1
    f924:	2000a28c 	lw	v0,32(a1)
    f928:	00000000 	nop
    f92c:	0400428c 	lw	v0,4(v0)
    f930:	3400a38c 	lw	v1,52(a1)
    f934:	c0100200 	sll	v0,v0,0x3
    f938:	21186200 	addu	v1,v1,v0
    f93c:	ffffef25 	addiu	t7,t7,-1
    f940:	ffff0224 	li	v0,-1
    f944:	fcfee215 	bne	t7,v0,0xf538
    f948:	3400a3ac 	sw	v1,52(a1)
    f94c:	0800b28f 	lw	s2,8(sp)
    f950:	0400b18f 	lw	s1,4(sp)
    f954:	0000b08f 	lw	s0,0(sp)
    f958:	1000bd27 	addiu	sp,sp,16
    f95c:	0800e003 	jr	ra
    f960:	00000000 	nop
    f964:	f8ffbd27 	addiu	sp,sp,-8
    f968:	1b80023c 	lui	v0,0x801b
    f96c:	48594324 	addiu	v1,v0,22856
    f970:	0400b1af 	sw	s1,4(sp)
    f974:	0000b0af 	sw	s0,0(sp)
    f978:	cc446a94 	lhu	t2,17612(v1)
    f97c:	ffff0224 	li	v0,-1
    f980:	ffff4a25 	addiu	t2,t2,-1
    f984:	fb004211 	beq	t2,v0,0xfd74
    f988:	801f083c 	lui	t0,0x1f80
    f98c:	21c06000 	move	t8,v1
    f990:	21784000 	move	t7,v0
    f994:	ff000b3c 	lui	t3,0xff
    f998:	ffff6b35 	ori	t3,t3,0xffff
    f99c:	40100a00 	sll	v0,t2,0x1
    f9a0:	21105800 	addu	v0,v0,t8
    f9a4:	ce454294 	lhu	v0,17870(v0)
    f9a8:	00000000 	nop
    f9ac:	40180200 	sll	v1,v0,0x1
    f9b0:	21186200 	addu	v1,v1,v0
    f9b4:	80180300 	sll	v1,v1,0x2
    f9b8:	1880023c 	lui	v0,0x8018
    f9bc:	d0be4224 	addiu	v0,v0,-16688
    f9c0:	21206200 	addu	a0,v1,v0
    f9c4:	04008290 	lbu	v0,4(a0)
    f9c8:	00000000 	nop
    f9cc:	03004230 	andi	v0,v0,0x3
    f9d0:	0d004010 	beqz	v0,0xfa08
    f9d4:	00000000 	nop
    f9d8:	00008390 	lbu	v1,0(a0)
    f9dc:	00000000 	nop
    f9e0:	80100300 	sll	v0,v1,0x2
    f9e4:	21104300 	addu	v0,v0,v1
    f9e8:	c0100200 	sll	v0,v0,0x3
    f9ec:	0c00038d 	lw	v1,12(t0)
    f9f0:	0c004224 	addiu	v0,v0,12
    f9f4:	21186200 	addu	v1,v1,v0
    f9f8:	200003ad 	sw	v1,32(t0)
    f9fc:	0400628c 	lw	v0,4(v1)
    fa00:	57810008 	j	0x2055c
    fa04:	00000000 	nop
    fa08:	03008290 	lbu	v0,3(a0)
    fa0c:	00000000 	nop
    fa10:	03004230 	andi	v0,v0,0x3
    fa14:	80180200 	sll	v1,v0,0x2
    fa18:	21186200 	addu	v1,v1,v0
    fa1c:	e40102ad 	sw	v0,484(t0)
    fa20:	c403028d 	lw	v0,964(t0)
    fa24:	80180300 	sll	v1,v1,0x2
    fa28:	21104300 	addu	v0,v0,v1
    fa2c:	00004c8c 	lw	t4,0(v0)
    fa30:	04004d8c 	lw	t5,4(v0)
    fa34:	0040cc48 	ctc2	t4,$8
    fa38:	0048cd48 	ctc2	t5,$9
    fa3c:	08004c8c 	lw	t4,8(v0)
    fa40:	0c004d8c 	lw	t5,12(v0)
    fa44:	10004e8c 	lw	t6,16(v0)
    fa48:	0050cc48 	ctc2	t4,$10
    fa4c:	0058cd48 	ctc2	t5,$11
    fa50:	0060ce48 	ctc2	t6,$12
    fa54:	00008390 	lbu	v1,0(a0)
    fa58:	00000000 	nop
    fa5c:	80100300 	sll	v0,v1,0x2
    fa60:	21104300 	addu	v0,v0,v1
    fa64:	c0100200 	sll	v0,v0,0x3
    fa68:	0c00038d 	lw	v1,12(t0)
    fa6c:	0c004224 	addiu	v0,v0,12
    fa70:	21186200 	addu	v1,v1,v0
    fa74:	200003ad 	sw	v1,32(t0)
    fa78:	0000638c 	lw	v1,0(v1)
    fa7c:	0c00028d 	lw	v0,12(t0)
    fa80:	2000048d 	lw	a0,32(t0)
    fa84:	0c006324 	addiu	v1,v1,12
    fa88:	21104300 	addu	v0,v0,v1
    fa8c:	21288000 	move	a1,a0
    fa90:	3c0002ad 	sw	v0,60(t0)
    fa94:	0800838c 	lw	v1,8(a0)
    fa98:	0c00028d 	lw	v0,12(t0)
    fa9c:	0c006324 	addiu	v1,v1,12
    faa0:	21104300 	addu	v0,v0,v1
    faa4:	240002ad 	sw	v0,36(t0)
    faa8:	1000a28c 	lw	v0,16(a1)
    faac:	0c00038d 	lw	v1,12(t0)
    fab0:	1800a494 	lhu	a0,24(a1)
    fab4:	0c004224 	addiu	v0,v0,12
    fab8:	21486200 	addu	t1,v1,v0
    fabc:	80100400 	sll	v0,a0,0x2
    fac0:	21104400 	addu	v0,v0,a0
    fac4:	80100200 	sll	v0,v0,0x2
    fac8:	21482201 	addu	t1,t1,v0
    facc:	1c00a394 	lhu	v1,28(a1)
    fad0:	1a00a494 	lhu	a0,26(a1)
    fad4:	c0100300 	sll	v0,v1,0x3
    fad8:	23104300 	subu	v0,v0,v1
    fadc:	80100200 	sll	v0,v0,0x2
    fae0:	21482201 	addu	t1,t1,v0
    fae4:	840104ad 	sw	a0,388(t0)
    fae8:	21188000 	move	v1,a0
    faec:	b401028d 	lw	v0,436(t0)
    faf0:	ffff6324 	addiu	v1,v1,-1
    faf4:	840103ad 	sw	v1,388(t0)
    faf8:	21104400 	addu	v0,v0,a0
    fafc:	94006f10 	beq	v1,t7,0xfd50
    fb00:	b40102ad 	sw	v0,436(t0)
    fb04:	08002725 	addiu	a3,t1,8
    fb08:	0600e394 	lhu	v1,6(a3)
    fb0c:	3400028d 	lw	v0,52(t0)
    fb10:	0e00e494 	lhu	a0,14(a3)
    fb14:	21304300 	addu	a2,v0,v1
    fb18:	21204400 	addu	a0,v0,a0
    fb1c:	0a00e394 	lhu	v1,10(a3)
    fb20:	0000d08c 	lw	s0,0(a2)
    fb24:	0000998c 	lw	t9,0(a0)
    fb28:	21284300 	addu	a1,v0,v1
    fb2c:	0000b18c 	lw	s1,0(a1)
    fb30:	00609048 	mtc2	s0,$12
    fb34:	00709948 	mtc2	t9,$14
    fb38:	00689148 	mtc2	s1,$13
	...
    fb44:	0600404b 	c2	0x1400006
    fb48:	0300e290 	lbu	v0,3(a3)
    fb4c:	00000000 	nop
    fb50:	34004234 	ori	v0,v0,0x34
    fb54:	470002a1 	sb	v0,71(t0)
    fb58:	70000225 	addiu	v0,t0,112
    fb5c:	000058e8 	swc2	$24,0(v0)
    fb60:	7000028d 	lw	v0,112(t0)
    fb64:	00000000 	nop
    fb68:	31004018 	blez	v0,0xfc30
    fb6c:	00000000 	nop
    fb70:	1000108d 	lw	s0,16(t0)
    fb74:	00000000 	nop
    fb78:	08000cea 	swc2	$12,8(s0)
    fb7c:	14000dea 	swc2	$13,20(s0)
    fb80:	20000eea 	swc2	$14,32(s0)
    fb84:	0400c284 	lh	v0,4(a2)
    fb88:	00000000 	nop
    fb8c:	840002ad 	sw	v0,132(t0)
    fb90:	800002ad 	sw	v0,128(t0)
    fb94:	0400a384 	lh	v1,4(a1)
    fb98:	00000000 	nop
    fb9c:	2a104300 	slt	v0,v0,v1
    fba0:	03004010 	beqz	v0,0xfbb0
    fba4:	00000000 	nop
    fba8:	840003ad 	sw	v1,132(t0)
    fbac:	0400a384 	lh	v1,4(a1)
    fbb0:	8000028d 	lw	v0,128(t0)
    fbb4:	00000000 	nop
    fbb8:	2a106200 	slt	v0,v1,v0
    fbbc:	02004010 	beqz	v0,0xfbc8
    fbc0:	00000000 	nop
    fbc4:	800003ad 	sw	v1,128(t0)
    fbc8:	04008384 	lh	v1,4(a0)
    fbcc:	8400028d 	lw	v0,132(t0)
    fbd0:	00000000 	nop
    fbd4:	2a104300 	slt	v0,v0,v1
    fbd8:	03004010 	beqz	v0,0xfbe8
    fbdc:	00000000 	nop
    fbe0:	840003ad 	sw	v1,132(t0)
    fbe4:	04008384 	lh	v1,4(a0)
    fbe8:	8000028d 	lw	v0,128(t0)
    fbec:	00000000 	nop
    fbf0:	2a106200 	slt	v0,v1,v0
    fbf4:	02004010 	beqz	v0,0xfc00
    fbf8:	00000000 	nop
    fbfc:	800003ad 	sw	v1,128(t0)
    fc00:	8400028d 	lw	v0,132(t0)
    fc04:	0200e380 	lb	v1,2(a3)
    fc08:	43110200 	sra	v0,v0,0x5
    fc0c:	21184300 	addu	v1,v0,v1
    fc10:	00106228 	slti	v0,v1,4096
    fc14:	06004010 	beqz	v0,0xfc30
    fc18:	880003ad 	sw	v1,136(t0)
    fc1c:	8c00028d 	lw	v0,140(t0)
    fc20:	00000000 	nop
    fc24:	2a106200 	slt	v0,v1,v0
    fc28:	04004010 	beqz	v0,0xfc3c
    fc2c:	00000000 	nop
    fc30:	1800e724 	addiu	a3,a3,24
    fc34:	4f810008 	j	0x2053c
    fc38:	18002925 	addiu	t1,t1,24
    fc3c:	1000068d 	lw	a2,16(t0)
    fc40:	1400028d 	lw	v0,20(t0)
    fc44:	2800c324 	addiu	v1,a2,40
    fc48:	2b104300 	sltu	v0,v0,v1
    fc4c:	49004014 	bnez	v0,0xfd74
    fc50:	00000000 	nop
    fc54:	bc01028d 	lw	v0,444(t0)
    fc58:	100003ad 	sw	v1,16(t0)
    fc5c:	01004224 	addiu	v0,v0,1
    fc60:	bc0102ad 	sw	v0,444(t0)
    fc64:	faffe294 	lhu	v0,-6(a3)
    fc68:	00000000 	nop
    fc6c:	0e00c2a4 	sh	v0,14(a2)
    fc70:	feffe294 	lhu	v0,-2(a3)
    fc74:	00000000 	nop
    fc78:	1a00c2a4 	sh	v0,26(a2)
    fc7c:	0400e594 	lhu	a1,4(a3)
    fc80:	2400028d 	lw	v0,36(t0)
    fc84:	0800e394 	lhu	v1,8(a3)
    fc88:	0c00e494 	lhu	a0,12(a3)
    fc8c:	21284500 	addu	a1,v0,a1
    fc90:	21184300 	addu	v1,v0,v1
    fc94:	21104400 	addu	v0,v0,a0
    fc98:	0000a0c8 	lwc2	$0,0(a1)
    fc9c:	0400a1c8 	lwc2	$1,4(a1)
    fca0:	000062c8 	lwc2	$2,0(v1)
    fca4:	040063c8 	lwc2	$3,4(v1)
    fca8:	000044c8 	lwc2	$4,0(v0)
    fcac:	040045c8 	lwc2	$5,4(v0)
    fcb0:	44000225 	addiu	v0,t0,68
    fcb4:	000046c8 	lwc2	$6,0(v0)
	...
    fcc0:	3f04184b 	c2	0x118043f
    fcc4:	0400c424 	addiu	a0,a2,4
    fcc8:	1000c324 	addiu	v1,a2,16
    fccc:	1c00c224 	addiu	v0,a2,28
    fcd0:	000094e8 	swc2	$20,0(a0)
    fcd4:	000075e8 	swc2	$21,0(v1)
    fcd8:	000056e8 	swc2	$22,0(v0)
    fcdc:	0000228d 	lw	v0,0(t1)
    fce0:	00000000 	nop
    fce4:	0c00c2ac 	sw	v0,12(a2)
    fce8:	fcffe28c 	lw	v0,-4(a3)
    fcec:	18002925 	addiu	t1,t1,24
    fcf0:	1800c2ac 	sw	v0,24(a2)
    fcf4:	0000e294 	lhu	v0,0(a3)
    fcf8:	1800e724 	addiu	a3,a3,24
    fcfc:	2400c2a4 	sh	v0,36(a2)
    fd00:	8800028d 	lw	v0,136(t0)
    fd04:	0000038d 	lw	v1,0(t0)
    fd08:	80100200 	sll	v0,v0,0x2
    fd0c:	21104300 	addu	v0,v0,v1
    fd10:	0000428c 	lw	v0,0(v0)
    fd14:	0009033c 	lui	v1,0x900
    fd18:	24104b00 	and	v0,v0,t3
    fd1c:	25104300 	or	v0,v0,v1
    fd20:	0000c2ac 	sw	v0,0(a2)
    fd24:	8800028d 	lw	v0,136(t0)
    fd28:	0000038d 	lw	v1,0(t0)
    fd2c:	80100200 	sll	v0,v0,0x2
    fd30:	21104300 	addu	v0,v0,v1
    fd34:	2418cb00 	and	v1,a2,t3
    fd38:	000043ac 	sw	v1,0(v0)
    fd3c:	8401028d 	lw	v0,388(t0)
    fd40:	00000000 	nop
    fd44:	ffff4224 	addiu	v0,v0,-1
    fd48:	6fff4f14 	bne	v0,t7,0xfb08
    fd4c:	840102ad 	sw	v0,388(t0)
    fd50:	2000028d 	lw	v0,32(t0)
    fd54:	00000000 	nop
    fd58:	0400428c 	lw	v0,4(v0)
    fd5c:	3400038d 	lw	v1,52(t0)
    fd60:	c0100200 	sll	v0,v0,0x3
    fd64:	21186200 	addu	v1,v1,v0
    fd68:	ffff4a25 	addiu	t2,t2,-1
    fd6c:	0bff4f15 	bne	t2,t7,0xf99c
    fd70:	340003ad 	sw	v1,52(t0)
    fd74:	0400b18f 	lw	s1,4(sp)
    fd78:	0000b08f 	lw	s0,0(sp)
    fd7c:	0800bd27 	addiu	sp,sp,8
    fd80:	0800e003 	jr	ra
    fd84:	00000000 	nop
    fd88:	f0ffbd27 	addiu	sp,sp,-16
    fd8c:	1b80023c 	lui	v0,0x801b
    fd90:	48594324 	addiu	v1,v0,22856
    fd94:	0800b2af 	sw	s2,8(sp)
    fd98:	0400b1af 	sw	s1,4(sp)
    fd9c:	0000b0af 	sw	s0,0(sp)
    fda0:	cc446b94 	lhu	t3,17612(v1)
    fda4:	ffff0224 	li	v0,-1
    fda8:	ffff6b25 	addiu	t3,t3,-1
    fdac:	2e016211 	beq	t3,v0,0x10268
    fdb0:	801f083c 	lui	t0,0x1f80
    fdb4:	21c86000 	move	t9,v1
    fdb8:	21c04000 	move	t8,v0
    fdbc:	ff000f3c 	lui	t7,0xff
    fdc0:	ffffef35 	ori	t7,t7,0xffff
    fdc4:	40100b00 	sll	v0,t3,0x1
    fdc8:	21105900 	addu	v0,v0,t9
    fdcc:	ce454294 	lhu	v0,17870(v0)
    fdd0:	00000000 	nop
    fdd4:	40180200 	sll	v1,v0,0x1
    fdd8:	21186200 	addu	v1,v1,v0
    fddc:	80180300 	sll	v1,v1,0x2
    fde0:	1880023c 	lui	v0,0x8018
    fde4:	d0be4224 	addiu	v0,v0,-16688
    fde8:	21206200 	addu	a0,v1,v0
    fdec:	04008290 	lbu	v0,4(a0)
    fdf0:	00000000 	nop
    fdf4:	03004230 	andi	v0,v0,0x3
    fdf8:	0d004010 	beqz	v0,0xfe30
    fdfc:	00000000 	nop
    fe00:	00008390 	lbu	v1,0(a0)
    fe04:	00000000 	nop
    fe08:	80100300 	sll	v0,v1,0x2
    fe0c:	21104300 	addu	v0,v0,v1
    fe10:	c0100200 	sll	v0,v0,0x3
    fe14:	0c00038d 	lw	v1,12(t0)
    fe18:	0c004224 	addiu	v0,v0,12
    fe1c:	21186200 	addu	v1,v1,v0
    fe20:	200003ad 	sw	v1,32(t0)
    fe24:	0400628c 	lw	v0,4(v1)
    fe28:	94820008 	j	0x20a50
    fe2c:	00000000 	nop
    fe30:	03008290 	lbu	v0,3(a0)
    fe34:	00000000 	nop
    fe38:	03004230 	andi	v0,v0,0x3
    fe3c:	80180200 	sll	v1,v0,0x2
    fe40:	21186200 	addu	v1,v1,v0
    fe44:	e40102ad 	sw	v0,484(t0)
    fe48:	c403028d 	lw	v0,964(t0)
    fe4c:	80180300 	sll	v1,v1,0x2
    fe50:	21104300 	addu	v0,v0,v1
    fe54:	00004c8c 	lw	t4,0(v0)
    fe58:	04004d8c 	lw	t5,4(v0)
    fe5c:	0040cc48 	ctc2	t4,$8
    fe60:	0048cd48 	ctc2	t5,$9
    fe64:	08004c8c 	lw	t4,8(v0)
    fe68:	0c004d8c 	lw	t5,12(v0)
    fe6c:	10004e8c 	lw	t6,16(v0)
    fe70:	0050cc48 	ctc2	t4,$10
    fe74:	0058cd48 	ctc2	t5,$11
    fe78:	0060ce48 	ctc2	t6,$12
    fe7c:	00008390 	lbu	v1,0(a0)
    fe80:	00000000 	nop
    fe84:	80100300 	sll	v0,v1,0x2
    fe88:	21104300 	addu	v0,v0,v1
    fe8c:	c0100200 	sll	v0,v0,0x3
    fe90:	0c00038d 	lw	v1,12(t0)
    fe94:	0c004224 	addiu	v0,v0,12
    fe98:	21186200 	addu	v1,v1,v0
    fe9c:	200003ad 	sw	v1,32(t0)
    fea0:	0000638c 	lw	v1,0(v1)
    fea4:	0c00028d 	lw	v0,12(t0)
    fea8:	2000048d 	lw	a0,32(t0)
    feac:	0c006324 	addiu	v1,v1,12
    feb0:	21104300 	addu	v0,v0,v1
    feb4:	21288000 	move	a1,a0
    feb8:	3c0002ad 	sw	v0,60(t0)
    febc:	0800838c 	lw	v1,8(a0)
    fec0:	0c00028d 	lw	v0,12(t0)
    fec4:	0c006324 	addiu	v1,v1,12
    fec8:	21104300 	addu	v0,v0,v1
    fecc:	240002ad 	sw	v0,36(t0)
    fed0:	1000a28c 	lw	v0,16(a1)
    fed4:	0c00038d 	lw	v1,12(t0)
    fed8:	1800a494 	lhu	a0,24(a1)
    fedc:	0c004224 	addiu	v0,v0,12
    fee0:	21486200 	addu	t1,v1,v0
    fee4:	80100400 	sll	v0,a0,0x2
    fee8:	21104400 	addu	v0,v0,a0
    feec:	80100200 	sll	v0,v0,0x2
    fef0:	21482201 	addu	t1,t1,v0
    fef4:	1c00a394 	lhu	v1,28(a1)
    fef8:	1e00a494 	lhu	a0,30(a1)
    fefc:	c0100300 	sll	v0,v1,0x3
    ff00:	23104300 	subu	v0,v0,v1
    ff04:	80100200 	sll	v0,v0,0x2
    ff08:	1a00a394 	lhu	v1,26(a1)
    ff0c:	21482201 	addu	t1,t1,v0
    ff10:	840104ad 	sw	a0,388(t0)
    ff14:	40100300 	sll	v0,v1,0x1
    ff18:	21104300 	addu	v0,v0,v1
    ff1c:	c0100200 	sll	v0,v0,0x3
    ff20:	21482201 	addu	t1,t1,v0
    ff24:	21188000 	move	v1,a0
    ff28:	b401028d 	lw	v0,436(t0)
    ff2c:	ffff6324 	addiu	v1,v1,-1
    ff30:	840103ad 	sw	v1,388(t0)
    ff34:	21104400 	addu	v0,v0,a0
    ff38:	c2007810 	beq	v1,t8,0x10244
    ff3c:	b40102ad 	sw	v0,436(t0)
    ff40:	0c002725 	addiu	a3,t1,12
    ff44:	0600e394 	lhu	v1,6(a3)
    ff48:	3400028d 	lw	v0,52(t0)
    ff4c:	0e00e494 	lhu	a0,14(a3)
    ff50:	21304300 	addu	a2,v0,v1
    ff54:	21204400 	addu	a0,v0,a0
    ff58:	0a00e394 	lhu	v1,10(a3)
    ff5c:	0000d08c 	lw	s0,0(a2)
    ff60:	0000928c 	lw	s2,0(a0)
    ff64:	21284300 	addu	a1,v0,v1
    ff68:	0000b18c 	lw	s1,0(a1)
    ff6c:	00609048 	mtc2	s0,$12
    ff70:	00709248 	mtc2	s2,$14
    ff74:	00689148 	mtc2	s1,$13
	...
    ff80:	0600404b 	c2	0x1400006
    ff84:	ffffe290 	lbu	v0,-1(a3)
    ff88:	00000000 	nop
    ff8c:	3c004234 	ori	v0,v0,0x3c
    ff90:	470002a1 	sb	v0,71(t0)
    ff94:	70000225 	addiu	v0,t0,112
    ff98:	000058e8 	swc2	$24,0(v0)
    ff9c:	1200e394 	lhu	v1,18(a3)
    ffa0:	3400028d 	lw	v0,52(t0)
    ffa4:	1000108d 	lw	s0,16(t0)
    ffa8:	21504300 	addu	t2,v0,v1
    ffac:	08000cea 	swc2	$12,8(s0)
    ffb0:	14000dea 	swc2	$13,20(s0)
    ffb4:	20000eea 	swc2	$14,32(s0)
    ffb8:	0000518d 	lw	s1,0(t2)
    ffbc:	00000000 	nop
    ffc0:	00609148 	mtc2	s1,$12
	...
    ffcc:	0600404b 	c2	0x1400006
    ffd0:	74000225 	addiu	v0,t0,116
    ffd4:	000058e8 	swc2	$24,0(v0)
    ffd8:	7000028d 	lw	v0,112(t0)
    ffdc:	00000000 	nop
    ffe0:	0500401c 	bgtz	v0,0xfff8
    ffe4:	00000000 	nop
    ffe8:	7400028d 	lw	v0,116(t0)
    ffec:	00000000 	nop
    fff0:	3e004104 	bgez	v0,0x100ec
    fff4:	00000000 	nop
    fff8:	1000028d 	lw	v0,16(t0)
    fffc:	00000000 	nop
