
decompilation/ST.EXE:     file format binary


Disassembly of section .data:

80030000 <.data+0x20000>:
80030000:	b39b000c 	jal	0x80026ecc
80030004:	21384002 	move	a3,s2
80030008:	0a008286 	lh	v0,10(s4)
8003000c:	00000000 	nop
80030010:	0b004010 	beqz	v0,0x80030040
80030014:	0a020524 	li	a1,522
80030018:	5b000624 	li	a2,91
8003001c:	0a008496 	lhu	a0,10(s4)
80030020:	21384002 	move	a3,s2
80030024:	109d000c 	jal	0x80027440
80030028:	25209300 	or	a0,a0,s3
8003002c:	0f000424 	li	a0,15
80030030:	2e020524 	li	a1,558
80030034:	5b000624 	li	a2,91
80030038:	b39b000c 	jal	0x80026ecc
8003003c:	21384002 	move	a3,s2
80030040:	3a020524 	li	a1,570
80030044:	5b000624 	li	a2,91
80030048:	08008496 	lhu	a0,8(s4)
8003004c:	21384002 	move	a3,s2
80030050:	109d000c 	jal	0x80027440
80030054:	25209300 	or	a0,a0,s3
80030058:	0e008286 	lh	v0,14(s4)
8003005c:	00000000 	nop
80030060:	0b004010 	beqz	v0,0x80030090
80030064:	0a020524 	li	a1,522
80030068:	6a000624 	li	a2,106
8003006c:	0e008496 	lhu	a0,14(s4)
80030070:	21384002 	move	a3,s2
80030074:	109d000c 	jal	0x80027440
80030078:	25209300 	or	a0,a0,s3
8003007c:	0f000424 	li	a0,15
80030080:	2e020524 	li	a1,558
80030084:	6a000624 	li	a2,106
80030088:	b39b000c 	jal	0x80026ecc
8003008c:	21384002 	move	a3,s2
80030090:	3a020524 	li	a1,570
80030094:	6a000624 	li	a2,106
80030098:	0c008496 	lhu	a0,12(s4)
8003009c:	21384002 	move	a3,s2
800300a0:	109d000c 	jal	0x80027440
800300a4:	25209300 	or	a0,a0,s3
800300a8:	12008286 	lh	v0,18(s4)
800300ac:	00000000 	nop
800300b0:	0b004010 	beqz	v0,0x800300e0
800300b4:	0a020524 	li	a1,522
800300b8:	79000624 	li	a2,121
800300bc:	12008496 	lhu	a0,18(s4)
800300c0:	21384002 	move	a3,s2
800300c4:	109d000c 	jal	0x80027440
800300c8:	25209300 	or	a0,a0,s3
800300cc:	0f000424 	li	a0,15
800300d0:	2e020524 	li	a1,558
800300d4:	79000624 	li	a2,121
800300d8:	b39b000c 	jal	0x80026ecc
800300dc:	21384002 	move	a3,s2
800300e0:	3a020524 	li	a1,570
800300e4:	79000624 	li	a2,121
800300e8:	10008496 	lhu	a0,16(s4)
800300ec:	21384002 	move	a3,s2
800300f0:	109d000c 	jal	0x80027440
800300f4:	25209300 	or	a0,a0,s3
800300f8:	16008286 	lh	v0,22(s4)
800300fc:	00000000 	nop
80030100:	0b004010 	beqz	v0,0x80030130
80030104:	0a020524 	li	a1,522
80030108:	88000624 	li	a2,136
8003010c:	16008496 	lhu	a0,22(s4)
80030110:	21384002 	move	a3,s2
80030114:	109d000c 	jal	0x80027440
80030118:	25209300 	or	a0,a0,s3
8003011c:	0f000424 	li	a0,15
80030120:	2e020524 	li	a1,558
80030124:	88000624 	li	a2,136
80030128:	b39b000c 	jal	0x80026ecc
8003012c:	21384002 	move	a3,s2
80030130:	3a020524 	li	a1,570
80030134:	88000624 	li	a2,136
80030138:	14008496 	lhu	a0,20(s4)
8003013c:	21384002 	move	a3,s2
80030140:	109d000c 	jal	0x80027440
80030144:	25209300 	or	a0,a0,s3
80030148:	1800828e 	lw	v0,24(s4)
8003014c:	00000000 	nop
80030150:	0f004230 	andi	v0,v0,0xf
80030154:	0b004010 	beqz	v0,0x80030184
80030158:	50010524 	li	a1,336
8003015c:	b5000624 	li	a2,181
80030160:	0003a736 	ori	a3,s5,0x300
80030164:	1e80043c 	lui	a0,0x801e
80030168:	500d8424 	addiu	a0,a0,3408
8003016c:	40100200 	sll	v0,v0,0x1
80030170:	21104400 	addu	v0,v0,a0
80030174:	02014294 	lhu	v0,258(v0)
80030178:	000c8424 	addiu	a0,a0,3072
8003017c:	cb9c000c 	jal	0x8002732c
80030180:	21204400 	addu	a0,v0,a0
80030184:	1800828e 	lw	v0,24(s4)
80030188:	00000000 	nop
8003018c:	02120200 	srl	v0,v0,0x8
80030190:	0f004230 	andi	v0,v0,0xf
80030194:	0b004010 	beqz	v0,0x800301c4
80030198:	50010524 	li	a1,336
8003019c:	c4000624 	li	a2,196
800301a0:	0003a736 	ori	a3,s5,0x300
800301a4:	1e80043c 	lui	a0,0x801e
800301a8:	500d8424 	addiu	a0,a0,3408
800301ac:	40100200 	sll	v0,v0,0x1
800301b0:	21104400 	addu	v0,v0,a0
800301b4:	02014294 	lhu	v0,258(v0)
800301b8:	000c8424 	addiu	a0,a0,3072
800301bc:	cb9c000c 	jal	0x8002732c
800301c0:	21204400 	addu	a0,v0,a0
800301c4:	1a008296 	lhu	v0,26(s4)
800301c8:	00000000 	nop
800301cc:	0f004230 	andi	v0,v0,0xf
800301d0:	0b004010 	beqz	v0,0x80030200
800301d4:	50010524 	li	a1,336
800301d8:	d3000624 	li	a2,211
800301dc:	0003a736 	ori	a3,s5,0x300
800301e0:	1e80043c 	lui	a0,0x801e
800301e4:	500d8424 	addiu	a0,a0,3408
800301e8:	40100200 	sll	v0,v0,0x1
800301ec:	21104400 	addu	v0,v0,a0
800301f0:	02014294 	lhu	v0,258(v0)
800301f4:	000c8424 	addiu	a0,a0,3072
800301f8:	cb9c000c 	jal	0x8002732c
800301fc:	21204400 	addu	a0,v0,a0
80030200:	5003b026 	addiu	s0,s5,848
80030204:	21200002 	move	a0,s0
80030208:	0003a536 	ori	a1,s5,0x300
8003020c:	01020624 	li	a2,513
80030210:	01000724 	li	a3,1
80030214:	37000224 	li	v0,55
80030218:	5003a2a6 	sh	v0,848(s5)
8003021c:	20000224 	li	v0,32
80030220:	5203a2a6 	sh	v0,850(s5)
80030224:	e6000224 	li	v0,230
80030228:	5403a2a6 	sh	v0,852(s5)
8003022c:	73000224 	li	v0,115
80030230:	469f000c 	jal	0x80027d18
80030234:	5603a2a6 	sh	v0,854(s5)
80030238:	21200000 	move	a0,zero
8003023c:	21288000 	move	a1,a0
80030240:	aaa1000c 	jal	0x800286a8
80030244:	21308000 	move	a2,a0
80030248:	21200002 	move	a0,s0
8003024c:	5000a536 	ori	a1,s5,0x50
80030250:	21300000 	move	a2,zero
80030254:	2138c000 	move	a3,a2
80030258:	10000224 	li	v0,16
8003025c:	d9a0000c 	jal	0x80028364
80030260:	1000a2af 	sw	v0,16(sp)
80030264:	18000424 	li	a0,24
80030268:	0c000524 	li	a1,12
8003026c:	24010624 	li	a2,292
80030270:	52a5000c 	jal	0x80029548
80030274:	d8000724 	li	a3,216
80030278:	44010424 	li	a0,324
8003027c:	0c000524 	li	a1,12
80030280:	24010624 	li	a2,292
80030284:	52a5000c 	jal	0x80029548
80030288:	d8000724 	li	a3,216
8003028c:	8400bf8f 	lw	ra,132(sp)
80030290:	8000b68f 	lw	s6,128(sp)
80030294:	7c00b58f 	lw	s5,124(sp)
80030298:	7800b48f 	lw	s4,120(sp)
8003029c:	7400b38f 	lw	s3,116(sp)
800302a0:	7000b28f 	lw	s2,112(sp)
800302a4:	6c00b18f 	lw	s1,108(sp)
800302a8:	6800b08f 	lw	s0,104(sp)
800302ac:	8800bd27 	addiu	sp,sp,136
800302b0:	0800e003 	jr	ra
800302b4:	00000000 	nop
800302b8:	d0ffbd27 	addiu	sp,sp,-48
800302bc:	0880023c 	lui	v0,0x8008
800302c0:	2c00bfaf 	sw	ra,44(sp)
800302c4:	2800b0af 	sw	s0,40(sp)
800302c8:	b87f4624 	addiu	a2,v0,32696
800302cc:	0300c388 	lwl	v1,3(a2)
800302d0:	0000c398 	lwr	v1,0(a2)
800302d4:	0700c488 	lwl	a0,7(a2)
800302d8:	0400c498 	lwr	a0,4(a2)
800302dc:	1b00a3ab 	swl	v1,27(sp)
800302e0:	1800a3bb 	swr	v1,24(sp)
800302e4:	1f00a4ab 	swl	a0,31(sp)
800302e8:	1c00a4bb 	swr	a0,28(sp)
800302ec:	0880023c 	lui	v0,0x8008
800302f0:	c07f4624 	addiu	a2,v0,32704
800302f4:	0300c388 	lwl	v1,3(a2)
800302f8:	0000c398 	lwr	v1,0(a2)
800302fc:	0700c488 	lwl	a0,7(a2)
80030300:	0400c498 	lwr	a0,4(a2)
80030304:	2300a3ab 	swl	v1,35(sp)
80030308:	2000a3bb 	swr	v1,32(sp)
8003030c:	2700a4ab 	swl	a0,39(sp)
80030310:	2400a4bb 	swr	a0,36(sp)
80030314:	315d000c 	jal	0x800174c4
80030318:	801f103c 	lui	s0,0x1f80
8003031c:	50000224 	li	v0,80
80030320:	100302a2 	sb	v0,784(s0)
80030324:	000302a2 	sb	v0,768(s0)
80030328:	110302a2 	sb	v0,785(s0)
8003032c:	010302a2 	sb	v0,769(s0)
80030330:	120302a2 	sb	v0,786(s0)
80030334:	020302a2 	sb	v0,770(s0)
80030338:	49000224 	li	v0,73
8003033c:	030302a2 	sb	v0,771(s0)
80030340:	e4020292 	lbu	v0,740(s0)
80030344:	31000324 	li	v1,49
80030348:	1000422c 	sltiu	v0,v0,16
8003034c:	05004010 	beqz	v0,0x80030364
80030350:	130303a2 	sb	v1,787(s0)
80030354:	e4020392 	lbu	v1,740(s0)
80030358:	08000224 	li	v0,8
8003035c:	dcc20008 	j	0x80030b70
80030360:	23104300 	subu	v0,v0,v1
80030364:	e4020292 	lbu	v0,740(s0)
80030368:	00000000 	nop
8003036c:	e8ff4224 	addiu	v0,v0,-24
80030370:	600302a6 	sh	v0,864(s0)
80030374:	60030292 	lbu	v0,864(s0)
80030378:	60030392 	lbu	v1,864(s0)
8003037c:	2e0300a2 	sb	zero,814(s0)
80030380:	80100200 	sll	v0,v0,0x2
80030384:	40180300 	sll	v1,v1,0x1
80030388:	30006324 	addiu	v1,v1,48
8003038c:	2d0303a2 	sb	v1,813(s0)
80030390:	dc020396 	lhu	v1,732(s0)
80030394:	60004224 	addiu	v0,v0,96
80030398:	2c0302a2 	sb	v0,812(s0)
8003039c:	02000224 	li	v0,2
800303a0:	05006214 	bne	v1,v0,0x800303b8
800303a4:	00000000 	nop
800303a8:	97c0000c 	jal	0x8003025c
800303ac:	00000000 	nop
800303b0:	f0c20008 	j	0x80030bc0
800303b4:	00000000 	nop
800303b8:	93bf000c 	jal	0x8002fe4c
800303bc:	00000000 	nop
800303c0:	7ab2000c 	jal	0x8002c9e8
800303c4:	00000000 	nop
800303c8:	a05d000c 	jal	0x80017680
800303cc:	00000000 	nop
800303d0:	2c00bf8f 	lw	ra,44(sp)
800303d4:	2800b08f 	lw	s0,40(sp)
800303d8:	3000bd27 	addiu	sp,sp,48
800303dc:	0800e003 	jr	ra
800303e0:	00000000 	nop
800303e4:	88ffbd27 	addiu	sp,sp,-120
800303e8:	0880023c 	lui	v0,0x8008
800303ec:	7400bfaf 	sw	ra,116(sp)
800303f0:	7000b6af 	sw	s6,112(sp)
800303f4:	6c00b5af 	sw	s5,108(sp)
800303f8:	6800b4af 	sw	s4,104(sp)
800303fc:	6400b3af 	sw	s3,100(sp)
80030400:	6000b2af 	sw	s2,96(sp)
80030404:	5c00b1af 	sw	s1,92(sp)
80030408:	5800b0af 	sw	s0,88(sp)
8003040c:	5c7f4624 	addiu	a2,v0,32604
80030410:	0300c388 	lwl	v1,3(a2)
80030414:	0000c398 	lwr	v1,0(a2)
80030418:	00000000 	nop
8003041c:	2300a3ab 	swl	v1,35(sp)
80030420:	2000a3bb 	swr	v1,32(sp)
80030424:	0880023c 	lui	v0,0x8008
80030428:	c87f4624 	addiu	a2,v0,32712
8003042c:	0300c388 	lwl	v1,3(a2)
80030430:	0000c398 	lwr	v1,0(a2)
80030434:	0700c488 	lwl	a0,7(a2)
80030438:	0400c498 	lwr	a0,4(a2)
8003043c:	2b00a3ab 	swl	v1,43(sp)
80030440:	2800a3bb 	swr	v1,40(sp)
80030444:	2f00a4ab 	swl	a0,47(sp)
80030448:	2c00a4bb 	swr	a0,44(sp)
8003044c:	0880023c 	lui	v0,0x8008
80030450:	d07f4624 	addiu	a2,v0,32720
80030454:	0300c388 	lwl	v1,3(a2)
80030458:	0000c398 	lwr	v1,0(a2)
8003045c:	0700c488 	lwl	a0,7(a2)
80030460:	0400c498 	lwr	a0,4(a2)
80030464:	3300a3ab 	swl	v1,51(sp)
80030468:	3000a3bb 	swr	v1,48(sp)
8003046c:	3700a4ab 	swl	a0,55(sp)
80030470:	3400a4bb 	swr	a0,52(sp)
80030474:	0880023c 	lui	v0,0x8008
80030478:	d87f4624 	addiu	a2,v0,32728
8003047c:	0300c388 	lwl	v1,3(a2)
80030480:	0000c398 	lwr	v1,0(a2)
80030484:	0700c488 	lwl	a0,7(a2)
80030488:	0400c498 	lwr	a0,4(a2)
8003048c:	3b00a3ab 	swl	v1,59(sp)
80030490:	3800a3bb 	swr	v1,56(sp)
80030494:	3f00a4ab 	swl	a0,63(sp)
80030498:	3c00a4bb 	swr	a0,60(sp)
8003049c:	0880033c 	lui	v1,0x8008
800304a0:	801f123c 	lui	s2,0x1f80
800304a4:	e0024296 	lhu	v0,736(s2)
800304a8:	e07f6724 	addiu	a3,v1,32736
800304ac:	0300e488 	lwl	a0,3(a3)
800304b0:	0000e498 	lwr	a0,0(a3)
800304b4:	00000000 	nop
800304b8:	4300a4ab 	swl	a0,67(sp)
800304bc:	4000a4bb 	swr	a0,64(sp)
800304c0:	40001524 	li	s5,64
800304c4:	20001624 	li	s6,32
800304c8:	00140200 	sll	v0,v0,0x10
800304cc:	03240200 	sra	a0,v0,0x10
800304d0:	02008104 	bgez	a0,0x800304dc
800304d4:	21108000 	move	v0,a0
800304d8:	07008224 	addiu	v0,a0,7
800304dc:	c3400200 	sra	t0,v0,0x3
800304e0:	c0100800 	sll	v0,t0,0x3
800304e4:	23108200 	subu	v0,a0,v0
800304e8:	00140200 	sll	v0,v0,0x10
800304ec:	031c0200 	sra	v1,v0,0x10
800304f0:	04006228 	slti	v0,v1,4
800304f4:	11004010 	beqz	v0,0x8003053c
800304f8:	80110300 	sll	v0,v1,0x6
800304fc:	32004224 	addiu	v0,v0,50
80030500:	300342a6 	sh	v0,816(s2)
80030504:	801f043c 	lui	a0,0x1f80
80030508:	30038434 	ori	a0,a0,0x330
8003050c:	801f053c 	lui	a1,0x1f80
80030510:	2c03a534 	ori	a1,a1,0x32c
80030514:	01020624 	li	a2,513
80030518:	01000724 	li	a3,1
8003051c:	40110800 	sll	v0,t0,0x5
80030520:	23004224 	addiu	v0,v0,35
80030524:	320342a6 	sh	v0,818(s2)
80030528:	38000224 	li	v0,56
8003052c:	340342a6 	sh	v0,820(s2)
80030530:	1c000224 	li	v0,28
80030534:	469f000c 	jal	0x80027d18
80030538:	360342a6 	sh	v0,822(s2)
8003053c:	00004286 	lh	v0,0(s2)
80030540:	00000000 	nop
80030544:	05004018 	blez	v0,0x8003055c
80030548:	2800a427 	addiu	a0,sp,40
8003054c:	2c034536 	ori	a1,s2,0x32c
80030550:	5ba4000c 	jal	0x8002916c
80030554:	000c0624 	li	a2,3072
80030558:	00004286 	lh	v0,0(s2)
8003055c:	00000000 	nop
80030560:	49004228 	slti	v0,v0,73
80030564:	04004010 	beqz	v0,0x80030578
80030568:	3000a427 	addiu	a0,sp,48
8003056c:	2c034536 	ori	a1,s2,0x32c
80030570:	5ba4000c 	jal	0x8002916c
80030574:	00040624 	li	a2,1024
80030578:	67dd043c 	lui	a0,0xdd67
8003057c:	00004286 	lh	v0,0(s2)
80030580:	a7c88434 	ori	a0,a0,0xc8a7
80030584:	00190200 	sll	v1,v0,0x4
80030588:	21186200 	addu	v1,v1,v0
8003058c:	c0180300 	sll	v1,v1,0x3
80030590:	18006400 	mult	v1,a0
80030594:	4000b027 	addiu	s0,sp,64
80030598:	21280002 	move	a1,s0
8003059c:	01000624 	li	a2,1
800305a0:	3800a427 	addiu	a0,sp,56
800305a4:	10480000 	mfhi	t1
800305a8:	21102301 	addu	v0,t1,v1
800305ac:	83110200 	sra	v0,v0,0x6
800305b0:	c31f0300 	sra	v1,v1,0x1f
800305b4:	23104300 	subu	v0,v0,v1
800305b8:	2f004224 	addiu	v0,v0,47
800305bc:	88a0000c 	jal	0x80028220
800305c0:	3a00a2a7 	sh	v0,58(sp)
800305c4:	01000424 	li	a0,1
800305c8:	21280000 	move	a1,zero
800305cc:	aaa1000c 	jal	0x800286a8
800305d0:	2130a000 	move	a2,a1
800305d4:	4800a427 	addiu	a0,sp,72
800305d8:	21280002 	move	a1,s0
800305dc:	3800a297 	lhu	v0,56(sp)
800305e0:	3c00a397 	lhu	v1,60(sp)
800305e4:	3e00a797 	lhu	a3,62(sp)
800305e8:	feff4224 	addiu	v0,v0,-2
800305ec:	4800a2a7 	sh	v0,72(sp)
800305f0:	3a00a297 	lhu	v0,58(sp)
800305f4:	01000624 	li	a2,1
800305f8:	4c00a3a7 	sh	v1,76(sp)
800305fc:	4e00a7a7 	sh	a3,78(sp)
80030600:	ffff4224 	addiu	v0,v0,-1
80030604:	88a0000c 	jal	0x80028220
80030608:	4a00a2a7 	sh	v0,74(sp)
8003060c:	02000424 	li	a0,2
80030610:	21280000 	move	a1,zero
80030614:	aaa1000c 	jal	0x800286a8
80030618:	2130a000 	move	a2,a1
8003061c:	3c034436 	ori	a0,s2,0x33c
80030620:	58034536 	ori	a1,s2,0x358
80030624:	5c034636 	ori	a2,s2,0x35c
80030628:	21380000 	move	a3,zero
8003062c:	3c000224 	li	v0,60
80030630:	3c0342a6 	sh	v0,828(s2)
80030634:	0c000224 	li	v0,12
80030638:	3e0342a6 	sh	v0,830(s2)
8003063c:	c4000224 	li	v0,196
80030640:	400342a6 	sh	v0,832(s2)
80030644:	10000224 	li	v0,16
80030648:	420342a6 	sh	v0,834(s2)
8003064c:	80030224 	li	v0,896
80030650:	580342a6 	sh	v0,856(s2)
80030654:	c0010224 	li	v0,448
80030658:	5a0342a6 	sh	v0,858(s2)
8003065c:	20020224 	li	v0,544
80030660:	5c0342a6 	sh	v0,860(s2)
80030664:	f6010224 	li	v0,502
80030668:	5e0342a6 	sh	v0,862(s2)
8003066c:	03000224 	li	v0,3
80030670:	d9a0000c 	jal	0x80028364
80030674:	1000a2af 	sw	v0,16(sp)
80030678:	6666023c 	lui	v0,0x6666
8003067c:	00004486 	lh	a0,0(s2)
80030680:	67664234 	ori	v0,v0,0x6667
80030684:	80200400 	sll	a0,a0,0x2
80030688:	18008200 	mult	a0,v0
8003068c:	21980000 	move	s3,zero
80030690:	10001424 	li	s4,16
80030694:	23000224 	li	v0,35
80030698:	520342a6 	sh	v0,850(s2)
8003069c:	38000224 	li	v0,56
800306a0:	540342a6 	sh	v0,852(s2)
800306a4:	1c000224 	li	v0,28
800306a8:	560342a6 	sh	v0,854(s2)
800306ac:	c3170400 	sra	v0,a0,0x1f
800306b0:	10480000 	mfhi	t1
800306b4:	c3180900 	sra	v1,t1,0x3
800306b8:	23806200 	subu	s0,v1,v0
800306bc:	80101000 	sll	v0,s0,0x2
800306c0:	21105000 	addu	v0,v0,s0
800306c4:	80100200 	sll	v0,v0,0x2
800306c8:	23808200 	subu	s0,a0,v0
800306cc:	32000224 	li	v0,50
800306d0:	500342a6 	sh	v0,848(s2)
800306d4:	21880000 	move	s1,zero
800306d8:	50034426 	addiu	a0,s2,848
800306dc:	21300000 	move	a2,zero
800306e0:	2138c000 	move	a3,a2
800306e4:	1000b4af 	sw	s4,16(sp)
800306e8:	1000428e 	lw	v0,16(s2)
800306ec:	80281000 	sll	a1,s0,0x2
800306f0:	d9a0000c 	jal	0x80028364
800306f4:	21284500 	addu	a1,v0,a1
800306f8:	6666023c 	lui	v0,0x6666
800306fc:	67664234 	ori	v0,v0,0x6667
80030700:	01000426 	addiu	a0,s0,1
80030704:	18008200 	mult	a0,v0
80030708:	50034296 	lhu	v0,848(s2)
8003070c:	01003126 	addiu	s1,s1,1
80030710:	21105500 	addu	v0,v0,s5
80030714:	500342a6 	sh	v0,848(s2)
80030718:	c3170400 	sra	v0,a0,0x1f
8003071c:	10480000 	mfhi	t1
80030720:	c3180900 	sra	v1,t1,0x3
80030724:	23806200 	subu	s0,v1,v0
80030728:	80101000 	sll	v0,s0,0x2
8003072c:	21105000 	addu	v0,v0,s0
80030730:	80100200 	sll	v0,v0,0x2
80030734:	23808200 	subu	s0,a0,v0
80030738:	0400222a 	slti	v0,s1,4
8003073c:	e7ff4014 	bnez	v0,0x800306dc
80030740:	50034426 	addiu	a0,s2,848
80030744:	52034296 	lhu	v0,850(s2)
80030748:	01007326 	addiu	s3,s3,1
8003074c:	21105600 	addu	v0,v0,s6
80030750:	520342a6 	sh	v0,850(s2)
80030754:	0500622a 	slti	v0,s3,5
80030758:	ddff4014 	bnez	v0,0x800306d0
8003075c:	32000224 	li	v0,50
80030760:	0a000424 	li	a0,10
80030764:	09000524 	li	a1,9
80030768:	28010624 	li	a2,296
8003076c:	52a5000c 	jal	0x80029548
80030770:	bc000724 	li	a3,188
80030774:	7400bf8f 	lw	ra,116(sp)
80030778:	7000b68f 	lw	s6,112(sp)
8003077c:	6c00b58f 	lw	s5,108(sp)
80030780:	6800b48f 	lw	s4,104(sp)
80030784:	6400b38f 	lw	s3,100(sp)
80030788:	6000b28f 	lw	s2,96(sp)
8003078c:	5c00b18f 	lw	s1,92(sp)
80030790:	5800b08f 	lw	s0,88(sp)
80030794:	7800bd27 	addiu	sp,sp,120
80030798:	0800e003 	jr	ra
8003079c:	00000000 	nop
800307a0:	88ffbd27 	addiu	sp,sp,-120
800307a4:	0880023c 	lui	v0,0x8008
800307a8:	7400bfaf 	sw	ra,116(sp)
800307ac:	7000b6af 	sw	s6,112(sp)
800307b0:	6c00b5af 	sw	s5,108(sp)
800307b4:	6800b4af 	sw	s4,104(sp)
800307b8:	6400b3af 	sw	s3,100(sp)
800307bc:	6000b2af 	sw	s2,96(sp)
800307c0:	5c00b1af 	sw	s1,92(sp)
800307c4:	5800b0af 	sw	s0,88(sp)
800307c8:	5c7f4624 	addiu	a2,v0,32604
800307cc:	0300c388 	lwl	v1,3(a2)
800307d0:	0000c398 	lwr	v1,0(a2)
800307d4:	00000000 	nop
800307d8:	2300a3ab 	swl	v1,35(sp)
800307dc:	2000a3bb 	swr	v1,32(sp)
800307e0:	0880023c 	lui	v0,0x8008
800307e4:	e47f4624 	addiu	a2,v0,32740
800307e8:	0300c388 	lwl	v1,3(a2)
800307ec:	0000c398 	lwr	v1,0(a2)
800307f0:	0700c488 	lwl	a0,7(a2)
800307f4:	0400c498 	lwr	a0,4(a2)
800307f8:	2b00a3ab 	swl	v1,43(sp)
800307fc:	2800a3bb 	swr	v1,40(sp)
80030800:	2f00a4ab 	swl	a0,47(sp)
80030804:	2c00a4bb 	swr	a0,44(sp)
80030808:	0880023c 	lui	v0,0x8008
8003080c:	ec7f4624 	addiu	a2,v0,32748
80030810:	0300c388 	lwl	v1,3(a2)
80030814:	0000c398 	lwr	v1,0(a2)
80030818:	0700c488 	lwl	a0,7(a2)
8003081c:	0400c498 	lwr	a0,4(a2)
80030820:	3300a3ab 	swl	v1,51(sp)
80030824:	3000a3bb 	swr	v1,48(sp)
80030828:	3700a4ab 	swl	a0,55(sp)
8003082c:	3400a4bb 	swr	a0,52(sp)
80030830:	0880023c 	lui	v0,0x8008
80030834:	f47f4624 	addiu	a2,v0,32756
80030838:	0300c388 	lwl	v1,3(a2)
8003083c:	0000c398 	lwr	v1,0(a2)
80030840:	0700c488 	lwl	a0,7(a2)
80030844:	0400c498 	lwr	a0,4(a2)
80030848:	3b00a3ab 	swl	v1,59(sp)
8003084c:	3800a3bb 	swr	v1,56(sp)
80030850:	3f00a4ab 	swl	a0,63(sp)
80030854:	3c00a4bb 	swr	a0,60(sp)
80030858:	0880033c 	lui	v1,0x8008
8003085c:	801f123c 	lui	s2,0x1f80
80030860:	e0024296 	lhu	v0,736(s2)
80030864:	e07f6724 	addiu	a3,v1,32736
80030868:	0300e488 	lwl	a0,3(a3)
8003086c:	0000e498 	lwr	a0,0(a3)
80030870:	00000000 	nop
80030874:	4300a4ab 	swl	a0,67(sp)
80030878:	4000a4bb 	swr	a0,64(sp)
8003087c:	40001524 	li	s5,64
80030880:	20001624 	li	s6,32
80030884:	00140200 	sll	v0,v0,0x10
80030888:	03240200 	sra	a0,v0,0x10
8003088c:	02008104 	bgez	a0,0x80030898
80030890:	21108000 	move	v0,a0
80030894:	07008224 	addiu	v0,a0,7
80030898:	c3400200 	sra	t0,v0,0x3
8003089c:	c0100800 	sll	v0,t0,0x3
800308a0:	23108200 	subu	v0,a0,v0
800308a4:	00140200 	sll	v0,v0,0x10
800308a8:	031c0200 	sra	v1,v0,0x10
800308ac:	04006228 	slti	v0,v1,4
800308b0:	11004014 	bnez	v0,0x800308f8
800308b4:	80110300 	sll	v0,v1,0x6
800308b8:	52004224 	addiu	v0,v0,82
800308bc:	300342a6 	sh	v0,816(s2)
800308c0:	801f043c 	lui	a0,0x1f80
800308c4:	30038434 	ori	a0,a0,0x330
800308c8:	801f053c 	lui	a1,0x1f80
800308cc:	2c03a534 	ori	a1,a1,0x32c
800308d0:	01020624 	li	a2,513
800308d4:	01000724 	li	a3,1
800308d8:	40110800 	sll	v0,t0,0x5
800308dc:	23004224 	addiu	v0,v0,35
800308e0:	320342a6 	sh	v0,818(s2)
800308e4:	38000224 	li	v0,56
800308e8:	340342a6 	sh	v0,820(s2)
800308ec:	1c000224 	li	v0,28
800308f0:	469f000c 	jal	0x80027d18
800308f4:	360342a6 	sh	v0,822(s2)
800308f8:	02004296 	lhu	v0,2(s2)
800308fc:	00000000 	nop
80030900:	00140200 	sll	v0,v0,0x10
80030904:	04004018 	blez	v0,0x80030918
80030908:	2800a427 	addiu	a0,sp,40
8003090c:	2c034536 	ori	a1,s2,0x32c
80030910:	5ba4000c 	jal	0x8002916c
80030914:	000c0624 	li	a2,3072
80030918:	02004296 	lhu	v0,2(s2)
8003091c:	00000000 	nop
80030920:	00140200 	sll	v0,v0,0x10
80030924:	03140200 	sra	v0,v0,0x10
80030928:	49004228 	slti	v0,v0,73
8003092c:	04004010 	beqz	v0,0x80030940
80030930:	3000a427 	addiu	a0,sp,48
80030934:	2c034536 	ori	a1,s2,0x32c
80030938:	5ba4000c 	jal	0x8002916c
8003093c:	00040624 	li	a2,1024
80030940:	67dd043c 	lui	a0,0xdd67
80030944:	02004296 	lhu	v0,2(s2)
80030948:	a7c88434 	ori	a0,a0,0xc8a7
8003094c:	00140200 	sll	v0,v0,0x10
80030950:	03140200 	sra	v0,v0,0x10
80030954:	00190200 	sll	v1,v0,0x4
80030958:	21186200 	addu	v1,v1,v0
8003095c:	c0180300 	sll	v1,v1,0x3
80030960:	18006400 	mult	v1,a0
80030964:	4000b027 	addiu	s0,sp,64
80030968:	21280002 	move	a1,s0
8003096c:	01000624 	li	a2,1
80030970:	3800a427 	addiu	a0,sp,56
80030974:	10480000 	mfhi	t1
80030978:	21102301 	addu	v0,t1,v1
8003097c:	83110200 	sra	v0,v0,0x6
80030980:	c31f0300 	sra	v1,v1,0x1f
80030984:	23104300 	subu	v0,v0,v1
80030988:	2f004224 	addiu	v0,v0,47
8003098c:	88a0000c 	jal	0x80028220
80030990:	3a00a2a7 	sh	v0,58(sp)
80030994:	01000424 	li	a0,1
80030998:	21280000 	move	a1,zero
8003099c:	aaa1000c 	jal	0x800286a8
800309a0:	2130a000 	move	a2,a1
800309a4:	4800a427 	addiu	a0,sp,72
800309a8:	21280002 	move	a1,s0
800309ac:	3800a297 	lhu	v0,56(sp)
800309b0:	3c00a397 	lhu	v1,60(sp)
800309b4:	3e00a797 	lhu	a3,62(sp)
800309b8:	feff4224 	addiu	v0,v0,-2
800309bc:	4800a2a7 	sh	v0,72(sp)
800309c0:	3a00a297 	lhu	v0,58(sp)
800309c4:	01000624 	li	a2,1
800309c8:	4c00a3a7 	sh	v1,76(sp)
800309cc:	4e00a7a7 	sh	a3,78(sp)
800309d0:	ffff4224 	addiu	v0,v0,-1
800309d4:	88a0000c 	jal	0x80028220
800309d8:	4a00a2a7 	sh	v0,74(sp)
800309dc:	02000424 	li	a0,2
800309e0:	21280000 	move	a1,zero
800309e4:	aaa1000c 	jal	0x800286a8
800309e8:	2130a000 	move	a2,a1
800309ec:	3c034436 	ori	a0,s2,0x33c
800309f0:	58034536 	ori	a1,s2,0x358
800309f4:	5c034636 	ori	a2,s2,0x35c
800309f8:	21380000 	move	a3,zero
800309fc:	80010224 	li	v0,384
80030a00:	3c0342a6 	sh	v0,828(s2)
80030a04:	0c000224 	li	v0,12
80030a08:	3e0342a6 	sh	v0,830(s2)
80030a0c:	c4000224 	li	v0,196
80030a10:	400342a6 	sh	v0,832(s2)
80030a14:	10000224 	li	v0,16
80030a18:	420342a6 	sh	v0,834(s2)
80030a1c:	80030224 	li	v0,896
80030a20:	580342a6 	sh	v0,856(s2)
80030a24:	d0010224 	li	v0,464
80030a28:	5a0342a6 	sh	v0,858(s2)
80030a2c:	20020224 	li	v0,544
80030a30:	5c0342a6 	sh	v0,860(s2)
80030a34:	f6010224 	li	v0,502
80030a38:	5e0342a6 	sh	v0,862(s2)
80030a3c:	03000224 	li	v0,3
80030a40:	d9a0000c 	jal	0x80028364
80030a44:	1000a2af 	sw	v0,16(sp)
80030a48:	6666023c 	lui	v0,0x6666
80030a4c:	02004396 	lhu	v1,2(s2)
80030a50:	67664234 	ori	v0,v0,0x6667
80030a54:	001c0300 	sll	v1,v1,0x10
80030a58:	831b0300 	sra	v1,v1,0xe
80030a5c:	18006200 	mult	v1,v0
80030a60:	21980000 	move	s3,zero
80030a64:	10001424 	li	s4,16
80030a68:	23000224 	li	v0,35
80030a6c:	520342a6 	sh	v0,850(s2)
80030a70:	38000224 	li	v0,56
80030a74:	540342a6 	sh	v0,852(s2)
80030a78:	1c000224 	li	v0,28
80030a7c:	560342a6 	sh	v0,854(s2)
80030a80:	c3170300 	sra	v0,v1,0x1f
80030a84:	10480000 	mfhi	t1
80030a88:	c3200900 	sra	a0,t1,0x3
80030a8c:	23808200 	subu	s0,a0,v0
80030a90:	80101000 	sll	v0,s0,0x2
80030a94:	21105000 	addu	v0,v0,s0
80030a98:	80100200 	sll	v0,v0,0x2
80030a9c:	23806200 	subu	s0,v1,v0
80030aa0:	52010224 	li	v0,338
80030aa4:	500342a6 	sh	v0,848(s2)
80030aa8:	21880000 	move	s1,zero
80030aac:	50034426 	addiu	a0,s2,848
80030ab0:	21300000 	move	a2,zero
80030ab4:	2138c000 	move	a3,a2
80030ab8:	80281000 	sll	a1,s0,0x2
80030abc:	1000b4af 	sw	s4,16(sp)
80030ac0:	1000428e 	lw	v0,16(s2)
80030ac4:	5000a524 	addiu	a1,a1,80
80030ac8:	d9a0000c 	jal	0x80028364
80030acc:	21284500 	addu	a1,v0,a1
80030ad0:	6666023c 	lui	v0,0x6666
80030ad4:	67664234 	ori	v0,v0,0x6667
80030ad8:	01000426 	addiu	a0,s0,1
80030adc:	18008200 	mult	a0,v0
80030ae0:	50034296 	lhu	v0,848(s2)
80030ae4:	01003126 	addiu	s1,s1,1
80030ae8:	21105500 	addu	v0,v0,s5
80030aec:	500342a6 	sh	v0,848(s2)
80030af0:	c3170400 	sra	v0,a0,0x1f
80030af4:	10480000 	mfhi	t1
80030af8:	c3180900 	sra	v1,t1,0x3
80030afc:	23806200 	subu	s0,v1,v0
80030b00:	80101000 	sll	v0,s0,0x2
80030b04:	21105000 	addu	v0,v0,s0
80030b08:	80100200 	sll	v0,v0,0x2
80030b0c:	23808200 	subu	s0,a0,v0
80030b10:	0400222a 	slti	v0,s1,4
80030b14:	e6ff4014 	bnez	v0,0x80030ab0
80030b18:	50034426 	addiu	a0,s2,848
80030b1c:	52034296 	lhu	v0,850(s2)
80030b20:	01007326 	addiu	s3,s3,1
80030b24:	21105600 	addu	v0,v0,s6
80030b28:	520342a6 	sh	v0,850(s2)
80030b2c:	0500622a 	slti	v0,s3,5
80030b30:	dcff4014 	bnez	v0,0x80030aa4
80030b34:	52010224 	li	v0,338
80030b38:	4e010424 	li	a0,334
80030b3c:	09000524 	li	a1,9
80030b40:	28010624 	li	a2,296
80030b44:	52a5000c 	jal	0x80029548
80030b48:	bc000724 	li	a3,188
80030b4c:	7400bf8f 	lw	ra,116(sp)
80030b50:	7000b68f 	lw	s6,112(sp)
80030b54:	6c00b58f 	lw	s5,108(sp)
80030b58:	6800b48f 	lw	s4,104(sp)
80030b5c:	6400b38f 	lw	s3,100(sp)
80030b60:	6000b28f 	lw	s2,96(sp)
80030b64:	5c00b18f 	lw	s1,92(sp)
80030b68:	5800b08f 	lw	s0,88(sp)
80030b6c:	7800bd27 	addiu	sp,sp,120
80030b70:	0800e003 	jr	ra
80030b74:	00000000 	nop
80030b78:	d0ffbd27 	addiu	sp,sp,-48
80030b7c:	2400b3af 	sw	s3,36(sp)
80030b80:	801f133c 	lui	s3,0x1f80
80030b84:	2c00bfaf 	sw	ra,44(sp)
80030b88:	2800b4af 	sw	s4,40(sp)
80030b8c:	2000b2af 	sw	s2,32(sp)
80030b90:	1c00b1af 	sw	s1,28(sp)
80030b94:	1800b0af 	sw	s0,24(sp)
80030b98:	e0026296 	lhu	v0,736(s3)
80030b9c:	00000000 	nop
80030ba0:	00140200 	sll	v0,v0,0x10
80030ba4:	031c0200 	sra	v1,v0,0x10
80030ba8:	02006104 	bgez	v1,0x80030bb4
80030bac:	21106000 	move	v0,v1
80030bb0:	07006224 	addiu	v0,v1,7
80030bb4:	c3200200 	sra	a0,v0,0x3
80030bb8:	c0100400 	sll	v0,a0,0x3
80030bbc:	23106200 	subu	v0,v1,v0
80030bc0:	00140200 	sll	v0,v0,0x10
80030bc4:	032c0200 	sra	a1,v0,0x10
80030bc8:	0400a228 	slti	v0,a1,4
80030bcc:	0c004010 	beqz	v0,0x80030c00
80030bd0:	00000000 	nop
80030bd4:	00006286 	lh	v0,0(s3)
80030bd8:	00000000 	nop
80030bdc:	21104400 	addu	v0,v0,a0
80030be0:	80100200 	sll	v0,v0,0x2
80030be4:	21104500 	addu	v0,v0,a1
80030be8:	0400638e 	lw	v1,4(s3)
80030bec:	40100200 	sll	v0,v0,0x1
80030bf0:	21104300 	addu	v0,v0,v1
80030bf4:	00005084 	lh	s0,0(v0)
80030bf8:	0bc50008 	j	0x8003142c
80030bfc:	00000000 	nop
80030c00:	02006296 	lhu	v0,2(s3)
80030c04:	00000000 	nop
80030c08:	00140200 	sll	v0,v0,0x10
80030c0c:	03140200 	sra	v0,v0,0x10
80030c10:	21104400 	addu	v0,v0,a0
80030c14:	80100200 	sll	v0,v0,0x2
80030c18:	21104500 	addu	v0,v0,a1
80030c1c:	0800638e 	lw	v1,8(s3)
80030c20:	40100200 	sll	v0,v0,0x1
80030c24:	21104300 	addu	v0,v0,v1
80030c28:	f8ff5084 	lh	s0,-8(v0)
80030c2c:	03036292 	lbu	v0,771(s3)
80030c30:	ffff1124 	li	s1,-1
80030c34:	80004234 	ori	v0,v0,0x80
80030c38:	0b001112 	beq	s0,s1,0x80030c68
80030c3c:	030362a2 	sb	v0,771(s3)
80030c40:	12000524 	li	a1,18
80030c44:	ca000624 	li	a2,202
80030c48:	1400648e 	lw	a0,20(s3)
80030c4c:	40101000 	sll	v0,s0,0x1
80030c50:	21104400 	addu	v0,v0,a0
80030c54:	00004294 	lhu	v0,0(v0)
80030c58:	00036736 	ori	a3,s3,0x300
80030c5c:	000c4224 	addiu	v0,v0,3072
80030c60:	cb9c000c 	jal	0x8002732c
80030c64:	21208200 	addu	a0,a0,v0
80030c68:	03036292 	lbu	v0,771(s3)
80030c6c:	00000000 	nop
80030c70:	7f004230 	andi	v0,v0,0x7f
80030c74:	71001112 	beq	s0,s1,0x80030e3c
80030c78:	030362a2 	sb	v0,771(s3)
80030c7c:	1c80023c 	lui	v0,0x801c
80030c80:	f8764224 	addiu	v0,v0,30456
80030c84:	40181000 	sll	v1,s0,0x1
80030c88:	21187000 	addu	v1,v1,s0
80030c8c:	80180300 	sll	v1,v1,0x2
80030c90:	23187000 	subu	v1,v1,s0
80030c94:	80180300 	sll	v1,v1,0x2
80030c98:	21a06200 	addu	s4,v1,v0
80030c9c:	3f018292 	lbu	v0,319(s4)
80030ca0:	00000000 	nop
80030ca4:	1d004010 	beqz	v0,0x80030d1c
80030ca8:	4a000524 	li	a1,74
80030cac:	d7000624 	li	a2,215
80030cb0:	00037226 	addiu	s2,s3,768
80030cb4:	21384002 	move	a3,s2
80030cb8:	1e80043c 	lui	a0,0x801e
80030cbc:	500d8424 	addiu	a0,a0,3408
80030cc0:	3a008294 	lhu	v0,58(a0)
80030cc4:	000c8424 	addiu	a0,a0,3072
80030cc8:	cb9c000c 	jal	0x8002732c
80030ccc:	21204400 	addu	a0,v0,a0
80030cd0:	8a000524 	li	a1,138
80030cd4:	d7000624 	li	a2,215
80030cd8:	10037126 	addiu	s1,s3,784
80030cdc:	21382002 	move	a3,s1
80030ce0:	40018492 	lbu	a0,320(s4)
80030ce4:	0003103c 	lui	s0,0x300
80030ce8:	109d000c 	jal	0x80027440
80030cec:	25209000 	or	a0,a0,s0
80030cf0:	0e000424 	li	a0,14
80030cf4:	ae000524 	li	a1,174
80030cf8:	d7000624 	li	a2,215
80030cfc:	b39b000c 	jal	0x80026ecc
80030d00:	21384002 	move	a3,s2
80030d04:	be000524 	li	a1,190
80030d08:	d7000624 	li	a2,215
80030d0c:	3f018492 	lbu	a0,319(s4)
80030d10:	21382002 	move	a3,s1
80030d14:	109d000c 	jal	0x80027440
80030d18:	25209000 	or	a0,a0,s0
80030d1c:	3c018296 	lhu	v0,316(s4)
80030d20:	00000000 	nop
80030d24:	45004010 	beqz	v0,0x80030e3c
80030d28:	fa000524 	li	a1,250
80030d2c:	d7000624 	li	a2,215
80030d30:	00037126 	addiu	s1,s3,768
80030d34:	21382002 	move	a3,s1
80030d38:	1e80043c 	lui	a0,0x801e
80030d3c:	500d8424 	addiu	a0,a0,3408
80030d40:	38008294 	lhu	v0,56(a0)
80030d44:	000c8424 	addiu	a0,a0,3072
80030d48:	cb9c000c 	jal	0x8002732c
80030d4c:	21204400 	addu	a0,v0,a0
80030d50:	1624043c 	lui	a0,0x2416
80030d54:	3c018396 	lhu	v1,316(s4)
80030d58:	198e8434 	ori	a0,a0,0x8e19
80030d5c:	40100300 	sll	v0,v1,0x1
80030d60:	21104300 	addu	v0,v0,v1
80030d64:	c0100200 	sll	v0,v0,0x3
80030d68:	21104300 	addu	v0,v0,v1
80030d6c:	80100200 	sll	v0,v0,0x2
80030d70:	18004400 	mult	v0,a0
80030d74:	40110300 	sll	v0,v1,0x5
80030d78:	23104300 	subu	v0,v0,v1
80030d7c:	80100200 	sll	v0,v0,0x2
80030d80:	10400000 	mfhi	t0
80030d84:	21104300 	addu	v0,v0,v1
80030d88:	c0100200 	sll	v0,v0,0x3
80030d8c:	18004400 	mult	v0,a0
80030d90:	2c010524 	li	a1,300
80030d94:	d7000624 	li	a2,215
80030d98:	10037026 	addiu	s0,s3,784
80030d9c:	21380002 	move	a3,s0
80030da0:	83190800 	sra	v1,t0,0x6
80030da4:	c3170200 	sra	v0,v0,0x1f
80030da8:	0980013c 	lui	at,0x8009
80030dac:	9e8123a4 	sh	v1,-32354(at)
80030db0:	10500000 	mfhi	t2
80030db4:	83190a00 	sra	v1,t2,0x6
80030db8:	23186200 	subu	v1,v1,v0
80030dbc:	0980023c 	lui	v0,0x8009
80030dc0:	9e814294 	lhu	v0,-32354(v0)
80030dc4:	0003043c 	lui	a0,0x300
80030dc8:	0980013c 	lui	at,0x8009
80030dcc:	888123a4 	sh	v1,-32376(at)
80030dd0:	109d000c 	jal	0x80027440
80030dd4:	25204400 	or	a0,v0,a0
80030dd8:	12000424 	li	a0,18
80030ddc:	53010524 	li	a1,339
80030de0:	d7000624 	li	a2,215
80030de4:	b39b000c 	jal	0x80026ecc
80030de8:	21382002 	move	a3,s1
80030dec:	5a010524 	li	a1,346
80030df0:	d7000624 	li	a2,215
80030df4:	21380002 	move	a3,s0
80030df8:	0980033c 	lui	v1,0x8009
80030dfc:	9e816394 	lhu	v1,-32354(v1)
80030e00:	0980043c 	lui	a0,0x8009
80030e04:	88818494 	lhu	a0,-32376(a0)
80030e08:	80100300 	sll	v0,v1,0x2
80030e0c:	21104300 	addu	v0,v0,v1
80030e10:	40100200 	sll	v0,v0,0x1
80030e14:	23208200 	subu	a0,a0,v0
80030e18:	ffff8430 	andi	a0,a0,0xffff
80030e1c:	0001023c 	lui	v0,0x100
80030e20:	109d000c 	jal	0x80027440
80030e24:	25208200 	or	a0,a0,v0
80030e28:	35000424 	li	a0,53
80030e2c:	6a010524 	li	a1,362
80030e30:	d7000624 	li	a2,215
80030e34:	b39b000c 	jal	0x80026ecc
80030e38:	21382002 	move	a3,s1
80030e3c:	0a000424 	li	a0,10
80030e40:	c6000524 	li	a1,198
80030e44:	6c020624 	li	a2,620
80030e48:	52a5000c 	jal	0x80029548
80030e4c:	22000724 	li	a3,34
80030e50:	2c00bf8f 	lw	ra,44(sp)
80030e54:	2800b48f 	lw	s4,40(sp)
80030e58:	2400b38f 	lw	s3,36(sp)
80030e5c:	2000b28f 	lw	s2,32(sp)
80030e60:	1c00b18f 	lw	s1,28(sp)
80030e64:	1800b08f 	lw	s0,24(sp)
80030e68:	3000bd27 	addiu	sp,sp,48
80030e6c:	0800e003 	jr	ra
80030e70:	00000000 	nop
80030e74:	98ffbd27 	addiu	sp,sp,-104
80030e78:	801f083c 	lui	t0,0x1f80
80030e7c:	6400bfaf 	sw	ra,100(sp)
80030e80:	6000beaf 	sw	s8,96(sp)
80030e84:	5c00b7af 	sw	s7,92(sp)
80030e88:	5800b6af 	sw	s6,88(sp)
80030e8c:	5400b5af 	sw	s5,84(sp)
80030e90:	5000b4af 	sw	s4,80(sp)
80030e94:	4c00b3af 	sw	s3,76(sp)
80030e98:	4800b2af 	sw	s2,72(sp)
80030e9c:	4400b1af 	sw	s1,68(sp)
80030ea0:	4000b0af 	sw	s0,64(sp)
80030ea4:	e0020295 	lhu	v0,736(t0)
80030ea8:	00000000 	nop
80030eac:	00140200 	sll	v0,v0,0x10
80030eb0:	031c0200 	sra	v1,v0,0x10
80030eb4:	02006104 	bgez	v1,0x80030ec0
80030eb8:	21106000 	move	v0,v1
80030ebc:	07006224 	addiu	v0,v1,7
80030ec0:	c3100200 	sra	v0,v0,0x3
80030ec4:	c0100200 	sll	v0,v0,0x3
80030ec8:	23106200 	subu	v0,v1,v0
80030ecc:	00140200 	sll	v0,v0,0x10
80030ed0:	03140200 	sra	v0,v0,0x10
80030ed4:	04004228 	slti	v0,v0,4
80030ed8:	09004010 	beqz	v0,0x80030f00
80030edc:	4e010924 	li	t1,334
80030ee0:	2000a9a7 	sh	t1,32(sp)
80030ee4:	09000924 	li	t1,9
80030ee8:	2800a9a7 	sh	t1,40(sp)
80030eec:	87000924 	li	t1,135
80030ef0:	1800a9af 	sw	t1,24(sp)
80030ef4:	2000a997 	lhu	t1,32(sp)
80030ef8:	c8c50008 	j	0x80031720
80030efc:	56011424 	li	s4,342
80030f00:	0a000924 	li	t1,10
80030f04:	2000a9a7 	sh	t1,32(sp)
80030f08:	09000924 	li	t1,9
80030f0c:	2800a9a7 	sh	t1,40(sp)
80030f10:	87000924 	li	t1,135
80030f14:	1800a9af 	sw	t1,24(sp)
80030f18:	2000a997 	lhu	t1,32(sp)
80030f1c:	12001424 	li	s4,18
80030f20:	500309a5 	sh	t1,848(t0)
80030f24:	2800a997 	lhu	t1,40(sp)
80030f28:	c0000224 	li	v0,192
80030f2c:	540302a5 	sh	v0,852(t0)
80030f30:	7c000224 	li	v0,124
80030f34:	560302a5 	sh	v0,854(t0)
80030f38:	520309a5 	sh	t1,850(t0)
80030f3c:	e0020295 	lhu	v0,736(t0)
80030f40:	21300000 	move	a2,zero
80030f44:	00140200 	sll	v0,v0,0x10
80030f48:	031c0200 	sra	v1,v0,0x10
80030f4c:	02006104 	bgez	v1,0x80030f58
80030f50:	21106000 	move	v0,v1
80030f54:	07006224 	addiu	v0,v1,7
80030f58:	c3200200 	sra	a0,v0,0x3
80030f5c:	c0100400 	sll	v0,a0,0x3
80030f60:	23286200 	subu	a1,v1,v0
80030f64:	00140500 	sll	v0,a1,0x10
80030f68:	03140200 	sra	v0,v0,0x10
80030f6c:	04004228 	slti	v0,v0,4
80030f70:	09004010 	beqz	v0,0x80030f98
80030f74:	00000000 	nop
80030f78:	00000285 	lh	v0,0(t0)
80030f7c:	00000000 	nop
80030f80:	21104400 	addu	v0,v0,a0
80030f84:	80100200 	sll	v0,v0,0x2
80030f88:	21104500 	addu	v0,v0,a1
80030f8c:	0400038d 	lw	v1,4(t0)
80030f90:	f0c50008 	j	0x800317c0
80030f94:	00140200 	sll	v0,v0,0x10
80030f98:	02000295 	lhu	v0,2(t0)
80030f9c:	00000000 	nop
80030fa0:	00140200 	sll	v0,v0,0x10
80030fa4:	03140200 	sra	v0,v0,0x10
80030fa8:	21104400 	addu	v0,v0,a0
80030fac:	80100200 	sll	v0,v0,0x2
80030fb0:	fcff4224 	addiu	v0,v0,-4
80030fb4:	21104500 	addu	v0,v0,a1
80030fb8:	00140200 	sll	v0,v0,0x10
80030fbc:	0800038d 	lw	v1,8(t0)
80030fc0:	c3130200 	sra	v0,v0,0xf
80030fc4:	21104300 	addu	v0,v0,v1
80030fc8:	00005394 	lhu	s3,0(v0)
80030fcc:	00004384 	lh	v1,0(v0)
80030fd0:	ffff0224 	li	v0,-1
80030fd4:	03006214 	bne	v1,v0,0x80030fe4
80030fd8:	2110c000 	move	v0,a2
80030fdc:	01000624 	li	a2,1
80030fe0:	2110c000 	move	v0,a2
80030fe4:	5c004014 	bnez	v0,0x80031158
80030fe8:	58031025 	addiu	s0,t0,856
80030fec:	50031125 	addiu	s1,t0,848
80030ff0:	21202002 	move	a0,s1
80030ff4:	21280002 	move	a1,s0
80030ff8:	21300000 	move	a2,zero
80030ffc:	2138c000 	move	a3,a2
80031000:	80020224 	li	v0,640
80031004:	10001224 	li	s2,16
80031008:	580302a5 	sh	v0,856(t0)
8003100c:	5a0300a5 	sh	zero,858(t0)
80031010:	1000b2af 	sw	s2,16(sp)
80031014:	d9a0000c 	jal	0x80028364
80031018:	3800a8af 	sw	t0,56(sp)
8003101c:	21202002 	move	a0,s1
80031020:	21280002 	move	a1,s0
80031024:	21300000 	move	a2,zero
80031028:	2138c000 	move	a3,a2
8003102c:	21a8c000 	move	s5,a2
80031030:	02001e24 	li	s8,2
80031034:	3800a88f 	lw	t0,56(sp)
80031038:	21b08002 	move	s6,s4
8003103c:	1c00a0af 	sw	zero,28(sp)
80031040:	50030395 	lhu	v1,848(t0)
80031044:	64000224 	li	v0,100
80031048:	540302a5 	sh	v0,852(t0)
8003104c:	40030224 	li	v0,832
80031050:	580302a5 	sh	v0,856(t0)
80031054:	1000b2af 	sw	s2,16(sp)
80031058:	c0006324 	addiu	v1,v1,192
8003105c:	d9a0000c 	jal	0x80028364
80031060:	500303a5 	sh	v1,848(t0)
80031064:	001c1300 	sll	v1,s3,0x10
80031068:	031c0300 	sra	v1,v1,0x10
8003106c:	40100300 	sll	v0,v1,0x1
80031070:	21104300 	addu	v0,v0,v1
80031074:	80100200 	sll	v0,v0,0x2
80031078:	23104300 	subu	v0,v0,v1
8003107c:	80100200 	sll	v0,v0,0x2
80031080:	1c80033c 	lui	v1,0x801c
80031084:	20786324 	addiu	v1,v1,30752
80031088:	21a04300 	addu	s4,v0,v1
8003108c:	3800a88f 	lw	t0,56(sp)
80031090:	21980000 	move	s3,zero
80031094:	2a00c926 	addiu	t1,s6,42
80031098:	40101e00 	sll	v0,s8,0x1
8003109c:	3400a9af 	sw	t1,52(sp)
800310a0:	1e80093c 	lui	t1,0x801e
800310a4:	500d2925 	addiu	t1,t1,3408
800310a8:	1800b28f 	lw	s2,24(sp)
800310ac:	21884900 	addu	s1,v0,t1
800310b0:	3000b6af 	sw	s6,48(sp)
800310b4:	0e001724 	li	s7,14
800310b8:	2700b712 	beq	s5,s7,0x80031158
800310bc:	00000000 	nop
800310c0:	00008292 	lbu	v0,0(s4)
800310c4:	00000000 	nop
800310c8:	14004010 	beqz	v0,0x8003111c
800310cc:	0100b526 	addiu	s5,s5,1
800310d0:	ffff5032 	andi	s0,s2,0xffff
800310d4:	21300002 	move	a2,s0
800310d8:	00030725 	addiu	a3,t0,768
800310dc:	1e80093c 	lui	t1,0x801e
800310e0:	3000a597 	lhu	a1,48(sp)
800310e4:	90012496 	lhu	a0,400(s1)
800310e8:	50192925 	addiu	t1,t1,6480
800310ec:	3800a8af 	sw	t0,56(sp)
800310f0:	cb9c000c 	jal	0x8002732c
800310f4:	21208900 	addu	a0,a0,t1
800310f8:	21300002 	move	a2,s0
800310fc:	0013043c 	lui	a0,0x1300
80031100:	3400a597 	lhu	a1,52(sp)
80031104:	3800a88f 	lw	t0,56(sp)
80031108:	00008292 	lbu	v0,0(s4)
8003110c:	10030725 	addiu	a3,t0,784
80031110:	109d000c 	jal	0x80027440
80031114:	25204400 	or	a0,v0,a0
80031118:	3800a88f 	lw	t0,56(sp)
8003111c:	01009426 	addiu	s4,s4,1
80031120:	02003126 	addiu	s1,s1,2
80031124:	0100de27 	addiu	s8,s8,1
80031128:	01007326 	addiu	s3,s3,1
8003112c:	0400622a 	slti	v0,s3,4
80031130:	e0ff4014 	bnez	v0,0x800310b4
80031134:	0f005226 	addiu	s2,s2,15
80031138:	0700b712 	beq	s5,s7,0x80031158
8003113c:	00000000 	nop
80031140:	1c00a98f 	lw	t1,28(sp)
80031144:	4600d626 	addiu	s6,s6,70
80031148:	01002925 	addiu	t1,t1,1
8003114c:	04002229 	slti	v0,t1,4
80031150:	cfff4014 	bnez	v0,0x80031090
80031154:	1c00a9af 	sw	t1,28(sp)
80031158:	2000a997 	lhu	t1,32(sp)
8003115c:	28010624 	li	a2,296
80031160:	21202001 	move	a0,t1
80031164:	2800a997 	lhu	t1,40(sp)
80031168:	bc000724 	li	a3,188
8003116c:	52a5000c 	jal	0x80029548
80031170:	21282001 	move	a1,t1
80031174:	6400bf8f 	lw	ra,100(sp)
80031178:	6000be8f 	lw	s8,96(sp)
8003117c:	5c00b78f 	lw	s7,92(sp)
80031180:	5800b68f 	lw	s6,88(sp)
80031184:	5400b58f 	lw	s5,84(sp)
80031188:	5000b48f 	lw	s4,80(sp)
8003118c:	4c00b38f 	lw	s3,76(sp)
80031190:	4800b28f 	lw	s2,72(sp)
80031194:	4400b18f 	lw	s1,68(sp)
80031198:	4000b08f 	lw	s0,64(sp)
8003119c:	6800bd27 	addiu	sp,sp,104
800311a0:	0800e003 	jr	ra
800311a4:	00000000 	nop
800311a8:	c8ffbd27 	addiu	sp,sp,-56
800311ac:	0880023c 	lui	v0,0x8008
800311b0:	3000bfaf 	sw	ra,48(sp)
800311b4:	2c00b1af 	sw	s1,44(sp)
800311b8:	2800b0af 	sw	s0,40(sp)
800311bc:	5c7f4624 	addiu	a2,v0,32604
800311c0:	0300c388 	lwl	v1,3(a2)
800311c4:	0000c398 	lwr	v1,0(a2)
800311c8:	00000000 	nop
800311cc:	1b00a3ab 	swl	v1,27(sp)
800311d0:	1800a3bb 	swr	v1,24(sp)
800311d4:	0880023c 	lui	v0,0x8008
800311d8:	fc7f4624 	addiu	a2,v0,32764
800311dc:	0300c388 	lwl	v1,3(a2)
800311e0:	0000c398 	lwr	v1,0(a2)
800311e4:	00000000 	nop
800311e8:	2300a3ab 	swl	v1,35(sp)
800311ec:	2000a3bb 	swr	v1,32(sp)
800311f0:	801f043c 	lui	a0,0x1f80
800311f4:	50038434 	ori	a0,a0,0x350
800311f8:	801f053c 	lui	a1,0x1f80
800311fc:	5803a534 	ori	a1,a1,0x358
80031200:	801f063c 	lui	a2,0x1f80
80031204:	5c03c634 	ori	a2,a2,0x35c
80031208:	21380000 	move	a3,zero
8003120c:	801f103c 	lui	s0,0x1f80
80031210:	80030224 	li	v0,896
80031214:	580302a6 	sh	v0,856(s0)
80031218:	e0010224 	li	v0,480
8003121c:	5a0302a6 	sh	v0,858(s0)
80031220:	20020224 	li	v0,544
80031224:	5c0302a6 	sh	v0,860(s0)
80031228:	f7010224 	li	v0,503
8003122c:	5e0302a6 	sh	v0,862(s0)
80031230:	20000224 	li	v0,32
80031234:	540302a6 	sh	v0,852(s0)
80031238:	10000224 	li	v0,16
8003123c:	560302a6 	sh	v0,854(s0)
80031240:	61010224 	li	v0,353
80031244:	a8001124 	li	s1,168
80031248:	500302a6 	sh	v0,848(s0)
8003124c:	520311a6 	sh	s1,850(s0)
80031250:	d9a0000c 	jal	0x80028364
80031254:	1000a0af 	sw	zero,16(sp)
80031258:	21200002 	move	a0,s0
8003125c:	50038434 	ori	a0,a0,0x350
80031260:	21280002 	move	a1,s0
80031264:	5803a534 	ori	a1,a1,0x358
80031268:	21300002 	move	a2,s0
8003126c:	5c03c634 	ori	a2,a2,0x35c
80031270:	21380000 	move	a3,zero
80031274:	88030224 	li	v0,904
80031278:	580302a6 	sh	v0,856(s0)
8003127c:	f8010224 	li	v0,504
80031280:	5e0302a6 	sh	v0,862(s0)
80031284:	e8000224 	li	v0,232
80031288:	500302a6 	sh	v0,848(s0)
8003128c:	520311a6 	sh	s1,850(s0)
80031290:	d9a0000c 	jal	0x80028364
80031294:	1000a0af 	sw	zero,16(sp)
80031298:	bc000524 	li	a1,188
8003129c:	96000624 	li	a2,150
800312a0:	21380002 	move	a3,s0
800312a4:	0003e734 	ori	a3,a3,0x300
800312a8:	1e80043c 	lui	a0,0x801e
800312ac:	500d8424 	addiu	a0,a0,3408
800312b0:	b0018294 	lhu	v0,432(a0)
800312b4:	000c8424 	addiu	a0,a0,3072
800312b8:	cb9c000c 	jal	0x8002732c
800312bc:	21204400 	addu	a0,v0,a0
800312c0:	a8000424 	li	a0,168
800312c4:	90000524 	li	a1,144
800312c8:	3f010624 	li	a2,319
800312cc:	52a5000c 	jal	0x80029548
800312d0:	2c000724 	li	a3,44
800312d4:	3000bf8f 	lw	ra,48(sp)
800312d8:	2c00b18f 	lw	s1,44(sp)
800312dc:	2800b08f 	lw	s0,40(sp)
800312e0:	3800bd27 	addiu	sp,sp,56
800312e4:	0800e003 	jr	ra
800312e8:	00000000 	nop
800312ec:	d8ffbd27 	addiu	sp,sp,-40
800312f0:	0980023c 	lui	v0,0x8009
800312f4:	2400bfaf 	sw	ra,36(sp)
800312f8:	2000b0af 	sw	s0,32(sp)
800312fc:	00804624 	addiu	a2,v0,-32768
80031300:	0300c388 	lwl	v1,3(a2)
80031304:	0000c398 	lwr	v1,0(a2)
80031308:	0700c488 	lwl	a0,7(a2)
8003130c:	0400c498 	lwr	a0,4(a2)
80031310:	1300a3ab 	swl	v1,19(sp)
80031314:	1000a3bb 	swr	v1,16(sp)
80031318:	1700a4ab 	swl	a0,23(sp)
8003131c:	1400a4bb 	swr	a0,20(sp)
80031320:	0980023c 	lui	v0,0x8009
80031324:	08804624 	addiu	a2,v0,-32760
80031328:	0300c388 	lwl	v1,3(a2)
8003132c:	0000c398 	lwr	v1,0(a2)
80031330:	00000000 	nop
80031334:	1b00a3ab 	swl	v1,27(sp)
80031338:	1800a3bb 	swr	v1,24(sp)
8003133c:	315d000c 	jal	0x800174c4
80031340:	801f103c 	lui	s0,0x1f80
80031344:	60000224 	li	v0,96
80031348:	100302a2 	sb	v0,784(s0)
8003134c:	000302a2 	sb	v0,768(s0)
80031350:	110302a2 	sb	v0,785(s0)
80031354:	010302a2 	sb	v0,769(s0)
80031358:	120302a2 	sb	v0,786(s0)
8003135c:	020302a2 	sb	v0,770(s0)
80031360:	49000224 	li	v0,73
80031364:	030302a2 	sb	v0,771(s0)
80031368:	e4020292 	lbu	v0,740(s0)
8003136c:	31000324 	li	v1,49
80031370:	1000422c 	sltiu	v0,v0,16
80031374:	05004010 	beqz	v0,0x8003138c
80031378:	130303a2 	sb	v1,787(s0)
8003137c:	e4020392 	lbu	v1,740(s0)
80031380:	08000224 	li	v0,8
80031384:	e6c60008 	j	0x80031b98
80031388:	23104300 	subu	v0,v0,v1
8003138c:	e4020292 	lbu	v0,740(s0)
80031390:	00000000 	nop
80031394:	e8ff4224 	addiu	v0,v0,-24
80031398:	600302a6 	sh	v0,864(s0)
8003139c:	60030292 	lbu	v0,864(s0)
800313a0:	60030392 	lbu	v1,864(s0)
800313a4:	2e0300a2 	sb	zero,814(s0)
800313a8:	80100200 	sll	v0,v0,0x2
800313ac:	60004224 	addiu	v0,v0,96
800313b0:	40180300 	sll	v1,v1,0x1
800313b4:	2c0302a2 	sb	v0,812(s0)
800313b8:	dc020296 	lhu	v0,732(s0)
800313bc:	30006324 	addiu	v1,v1,48
800313c0:	00804230 	andi	v0,v0,0x8000
800313c4:	03004010 	beqz	v0,0x800313d4
800313c8:	2d0303a2 	sb	v1,813(s0)
800313cc:	6ac6000c 	jal	0x800319a8
800313d0:	00000000 	nop
800313d4:	dc020296 	lhu	v0,732(s0)
800313d8:	01000324 	li	v1,1
800313dc:	0980013c 	lui	at,0x8009
800313e0:	ae8123a4 	sh	v1,-32338(at)
800313e4:	01004230 	andi	v0,v0,0x1
800313e8:	07004010 	beqz	v0,0x80031408
800313ec:	00000000 	nop
800313f0:	f9c2000c 	jal	0x80030be4
800313f4:	00000000 	nop
800313f8:	e8c3000c 	jal	0x80030fa0
800313fc:	00000000 	nop
80031400:	19c70008 	j	0x80031c64
80031404:	00000000 	nop
80031408:	e0020296 	lhu	v0,736(s0)
8003140c:	00000000 	nop
80031410:	00140200 	sll	v0,v0,0x10
80031414:	031c0200 	sra	v1,v0,0x10
80031418:	02006104 	bgez	v1,0x80031424
8003141c:	21106000 	move	v0,v1
80031420:	07006224 	addiu	v0,v1,7
80031424:	c3100200 	sra	v0,v0,0x3
80031428:	c0100200 	sll	v0,v0,0x3
8003142c:	23106200 	subu	v0,v1,v0
80031430:	00140200 	sll	v0,v0,0x10
80031434:	03140200 	sra	v0,v0,0x10
80031438:	04004228 	slti	v0,v0,4
8003143c:	05004010 	beqz	v0,0x80031454
80031440:	00000000 	nop
80031444:	f9c2000c 	jal	0x80030be4
80031448:	00000000 	nop
8003144c:	17c70008 	j	0x80031c5c
80031450:	00000000 	nop
80031454:	e8c3000c 	jal	0x80030fa0
80031458:	00000000 	nop
8003145c:	9dc5000c 	jal	0x80031674
80031460:	00000000 	nop
80031464:	e0020296 	lhu	v0,736(s0)
80031468:	0980013c 	lui	at,0x8009
8003146c:	ae8120a4 	sh	zero,-32338(at)
80031470:	00140200 	sll	v0,v0,0x10
80031474:	031c0200 	sra	v1,v0,0x10
80031478:	02006104 	bgez	v1,0x80031484
8003147c:	21106000 	move	v0,v1
80031480:	07006224 	addiu	v0,v1,7
80031484:	c3100200 	sra	v0,v0,0x3
80031488:	c0100200 	sll	v0,v0,0x3
8003148c:	23106200 	subu	v0,v1,v0
80031490:	00140200 	sll	v0,v0,0x10
80031494:	03140200 	sra	v0,v0,0x10
80031498:	04004228 	slti	v0,v0,4
8003149c:	04004010 	beqz	v0,0x800314b0
800314a0:	1000a427 	addiu	a0,sp,16
800314a4:	1800a527 	addiu	a1,sp,24
800314a8:	2ec70008 	j	0x80031cb8
800314ac:	21300000 	move	a2,zero
800314b0:	1800a527 	addiu	a1,sp,24
800314b4:	00080624 	li	a2,2048
800314b8:	5ba4000c 	jal	0x8002916c
800314bc:	00000000 	nop
800314c0:	01000424 	li	a0,1
800314c4:	21280000 	move	a1,zero
800314c8:	aaa1000c 	jal	0x800286a8
800314cc:	2130a000 	move	a2,a1
800314d0:	dec4000c 	jal	0x80031378
800314d4:	00000000 	nop
800314d8:	7ab2000c 	jal	0x8002c9e8
800314dc:	00000000 	nop
800314e0:	a05d000c 	jal	0x80017680
800314e4:	00000000 	nop
800314e8:	2400bf8f 	lw	ra,36(sp)
800314ec:	2000b08f 	lw	s0,32(sp)
800314f0:	2800bd27 	addiu	sp,sp,40
800314f4:	0800e003 	jr	ra
800314f8:	00000000 	nop
800314fc:	e0ffbd27 	addiu	sp,sp,-32
80031500:	1800bfaf 	sw	ra,24(sp)
80031504:	0980023c 	lui	v0,0x8009
80031508:	0c804624 	addiu	a2,v0,-32756
8003150c:	0300c388 	lwl	v1,3(a2)
80031510:	0000c398 	lwr	v1,0(a2)
80031514:	0700c488 	lwl	a0,7(a2)
80031518:	0400c498 	lwr	a0,4(a2)
8003151c:	1300a3ab 	swl	v1,19(sp)
80031520:	1000a3bb 	swr	v1,16(sp)
80031524:	1700a4ab 	swl	a0,23(sp)
80031528:	1400a4bb 	swr	a0,20(sp)
8003152c:	1000a427 	addiu	a0,sp,16
80031530:	21280000 	move	a1,zero
80031534:	2130a000 	move	a2,a1
80031538:	f9e6010c 	jal	0x80079be4
8003153c:	2138a000 	move	a3,a1
80031540:	1800bf8f 	lw	ra,24(sp)
80031544:	2000bd27 	addiu	sp,sp,32
80031548:	0800e003 	jr	ra
8003154c:	00000000 	nop
80031550:	b8ffbd27 	addiu	sp,sp,-72
80031554:	4000bfaf 	sw	ra,64(sp)
80031558:	315d000c 	jal	0x800174c4
8003155c:	00000000 	nop
80031560:	695d000c 	jal	0x800175a4
80031564:	00000000 	nop
80031568:	23a5000c 	jal	0x8002948c
8003156c:	00000000 	nop
80031570:	90000224 	li	v0,144
80031574:	1400a2af 	sw	v0,20(sp)
80031578:	50000224 	li	v0,80
8003157c:	1800a2af 	sw	v0,24(sp)
80031580:	10000224 	li	v0,16
80031584:	1c00a2af 	sw	v0,28(sp)
80031588:	ff000224 	li	v0,255
8003158c:	2000a2af 	sw	v0,32(sp)
80031590:	19000224 	li	v0,25
80031594:	2400a2af 	sw	v0,36(sp)
80031598:	e27f0224 	li	v0,32738
8003159c:	2800a2af 	sw	v0,40(sp)
800315a0:	60000224 	li	v0,96
800315a4:	78000424 	li	a0,120
800315a8:	21288000 	move	a1,a0
800315ac:	c8000624 	li	a2,200
800315b0:	88000724 	li	a3,136
800315b4:	1000a0af 	sw	zero,16(sp)
800315b8:	2c00a2af 	sw	v0,44(sp)
800315bc:	3000a2af 	sw	v0,48(sp)
800315c0:	3400a2af 	sw	v0,52(sp)
800315c4:	4685000c 	jal	0x80021518
800315c8:	3800a0af 	sw	zero,56(sp)
800315cc:	8d5d000c 	jal	0x80017634
800315d0:	00000000 	nop
800315d4:	4000bf8f 	lw	ra,64(sp)
800315d8:	4800bd27 	addiu	sp,sp,72
800315dc:	0800e003 	jr	ra
800315e0:	00000000 	nop
800315e4:	d8ffbd27 	addiu	sp,sp,-40
800315e8:	1c00b3af 	sw	s3,28(sp)
800315ec:	21988000 	move	s3,a0
800315f0:	1680023c 	lui	v0,0x8016
800315f4:	1800b2af 	sw	s2,24(sp)
800315f8:	8cc45224 	addiu	s2,v0,-15220
800315fc:	2000b4af 	sw	s4,32(sp)
80031600:	7f001424 	li	s4,127
80031604:	1000b0af 	sw	s0,16(sp)
80031608:	0e007026 	addiu	s0,s3,14
8003160c:	1400b1af 	sw	s1,20(sp)
80031610:	05005126 	addiu	s1,s2,5
80031614:	2400bfaf 	sw	ra,36(sp)
80031618:	00006496 	lhu	a0,0(s3)
8003161c:	ffff0234 	li	v0,0xffff
80031620:	ffff8330 	andi	v1,a0,0xffff
80031624:	24006210 	beq	v1,v0,0x800316b8
80031628:	00000000 	nop
8003162c:	000044a6 	sh	a0,0(s2)
80031630:	faff0292 	lbu	v0,-6(s0)
80031634:	f6ff0392 	lbu	v1,-10(s0)
80031638:	80110200 	sll	v0,v0,0x6
8003163c:	25186200 	or	v1,v1,v0
80031640:	fdff23a2 	sb	v1,-3(s1)
80031644:	f4ff0292 	lbu	v0,-12(s0)
80031648:	00000000 	nop
8003164c:	feff22a2 	sb	v0,-2(s1)
80031650:	f5ff0292 	lbu	v0,-11(s0)
80031654:	00000000 	nop
80031658:	ffff22a2 	sb	v0,-1(s1)
8003165c:	f7ff0292 	lbu	v0,-9(s0)
80031660:	fcff0386 	lh	v1,-4(s0)
80031664:	00130200 	sll	v0,v0,0xc
80031668:	21104300 	addu	v0,v0,v1
8003166c:	030022ae 	sw	v0,3(s1)
80031670:	f8ff0292 	lbu	v0,-8(s0)
80031674:	feff0386 	lh	v1,-2(s0)
80031678:	00130200 	sll	v0,v0,0xc
8003167c:	21104300 	addu	v0,v0,v1
80031680:	070022ae 	sw	v0,7(s1)
80031684:	f9ff0292 	lbu	v0,-7(s0)
80031688:	00000386 	lh	v1,0(s0)
8003168c:	00130200 	sll	v0,v0,0xc
80031690:	21104300 	addu	v0,v0,v1
80031694:	b1e2010c 	jal	0x80078ac4
80031698:	0b0022ae 	sw	v0,11(s1)
8003169c:	feff2392 	lbu	v1,-2(s1)
800316a0:	00000000 	nop
800316a4:	18004300 	mult	v0,v1
800316a8:	12280000 	mflo	a1
800316ac:	c3130500 	sra	v0,a1,0xf
800316b0:	afc70008 	j	0x80031ebc
800316b4:	000022a2 	sb	v0,0(s1)
800316b8:	000043a6 	sh	v1,0(s2)
800316bc:	18003126 	addiu	s1,s1,24
800316c0:	18005226 	addiu	s2,s2,24
800316c4:	10001026 	addiu	s0,s0,16
800316c8:	ffff9426 	addiu	s4,s4,-1
800316cc:	ffff0224 	li	v0,-1
800316d0:	d1ff8216 	bne	s4,v0,0x80031618
800316d4:	10007326 	addiu	s3,s3,16
800316d8:	2400bf8f 	lw	ra,36(sp)
800316dc:	2000b48f 	lw	s4,32(sp)
800316e0:	1c00b38f 	lw	s3,28(sp)
800316e4:	1800b28f 	lw	s2,24(sp)
800316e8:	1400b18f 	lw	s1,20(sp)
800316ec:	1000b08f 	lw	s0,16(sp)
800316f0:	2800bd27 	addiu	sp,sp,40
800316f4:	0800e003 	jr	ra
800316f8:	00000000 	nop
800316fc:	d0ffbd27 	addiu	sp,sp,-48
80031700:	1c00b3af 	sw	s3,28(sp)
80031704:	21988000 	move	s3,a0
80031708:	2000b4af 	sw	s4,32(sp)
8003170c:	21a0a000 	move	s4,a1
80031710:	1400b1af 	sw	s1,20(sp)
80031714:	21886002 	move	s1,s3
80031718:	2400b5af 	sw	s5,36(sp)
8003171c:	21a86002 	move	s5,s3
80031720:	2800bfaf 	sw	ra,40(sp)
80031724:	1800b2af 	sw	s2,24(sp)
80031728:	1000b0af 	sw	s0,16(sp)
8003172c:	23103302 	subu	v0,s1,s3
80031730:	08004224 	addiu	v0,v0,8
80031734:	2b108202 	sltu	v0,s4,v0
80031738:	3c004014 	bnez	v0,0x8003182c
8003173c:	21102002 	move	v0,s1
80031740:	0400428c 	lw	v0,4(v0)
80031744:	00000000 	nop
80031748:	08004230 	andi	v0,v0,0x8
8003174c:	1b004010 	beqz	v0,0x800317bc
80031750:	08003126 	addiu	s1,s1,8
80031754:	23103302 	subu	v0,s1,s3
80031758:	0c004224 	addiu	v0,v0,12
8003175c:	2b108202 	sltu	v0,s4,v0
80031760:	32004014 	bnez	v0,0x8003182c
80031764:	21902002 	move	s2,s1
80031768:	08004396 	lhu	v1,8(s2)
8003176c:	0a004296 	lhu	v0,10(s2)
80031770:	00000000 	nop
80031774:	18006200 	mult	v1,v0
80031778:	0000438e 	lw	v1,0(s2)
8003177c:	12300000 	mflo	a2
80031780:	40200600 	sll	a0,a2,0x1
80031784:	0c008224 	addiu	v0,a0,12
80031788:	28006214 	bne	v1,v0,0x8003182c
8003178c:	0c003126 	addiu	s1,s1,12
80031790:	23103302 	subu	v0,s1,s3
80031794:	21104400 	addu	v0,v0,a0
80031798:	2b108202 	sltu	v0,s4,v0
8003179c:	23004014 	bnez	v0,0x8003182c
800317a0:	21802002 	move	s0,s1
800317a4:	21882402 	addu	s1,s1,a0
800317a8:	41dc010c 	jal	0x80077104
800317ac:	21200000 	move	a0,zero
800317b0:	04004426 	addiu	a0,s2,4
800317b4:	43e7010c 	jal	0x80079d0c
800317b8:	21280002 	move	a1,s0
800317bc:	23103302 	subu	v0,s1,s3
800317c0:	0c004224 	addiu	v0,v0,12
800317c4:	2b108202 	sltu	v0,s4,v0
800317c8:	18004014 	bnez	v0,0x8003182c
800317cc:	21902002 	move	s2,s1
800317d0:	08004396 	lhu	v1,8(s2)
800317d4:	0a004296 	lhu	v0,10(s2)
800317d8:	00000000 	nop
800317dc:	18006200 	mult	v1,v0
800317e0:	0000438e 	lw	v1,0(s2)
800317e4:	12300000 	mflo	a2
800317e8:	40200600 	sll	a0,a2,0x1
800317ec:	0c008224 	addiu	v0,a0,12
800317f0:	0e006214 	bne	v1,v0,0x8003182c
800317f4:	0c003126 	addiu	s1,s1,12
800317f8:	23103302 	subu	v0,s1,s3
800317fc:	21104400 	addu	v0,v0,a0
80031800:	2b108202 	sltu	v0,s4,v0
80031804:	09004014 	bnez	v0,0x8003182c
80031808:	21802002 	move	s0,s1
8003180c:	21882402 	addu	s1,s1,a0
80031810:	41dc010c 	jal	0x80077104
80031814:	21200000 	move	a0,zero
80031818:	04004426 	addiu	a0,s2,4
8003181c:	43e7010c 	jal	0x80079d0c
80031820:	21280002 	move	a1,s0
80031824:	cbc70008 	j	0x80031f2c
80031828:	21a82002 	move	s5,s1
8003182c:	2310b302 	subu	v0,s5,s3
80031830:	2800bf8f 	lw	ra,40(sp)
80031834:	2400b58f 	lw	s5,36(sp)
80031838:	2000b48f 	lw	s4,32(sp)
8003183c:	1c00b38f 	lw	s3,28(sp)
80031840:	1800b28f 	lw	s2,24(sp)
80031844:	1400b18f 	lw	s1,20(sp)
80031848:	1000b08f 	lw	s0,16(sp)
8003184c:	3000bd27 	addiu	sp,sp,48
80031850:	0800e003 	jr	ra
80031854:	00000000 	nop
80031858:	0880023c 	lui	v0,0x8008
8003185c:	8cf74924 	addiu	t1,v0,-2164
80031860:	1980023c 	lui	v0,0x8019
80031864:	3cb74824 	addiu	t0,v0,-18628
80031868:	3f000a24 	li	t2,63
8003186c:	ffff0b24 	li	t3,-1
80031870:	6a000725 	addiu	a3,t0,106
80031874:	2e002625 	addiu	a2,t1,46
80031878:	e9ffc288 	lwl	v0,-23(a2)
8003187c:	e6ffc298 	lwr	v0,-26(a2)
80031880:	edffc388 	lwl	v1,-19(a2)
80031884:	eaffc398 	lwr	v1,-22(a2)
80031888:	f1ffc488 	lwl	a0,-15(a2)
8003188c:	eeffc498 	lwr	a0,-18(a2)
80031890:	f5ffc588 	lwl	a1,-11(a2)
80031894:	f2ffc598 	lwr	a1,-14(a2)
80031898:	e9ffe2a8 	swl	v0,-23(a3)
8003189c:	e6ffe2b8 	swr	v0,-26(a3)
800318a0:	edffe3a8 	swl	v1,-19(a3)
800318a4:	eaffe3b8 	swr	v1,-22(a3)
800318a8:	f1ffe4a8 	swl	a0,-15(a3)
800318ac:	eeffe4b8 	swr	a0,-18(a3)
800318b0:	f5ffe5a8 	swl	a1,-11(a3)
800318b4:	f2ffe5b8 	swr	a1,-14(a3)
800318b8:	f9ffc288 	lwl	v0,-7(a2)
800318bc:	f6ffc298 	lwr	v0,-10(a2)
800318c0:	00000000 	nop
800318c4:	f9ffe2a8 	swl	v0,-7(a3)
800318c8:	f6ffe2b8 	swr	v0,-10(a3)
800318cc:	03002289 	lwl	v0,3(t1)
800318d0:	00002299 	lwr	v0,0(t1)
800318d4:	07002389 	lwl	v1,7(t1)
800318d8:	04002399 	lwr	v1,4(t1)
800318dc:	0b002489 	lwl	a0,11(t1)
800318e0:	08002499 	lwr	a0,8(t1)
800318e4:	0f002589 	lwl	a1,15(t1)
800318e8:	0c002599 	lwr	a1,12(t1)
800318ec:	030002a9 	swl	v0,3(t0)
800318f0:	000002b9 	swr	v0,0(t0)
800318f4:	070003a9 	swl	v1,7(t0)
800318f8:	040003b9 	swr	v1,4(t0)
800318fc:	0b0004a9 	swl	a0,11(t0)
80031900:	080004b9 	swr	a0,8(t0)
80031904:	0f0005a9 	swl	a1,15(t0)
80031908:	0c0005b9 	swr	a1,12(t0)
8003190c:	13002289 	lwl	v0,19(t1)
80031910:	10002299 	lwr	v0,16(t1)
80031914:	00000000 	nop
80031918:	130002a9 	swl	v0,19(t0)
8003191c:	100002b9 	swr	v0,16(t0)
80031920:	fdffc288 	lwl	v0,-3(a2)
80031924:	faffc298 	lwr	v0,-6(a2)
80031928:	00000000 	nop
8003192c:	fdffe2a8 	swl	v0,-3(a3)
80031930:	faffe2b8 	swr	v0,-6(a3)
80031934:	30002925 	addiu	t1,t1,48
80031938:	6c000825 	addiu	t0,t0,108
8003193c:	feffc294 	lhu	v0,-2(a2)
80031940:	ffff4a25 	addiu	t2,t2,-1
80031944:	feffe2a4 	sh	v0,-2(a3)
80031948:	0000c294 	lhu	v0,0(a2)
8003194c:	3000c624 	addiu	a2,a2,48
80031950:	0000e2a4 	sh	v0,0(a3)
80031954:	c8ff4b15 	bne	t2,t3,0x80031878
80031958:	6c00e724 	addiu	a3,a3,108
8003195c:	1980033c 	lui	v1,0x8019
80031960:	01000224 	li	v0,1
80031964:	0800e003 	jr	ra
80031968:	d2b662a0 	sb	v0,-18734(v1)
8003196c:	e0ffbd27 	addiu	sp,sp,-32
80031970:	1980023c 	lui	v0,0x8019
80031974:	d0b64424 	addiu	a0,v0,-18736
80031978:	1c00bfaf 	sw	ra,28(sp)
8003197c:	1800b2af 	sw	s2,24(sp)
80031980:	1400b1af 	sw	s1,20(sp)
80031984:	1000b0af 	sw	s0,16(sp)
80031988:	02008290 	lbu	v0,2(a0)
8003198c:	00000000 	nop
80031990:	18004010 	beqz	v0,0x800319f4
80031994:	6c009024 	addiu	s0,a0,108
80031998:	3f001124 	li	s1,63
8003199c:	ffff1224 	li	s2,-1
800319a0:	21200002 	move	a0,s0
800319a4:	21280002 	move	a1,s0
800319a8:	ab26010c 	jal	0x80049aac
800319ac:	21300000 	move	a2,zero
800319b0:	21200002 	move	a0,s0
800319b4:	14000526 	addiu	a1,s0,20
800319b8:	ab26010c 	jal	0x80049aac
800319bc:	01000624 	li	a2,1
800319c0:	21200002 	move	a0,s0
800319c4:	28000526 	addiu	a1,s0,40
800319c8:	ab26010c 	jal	0x80049aac
800319cc:	02000624 	li	a2,2
800319d0:	21200002 	move	a0,s0
800319d4:	3c000526 	addiu	a1,s0,60
800319d8:	ab26010c 	jal	0x80049aac
800319dc:	03000624 	li	a2,3
800319e0:	ffff3126 	addiu	s1,s1,-1
800319e4:	eeff3216 	bne	s1,s2,0x800319a0
800319e8:	6c001026 	addiu	s0,s0,108
800319ec:	1980023c 	lui	v0,0x8019
800319f0:	d2b640a0 	sb	zero,-18734(v0)
800319f4:	1c00bf8f 	lw	ra,28(sp)
800319f8:	1800b28f 	lw	s2,24(sp)
800319fc:	1400b18f 	lw	s1,20(sp)
80031a00:	1000b08f 	lw	s0,16(sp)
80031a04:	2000bd27 	addiu	sp,sp,32
80031a08:	0800e003 	jr	ra
80031a0c:	00000000 	nop
80031a10:	e8ffbd27 	addiu	sp,sp,-24
80031a14:	1000bfaf 	sw	ra,16(sp)
80031a18:	21108000 	move	v0,a0
80031a1c:	2120a000 	move	a0,a1
80031a20:	003c0600 	sll	a3,a2,0x10
80031a24:	21284000 	move	a1,v0
80031a28:	21308000 	move	a2,a0
80031a2c:	222a010c 	jal	0x8004a888
80031a30:	033c0700 	sra	a3,a3,0x10
80031a34:	1000bf8f 	lw	ra,16(sp)
80031a38:	1800bd27 	addiu	sp,sp,24
80031a3c:	0800e003 	jr	ra
80031a40:	00000000 	nop
80031a44:	e8ffbd27 	addiu	sp,sp,-24
80031a48:	1000bfaf 	sw	ra,16(sp)
80031a4c:	5000a524 	addiu	a1,a1,80
80031a50:	14008224 	addiu	v0,a0,20
80031a54:	003c0600 	sll	a3,a2,0x10
80031a58:	2120a000 	move	a0,a1
80031a5c:	21284000 	move	a1,v0
80031a60:	21308000 	move	a2,a0
80031a64:	222a010c 	jal	0x8004a888
80031a68:	033c0700 	sra	a3,a3,0x10
80031a6c:	1000bf8f 	lw	ra,16(sp)
80031a70:	1800bd27 	addiu	sp,sp,24
80031a74:	0800e003 	jr	ra
80031a78:	00000000 	nop
80031a7c:	e0ffbd27 	addiu	sp,sp,-32
80031a80:	1800b2af 	sw	s2,24(sp)
80031a84:	21908000 	move	s2,a0
80031a88:	1400b1af 	sw	s1,20(sp)
80031a8c:	2188a000 	move	s1,a1
80031a90:	1000b0af 	sw	s0,16(sp)
80031a94:	00840600 	sll	s0,a2,0x10
80031a98:	03841000 	sra	s0,s0,0x10
80031a9c:	1c00bfaf 	sw	ra,28(sp)
80031aa0:	64002492 	lbu	a0,100(s1)
80031aa4:	28004592 	lbu	a1,40(s2)
80031aa8:	0c2a010c 	jal	0x8004a830
80031aac:	21300002 	move	a2,s0
80031ab0:	65002492 	lbu	a0,101(s1)
80031ab4:	640022a2 	sb	v0,100(s1)
80031ab8:	29004592 	lbu	a1,41(s2)
80031abc:	0c2a010c 	jal	0x8004a830
80031ac0:	21300002 	move	a2,s0
80031ac4:	66002492 	lbu	a0,102(s1)
80031ac8:	650022a2 	sb	v0,101(s1)
80031acc:	2a004592 	lbu	a1,42(s2)
80031ad0:	0c2a010c 	jal	0x8004a830
80031ad4:	21300002 	move	a2,s0
80031ad8:	660022a2 	sb	v0,102(s1)
80031adc:	1c00bf8f 	lw	ra,28(sp)
80031ae0:	1800b28f 	lw	s2,24(sp)
80031ae4:	1400b18f 	lw	s1,20(sp)
80031ae8:	1000b08f 	lw	s0,16(sp)
80031aec:	2000bd27 	addiu	sp,sp,32
80031af0:	0800e003 	jr	ra
80031af4:	00000000 	nop
80031af8:	e8ffbd27 	addiu	sp,sp,-24
80031afc:	1000b0af 	sw	s0,16(sp)
80031b00:	2180a000 	move	s0,a1
80031b04:	00340600 	sll	a2,a2,0x10
80031b08:	1400bfaf 	sw	ra,20(sp)
80031b0c:	2c008584 	lh	a1,44(a0)
80031b10:	68000486 	lh	a0,104(s0)
80031b14:	0c2a010c 	jal	0x8004a830
80031b18:	03340600 	sra	a2,a2,0x10
80031b1c:	21204000 	move	a0,v0
80031b20:	001c0400 	sll	v1,a0,0x10
80031b24:	6a000286 	lh	v0,106(s0)
80031b28:	031c0300 	sra	v1,v1,0x10
80031b2c:	00f04224 	addiu	v0,v0,-4096
80031b30:	2a104300 	slt	v0,v0,v1
80031b34:	03004010 	beqz	v0,0x80031b44
80031b38:	680004a6 	sh	a0,104(s0)
80031b3c:	00108224 	addiu	v0,a0,4096
80031b40:	6a0002a6 	sh	v0,106(s0)
80031b44:	1400bf8f 	lw	ra,20(sp)
80031b48:	1000b08f 	lw	s0,16(sp)
80031b4c:	1800bd27 	addiu	sp,sp,24
80031b50:	0800e003 	jr	ra
80031b54:	00000000 	nop
80031b58:	e8ffbd27 	addiu	sp,sp,-24
80031b5c:	1000b0af 	sw	s0,16(sp)
80031b60:	2180a000 	move	s0,a1
80031b64:	00340600 	sll	a2,a2,0x10
80031b68:	1400bfaf 	sw	ra,20(sp)
80031b6c:	2e008584 	lh	a1,46(a0)
80031b70:	6a000486 	lh	a0,106(s0)
80031b74:	0c2a010c 	jal	0x8004a830
80031b78:	03340600 	sra	a2,a2,0x10
80031b7c:	21204000 	move	a0,v0
80031b80:	001c0400 	sll	v1,a0,0x10
80031b84:	68000286 	lh	v0,104(s0)
80031b88:	031c0300 	sra	v1,v1,0x10
80031b8c:	00104224 	addiu	v0,v0,4096
80031b90:	2a186200 	slt	v1,v1,v0
80031b94:	03006010 	beqz	v1,0x80031ba4
80031b98:	6a0004a6 	sh	a0,106(s0)
80031b9c:	00f08224 	addiu	v0,a0,-4096
80031ba0:	680002a6 	sh	v0,104(s0)
80031ba4:	1400bf8f 	lw	ra,20(sp)
80031ba8:	1000b08f 	lw	s0,16(sp)
80031bac:	1800bd27 	addiu	sp,sp,24
80031bb0:	0800e003 	jr	ra
80031bb4:	00000000 	nop
80031bb8:	d0ffbd27 	addiu	sp,sp,-48
80031bbc:	2400b5af 	sw	s5,36(sp)
80031bc0:	21a88000 	move	s5,a0
80031bc4:	1c00b3af 	sw	s3,28(sp)
80031bc8:	2198a000 	move	s3,a1
80031bcc:	2000b4af 	sw	s4,32(sp)
80031bd0:	21a0c000 	move	s4,a2
80031bd4:	0100a232 	andi	v0,s5,0x1
80031bd8:	2800bfaf 	sw	ra,40(sp)
80031bdc:	1800b2af 	sw	s2,24(sp)
80031be0:	1400b1af 	sw	s1,20(sp)
80031be4:	10004010 	beqz	v0,0x80031c28
80031be8:	1000b0af 	sw	s0,16(sp)
80031bec:	1980023c 	lui	v0,0x8019
80031bf0:	3cb75124 	addiu	s1,v0,-18628
80031bf4:	21800000 	move	s0,zero
80031bf8:	00940600 	sll	s2,a2,0x10
80031bfc:	21206002 	move	a0,s3
80031c00:	21282002 	move	a1,s1
80031c04:	84c8000c 	jal	0x80032210
80031c08:	03341200 	sra	a2,s2,0x10
80031c0c:	01001026 	addiu	s0,s0,1
80031c10:	3000022a 	slti	v0,s0,48
80031c14:	f9ff4014 	bnez	v0,0x80031bfc
80031c18:	6c003126 	addiu	s1,s1,108
80031c1c:	1980033c 	lui	v1,0x8019
80031c20:	01000224 	li	v0,1
80031c24:	d2b662a0 	sb	v0,-18734(v1)
80031c28:	0200a232 	andi	v0,s5,0x2
80031c2c:	0c004010 	beqz	v0,0x80031c60
80031c30:	1980023c 	lui	v0,0x8019
80031c34:	3cb75124 	addiu	s1,v0,-18628
80031c38:	21800000 	move	s0,zero
80031c3c:	00941400 	sll	s2,s4,0x10
80031c40:	21206002 	move	a0,s3
80031c44:	21282002 	move	a1,s1
80031c48:	91c8000c 	jal	0x80032244
80031c4c:	03341200 	sra	a2,s2,0x10
80031c50:	01001026 	addiu	s0,s0,1
80031c54:	3000022a 	slti	v0,s0,48
80031c58:	f9ff4014 	bnez	v0,0x80031c40
80031c5c:	6c003126 	addiu	s1,s1,108
80031c60:	0400a232 	andi	v0,s5,0x4
80031c64:	0c004010 	beqz	v0,0x80031c98
80031c68:	1980023c 	lui	v0,0x8019
80031c6c:	3cb75124 	addiu	s1,v0,-18628
80031c70:	21800000 	move	s0,zero
80031c74:	00941400 	sll	s2,s4,0x10
80031c78:	21206002 	move	a0,s3
80031c7c:	21282002 	move	a1,s1
80031c80:	9fc8000c 	jal	0x8003227c
80031c84:	03341200 	sra	a2,s2,0x10
80031c88:	01001026 	addiu	s0,s0,1
80031c8c:	3000022a 	slti	v0,s0,48
80031c90:	f9ff4014 	bnez	v0,0x80031c78
80031c94:	6c003126 	addiu	s1,s1,108
80031c98:	0800a232 	andi	v0,s5,0x8
80031c9c:	0c004010 	beqz	v0,0x80031cd0
80031ca0:	1980023c 	lui	v0,0x8019
80031ca4:	3cb75124 	addiu	s1,v0,-18628
80031ca8:	21800000 	move	s0,zero
80031cac:	00941400 	sll	s2,s4,0x10
80031cb0:	21206002 	move	a0,s3
80031cb4:	21282002 	move	a1,s1
80031cb8:	bec8000c 	jal	0x800322f8
80031cbc:	03341200 	sra	a2,s2,0x10
80031cc0:	01001026 	addiu	s0,s0,1
80031cc4:	3000022a 	slti	v0,s0,48
80031cc8:	f9ff4014 	bnez	v0,0x80031cb0
80031ccc:	6c003126 	addiu	s1,s1,108
80031cd0:	1000a232 	andi	v0,s5,0x10
80031cd4:	0c004010 	beqz	v0,0x80031d08
80031cd8:	1980023c 	lui	v0,0x8019
80031cdc:	3cb75124 	addiu	s1,v0,-18628
80031ce0:	21800000 	move	s0,zero
80031ce4:	00941400 	sll	s2,s4,0x10
80031ce8:	21206002 	move	a0,s3
80031cec:	21282002 	move	a1,s1
80031cf0:	d6c8000c 	jal	0x80032358
80031cf4:	03341200 	sra	a2,s2,0x10
80031cf8:	01001026 	addiu	s0,s0,1
80031cfc:	3000022a 	slti	v0,s0,48
80031d00:	f9ff4014 	bnez	v0,0x80031ce8
80031d04:	6c003126 	addiu	s1,s1,108
80031d08:	2800bf8f 	lw	ra,40(sp)
80031d0c:	2400b58f 	lw	s5,36(sp)
80031d10:	2000b48f 	lw	s4,32(sp)
80031d14:	1c00b38f 	lw	s3,28(sp)
80031d18:	1800b28f 	lw	s2,24(sp)
80031d1c:	1400b18f 	lw	s1,20(sp)
80031d20:	1000b08f 	lw	s0,16(sp)
80031d24:	3000bd27 	addiu	sp,sp,48
80031d28:	0800e003 	jr	ra
80031d2c:	00000000 	nop
80031d30:	b8ffbd27 	addiu	sp,sp,-72
80031d34:	21508000 	move	t2,a0
80031d38:	21200000 	move	a0,zero
80031d3c:	2140a000 	move	t0,a1
80031d40:	2148c000 	move	t1,a2
80031d44:	ff004231 	andi	v0,t2,0xff
80031d48:	5800ac8f 	lw	t4,88(sp)
80031d4c:	5c00ab97 	lhu	t3,92(sp)
80031d50:	ff000324 	li	v1,255
80031d54:	0a004310 	beq	v0,v1,0x80031d80
80031d58:	4000bfaf 	sw	ra,64(sp)
80031d5c:	ff000231 	andi	v0,t0,0xff
80031d60:	07004310 	beq	v0,v1,0x80031d80
80031d64:	ff002231 	andi	v0,t1,0xff
80031d68:	06004310 	beq	v0,v1,0x80031d84
80031d6c:	ffff0234 	li	v0,0xffff
80031d70:	04000424 	li	a0,4
80031d74:	3800aaa3 	sb	t2,56(sp)
80031d78:	3900a5a3 	sb	a1,57(sp)
80031d7c:	3a00a6a3 	sb	a2,58(sp)
80031d80:	ffff0234 	li	v0,0xffff
80031d84:	0300e210 	beq	a3,v0,0x80031d94
80031d88:	00000000 	nop
80031d8c:	3c00a7a7 	sh	a3,60(sp)
80031d90:	08008434 	ori	a0,a0,0x8
80031d94:	03008211 	beq	t4,v0,0x80031da4
80031d98:	00000000 	nop
80031d9c:	3e00aca7 	sh	t4,62(sp)
80031da0:	10008434 	ori	a0,a0,0x10
80031da4:	00340b00 	sll	a2,t3,0x10
80031da8:	1000a527 	addiu	a1,sp,16
80031dac:	eec8000c 	jal	0x800323b8
80031db0:	03340600 	sra	a2,a2,0x10
80031db4:	4000bf8f 	lw	ra,64(sp)
80031db8:	4800bd27 	addiu	sp,sp,72
80031dbc:	0800e003 	jr	ra
80031dc0:	00000000 	nop
80031dc4:	b8ffbd27 	addiu	sp,sp,-72
80031dc8:	4800a4af 	sw	a0,72(sp)
80031dcc:	21200000 	move	a0,zero
80031dd0:	5000a6af 	sw	a2,80(sp)
80031dd4:	7000a697 	lhu	a2,112(sp)
80031dd8:	4800a287 	lh	v0,72(sp)
80031ddc:	4800ae97 	lhu	t6,72(sp)
80031de0:	ff7f0324 	li	v1,32767
80031de4:	4000bfaf 	sw	ra,64(sp)
80031de8:	4c00a5af 	sw	a1,76(sp)
80031dec:	2b004310 	beq	v0,v1,0x80031e9c
80031df0:	5400a7af 	sw	a3,84(sp)
80031df4:	4e00a287 	lh	v0,78(sp)
80031df8:	4e00ad97 	lhu	t5,78(sp)
80031dfc:	27004310 	beq	v0,v1,0x80031e9c
80031e00:	00000000 	nop
80031e04:	5400a287 	lh	v0,84(sp)
80031e08:	5400ac97 	lhu	t4,84(sp)
80031e0c:	23004310 	beq	v0,v1,0x80031e9c
80031e10:	00000000 	nop
80031e14:	4a00a287 	lh	v0,74(sp)
80031e18:	4a00ab97 	lhu	t3,74(sp)
80031e1c:	1f004310 	beq	v0,v1,0x80031e9c
80031e20:	00000000 	nop
80031e24:	5000a287 	lh	v0,80(sp)
80031e28:	5000aa97 	lhu	t2,80(sp)
80031e2c:	1b004310 	beq	v0,v1,0x80031e9c
80031e30:	00000000 	nop
80031e34:	5600a287 	lh	v0,86(sp)
80031e38:	5600a997 	lhu	t1,86(sp)
80031e3c:	17004310 	beq	v0,v1,0x80031e9c
80031e40:	00000000 	nop
80031e44:	4c00a287 	lh	v0,76(sp)
80031e48:	4c00a897 	lhu	t0,76(sp)
80031e4c:	13004310 	beq	v0,v1,0x80031e9c
80031e50:	00000000 	nop
80031e54:	5200a287 	lh	v0,82(sp)
80031e58:	5200a797 	lhu	a3,82(sp)
80031e5c:	0f004310 	beq	v0,v1,0x80031e9c
80031e60:	00000000 	nop
80031e64:	5800a287 	lh	v0,88(sp)
80031e68:	5800a597 	lhu	a1,88(sp)
80031e6c:	0b004310 	beq	v0,v1,0x80031e9c
80031e70:	00000000 	nop
80031e74:	02000424 	li	a0,2
80031e78:	2400aea7 	sh	t6,36(sp)
80031e7c:	2a00ada7 	sh	t5,42(sp)
80031e80:	3000aca7 	sh	t4,48(sp)
80031e84:	2600aba7 	sh	t3,38(sp)
80031e88:	2c00aaa7 	sh	t2,44(sp)
80031e8c:	3200a9a7 	sh	t1,50(sp)
80031e90:	2800a8a7 	sh	t0,40(sp)
80031e94:	2e00a7a7 	sh	a3,46(sp)
80031e98:	3400a5a7 	sh	a1,52(sp)
80031e9c:	5c00a287 	lh	v0,92(sp)
80031ea0:	5c00ae97 	lhu	t6,92(sp)
80031ea4:	2b004310 	beq	v0,v1,0x80031f54
80031ea8:	00000000 	nop
80031eac:	5e00a287 	lh	v0,94(sp)
80031eb0:	5e00ad97 	lhu	t5,94(sp)
80031eb4:	27004310 	beq	v0,v1,0x80031f54
80031eb8:	00000000 	nop
80031ebc:	6000a287 	lh	v0,96(sp)
80031ec0:	6000ac97 	lhu	t4,96(sp)
80031ec4:	23004310 	beq	v0,v1,0x80031f54
80031ec8:	00000000 	nop
80031ecc:	6200a287 	lh	v0,98(sp)
80031ed0:	6200ab97 	lhu	t3,98(sp)
80031ed4:	1f004310 	beq	v0,v1,0x80031f54
80031ed8:	00000000 	nop
80031edc:	6400a287 	lh	v0,100(sp)
80031ee0:	6400aa97 	lhu	t2,100(sp)
80031ee4:	1b004310 	beq	v0,v1,0x80031f54
80031ee8:	00000000 	nop
80031eec:	6600a287 	lh	v0,102(sp)
80031ef0:	6600a997 	lhu	t1,102(sp)
80031ef4:	17004310 	beq	v0,v1,0x80031f54
80031ef8:	00000000 	nop
80031efc:	6800a287 	lh	v0,104(sp)
80031f00:	6800a897 	lhu	t0,104(sp)
80031f04:	13004310 	beq	v0,v1,0x80031f54
80031f08:	00000000 	nop
80031f0c:	6a00a287 	lh	v0,106(sp)
80031f10:	6a00a797 	lhu	a3,106(sp)
80031f14:	0f004310 	beq	v0,v1,0x80031f54
80031f18:	00000000 	nop
80031f1c:	6c00a287 	lh	v0,108(sp)
80031f20:	6c00a597 	lhu	a1,108(sp)
80031f24:	0b004310 	beq	v0,v1,0x80031f54
80031f28:	00000000 	nop
80031f2c:	01008434 	ori	a0,a0,0x1
80031f30:	1000aea7 	sh	t6,16(sp)
80031f34:	1200ada7 	sh	t5,18(sp)
80031f38:	1400aca7 	sh	t4,20(sp)
80031f3c:	1600aba7 	sh	t3,22(sp)
80031f40:	1800aaa7 	sh	t2,24(sp)
80031f44:	1a00a9a7 	sh	t1,26(sp)
80031f48:	1c00a8a7 	sh	t0,28(sp)
80031f4c:	1e00a7a7 	sh	a3,30(sp)
80031f50:	2000a5a7 	sh	a1,32(sp)
80031f54:	00340600 	sll	a2,a2,0x10
80031f58:	1000a527 	addiu	a1,sp,16
80031f5c:	eec8000c 	jal	0x800323b8
80031f60:	03340600 	sra	a2,a2,0x10
80031f64:	4000bf8f 	lw	ra,64(sp)
80031f68:	4800bd27 	addiu	sp,sp,72
80031f6c:	0800e003 	jr	ra
80031f70:	00000000 	nop
80031f74:	21180000 	move	v1,zero
80031f78:	21286000 	move	a1,v1
80031f7c:	10008230 	andi	v0,a0,0x10
80031f80:	0d004014 	bnez	v0,0x80031fb8
80031f84:	21308000 	move	a2,a0
80031f88:	20008230 	andi	v0,a0,0x20
80031f8c:	03004010 	beqz	v0,0x80031f9c
80031f90:	40008230 	andi	v0,a0,0x40
80031f94:	eec90008 	j	0x800327b8
80031f98:	01000324 	li	v1,1
80031f9c:	03004010 	beqz	v0,0x80031fac
80031fa0:	80008230 	andi	v0,a0,0x80
80031fa4:	eec90008 	j	0x800327b8
80031fa8:	02000324 	li	v1,2
80031fac:	03004010 	beqz	v0,0x80031fbc
80031fb0:	0100c230 	andi	v0,a2,0x1
80031fb4:	03000324 	li	v1,3
80031fb8:	0100c230 	andi	v0,a2,0x1
80031fbc:	03004010 	beqz	v0,0x80031fcc
80031fc0:	00000000 	nop
80031fc4:	fcc90008 	j	0x800327f0
80031fc8:	21280000 	move	a1,zero
80031fcc:	0200c230 	andi	v0,a2,0x2
80031fd0:	03004010 	beqz	v0,0x80031fe0
80031fd4:	00000000 	nop
80031fd8:	fcc90008 	j	0x800327f0
80031fdc:	01000524 	li	a1,1
80031fe0:	0400c230 	andi	v0,a2,0x4
80031fe4:	02004010 	beqz	v0,0x80031ff0
80031fe8:	00000000 	nop
80031fec:	02000524 	li	a1,2
80031ff0:	40100300 	sll	v0,v1,0x1
80031ff4:	21104300 	addu	v0,v0,v1
80031ff8:	0800e003 	jr	ra
80031ffc:	21104500 	addu	v0,v0,a1
80032000:	e0ffbd27 	addiu	sp,sp,-32
80032004:	1400b1af 	sw	s1,20(sp)
80032008:	21880000 	move	s1,zero
8003200c:	21188000 	move	v1,a0
80032010:	21388000 	move	a3,a0
80032014:	10008430 	andi	a0,a0,0x10
80032018:	1c00bfaf 	sw	ra,28(sp)
8003201c:	1800b2af 	sw	s2,24(sp)
80032020:	07008014 	bnez	a0,0x80032040
80032024:	1000b0af 	sw	s0,16(sp)
80032028:	ff006230 	andi	v0,v1,0xff
8003202c:	42100200 	srl	v0,v0,0x1
80032030:	21184000 	move	v1,v0
80032034:	10004230 	andi	v0,v0,0x10
80032038:	fbff4010 	beqz	v0,0x80032028
8003203c:	01003126 	addiu	s1,s1,1
80032040:	21900000 	move	s2,zero
80032044:	0100a230 	andi	v0,a1,0x1
80032048:	07004014 	bnez	v0,0x80032068
8003204c:	2118a000 	move	v1,a1
80032050:	ff006230 	andi	v0,v1,0xff
80032054:	42100200 	srl	v0,v0,0x1
80032058:	21184000 	move	v1,v0
8003205c:	01004230 	andi	v0,v0,0x1
80032060:	fbff4010 	beqz	v0,0x80032050
80032064:	01005226 	addiu	s2,s2,1
80032068:	0100033c 	lui	v1,0x1
8003206c:	00806334 	ori	v1,v1,0x8000
80032070:	1680023c 	lui	v0,0x8016
80032074:	90d04224 	addiu	v0,v0,-12144
80032078:	21804300 	addu	s0,v0,v1
8003207c:	2510e500 	or	v0,a3,a1
80032080:	0700c014 	bnez	a2,0x800320a0
80032084:	146e02a2 	sb	v0,28180(s0)
80032088:	fc6d02a2 	sb	v0,28156(s0)
8003208c:	40101100 	sll	v0,s1,0x1
80032090:	21105100 	addu	v0,v0,s1
80032094:	21105200 	addu	v0,v0,s2
80032098:	14cc0008 	j	0x80033050
8003209c:	fd6d02a2 	sb	v0,28157(s0)
800320a0:	fe6d0292 	lbu	v0,28158(s0)
800320a4:	00000000 	nop
800320a8:	80004230 	andi	v0,v0,0x80
800320ac:	79014014 	bnez	v0,0x80032694
800320b0:	0100033c 	lui	v1,0x1
800320b4:	fc6d0392 	lbu	v1,28156(s0)
800320b8:	00000000 	nop
800320bc:	02006230 	andi	v0,v1,0x2
800320c0:	b0004010 	beqz	v0,0x80032384
800320c4:	10006230 	andi	v0,v1,0x10
800320c8:	2a004010 	beqz	v0,0x80032174
800320cc:	1980023c 	lui	v0,0x8019
800320d0:	086e078e 	lw	a3,28168(s0)
800320d4:	d0b64324 	addiu	v1,v0,-18736
800320d8:	7c056624 	addiu	a2,v1,1404
800320dc:	2510e600 	or	v0,a3,a2
800320e0:	03004230 	andi	v0,v0,0x3
800320e4:	16004010 	beqz	v0,0x80032140
800320e8:	dc056824 	addiu	t0,v1,1500
800320ec:	0300c288 	lwl	v0,3(a2)
800320f0:	0000c298 	lwr	v0,0(a2)
800320f4:	0700c388 	lwl	v1,7(a2)
800320f8:	0400c398 	lwr	v1,4(a2)
800320fc:	0b00c488 	lwl	a0,11(a2)
80032100:	0800c498 	lwr	a0,8(a2)
80032104:	0f00c588 	lwl	a1,15(a2)
80032108:	0c00c598 	lwr	a1,12(a2)
8003210c:	0300e2a8 	swl	v0,3(a3)
80032110:	0000e2b8 	swr	v0,0(a3)
80032114:	0700e3a8 	swl	v1,7(a3)
80032118:	0400e3b8 	swr	v1,4(a3)
8003211c:	0b00e4a8 	swl	a0,11(a3)
80032120:	0800e4b8 	swr	a0,8(a3)
80032124:	0f00e5a8 	swl	a1,15(a3)
80032128:	0c00e5b8 	swr	a1,12(a3)
8003212c:	1000c624 	addiu	a2,a2,16
80032130:	eeffc814 	bne	a2,t0,0x800320ec
80032134:	1000e724 	addiu	a3,a3,16
80032138:	98cb0008 	j	0x80032e60
8003213c:	00000000 	nop
80032140:	0000c28c 	lw	v0,0(a2)
80032144:	0400c38c 	lw	v1,4(a2)
80032148:	0800c48c 	lw	a0,8(a2)
8003214c:	0c00c58c 	lw	a1,12(a2)
80032150:	0000e2ac 	sw	v0,0(a3)
80032154:	0400e3ac 	sw	v1,4(a3)
80032158:	0800e4ac 	sw	a0,8(a3)
8003215c:	0c00e5ac 	sw	a1,12(a3)
80032160:	1000c624 	addiu	a2,a2,16
80032164:	f6ffc814 	bne	a2,t0,0x80032140
80032168:	1000e724 	addiu	a3,a3,16
8003216c:	98cb0008 	j	0x80032e60
80032170:	00000000 	nop
80032174:	20006230 	andi	v0,v1,0x20
80032178:	2a004010 	beqz	v0,0x80032224
8003217c:	1980023c 	lui	v0,0x8019
80032180:	086e078e 	lw	a3,28168(s0)
80032184:	d0b64324 	addiu	v1,v0,-18736
80032188:	e8056624 	addiu	a2,v1,1512
8003218c:	2510e600 	or	v0,a3,a2
80032190:	03004230 	andi	v0,v0,0x3
80032194:	16004010 	beqz	v0,0x800321f0
80032198:	48066824 	addiu	t0,v1,1608
8003219c:	0300c288 	lwl	v0,3(a2)
800321a0:	0000c298 	lwr	v0,0(a2)
800321a4:	0700c388 	lwl	v1,7(a2)
800321a8:	0400c398 	lwr	v1,4(a2)
800321ac:	0b00c488 	lwl	a0,11(a2)
800321b0:	0800c498 	lwr	a0,8(a2)
800321b4:	0f00c588 	lwl	a1,15(a2)
800321b8:	0c00c598 	lwr	a1,12(a2)
800321bc:	0300e2a8 	swl	v0,3(a3)
800321c0:	0000e2b8 	swr	v0,0(a3)
800321c4:	0700e3a8 	swl	v1,7(a3)
800321c8:	0400e3b8 	swr	v1,4(a3)
800321cc:	0b00e4a8 	swl	a0,11(a3)
800321d0:	0800e4b8 	swr	a0,8(a3)
800321d4:	0f00e5a8 	swl	a1,15(a3)
800321d8:	0c00e5b8 	swr	a1,12(a3)
800321dc:	1000c624 	addiu	a2,a2,16
800321e0:	eeffc814 	bne	a2,t0,0x8003219c
800321e4:	1000e724 	addiu	a3,a3,16
800321e8:	98cb0008 	j	0x80032e60
800321ec:	00000000 	nop
800321f0:	0000c28c 	lw	v0,0(a2)
800321f4:	0400c38c 	lw	v1,4(a2)
800321f8:	0800c48c 	lw	a0,8(a2)
800321fc:	0c00c58c 	lw	a1,12(a2)
80032200:	0000e2ac 	sw	v0,0(a3)
80032204:	0400e3ac 	sw	v1,4(a3)
80032208:	0800e4ac 	sw	a0,8(a3)
8003220c:	0c00e5ac 	sw	a1,12(a3)
80032210:	1000c624 	addiu	a2,a2,16
80032214:	f6ffc814 	bne	a2,t0,0x800321f0
80032218:	1000e724 	addiu	a3,a3,16
8003221c:	98cb0008 	j	0x80032e60
80032220:	00000000 	nop
80032224:	40006230 	andi	v0,v1,0x40
80032228:	2a004010 	beqz	v0,0x800322d4
8003222c:	1980023c 	lui	v0,0x8019
80032230:	086e078e 	lw	a3,28168(s0)
80032234:	d0b64324 	addiu	v1,v0,-18736
80032238:	c0066624 	addiu	a2,v1,1728
8003223c:	2510e600 	or	v0,a3,a2
80032240:	03004230 	andi	v0,v0,0x3
80032244:	16004010 	beqz	v0,0x800322a0
80032248:	20076824 	addiu	t0,v1,1824
8003224c:	0300c288 	lwl	v0,3(a2)
80032250:	0000c298 	lwr	v0,0(a2)
80032254:	0700c388 	lwl	v1,7(a2)
80032258:	0400c398 	lwr	v1,4(a2)
8003225c:	0b00c488 	lwl	a0,11(a2)
80032260:	0800c498 	lwr	a0,8(a2)
80032264:	0f00c588 	lwl	a1,15(a2)
80032268:	0c00c598 	lwr	a1,12(a2)
8003226c:	0300e2a8 	swl	v0,3(a3)
80032270:	0000e2b8 	swr	v0,0(a3)
80032274:	0700e3a8 	swl	v1,7(a3)
80032278:	0400e3b8 	swr	v1,4(a3)
8003227c:	0b00e4a8 	swl	a0,11(a3)
80032280:	0800e4b8 	swr	a0,8(a3)
80032284:	0f00e5a8 	swl	a1,15(a3)
80032288:	0c00e5b8 	swr	a1,12(a3)
8003228c:	1000c624 	addiu	a2,a2,16
80032290:	eeffc814 	bne	a2,t0,0x8003224c
80032294:	1000e724 	addiu	a3,a3,16
80032298:	98cb0008 	j	0x80032e60
8003229c:	00000000 	nop
800322a0:	0000c28c 	lw	v0,0(a2)
800322a4:	0400c38c 	lw	v1,4(a2)
800322a8:	0800c48c 	lw	a0,8(a2)
800322ac:	0c00c58c 	lw	a1,12(a2)
800322b0:	0000e2ac 	sw	v0,0(a3)
800322b4:	0400e3ac 	sw	v1,4(a3)
800322b8:	0800e4ac 	sw	a0,8(a3)
800322bc:	0c00e5ac 	sw	a1,12(a3)
800322c0:	1000c624 	addiu	a2,a2,16
800322c4:	f6ffc814 	bne	a2,t0,0x800322a0
800322c8:	1000e724 	addiu	a3,a3,16
800322cc:	98cb0008 	j	0x80032e60
800322d0:	00000000 	nop
800322d4:	80006230 	andi	v0,v1,0x80
800322d8:	ed004010 	beqz	v0,0x80032690
800322dc:	1980023c 	lui	v0,0x8019
800322e0:	086e078e 	lw	a3,28168(s0)
800322e4:	d0b64324 	addiu	v1,v0,-18736
800322e8:	98076624 	addiu	a2,v1,1944
800322ec:	2510e600 	or	v0,a3,a2
800322f0:	03004230 	andi	v0,v0,0x3
800322f4:	16004010 	beqz	v0,0x80032350
800322f8:	f8076824 	addiu	t0,v1,2040
800322fc:	0300c288 	lwl	v0,3(a2)
80032300:	0000c298 	lwr	v0,0(a2)
80032304:	0700c388 	lwl	v1,7(a2)
80032308:	0400c398 	lwr	v1,4(a2)
8003230c:	0b00c488 	lwl	a0,11(a2)
80032310:	0800c498 	lwr	a0,8(a2)
80032314:	0f00c588 	lwl	a1,15(a2)
80032318:	0c00c598 	lwr	a1,12(a2)
8003231c:	0300e2a8 	swl	v0,3(a3)
80032320:	0000e2b8 	swr	v0,0(a3)
80032324:	0700e3a8 	swl	v1,7(a3)
80032328:	0400e3b8 	swr	v1,4(a3)
8003232c:	0b00e4a8 	swl	a0,11(a3)
80032330:	0800e4b8 	swr	a0,8(a3)
80032334:	0f00e5a8 	swl	a1,15(a3)
80032338:	0c00e5b8 	swr	a1,12(a3)
8003233c:	1000c624 	addiu	a2,a2,16
80032340:	eeffc814 	bne	a2,t0,0x800322fc
80032344:	1000e724 	addiu	a3,a3,16
80032348:	98cb0008 	j	0x80032e60
8003234c:	00000000 	nop
80032350:	0000c28c 	lw	v0,0(a2)
80032354:	0400c38c 	lw	v1,4(a2)
80032358:	0800c48c 	lw	a0,8(a2)
8003235c:	0c00c58c 	lw	a1,12(a2)
80032360:	0000e2ac 	sw	v0,0(a3)
80032364:	0400e3ac 	sw	v1,4(a3)
80032368:	0800e4ac 	sw	a0,8(a3)
8003236c:	0c00e5ac 	sw	a1,12(a3)
80032370:	1000c624 	addiu	a2,a2,16
80032374:	f6ffc814 	bne	a2,t0,0x80032350
80032378:	1000e724 	addiu	a3,a3,16
8003237c:	98cb0008 	j	0x80032e60
80032380:	00000000 	nop
80032384:	04006230 	andi	v0,v1,0x4
80032388:	84004010 	beqz	v0,0x8003259c
8003238c:	20006230 	andi	v0,v1,0x20
80032390:	2a004010 	beqz	v0,0x8003243c
80032394:	1980023c 	lui	v0,0x8019
80032398:	086e078e 	lw	a3,28168(s0)
8003239c:	d0b64324 	addiu	v1,v0,-18736
800323a0:	54066624 	addiu	a2,v1,1620
800323a4:	2510e600 	or	v0,a3,a2
800323a8:	03004230 	andi	v0,v0,0x3
800323ac:	16004010 	beqz	v0,0x80032408
800323b0:	b4066824 	addiu	t0,v1,1716
800323b4:	0300c288 	lwl	v0,3(a2)
800323b8:	0000c298 	lwr	v0,0(a2)
800323bc:	0700c388 	lwl	v1,7(a2)
800323c0:	0400c398 	lwr	v1,4(a2)
800323c4:	0b00c488 	lwl	a0,11(a2)
800323c8:	0800c498 	lwr	a0,8(a2)
800323cc:	0f00c588 	lwl	a1,15(a2)
800323d0:	0c00c598 	lwr	a1,12(a2)
800323d4:	0300e2a8 	swl	v0,3(a3)
800323d8:	0000e2b8 	swr	v0,0(a3)
800323dc:	0700e3a8 	swl	v1,7(a3)
800323e0:	0400e3b8 	swr	v1,4(a3)
800323e4:	0b00e4a8 	swl	a0,11(a3)
800323e8:	0800e4b8 	swr	a0,8(a3)
800323ec:	0f00e5a8 	swl	a1,15(a3)
800323f0:	0c00e5b8 	swr	a1,12(a3)
800323f4:	1000c624 	addiu	a2,a2,16
800323f8:	eeffc814 	bne	a2,t0,0x800323b4
800323fc:	1000e724 	addiu	a3,a3,16
80032400:	98cb0008 	j	0x80032e60
80032404:	00000000 	nop
80032408:	0000c28c 	lw	v0,0(a2)
8003240c:	0400c38c 	lw	v1,4(a2)
80032410:	0800c48c 	lw	a0,8(a2)
80032414:	0c00c58c 	lw	a1,12(a2)
80032418:	0000e2ac 	sw	v0,0(a3)
8003241c:	0400e3ac 	sw	v1,4(a3)
80032420:	0800e4ac 	sw	a0,8(a3)
80032424:	0c00e5ac 	sw	a1,12(a3)
80032428:	1000c624 	addiu	a2,a2,16
8003242c:	f6ffc814 	bne	a2,t0,0x80032408
80032430:	1000e724 	addiu	a3,a3,16
80032434:	98cb0008 	j	0x80032e60
80032438:	00000000 	nop
8003243c:	40006230 	andi	v0,v1,0x40
80032440:	2a004010 	beqz	v0,0x800324ec
80032444:	1980023c 	lui	v0,0x8019
80032448:	086e078e 	lw	a3,28168(s0)
8003244c:	d0b64324 	addiu	v1,v0,-18736
80032450:	2c076624 	addiu	a2,v1,1836
80032454:	2510e600 	or	v0,a3,a2
80032458:	03004230 	andi	v0,v0,0x3
8003245c:	16004010 	beqz	v0,0x800324b8
80032460:	8c076824 	addiu	t0,v1,1932
80032464:	0300c288 	lwl	v0,3(a2)
80032468:	0000c298 	lwr	v0,0(a2)
8003246c:	0700c388 	lwl	v1,7(a2)
80032470:	0400c398 	lwr	v1,4(a2)
80032474:	0b00c488 	lwl	a0,11(a2)
80032478:	0800c498 	lwr	a0,8(a2)
8003247c:	0f00c588 	lwl	a1,15(a2)
80032480:	0c00c598 	lwr	a1,12(a2)
80032484:	0300e2a8 	swl	v0,3(a3)
80032488:	0000e2b8 	swr	v0,0(a3)
8003248c:	0700e3a8 	swl	v1,7(a3)
80032490:	0400e3b8 	swr	v1,4(a3)
80032494:	0b00e4a8 	swl	a0,11(a3)
80032498:	0800e4b8 	swr	a0,8(a3)
8003249c:	0f00e5a8 	swl	a1,15(a3)
800324a0:	0c00e5b8 	swr	a1,12(a3)
800324a4:	1000c624 	addiu	a2,a2,16
800324a8:	eeffc814 	bne	a2,t0,0x80032464
800324ac:	1000e724 	addiu	a3,a3,16
800324b0:	98cb0008 	j	0x80032e60
800324b4:	00000000 	nop
800324b8:	0000c28c 	lw	v0,0(a2)
800324bc:	0400c38c 	lw	v1,4(a2)
800324c0:	0800c48c 	lw	a0,8(a2)
800324c4:	0c00c58c 	lw	a1,12(a2)
800324c8:	0000e2ac 	sw	v0,0(a3)
800324cc:	0400e3ac 	sw	v1,4(a3)
800324d0:	0800e4ac 	sw	a0,8(a3)
800324d4:	0c00e5ac 	sw	a1,12(a3)
800324d8:	1000c624 	addiu	a2,a2,16
800324dc:	f6ffc814 	bne	a2,t0,0x800324b8
800324e0:	1000e724 	addiu	a3,a3,16
800324e4:	98cb0008 	j	0x80032e60
800324e8:	00000000 	nop
800324ec:	80006230 	andi	v0,v1,0x80
800324f0:	67004010 	beqz	v0,0x80032690
800324f4:	1980023c 	lui	v0,0x8019
800324f8:	086e078e 	lw	a3,28168(s0)
800324fc:	d0b64324 	addiu	v1,v0,-18736
80032500:	04086624 	addiu	a2,v1,2052
80032504:	2510e600 	or	v0,a3,a2
80032508:	03004230 	andi	v0,v0,0x3
8003250c:	16004010 	beqz	v0,0x80032568
80032510:	64086824 	addiu	t0,v1,2148
80032514:	0300c288 	lwl	v0,3(a2)
80032518:	0000c298 	lwr	v0,0(a2)
8003251c:	0700c388 	lwl	v1,7(a2)
80032520:	0400c398 	lwr	v1,4(a2)
80032524:	0b00c488 	lwl	a0,11(a2)
80032528:	0800c498 	lwr	a0,8(a2)
8003252c:	0f00c588 	lwl	a1,15(a2)
80032530:	0c00c598 	lwr	a1,12(a2)
80032534:	0300e2a8 	swl	v0,3(a3)
80032538:	0000e2b8 	swr	v0,0(a3)
8003253c:	0700e3a8 	swl	v1,7(a3)
80032540:	0400e3b8 	swr	v1,4(a3)
80032544:	0b00e4a8 	swl	a0,11(a3)
80032548:	0800e4b8 	swr	a0,8(a3)
8003254c:	0f00e5a8 	swl	a1,15(a3)
80032550:	0c00e5b8 	swr	a1,12(a3)
80032554:	1000c624 	addiu	a2,a2,16
80032558:	eeffc814 	bne	a2,t0,0x80032514
8003255c:	1000e724 	addiu	a3,a3,16
80032560:	98cb0008 	j	0x80032e60
80032564:	00000000 	nop
80032568:	0000c28c 	lw	v0,0(a2)
8003256c:	0400c38c 	lw	v1,4(a2)
80032570:	0800c48c 	lw	a0,8(a2)
80032574:	0c00c58c 	lw	a1,12(a2)
80032578:	0000e2ac 	sw	v0,0(a3)
8003257c:	0400e3ac 	sw	v1,4(a3)
80032580:	0800e4ac 	sw	a0,8(a3)
80032584:	0c00e5ac 	sw	a1,12(a3)
80032588:	1000c624 	addiu	a2,a2,16
8003258c:	f6ffc814 	bne	a2,t0,0x80032568
80032590:	1000e724 	addiu	a3,a3,16
80032594:	98cb0008 	j	0x80032e60
80032598:	00000000 	nop
8003259c:	fc6d0492 	lbu	a0,28156(s0)
800325a0:	ddc9000c 	jal	0x80032774
800325a4:	00000000 	nop
800325a8:	1980043c 	lui	a0,0x8019
800325ac:	d0b68424 	addiu	a0,a0,-18736
800325b0:	c0180200 	sll	v1,v0,0x3
800325b4:	23186200 	subu	v1,v1,v0
800325b8:	80180300 	sll	v1,v1,0x2
800325bc:	23186200 	subu	v1,v1,v0
800325c0:	80180300 	sll	v1,v1,0x2
800325c4:	21186400 	addu	v1,v1,a0
800325c8:	086e078e 	lw	a3,28168(s0)
800325cc:	6c006624 	addiu	a2,v1,108
800325d0:	2510c700 	or	v0,a2,a3
800325d4:	03004230 	andi	v0,v0,0x3
800325d8:	16004010 	beqz	v0,0x80032634
800325dc:	cc006824 	addiu	t0,v1,204
800325e0:	0300c288 	lwl	v0,3(a2)
800325e4:	0000c298 	lwr	v0,0(a2)
800325e8:	0700c388 	lwl	v1,7(a2)
800325ec:	0400c398 	lwr	v1,4(a2)
800325f0:	0b00c488 	lwl	a0,11(a2)
800325f4:	0800c498 	lwr	a0,8(a2)
800325f8:	0f00c588 	lwl	a1,15(a2)
800325fc:	0c00c598 	lwr	a1,12(a2)
80032600:	0300e2a8 	swl	v0,3(a3)
80032604:	0000e2b8 	swr	v0,0(a3)
80032608:	0700e3a8 	swl	v1,7(a3)
8003260c:	0400e3b8 	swr	v1,4(a3)
80032610:	0b00e4a8 	swl	a0,11(a3)
80032614:	0800e4b8 	swr	a0,8(a3)
80032618:	0f00e5a8 	swl	a1,15(a3)
8003261c:	0c00e5b8 	swr	a1,12(a3)
80032620:	1000c624 	addiu	a2,a2,16
80032624:	eeffc814 	bne	a2,t0,0x800325e0
80032628:	1000e724 	addiu	a3,a3,16
8003262c:	98cb0008 	j	0x80032e60
80032630:	00000000 	nop
80032634:	0000c28c 	lw	v0,0(a2)
80032638:	0400c38c 	lw	v1,4(a2)
8003263c:	0800c48c 	lw	a0,8(a2)
80032640:	0c00c58c 	lw	a1,12(a2)
80032644:	0000e2ac 	sw	v0,0(a3)
80032648:	0400e3ac 	sw	v1,4(a3)
8003264c:	0800e4ac 	sw	a0,8(a3)
80032650:	0c00e5ac 	sw	a1,12(a3)
80032654:	1000c624 	addiu	a2,a2,16
80032658:	f6ffc814 	bne	a2,t0,0x80032634
8003265c:	1000e724 	addiu	a3,a3,16
80032660:	0300c288 	lwl	v0,3(a2)
80032664:	0000c298 	lwr	v0,0(a2)
80032668:	0700c388 	lwl	v1,7(a2)
8003266c:	0400c398 	lwr	v1,4(a2)
80032670:	0b00c488 	lwl	a0,11(a2)
80032674:	0800c498 	lwr	a0,8(a2)
80032678:	0300e2a8 	swl	v0,3(a3)
8003267c:	0000e2b8 	swr	v0,0(a3)
80032680:	0700e3a8 	swl	v1,7(a3)
80032684:	0400e3b8 	swr	v1,4(a3)
80032688:	0b00e4a8 	swl	a0,11(a3)
8003268c:	0800e4b8 	swr	a0,8(a3)
80032690:	0100033c 	lui	v1,0x1
80032694:	00806334 	ori	v1,v1,0x8000
80032698:	1680023c 	lui	v0,0x8016
8003269c:	90d04224 	addiu	v0,v0,-12144
800326a0:	21284300 	addu	a1,v0,v1
800326a4:	40101100 	sll	v0,s1,0x1
800326a8:	21105100 	addu	v0,v0,s1
800326ac:	21105200 	addu	v0,v0,s2
800326b0:	fd6da2a0 	sb	v0,28157(a1)
800326b4:	fd6da390 	lbu	v1,28157(a1)
800326b8:	146ea490 	lbu	a0,28180(a1)
800326bc:	c0100300 	sll	v0,v1,0x3
800326c0:	23104300 	subu	v0,v0,v1
800326c4:	80100200 	sll	v0,v0,0x2
800326c8:	23104300 	subu	v0,v0,v1
800326cc:	80100200 	sll	v0,v0,0x2
800326d0:	1980033c 	lui	v1,0x8019
800326d4:	3cb76324 	addiu	v1,v1,-18628
800326d8:	21104300 	addu	v0,v0,v1
800326dc:	106ea2ac 	sw	v0,28176(a1)
800326e0:	02008230 	andi	v0,a0,0x2
800326e4:	0e004010 	beqz	v0,0x80032720
800326e8:	10008230 	andi	v0,a0,0x10
800326ec:	17004014 	bnez	v0,0x8003274c
800326f0:	10056224 	addiu	v0,v1,1296
800326f4:	20008230 	andi	v0,a0,0x20
800326f8:	14004014 	bnez	v0,0x8003274c
800326fc:	7c056224 	addiu	v0,v1,1404
80032700:	40008230 	andi	v0,a0,0x40
80032704:	11004014 	bnez	v0,0x8003274c
80032708:	54066224 	addiu	v0,v1,1620
8003270c:	80008230 	andi	v0,a0,0x80
80032710:	0f004010 	beqz	v0,0x80032750
80032714:	2c076224 	addiu	v0,v1,1836
80032718:	d4cb0008 	j	0x80032f50
8003271c:	106ea2ac 	sw	v0,28176(a1)
80032720:	04008230 	andi	v0,a0,0x4
80032724:	0a004010 	beqz	v0,0x80032750
80032728:	20008230 	andi	v0,a0,0x20
8003272c:	07004014 	bnez	v0,0x8003274c
80032730:	e8056224 	addiu	v0,v1,1512
80032734:	40008230 	andi	v0,a0,0x40
80032738:	04004014 	bnez	v0,0x8003274c
8003273c:	c0066224 	addiu	v0,v1,1728
80032740:	80008230 	andi	v0,a0,0x80
80032744:	02004010 	beqz	v0,0x80032750
80032748:	98076224 	addiu	v0,v1,1944
8003274c:	106ea2ac 	sw	v0,28176(a1)
80032750:	0100033c 	lui	v1,0x1
80032754:	00806334 	ori	v1,v1,0x8000
80032758:	1680023c 	lui	v0,0x8016
8003275c:	90d04224 	addiu	v0,v0,-12144
80032760:	21104300 	addu	v0,v0,v1
80032764:	0c6e478c 	lw	a3,28172(v0)
80032768:	086e468c 	lw	a2,28168(v0)
8003276c:	00000000 	nop
80032770:	2510c700 	or	v0,a2,a3
80032774:	03004230 	andi	v0,v0,0x3
80032778:	16004010 	beqz	v0,0x800327d4
8003277c:	6000c824 	addiu	t0,a2,96
80032780:	0300c288 	lwl	v0,3(a2)
80032784:	0000c298 	lwr	v0,0(a2)
80032788:	0700c388 	lwl	v1,7(a2)
8003278c:	0400c398 	lwr	v1,4(a2)
80032790:	0b00c488 	lwl	a0,11(a2)
80032794:	0800c498 	lwr	a0,8(a2)
80032798:	0f00c588 	lwl	a1,15(a2)
8003279c:	0c00c598 	lwr	a1,12(a2)
800327a0:	0300e2a8 	swl	v0,3(a3)
800327a4:	0000e2b8 	swr	v0,0(a3)
800327a8:	0700e3a8 	swl	v1,7(a3)
800327ac:	0400e3b8 	swr	v1,4(a3)
800327b0:	0b00e4a8 	swl	a0,11(a3)
800327b4:	0800e4b8 	swr	a0,8(a3)
800327b8:	0f00e5a8 	swl	a1,15(a3)
800327bc:	0c00e5b8 	swr	a1,12(a3)
800327c0:	1000c624 	addiu	a2,a2,16
800327c4:	eeffc814 	bne	a2,t0,0x80032780
800327c8:	1000e724 	addiu	a3,a3,16
800327cc:	00cc0008 	j	0x80033000
800327d0:	00000000 	nop
800327d4:	0000c28c 	lw	v0,0(a2)
800327d8:	0400c38c 	lw	v1,4(a2)
800327dc:	0800c48c 	lw	a0,8(a2)
800327e0:	0c00c58c 	lw	a1,12(a2)
800327e4:	0000e2ac 	sw	v0,0(a3)
800327e8:	0400e3ac 	sw	v1,4(a3)
800327ec:	0800e4ac 	sw	a0,8(a3)
800327f0:	0c00e5ac 	sw	a1,12(a3)
800327f4:	1000c624 	addiu	a2,a2,16
800327f8:	f6ffc814 	bne	a2,t0,0x800327d4
800327fc:	1000e724 	addiu	a3,a3,16
80032800:	0300c288 	lwl	v0,3(a2)
80032804:	0000c298 	lwr	v0,0(a2)
80032808:	0700c388 	lwl	v1,7(a2)
8003280c:	0400c398 	lwr	v1,4(a2)
80032810:	0b00c488 	lwl	a0,11(a2)
80032814:	0800c498 	lwr	a0,8(a2)
80032818:	0300e2a8 	swl	v0,3(a3)
8003281c:	0000e2b8 	swr	v0,0(a3)
80032820:	0700e3a8 	swl	v1,7(a3)
80032824:	0400e3b8 	swr	v1,4(a3)
80032828:	0b00e4a8 	swl	a0,11(a3)
8003282c:	0800e4b8 	swr	a0,8(a3)
80032830:	0100033c 	lui	v1,0x1
80032834:	00806334 	ori	v1,v1,0x8000
80032838:	1680023c 	lui	v0,0x8016
8003283c:	90d04224 	addiu	v0,v0,-12144
80032840:	21104300 	addu	v0,v0,v1
80032844:	80000324 	li	v1,128
80032848:	fc6d40a0 	sb	zero,28156(v0)
8003284c:	fe6d43a0 	sb	v1,28158(v0)
80032850:	1c00bf8f 	lw	ra,28(sp)
80032854:	1800b28f 	lw	s2,24(sp)
80032858:	1400b18f 	lw	s1,20(sp)
8003285c:	1000b08f 	lw	s0,16(sp)
80032860:	2000bd27 	addiu	sp,sp,32
80032864:	0800e003 	jr	ra
80032868:	00000000 	nop
8003286c:	e8ffbd27 	addiu	sp,sp,-24
80032870:	0100023c 	lui	v0,0x1
80032874:	00804234 	ori	v0,v0,0x8000
80032878:	1680033c 	lui	v1,0x8016
8003287c:	90d06324 	addiu	v1,v1,-12144
80032880:	21186200 	addu	v1,v1,v0
80032884:	1980023c 	lui	v0,0x8019
80032888:	60c94224 	addiu	v0,v0,-13984
8003288c:	6c004424 	addiu	a0,v0,108
80032890:	1000bfaf 	sw	ra,16(sp)
80032894:	086e62ac 	sw	v0,28168(v1)
80032898:	0c6e64ac 	sw	a0,28172(v1)
8003289c:	1b80033c 	lui	v1,0x801b
800328a0:	29596390 	lbu	v1,22825(v1)
800328a4:	70ed4224 	addiu	v0,v0,-4752
800328a8:	040040a0 	sb	zero,4(v0)
800328ac:	060040a0 	sb	zero,6(v0)
800328b0:	030040a0 	sb	zero,3(v0)
800328b4:	050040a0 	sb	zero,5(v0)
800328b8:	040040a0 	sb	zero,4(v0)
800328bc:	030040a0 	sb	zero,3(v0)
800328c0:	070040a0 	sb	zero,7(v0)
800328c4:	40180300 	sll	v1,v1,0x1
800328c8:	21186200 	addu	v1,v1,v0
800328cc:	0c006590 	lbu	a1,12(v1)
800328d0:	21300000 	move	a2,zero
800328d4:	f000a430 	andi	a0,a1,0xf0
800328d8:	00ca000c 	jal	0x80032800
800328dc:	0f00a530 	andi	a1,a1,0xf
800328e0:	1000bf8f 	lw	ra,16(sp)
800328e4:	1800bd27 	addiu	sp,sp,24
800328e8:	0800e003 	jr	ra
800328ec:	00000000 	nop
800328f0:	1980023c 	lui	v0,0x8019
800328f4:	d0b64224 	addiu	v0,v0,-18736
800328f8:	090040a0 	sb	zero,9(v0)
800328fc:	040040a0 	sb	zero,4(v0)
80032900:	030040a0 	sb	zero,3(v0)
80032904:	060040a0 	sb	zero,6(v0)
80032908:	0800e003 	jr	ra
8003290c:	050040a0 	sb	zero,5(v0)
80032910:	e0ffbd27 	addiu	sp,sp,-32
80032914:	1980043c 	lui	a0,0x8019
80032918:	1b80023c 	lui	v0,0x801b
8003291c:	29594390 	lbu	v1,22825(v0)
80032920:	d0b68424 	addiu	a0,a0,-18736
80032924:	1c00bfaf 	sw	ra,28(sp)
80032928:	1800b2af 	sw	s2,24(sp)
8003292c:	1400b1af 	sw	s1,20(sp)
80032930:	1000b0af 	sw	s0,16(sp)
80032934:	40100300 	sll	v0,v1,0x1
80032938:	21104400 	addu	v0,v0,a0
8003293c:	0c004290 	lbu	v0,12(v0)
80032940:	00000000 	nop
80032944:	0f005230 	andi	s2,v0,0xf
80032948:	f0005130 	andi	s1,v0,0xf0
8003294c:	21106000 	move	v0,v1
80032950:	e7ff6324 	addiu	v1,v1,-25
80032954:	0200632c 	sltiu	v1,v1,2
80032958:	08006014 	bnez	v1,0x8003297c
8003295c:	1980033c 	lui	v1,0x8019
80032960:	ff004330 	andi	v1,v0,0xff
80032964:	0e000224 	li	v0,14
80032968:	03006210 	beq	v1,v0,0x80032978
8003296c:	17000224 	li	v0,23
80032970:	08006214 	bne	v1,v0,0x80032994
80032974:	1a80023c 	lui	v0,0x801a
80032978:	1980033c 	lui	v1,0x8019
8003297c:	d0b66324 	addiu	v1,v1,-18736
80032980:	04006290 	lbu	v0,4(v1)
80032984:	090060a0 	sb	zero,9(v1)
80032988:	df004230 	andi	v0,v0,0xdf
8003298c:	040062a0 	sb	v0,4(v1)
80032990:	1a80023c 	lui	v0,0x801a
80032994:	ef904280 	lb	v0,-28433(v0)
80032998:	00000000 	nop
8003299c:	08004104 	bgez	v0,0x800329c0
800329a0:	00000000 	nop
800329a4:	1980023c 	lui	v0,0x8019
800329a8:	d0b64224 	addiu	v0,v0,-18736
800329ac:	03004390 	lbu	v1,3(v0)
800329b0:	04004490 	lbu	a0,4(v0)
800329b4:	01006334 	ori	v1,v1,0x1
800329b8:	77cc0008 	j	0x800331dc
800329bc:	04008434 	ori	a0,a0,0x4
800329c0:	08004018 	blez	v0,0x800329e4
800329c4:	1980023c 	lui	v0,0x8019
800329c8:	d0b64224 	addiu	v0,v0,-18736
800329cc:	03004390 	lbu	v1,3(v0)
800329d0:	04004490 	lbu	a0,4(v0)
800329d4:	01006334 	ori	v1,v1,0x1
800329d8:	10008434 	ori	a0,a0,0x10
800329dc:	030043a0 	sb	v1,3(v0)
800329e0:	040044a0 	sb	a0,4(v0)
800329e4:	1980023c 	lui	v0,0x8019
800329e8:	d0b64424 	addiu	a0,v0,-18736
800329ec:	0a008290 	lbu	v0,10(a0)
800329f0:	01000624 	li	a2,1
800329f4:	ec014610 	beq	v0,a2,0x800331a8
800329f8:	02000724 	li	a3,2
800329fc:	03004714 	bne	v0,a3,0x80032a0c
80032a00:	1b80023c 	lui	v0,0x801b
80032a04:	6ace0008 	j	0x800339a8
80032a08:	0a0080a0 	sb	zero,10(a0)
80032a0c:	29594590 	lbu	a1,22825(v0)
80032a10:	07008290 	lbu	v0,7(a0)
80032a14:	00000000 	nop
80032a18:	0800a210 	beq	a1,v0,0x80032a3c
80032a1c:	0100033c 	lui	v1,0x1
80032a20:	00806334 	ori	v1,v1,0x8000
80032a24:	1680023c 	lui	v0,0x8016
80032a28:	90d04224 	addiu	v0,v0,-12144
80032a2c:	21104300 	addu	v0,v0,v1
80032a30:	080086a0 	sb	a2,8(a0)
80032a34:	070085a0 	sb	a1,7(a0)
80032a38:	fe6d40a0 	sb	zero,28158(v0)
80032a3c:	08008290 	lbu	v0,8(a0)
80032a40:	00000000 	nop
80032a44:	08004714 	bne	v0,a3,0x80032a68
80032a48:	1980023c 	lui	v0,0x8019
80032a4c:	1a80023c 	lui	v0,0x801a
80032a50:	40914390 	lbu	v1,-28352(v0)
80032a54:	06000224 	li	v0,6
80032a58:	03006214 	bne	v1,v0,0x80032a68
80032a5c:	1980023c 	lui	v0,0x8019
80032a60:	030080a0 	sb	zero,3(a0)
80032a64:	040080a0 	sb	zero,4(a0)
80032a68:	d0b64424 	addiu	a0,v0,-18736
80032a6c:	09008290 	lbu	v0,9(a0)
80032a70:	00000000 	nop
80032a74:	04004010 	beqz	v0,0x80032a88
80032a78:	1b80023c 	lui	v0,0x801b
80032a7c:	01001224 	li	s2,1
80032a80:	b6cc0008 	j	0x800332d8
80032a84:	090080a0 	sb	zero,9(a0)
80032a88:	29594290 	lbu	v0,22825(v0)
80032a8c:	00000000 	nop
80032a90:	40100200 	sll	v0,v0,0x1
80032a94:	21104400 	addu	v0,v0,a0
80032a98:	0c004384 	lh	v1,12(v0)
80032a9c:	11000224 	li	v0,17
80032aa0:	03006214 	bne	v1,v0,0x80032ab0
80032aa4:	00000000 	nop
80032aa8:	b6cc0008 	j	0x800332d8
80032aac:	01001224 	li	s2,1
80032ab0:	03008290 	lbu	v0,3(a0)
80032ab4:	00000000 	nop
80032ab8:	25184202 	or	v1,s2,v0
80032abc:	04006230 	andi	v0,v1,0x4
80032ac0:	05004014 	bnez	v0,0x80032ad8
80032ac4:	04001224 	li	s2,4
80032ac8:	02006230 	andi	v0,v1,0x2
80032acc:	02004010 	beqz	v0,0x80032ad8
80032ad0:	01001224 	li	s2,1
80032ad4:	02001224 	li	s2,2
80032ad8:	1980023c 	lui	v0,0x8019
80032adc:	d0b64424 	addiu	a0,v0,-18736
80032ae0:	04008390 	lbu	v1,4(a0)
80032ae4:	00000000 	nop
80032ae8:	10006010 	beqz	v1,0x80032b2c
80032aec:	e0006230 	andi	v0,v1,0xe0
80032af0:	0d004014 	bnez	v0,0x80032b28
80032af4:	0f006230 	andi	v0,v1,0xf
80032af8:	0c004014 	bnez	v0,0x80032b2c
80032afc:	40001124 	li	s1,64
80032b00:	1b80023c 	lui	v0,0x801b
80032b04:	29594290 	lbu	v0,22825(v0)
80032b08:	00000000 	nop
80032b0c:	40100200 	sll	v0,v0,0x1
80032b10:	21104400 	addu	v0,v0,a0
80032b14:	0c004294 	lhu	v0,12(v0)
80032b18:	00000000 	nop
80032b1c:	10004230 	andi	v0,v0,0x10
80032b20:	02004010 	beqz	v0,0x80032b2c
80032b24:	20001124 	li	s1,32
80032b28:	10001124 	li	s1,16
80032b2c:	1980023c 	lui	v0,0x8019
80032b30:	d0b65024 	addiu	s0,v0,-18736
80032b34:	05000292 	lbu	v0,5(s0)
80032b38:	ff004532 	andi	a1,s2,0xff
80032b3c:	0500a214 	bne	a1,v0,0x80032b54
80032b40:	00000000 	nop
80032b44:	06000292 	lbu	v0,6(s0)
80032b48:	00000000 	nop
80032b4c:	10002212 	beq	s1,v0,0x80032b90
80032b50:	1980023c 	lui	v0,0x8019
80032b54:	08000392 	lbu	v1,8(s0)
80032b58:	02000224 	li	v0,2
80032b5c:	03006214 	bne	v1,v0,0x80032b6c
80032b60:	21202002 	move	a0,s1
80032b64:	dfcc0008 	j	0x8003337c
80032b68:	21300000 	move	a2,zero
80032b6c:	08006014 	bnez	v1,0x80032b90
80032b70:	1980023c 	lui	v0,0x8019
80032b74:	21202002 	move	a0,s1
80032b78:	01000624 	li	a2,1
80032b7c:	00ca000c 	jal	0x80032800
80032b80:	00000000 	nop
80032b84:	050012a2 	sb	s2,5(s0)
80032b88:	060011a2 	sb	s1,6(s0)
80032b8c:	1980023c 	lui	v0,0x8019
80032b90:	d0b64424 	addiu	a0,v0,-18736
80032b94:	08008390 	lbu	v1,8(a0)
80032b98:	01000224 	li	v0,1
80032b9c:	0d006214 	bne	v1,v0,0x80032bd4
80032ba0:	1980023c 	lui	v0,0x8019
80032ba4:	1b80023c 	lui	v0,0x801b
80032ba8:	20594224 	addiu	v0,v0,22816
80032bac:	02004294 	lhu	v0,2(v0)
80032bb0:	00000000 	nop
80032bb4:	00140200 	sll	v0,v0,0x10
80032bb8:	03140200 	sra	v0,v0,0x10
80032bbc:	07004228 	slti	v0,v0,7
80032bc0:	04004014 	bnez	v0,0x80032bd4
80032bc4:	1980023c 	lui	v0,0x8019
80032bc8:	02000224 	li	v0,2
80032bcc:	fbcc0008 	j	0x800333ec
80032bd0:	080082a0 	sb	v0,8(a0)
80032bd4:	d0b64424 	addiu	a0,v0,-18736
80032bd8:	08008390 	lbu	v1,8(a0)
80032bdc:	02000224 	li	v0,2
80032be0:	03006214 	bne	v1,v0,0x80032bf0
80032be4:	0100033c 	lui	v1,0x1
80032be8:	080080a0 	sb	zero,8(a0)
80032bec:	0100033c 	lui	v1,0x1
80032bf0:	00806334 	ori	v1,v1,0x8000
80032bf4:	1980043c 	lui	a0,0x8019
80032bf8:	1680023c 	lui	v0,0x8016
80032bfc:	90d04224 	addiu	v0,v0,-12144
80032c00:	21284300 	addu	a1,v0,v1
80032c04:	fe6da390 	lbu	v1,28158(a1)
80032c08:	d0b68424 	addiu	a0,a0,-18736
80032c0c:	040080a0 	sb	zero,4(a0)
80032c10:	80006230 	andi	v0,v1,0x80
80032c14:	1f014010 	beqz	v0,0x80033094
80032c18:	030080a0 	sb	zero,3(a0)
80032c1c:	7f006630 	andi	a2,v1,0x7f
80032c20:	4000c22c 	sltiu	v0,a2,64
80032c24:	3f004014 	bnez	v0,0x80032d24
80032c28:	0100023c 	lui	v0,0x1
80032c2c:	086ea88c 	lw	t0,28168(a1)
80032c30:	fd6da390 	lbu	v1,28157(a1)
80032c34:	fe6da0a0 	sb	zero,28158(a1)
80032c38:	c0100300 	sll	v0,v1,0x3
80032c3c:	23104300 	subu	v0,v0,v1
80032c40:	80100200 	sll	v0,v0,0x2
80032c44:	23104300 	subu	v0,v0,v1
80032c48:	80100200 	sll	v0,v0,0x2
80032c4c:	21204400 	addu	a0,v0,a0
80032c50:	6c008724 	addiu	a3,a0,108
80032c54:	2510e800 	or	v0,a3,t0
80032c58:	146ea390 	lbu	v1,28180(a1)
80032c5c:	03004230 	andi	v0,v0,0x3
80032c60:	17004010 	beqz	v0,0x80032cc0
80032c64:	fc6da3a0 	sb	v1,28156(a1)
80032c68:	cc008924 	addiu	t1,a0,204
80032c6c:	0300e288 	lwl	v0,3(a3)
80032c70:	0000e298 	lwr	v0,0(a3)
80032c74:	0700e388 	lwl	v1,7(a3)
80032c78:	0400e398 	lwr	v1,4(a3)
80032c7c:	0b00e488 	lwl	a0,11(a3)
80032c80:	0800e498 	lwr	a0,8(a3)
80032c84:	0f00e588 	lwl	a1,15(a3)
80032c88:	0c00e598 	lwr	a1,12(a3)
80032c8c:	030002a9 	swl	v0,3(t0)
80032c90:	000002b9 	swr	v0,0(t0)
80032c94:	070003a9 	swl	v1,7(t0)
80032c98:	040003b9 	swr	v1,4(t0)
80032c9c:	0b0004a9 	swl	a0,11(t0)
80032ca0:	080004b9 	swr	a0,8(t0)
80032ca4:	0f0005a9 	swl	a1,15(t0)
80032ca8:	0c0005b9 	swr	a1,12(t0)
80032cac:	1000e724 	addiu	a3,a3,16
80032cb0:	eeffe914 	bne	a3,t1,0x80032c6c
80032cb4:	10000825 	addiu	t0,t0,16
80032cb8:	3ccd0008 	j	0x800334f0
80032cbc:	00000000 	nop
80032cc0:	cc008924 	addiu	t1,a0,204
80032cc4:	0000e28c 	lw	v0,0(a3)
80032cc8:	0400e38c 	lw	v1,4(a3)
80032ccc:	0800e48c 	lw	a0,8(a3)
80032cd0:	0c00e58c 	lw	a1,12(a3)
80032cd4:	000002ad 	sw	v0,0(t0)
80032cd8:	040003ad 	sw	v1,4(t0)
80032cdc:	080004ad 	sw	a0,8(t0)
80032ce0:	0c0005ad 	sw	a1,12(t0)
80032ce4:	1000e724 	addiu	a3,a3,16
80032ce8:	f6ffe914 	bne	a3,t1,0x80032cc4
80032cec:	10000825 	addiu	t0,t0,16
80032cf0:	0300e288 	lwl	v0,3(a3)
80032cf4:	0000e298 	lwr	v0,0(a3)
80032cf8:	0700e388 	lwl	v1,7(a3)
80032cfc:	0400e398 	lwr	v1,4(a3)
80032d00:	0b00e488 	lwl	a0,11(a3)
80032d04:	0800e498 	lwr	a0,8(a3)
80032d08:	030002a9 	swl	v0,3(t0)
80032d0c:	000002b9 	swr	v0,0(t0)
80032d10:	070003a9 	swl	v1,7(t0)
80032d14:	040003b9 	swr	v1,4(t0)
80032d18:	0b0004a9 	swl	a0,11(t0)
80032d1c:	080004b9 	swr	a0,8(t0)
80032d20:	0100023c 	lui	v0,0x1
80032d24:	00804234 	ori	v0,v0,0x8000
80032d28:	1680033c 	lui	v1,0x8016
80032d2c:	90d06324 	addiu	v1,v1,-12144
80032d30:	21186200 	addu	v1,v1,v0
80032d34:	ff00c630 	andi	a2,a2,0xff
80032d38:	0c6e628c 	lw	v0,28172(v1)
80032d3c:	40000524 	li	a1,64
80032d40:	68004284 	lh	v0,104(v0)
80032d44:	2328a600 	subu	a1,a1,a2
80032d48:	18004500 	mult	v0,a1
80032d4c:	106e628c 	lw	v0,28176(v1)
80032d50:	12200000 	mflo	a0
80032d54:	68004284 	lh	v0,104(v0)
80032d58:	00000000 	nop
80032d5c:	18004600 	mult	v0,a2
80032d60:	12100000 	mflo	v0
80032d64:	21108200 	addu	v0,a0,v0
80032d68:	086e648c 	lw	a0,28168(v1)
80032d6c:	83110200 	sra	v0,v0,0x6
80032d70:	680082a4 	sh	v0,104(a0)
80032d74:	0c6e628c 	lw	v0,28172(v1)
80032d78:	00000000 	nop
80032d7c:	6a004284 	lh	v0,106(v0)
80032d80:	00000000 	nop
80032d84:	18004500 	mult	v0,a1
80032d88:	106e628c 	lw	v0,28176(v1)
80032d8c:	12200000 	mflo	a0
80032d90:	6a004284 	lh	v0,106(v0)
80032d94:	00000000 	nop
80032d98:	18004600 	mult	v0,a2
80032d9c:	12100000 	mflo	v0
80032da0:	21108200 	addu	v0,a0,v0
80032da4:	086e648c 	lw	a0,28168(v1)
80032da8:	83110200 	sra	v0,v0,0x6
80032dac:	6a0082a4 	sh	v0,106(a0)
80032db0:	0c6e628c 	lw	v0,28172(v1)
80032db4:	00000000 	nop
80032db8:	50004284 	lh	v0,80(v0)
80032dbc:	00000000 	nop
80032dc0:	18004500 	mult	v0,a1
80032dc4:	106e628c 	lw	v0,28176(v1)
80032dc8:	12200000 	mflo	a0
80032dcc:	50004284 	lh	v0,80(v0)
80032dd0:	00000000 	nop
80032dd4:	18004600 	mult	v0,a2
80032dd8:	12100000 	mflo	v0
80032ddc:	21108200 	addu	v0,a0,v0
80032de0:	086e648c 	lw	a0,28168(v1)
80032de4:	82110200 	srl	v0,v0,0x6
80032de8:	500082a4 	sh	v0,80(a0)
80032dec:	0c6e628c 	lw	v0,28172(v1)
80032df0:	00000000 	nop
80032df4:	52004284 	lh	v0,82(v0)
80032df8:	00000000 	nop
80032dfc:	18004500 	mult	v0,a1
80032e00:	106e628c 	lw	v0,28176(v1)
80032e04:	12200000 	mflo	a0
80032e08:	52004284 	lh	v0,82(v0)
80032e0c:	00000000 	nop
80032e10:	18004600 	mult	v0,a2
80032e14:	12100000 	mflo	v0
80032e18:	21108200 	addu	v0,a0,v0
80032e1c:	086e648c 	lw	a0,28168(v1)
80032e20:	82110200 	srl	v0,v0,0x6
80032e24:	520082a4 	sh	v0,82(a0)
80032e28:	0c6e628c 	lw	v0,28172(v1)
80032e2c:	00000000 	nop
80032e30:	54004284 	lh	v0,84(v0)
80032e34:	00000000 	nop
80032e38:	18004500 	mult	v0,a1
80032e3c:	106e628c 	lw	v0,28176(v1)
80032e40:	12200000 	mflo	a0
80032e44:	54004284 	lh	v0,84(v0)
80032e48:	00000000 	nop
80032e4c:	18004600 	mult	v0,a2
80032e50:	12100000 	mflo	v0
80032e54:	21108200 	addu	v0,a0,v0
80032e58:	086e648c 	lw	a0,28168(v1)
80032e5c:	82110200 	srl	v0,v0,0x6
80032e60:	540082a4 	sh	v0,84(a0)
80032e64:	0c6e628c 	lw	v0,28172(v1)
80032e68:	00000000 	nop
80032e6c:	56004284 	lh	v0,86(v0)
80032e70:	00000000 	nop
80032e74:	18004500 	mult	v0,a1
80032e78:	106e628c 	lw	v0,28176(v1)
80032e7c:	12200000 	mflo	a0
80032e80:	56004284 	lh	v0,86(v0)
80032e84:	00000000 	nop
80032e88:	18004600 	mult	v0,a2
80032e8c:	12100000 	mflo	v0
80032e90:	21108200 	addu	v0,a0,v0
80032e94:	086e648c 	lw	a0,28168(v1)
80032e98:	82110200 	srl	v0,v0,0x6
80032e9c:	560082a4 	sh	v0,86(a0)
80032ea0:	0c6e628c 	lw	v0,28172(v1)
80032ea4:	00000000 	nop
80032ea8:	58004284 	lh	v0,88(v0)
80032eac:	00000000 	nop
80032eb0:	18004500 	mult	v0,a1
80032eb4:	106e628c 	lw	v0,28176(v1)
80032eb8:	12200000 	mflo	a0
80032ebc:	58004284 	lh	v0,88(v0)
80032ec0:	00000000 	nop
80032ec4:	18004600 	mult	v0,a2
80032ec8:	12100000 	mflo	v0
80032ecc:	21108200 	addu	v0,a0,v0
80032ed0:	086e648c 	lw	a0,28168(v1)
80032ed4:	82110200 	srl	v0,v0,0x6
80032ed8:	580082a4 	sh	v0,88(a0)
80032edc:	0c6e628c 	lw	v0,28172(v1)
80032ee0:	00000000 	nop
80032ee4:	5a004284 	lh	v0,90(v0)
80032ee8:	00000000 	nop
80032eec:	18004500 	mult	v0,a1
80032ef0:	106e628c 	lw	v0,28176(v1)
80032ef4:	12200000 	mflo	a0
80032ef8:	5a004284 	lh	v0,90(v0)
80032efc:	00000000 	nop
80032f00:	18004600 	mult	v0,a2
80032f04:	12100000 	mflo	v0
80032f08:	21108200 	addu	v0,a0,v0
80032f0c:	086e648c 	lw	a0,28168(v1)
80032f10:	82110200 	srl	v0,v0,0x6
80032f14:	5a0082a4 	sh	v0,90(a0)
80032f18:	0c6e628c 	lw	v0,28172(v1)
80032f1c:	00000000 	nop
80032f20:	5c004284 	lh	v0,92(v0)
80032f24:	00000000 	nop
80032f28:	18004500 	mult	v0,a1
80032f2c:	106e628c 	lw	v0,28176(v1)
80032f30:	12200000 	mflo	a0
80032f34:	5c004284 	lh	v0,92(v0)
80032f38:	00000000 	nop
80032f3c:	18004600 	mult	v0,a2
80032f40:	12100000 	mflo	v0
80032f44:	21108200 	addu	v0,a0,v0
80032f48:	086e648c 	lw	a0,28168(v1)
80032f4c:	82110200 	srl	v0,v0,0x6
80032f50:	5c0082a4 	sh	v0,92(a0)
80032f54:	0c6e628c 	lw	v0,28172(v1)
80032f58:	00000000 	nop
80032f5c:	5e004284 	lh	v0,94(v0)
80032f60:	00000000 	nop
80032f64:	18004500 	mult	v0,a1
80032f68:	106e628c 	lw	v0,28176(v1)
80032f6c:	12200000 	mflo	a0
80032f70:	5e004284 	lh	v0,94(v0)
80032f74:	00000000 	nop
80032f78:	18004600 	mult	v0,a2
80032f7c:	12100000 	mflo	v0
80032f80:	21108200 	addu	v0,a0,v0
80032f84:	086e648c 	lw	a0,28168(v1)
80032f88:	82110200 	srl	v0,v0,0x6
80032f8c:	5e0082a4 	sh	v0,94(a0)
80032f90:	0c6e628c 	lw	v0,28172(v1)
80032f94:	00000000 	nop
80032f98:	60004284 	lh	v0,96(v0)
80032f9c:	00000000 	nop
80032fa0:	18004500 	mult	v0,a1
80032fa4:	106e628c 	lw	v0,28176(v1)
80032fa8:	12200000 	mflo	a0
80032fac:	60004284 	lh	v0,96(v0)
80032fb0:	00000000 	nop
80032fb4:	18004600 	mult	v0,a2
80032fb8:	12100000 	mflo	v0
80032fbc:	21108200 	addu	v0,a0,v0
80032fc0:	086e648c 	lw	a0,28168(v1)
80032fc4:	82110200 	srl	v0,v0,0x6
80032fc8:	600082a4 	sh	v0,96(a0)
80032fcc:	0c6e628c 	lw	v0,28172(v1)
80032fd0:	00000000 	nop
80032fd4:	64004290 	lbu	v0,100(v0)
80032fd8:	00000000 	nop
80032fdc:	18004500 	mult	v0,a1
80032fe0:	106e628c 	lw	v0,28176(v1)
80032fe4:	12200000 	mflo	a0
80032fe8:	64004290 	lbu	v0,100(v0)
80032fec:	00000000 	nop
80032ff0:	18004600 	mult	v0,a2
80032ff4:	12100000 	mflo	v0
80032ff8:	21108200 	addu	v0,a0,v0
80032ffc:	086e648c 	lw	a0,28168(v1)
80033000:	82110200 	srl	v0,v0,0x6
80033004:	640082a0 	sb	v0,100(a0)
80033008:	0c6e628c 	lw	v0,28172(v1)
8003300c:	00000000 	nop
80033010:	65004290 	lbu	v0,101(v0)
80033014:	00000000 	nop
80033018:	18004500 	mult	v0,a1
8003301c:	106e628c 	lw	v0,28176(v1)
80033020:	12200000 	mflo	a0
80033024:	65004290 	lbu	v0,101(v0)
80033028:	00000000 	nop
8003302c:	18004600 	mult	v0,a2
80033030:	12100000 	mflo	v0
80033034:	21108200 	addu	v0,a0,v0
80033038:	086e648c 	lw	a0,28168(v1)
8003303c:	82110200 	srl	v0,v0,0x6
80033040:	650082a0 	sb	v0,101(a0)
80033044:	0c6e628c 	lw	v0,28172(v1)
80033048:	00000000 	nop
8003304c:	66004290 	lbu	v0,102(v0)
80033050:	00000000 	nop
80033054:	18004500 	mult	v0,a1
80033058:	106e628c 	lw	v0,28176(v1)
8003305c:	12200000 	mflo	a0
80033060:	66004290 	lbu	v0,102(v0)
80033064:	00000000 	nop
80033068:	18004600 	mult	v0,a2
8003306c:	12100000 	mflo	v0
80033070:	21108200 	addu	v0,a0,v0
80033074:	086e648c 	lw	a0,28168(v1)
80033078:	82110200 	srl	v0,v0,0x6
8003307c:	660082a0 	sb	v0,102(a0)
80033080:	fe6d6290 	lbu	v0,28158(v1)
80033084:	00000000 	nop
80033088:	01004224 	addiu	v0,v0,1
8003308c:	5ece0008 	j	0x80033978
80033090:	fe6d62a0 	sb	v0,28158(v1)
80033094:	fd6da290 	lbu	v0,28157(a1)
80033098:	086ea78c 	lw	a3,28168(a1)
8003309c:	c0180200 	sll	v1,v0,0x3
800330a0:	23186200 	subu	v1,v1,v0
800330a4:	80180300 	sll	v1,v1,0x2
800330a8:	23186200 	subu	v1,v1,v0
800330ac:	80180300 	sll	v1,v1,0x2
800330b0:	21186400 	addu	v1,v1,a0
800330b4:	6c006624 	addiu	a2,v1,108
800330b8:	2510c700 	or	v0,a2,a3
800330bc:	03004230 	andi	v0,v0,0x3
800330c0:	16004010 	beqz	v0,0x8003311c
800330c4:	cc006824 	addiu	t0,v1,204
800330c8:	0300c288 	lwl	v0,3(a2)
800330cc:	0000c298 	lwr	v0,0(a2)
800330d0:	0700c388 	lwl	v1,7(a2)
800330d4:	0400c398 	lwr	v1,4(a2)
800330d8:	0b00c488 	lwl	a0,11(a2)
800330dc:	0800c498 	lwr	a0,8(a2)
800330e0:	0f00c588 	lwl	a1,15(a2)
800330e4:	0c00c598 	lwr	a1,12(a2)
800330e8:	0300e2a8 	swl	v0,3(a3)
800330ec:	0000e2b8 	swr	v0,0(a3)
800330f0:	0700e3a8 	swl	v1,7(a3)
800330f4:	0400e3b8 	swr	v1,4(a3)
800330f8:	0b00e4a8 	swl	a0,11(a3)
800330fc:	0800e4b8 	swr	a0,8(a3)
80033100:	0f00e5a8 	swl	a1,15(a3)
80033104:	0c00e5b8 	swr	a1,12(a3)
80033108:	1000c624 	addiu	a2,a2,16
8003310c:	eeffc814 	bne	a2,t0,0x800330c8
80033110:	1000e724 	addiu	a3,a3,16
80033114:	52ce0008 	j	0x80033948
80033118:	00000000 	nop
8003311c:	0000c28c 	lw	v0,0(a2)
80033120:	0400c38c 	lw	v1,4(a2)
80033124:	0800c48c 	lw	a0,8(a2)
80033128:	0c00c58c 	lw	a1,12(a2)
8003312c:	0000e2ac 	sw	v0,0(a3)
80033130:	0400e3ac 	sw	v1,4(a3)
80033134:	0800e4ac 	sw	a0,8(a3)
80033138:	0c00e5ac 	sw	a1,12(a3)
8003313c:	1000c624 	addiu	a2,a2,16
80033140:	f6ffc814 	bne	a2,t0,0x8003311c
80033144:	1000e724 	addiu	a3,a3,16
80033148:	0300c288 	lwl	v0,3(a2)
8003314c:	0000c298 	lwr	v0,0(a2)
80033150:	0700c388 	lwl	v1,7(a2)
80033154:	0400c398 	lwr	v1,4(a2)
80033158:	0b00c488 	lwl	a0,11(a2)
8003315c:	0800c498 	lwr	a0,8(a2)
80033160:	0300e2a8 	swl	v0,3(a3)
80033164:	0000e2b8 	swr	v0,0(a3)
80033168:	0700e3a8 	swl	v1,7(a3)
8003316c:	0400e3b8 	swr	v1,4(a3)
80033170:	0b00e4a8 	swl	a0,11(a3)
80033174:	0800e4b8 	swr	a0,8(a3)
80033178:	0100033c 	lui	v1,0x1
8003317c:	00806334 	ori	v1,v1,0x8000
80033180:	1680023c 	lui	v0,0x8016
80033184:	90d04224 	addiu	v0,v0,-12144
80033188:	21104300 	addu	v0,v0,v1
8003318c:	086e438c 	lw	v1,28168(v0)
80033190:	00000000 	nop
80033194:	68006384 	lh	v1,104(v1)
80033198:	00100424 	li	a0,4096
8003319c:	046e44ac 	sw	a0,28164(v0)
800331a0:	00fc6324 	addiu	v1,v1,-1024
800331a4:	006e43ac 	sw	v1,28160(v0)
800331a8:	1c00bf8f 	lw	ra,28(sp)
800331ac:	1800b28f 	lw	s2,24(sp)
800331b0:	1400b18f 	lw	s1,20(sp)
800331b4:	1000b08f 	lw	s0,16(sp)
800331b8:	2000bd27 	addiu	sp,sp,32
800331bc:	0800e003 	jr	ra
800331c0:	00000000 	nop
800331c4:	0000a694 	lhu	a2,0(a1)
800331c8:	0400a524 	addiu	a1,a1,4
800331cc:	ffff0334 	li	v1,0xffff
800331d0:	ffffc224 	addiu	v0,a2,-1
800331d4:	21304000 	move	a2,v0
800331d8:	ffff4230 	andi	v0,v0,0xffff
800331dc:	18004310 	beq	v0,v1,0x80033240
800331e0:	801f0a3c 	lui	t2,0x1f80
800331e4:	1680023c 	lui	v0,0x8016
800331e8:	90d04924 	addiu	t1,v0,-12144
800331ec:	4c830834 	li	t0,0x834c
800331f0:	21386000 	move	a3,v1
800331f4:	0000a38c 	lw	v1,0(a1)
800331f8:	00000000 	nop
800331fc:	0500622c 	sltiu	v0,v1,5
80033200:	09004014 	bnez	v0,0x80033228
80033204:	ffff8230 	andi	v0,a0,0xffff
80033208:	80100200 	sll	v0,v0,0x2
8003320c:	21104900 	addu	v0,v0,t1
80033210:	21104800 	addu	v0,v0,t0
80033214:	000045ac 	sw	a1,0(v0)
80033218:	0800a28c 	lw	v0,8(a1)
8003321c:	00000000 	nop
80033220:	2110a200 	addu	v0,a1,v0
80033224:	0c0042ad 	sw	v0,12(t2)
80033228:	2128a300 	addu	a1,a1,v1
8003322c:	ffffc224 	addiu	v0,a2,-1
80033230:	21304000 	move	a2,v0
80033234:	ffff4230 	andi	v0,v0,0xffff
80033238:	eeff4714 	bne	v0,a3,0x800331f4
8003323c:	01008424 	addiu	a0,a0,1
80033240:	0800e003 	jr	ra
80033244:	00000000 	nop
80033248:	1680023c 	lui	v0,0x8016
8003324c:	90d04224 	addiu	v0,v0,-12144
80033250:	ffff8430 	andi	a0,a0,0xffff
80033254:	80200400 	sll	a0,a0,0x2
80033258:	21208200 	addu	a0,a0,v0
8003325c:	4c830234 	li	v0,0x834c
80033260:	21208200 	addu	a0,a0,v0
80033264:	000085ac 	sw	a1,0(a0)
80033268:	0800a28c 	lw	v0,8(a1)
8003326c:	00000000 	nop
80033270:	2128a200 	addu	a1,a1,v0
80033274:	801f013c 	lui	at,0x1f80
80033278:	0c0025ac 	sw	a1,12(at)
8003327c:	0800e003 	jr	ra
80033280:	00000000 	nop
80033284:	21488000 	move	t1,a0
80033288:	2150a000 	move	t2,a1
8003328c:	2158c000 	move	t3,a2
80033290:	1900e010 	beqz	a3,0x800332f8
80033294:	ffffe824 	addiu	t0,a3,-1
80033298:	ffff0724 	li	a3,-1
8003329c:	0400c624 	addiu	a2,a2,4
800332a0:	0400a524 	addiu	a1,a1,4
800332a4:	04008424 	addiu	a0,a0,4
800332a8:	00004395 	lhu	v1,0(t2)
800332ac:	08004a25 	addiu	t2,t2,8
800332b0:	00006295 	lhu	v0,0(t3)
800332b4:	08006b25 	addiu	t3,t3,8
800332b8:	ffff0825 	addiu	t0,t0,-1
800332bc:	23104300 	subu	v0,v0,v1
800332c0:	000022a5 	sh	v0,0(t1)
800332c4:	feffc294 	lhu	v0,-2(a2)
800332c8:	feffa394 	lhu	v1,-2(a1)
800332cc:	08002925 	addiu	t1,t1,8
800332d0:	23104300 	subu	v0,v0,v1
800332d4:	feff82a4 	sh	v0,-2(a0)
800332d8:	0000a394 	lhu	v1,0(a1)
800332dc:	0800a524 	addiu	a1,a1,8
800332e0:	0000c294 	lhu	v0,0(a2)
800332e4:	0800c624 	addiu	a2,a2,8
800332e8:	23104300 	subu	v0,v0,v1
800332ec:	000082a4 	sh	v0,0(a0)
800332f0:	edff0715 	bne	t0,a3,0x800332a8
800332f4:	08008424 	addiu	a0,a0,8
800332f8:	0800e003 	jr	ra
800332fc:	00000000 	nop
80033300:	21488000 	move	t1,a0
80033304:	2150a000 	move	t2,a1
80033308:	2158c000 	move	t3,a2
8003330c:	1900e010 	beqz	a3,0x80033374
80033310:	ffffe824 	addiu	t0,a3,-1
80033314:	ffff0724 	li	a3,-1
80033318:	0400c624 	addiu	a2,a2,4
8003331c:	0400a524 	addiu	a1,a1,4
80033320:	04008424 	addiu	a0,a0,4
80033324:	00004295 	lhu	v0,0(t2)
80033328:	08004a25 	addiu	t2,t2,8
8003332c:	00006395 	lhu	v1,0(t3)
80033330:	08006b25 	addiu	t3,t3,8
80033334:	ffff0825 	addiu	t0,t0,-1
80033338:	21104300 	addu	v0,v0,v1
8003333c:	000022a5 	sh	v0,0(t1)
80033340:	feffa294 	lhu	v0,-2(a1)
80033344:	feffc394 	lhu	v1,-2(a2)
80033348:	08002925 	addiu	t1,t1,8
8003334c:	21104300 	addu	v0,v0,v1
80033350:	feff82a4 	sh	v0,-2(a0)
80033354:	0000a294 	lhu	v0,0(a1)
80033358:	0800a524 	addiu	a1,a1,8
8003335c:	0000c394 	lhu	v1,0(a2)
80033360:	0800c624 	addiu	a2,a2,8
80033364:	21104300 	addu	v0,v0,v1
80033368:	000082a4 	sh	v0,0(a0)
8003336c:	edff0715 	bne	t0,a3,0x80033324
80033370:	08008424 	addiu	a0,a0,8
80033374:	0800e003 	jr	ra
80033378:	00000000 	nop
8003337c:	0000a684 	lh	a2,0(a1)
80033380:	0400a524 	addiu	a1,a1,4
80033384:	ffff0224 	li	v0,-1
80033388:	000086a4 	sh	a2,0(a0)
8003338c:	ffffc624 	addiu	a2,a2,-1
80033390:	1000c210 	beq	a2,v0,0x800333d4
80033394:	04008424 	addiu	a0,a0,4
80033398:	21384000 	move	a3,v0
8003339c:	04008324 	addiu	v1,a0,4
800333a0:	0000a294 	lhu	v0,0(a1)
800333a4:	0200a524 	addiu	a1,a1,2
800333a8:	ffffc624 	addiu	a2,a2,-1
800333ac:	000082a4 	sh	v0,0(a0)
800333b0:	0000a294 	lhu	v0,0(a1)
800333b4:	0200a524 	addiu	a1,a1,2
800333b8:	08008424 	addiu	a0,a0,8
800333bc:	feff62a4 	sh	v0,-2(v1)
800333c0:	0000a294 	lhu	v0,0(a1)
800333c4:	0400a524 	addiu	a1,a1,4
800333c8:	000062a4 	sh	v0,0(v1)
800333cc:	f4ffc714 	bne	a2,a3,0x800333a0
800333d0:	08006324 	addiu	v1,v1,8
800333d4:	0800e003 	jr	ra
800333d8:	00000000 	nop
800333dc:	21488000 	move	t1,a0
800333e0:	2150a000 	move	t2,a1
800333e4:	0000c884 	lh	t0,0(a2)
800333e8:	ffff0224 	li	v0,-1
800333ec:	ffff0825 	addiu	t0,t0,-1
800333f0:	19000211 	beq	t0,v0,0x80033458
800333f4:	0400c624 	addiu	a2,a2,4
800333f8:	21584000 	move	t3,v0
800333fc:	0400a524 	addiu	a1,a1,4
80033400:	04008424 	addiu	a0,a0,4
80033404:	0400c724 	addiu	a3,a2,4
80033408:	0000c394 	lhu	v1,0(a2)
8003340c:	0800c624 	addiu	a2,a2,8
80033410:	00004295 	lhu	v0,0(t2)
80033414:	08004a25 	addiu	t2,t2,8
80033418:	ffff0825 	addiu	t0,t0,-1
8003341c:	21104300 	addu	v0,v0,v1
80033420:	000022a5 	sh	v0,0(t1)
80033424:	feffa294 	lhu	v0,-2(a1)
80033428:	feffe394 	lhu	v1,-2(a3)
8003342c:	08002925 	addiu	t1,t1,8
80033430:	21104300 	addu	v0,v0,v1
80033434:	feff82a4 	sh	v0,-2(a0)
80033438:	0000e394 	lhu	v1,0(a3)
8003343c:	0800e724 	addiu	a3,a3,8
80033440:	0000a294 	lhu	v0,0(a1)
80033444:	0800a524 	addiu	a1,a1,8
80033448:	21104300 	addu	v0,v0,v1
8003344c:	000082a4 	sh	v0,0(a0)
80033450:	edff0b15 	bne	t0,t3,0x80033408
80033454:	08008424 	addiu	a0,a0,8
80033458:	0800e003 	jr	ra
8003345c:	00000000 	nop
80033460:	21408000 	move	t0,a0
80033464:	0000a784 	lh	a3,0(a1)
80033468:	ffff0224 	li	v0,-1
8003346c:	ffffe724 	addiu	a3,a3,-1
80033470:	1600e210 	beq	a3,v0,0x800334cc
80033474:	0400a524 	addiu	a1,a1,4
80033478:	21484000 	move	t1,v0
8003347c:	04008424 	addiu	a0,a0,4
80033480:	0400a624 	addiu	a2,a1,4
80033484:	0000a394 	lhu	v1,0(a1)
80033488:	0800a524 	addiu	a1,a1,8
8003348c:	00000295 	lhu	v0,0(t0)
80033490:	ffffe724 	addiu	a3,a3,-1
80033494:	21104300 	addu	v0,v0,v1
80033498:	000002a5 	sh	v0,0(t0)
8003349c:	feff8294 	lhu	v0,-2(a0)
800334a0:	feffc394 	lhu	v1,-2(a2)
800334a4:	08000825 	addiu	t0,t0,8
800334a8:	21104300 	addu	v0,v0,v1
800334ac:	feff82a4 	sh	v0,-2(a0)
800334b0:	00008294 	lhu	v0,0(a0)
800334b4:	0000c394 	lhu	v1,0(a2)
800334b8:	0800c624 	addiu	a2,a2,8
800334bc:	21104300 	addu	v0,v0,v1
800334c0:	000082a4 	sh	v0,0(a0)
800334c4:	efffe914 	bne	a3,t1,0x80033484
800334c8:	08008424 	addiu	a0,a0,8
800334cc:	0800e003 	jr	ra
800334d0:	00000000 	nop
800334d4:	e8ffbd27 	addiu	sp,sp,-24
800334d8:	2138c000 	move	a3,a2
800334dc:	1000bfaf 	sw	ra,16(sp)
800334e0:	0000a684 	lh	a2,0(a1)
800334e4:	81d2010c 	jal	0x80074a04
800334e8:	0400a524 	addiu	a1,a1,4
800334ec:	1000bf8f 	lw	ra,16(sp)
800334f0:	1800bd27 	addiu	sp,sp,24
800334f4:	0800e003 	jr	ra
800334f8:	00000000 	nop
800334fc:	21600000 	move	t4,zero
80033500:	21508001 	move	t2,t4
80033504:	21404001 	move	t0,t2
80033508:	1000828c 	lw	v0,16(a0)
8003350c:	80280500 	sll	a1,a1,0x2
80033510:	21108200 	addu	v0,a0,v0
80033514:	2128a200 	addu	a1,a1,v0
80033518:	0000a28c 	lw	v0,0(a1)
8003351c:	00000000 	nop
80033520:	21108200 	addu	v0,a0,v0
80033524:	04004924 	addiu	t1,v0,4
80033528:	00004590 	lbu	a1,0(v0)
8003352c:	ffff0224 	li	v0,-1
80033530:	ffffa524 	addiu	a1,a1,-1
80033534:	1800a210 	beq	a1,v0,0x80033598
80033538:	21580001 	move	t3,t0
8003353c:	21684000 	move	t5,v0
80033540:	0000228d 	lw	v0,0(t1)
80033544:	00000000 	nop
80033548:	21608200 	addu	t4,a0,v0
8003354c:	00008395 	lhu	v1,0(t4)
80033550:	00000000 	nop
80033554:	21400301 	addu	t0,t0,v1
80033558:	2a10c800 	slt	v0,a2,t0
8003355c:	0a004010 	beqz	v0,0x80033588
80033560:	04002925 	addiu	t1,t1,4
80033564:	2310cb00 	subu	v0,a2,t3
80033568:	00130200 	sll	v0,v0,0xc
8003356c:	1b004300 	divu	zero,v0,v1
80033570:	02006014 	bnez	v1,0x8003357c
80033574:	00000000 	nop
80033578:	0d000700 	break	0x7
8003357c:	12180000 	mflo	v1
80033580:	69cf0008 	j	0x80033da4
80033584:	0000eaac 	sw	t2,0(a3)
80033588:	21580001 	move	t3,t0
8003358c:	ffffa524 	addiu	a1,a1,-1
80033590:	ebffad14 	bne	a1,t5,0x80033540
80033594:	01004a25 	addiu	t2,t2,1
80033598:	ffff4a25 	addiu	t2,t2,-1
8003359c:	00100324 	li	v1,4096
800335a0:	0000eaac 	sw	t2,0(a3)
800335a4:	1000a28f 	lw	v0,16(sp)
800335a8:	00000000 	nop
800335ac:	000043ac 	sw	v1,0(v0)
800335b0:	0800e003 	jr	ra
800335b4:	21108001 	move	v0,t4
800335b8:	e8ffbd27 	addiu	sp,sp,-24
800335bc:	1000b0af 	sw	s0,16(sp)
800335c0:	2180a000 	move	s0,a1
800335c4:	1680033c 	lui	v1,0x8016
800335c8:	90d06324 	addiu	v1,v1,-12144
800335cc:	ffff8430 	andi	a0,a0,0xffff
800335d0:	80100400 	sll	v0,a0,0x2
800335d4:	21104300 	addu	v0,v0,v1
800335d8:	4c830334 	li	v1,0x834c
800335dc:	21104300 	addu	v0,v0,v1
800335e0:	1400bfaf 	sw	ra,20(sp)
800335e4:	0000428c 	lw	v0,0(v0)
800335e8:	7000842c 	sltiu	a0,a0,112
800335ec:	0b008014 	bnez	a0,0x8003361c
800335f0:	000002ae 	sw	v0,0(s0)
800335f4:	08004010 	beqz	v0,0x80033618
800335f8:	00000000 	nop
800335fc:	9654000c 	jal	0x80015258
80033600:	21204000 	move	a0,v0
80033604:	ffff4224 	addiu	v0,v0,-1
80033608:	ff004230 	andi	v0,v0,0xff
8003360c:	0200422c 	sltiu	v0,v0,2
80033610:	02004014 	bnez	v0,0x8003361c
80033614:	00000000 	nop
80033618:	000000ae 	sw	zero,0(s0)
8003361c:	1400bf8f 	lw	ra,20(sp)
80033620:	1000b08f 	lw	s0,16(sp)
80033624:	1800bd27 	addiu	sp,sp,24
80033628:	0800e003 	jr	ra
8003362c:	00000000 	nop
80033630:	b0ffbd27 	addiu	sp,sp,-80
80033634:	3c00b1af 	sw	s1,60(sp)
80033638:	2188a000 	move	s1,a1
8003363c:	4400b3af 	sw	s3,68(sp)
80033640:	2198c000 	move	s3,a2
80033644:	4800b4af 	sw	s4,72(sp)
80033648:	21a0e000 	move	s4,a3
8003364c:	ffff8430 	andi	a0,a0,0xffff
80033650:	4000b2af 	sw	s2,64(sp)
80033654:	6000b28f 	lw	s2,96(sp)
80033658:	1800a527 	addiu	a1,sp,24
8003365c:	4c00bfaf 	sw	ra,76(sp)
80033660:	6ecf000c 	jal	0x80033db8
80033664:	3800b0af 	sw	s0,56(sp)
80033668:	1800b08f 	lw	s0,24(sp)
8003366c:	00000000 	nop
80033670:	05000016 	bnez	s0,0x80033688
80033674:	01000224 	li	v0,1
80033678:	040040a6 	sh	zero,4(s2)
8003367c:	020040a6 	sh	zero,2(s2)
80033680:	0ed00008 	j	0x80034038
80033684:	000040a6 	sh	zero,0(s2)
80033688:	0800028e 	lw	v0,8(s0)
8003368c:	00000000 	nop
80033690:	21300202 	addu	a2,s0,v0
80033694:	8000222a 	slti	v0,s1,128
80033698:	15004014 	bnez	v0,0x800336f0
8003369c:	00000000 	nop
800336a0:	7f002332 	andi	v1,s1,0x7f
800336a4:	80100300 	sll	v0,v1,0x2
800336a8:	21104300 	addu	v0,v0,v1
800336ac:	c0100200 	sll	v0,v0,0x3
800336b0:	21104600 	addu	v0,v0,a2
800336b4:	0c00428c 	lw	v0,12(v0)
800336b8:	00000000 	nop
800336bc:	0c004224 	addiu	v0,v0,12
800336c0:	2188c200 	addu	s1,a2,v0
800336c4:	c0101400 	sll	v0,s4,0x3
800336c8:	21105100 	addu	v0,v0,s1
800336cc:	03004388 	lwl	v1,3(v0)
800336d0:	00004398 	lwr	v1,0(v0)
800336d4:	07004488 	lwl	a0,7(v0)
800336d8:	04004498 	lwr	a0,4(v0)
800336dc:	030043aa 	swl	v1,3(s2)
800336e0:	000043ba 	swr	v1,0(s2)
800336e4:	070044aa 	swl	a0,7(s2)
800336e8:	0dd00008 	j	0x80034034
800336ec:	040044ba 	swr	a0,4(s2)
800336f0:	04000296 	lhu	v0,4(s0)
800336f4:	00000000 	nop
800336f8:	03004014 	bnez	v0,0x80033708
800336fc:	21200002 	move	a0,s0
80033700:	a8cf0008 	j	0x80033ea0
80033704:	21880000 	move	s1,zero
80033708:	21282002 	move	a1,s1
8003370c:	3400a327 	addiu	v1,sp,52
80033710:	0c00c28c 	lw	v0,12(a2)
80033714:	3000a727 	addiu	a3,sp,48
80033718:	1000a3af 	sw	v1,16(sp)
8003371c:	0c004224 	addiu	v0,v0,12
80033720:	2188c200 	addu	s1,a2,v0
80033724:	3fcf000c 	jal	0x80033cfc
80033728:	21306002 	move	a2,s3
8003372c:	0c00048e 	lw	a0,12(s0)
80033730:	03004390 	lbu	v1,3(v0)
80033734:	02004290 	lbu	v0,2(v0)
80033738:	21200402 	addu	a0,s0,a0
8003373c:	80180300 	sll	v1,v1,0x2
80033740:	21186400 	addu	v1,v1,a0
80033744:	80100200 	sll	v0,v0,0x2
80033748:	21104400 	addu	v0,v0,a0
8003374c:	c0201400 	sll	a0,s4,0x3
80033750:	21309100 	addu	a2,a0,s1
80033754:	0000658c 	lw	a1,0(v1)
80033758:	0000c894 	lhu	t0,0(a2)
8003375c:	21280502 	addu	a1,s0,a1
80033760:	21288500 	addu	a1,a0,a1
80033764:	0000a394 	lhu	v1,0(a1)
80033768:	0000478c 	lw	a3,0(v0)
8003376c:	21400301 	addu	t0,t0,v1
80033770:	2000a8a7 	sh	t0,32(sp)
80033774:	0200c294 	lhu	v0,2(a2)
80033778:	0200a394 	lhu	v1,2(a1)
8003377c:	21380702 	addu	a3,s0,a3
80033780:	21104300 	addu	v0,v0,v1
80033784:	2200a2a7 	sh	v0,34(sp)
80033788:	0400c294 	lhu	v0,4(a2)
8003378c:	0400a394 	lhu	v1,4(a1)
80033790:	21208700 	addu	a0,a0,a3
80033794:	21104300 	addu	v0,v0,v1
80033798:	2400a2a7 	sh	v0,36(sp)
8003379c:	00008394 	lhu	v1,0(a0)
800337a0:	0000a294 	lhu	v0,0(a1)
800337a4:	3400a68f 	lw	a2,52(sp)
800337a8:	23186200 	subu	v1,v1,v0
800337ac:	00140300 	sll	v0,v1,0x10
800337b0:	03140200 	sra	v0,v0,0x10
800337b4:	18004600 	mult	v0,a2
800337b8:	2800a3a7 	sh	v1,40(sp)
800337bc:	02008294 	lhu	v0,2(a0)
800337c0:	0200a394 	lhu	v1,2(a1)
800337c4:	00000000 	nop
800337c8:	23104300 	subu	v0,v0,v1
800337cc:	2a00a2a7 	sh	v0,42(sp)
800337d0:	04008294 	lhu	v0,4(a0)
800337d4:	0400a394 	lhu	v1,4(a1)
800337d8:	00000000 	nop
800337dc:	23104300 	subu	v0,v0,v1
800337e0:	2c00a2a7 	sh	v0,44(sp)
800337e4:	12480000 	mflo	t1
800337e8:	03130900 	sra	v0,t1,0xc
800337ec:	21400201 	addu	t0,t0,v0
800337f0:	000048a6 	sh	t0,0(s2)
800337f4:	2a00a287 	lh	v0,42(sp)
800337f8:	00000000 	nop
800337fc:	18004600 	mult	v0,a2
80033800:	2200a297 	lhu	v0,34(sp)
80033804:	12480000 	mflo	t1
80033808:	031b0900 	sra	v1,t1,0xc
8003380c:	21104300 	addu	v0,v0,v1
80033810:	020042a6 	sh	v0,2(s2)
80033814:	2c00a287 	lh	v0,44(sp)
80033818:	00000000 	nop
8003381c:	18004600 	mult	v0,a2
80033820:	2400a297 	lhu	v0,36(sp)
80033824:	12480000 	mflo	t1
80033828:	031b0900 	sra	v1,t1,0xc
8003382c:	21104300 	addu	v0,v0,v1
80033830:	040042a6 	sh	v0,4(s2)
80033834:	21100000 	move	v0,zero
80033838:	4c00bf8f 	lw	ra,76(sp)
8003383c:	4800b48f 	lw	s4,72(sp)
80033840:	4400b38f 	lw	s3,68(sp)
80033844:	4000b28f 	lw	s2,64(sp)
80033848:	3c00b18f 	lw	s1,60(sp)
8003384c:	3800b08f 	lw	s0,56(sp)
80033850:	5000bd27 	addiu	sp,sp,80
80033854:	0800e003 	jr	ra
80033858:	00000000 	nop
8003385c:	1680023c 	lui	v0,0x8016
80033860:	90d04224 	addiu	v0,v0,-12144
80033864:	80200400 	sll	a0,a0,0x2
80033868:	21208200 	addu	a0,a0,v0
8003386c:	4c830234 	li	v0,0x834c
80033870:	21208200 	addu	a0,a0,v0
80033874:	0000848c 	lw	a0,0(a0)
80033878:	00000000 	nop
8003387c:	0f008010 	beqz	a0,0x800338bc
80033880:	21100000 	move	v0,zero
80033884:	0800828c 	lw	v0,8(a0)
80033888:	00000000 	nop
8003388c:	21208200 	addu	a0,a0,v0
80033890:	8000a228 	slti	v0,a1,128
80033894:	04004010 	beqz	v0,0x800338a8
80033898:	7f00a330 	andi	v1,a1,0x7f
8003389c:	1000828c 	lw	v0,16(a0)
800338a0:	2fd00008 	j	0x800340bc
800338a4:	00000000 	nop
800338a8:	80100300 	sll	v0,v1,0x2
800338ac:	21104300 	addu	v0,v0,v1
800338b0:	c0100200 	sll	v0,v0,0x3
800338b4:	21104400 	addu	v0,v0,a0
800338b8:	1000428c 	lw	v0,16(v0)
800338bc:	0800e003 	jr	ra
800338c0:	00000000 	nop
800338c4:	1680023c 	lui	v0,0x8016
800338c8:	8c764324 	addiu	v1,v0,30348
800338cc:	10000424 	li	a0,16
800338d0:	04000524 	li	a1,4
800338d4:	000065a4 	sh	a1,0(v1)
800338d8:	100060ac 	sw	zero,16(v1)
800338dc:	ffff8224 	addiu	v0,a0,-1
800338e0:	21204000 	move	a0,v0
800338e4:	ffff4230 	andi	v0,v0,0xffff
800338e8:	faff4014 	bnez	v0,0x800338d4
800338ec:	18006324 	addiu	v1,v1,24
800338f0:	0800e003 	jr	ra
800338f4:	00000000 	nop
800338f8:	1680023c 	lui	v0,0x8016
800338fc:	8c764324 	addiu	v1,v0,30348
80033900:	10000424 	li	a0,16
80033904:	fbff0624 	li	a2,-5
80033908:	05000524 	li	a1,5
8003390c:	00006294 	lhu	v0,0(v1)
80033910:	00000000 	nop
80033914:	24104600 	and	v0,v0,a2
80033918:	02004010 	beqz	v0,0x80033924
8003391c:	ffff8224 	addiu	v0,a0,-1
80033920:	000065a4 	sh	a1,0(v1)
80033924:	21204000 	move	a0,v0
80033928:	ffff4230 	andi	v0,v0,0xffff
8003392c:	f7ff4014 	bnez	v0,0x8003390c
80033930:	18006324 	addiu	v1,v1,24
80033934:	0800e003 	jr	ra
80033938:	00000000 	nop
8003393c:	e8ffbd27 	addiu	sp,sp,-24
80033940:	1000b0af 	sw	s0,16(sp)
80033944:	21808000 	move	s0,a0
80033948:	10000012 	beqz	s0,0x8003398c
8003394c:	1400bfaf 	sw	ra,20(sp)
80033950:	00000296 	lhu	v0,0(s0)
80033954:	00000000 	nop
80033958:	04004230 	andi	v0,v0,0x4
8003395c:	0b004010 	beqz	v0,0x8003398c
80033960:	04000224 	li	v0,4
80033964:	1400038e 	lw	v1,20(s0)
80033968:	000002a6 	sh	v0,0(s0)
8003396c:	000060ac 	sw	zero,0(v1)
80033970:	1000048e 	lw	a0,16(s0)
80033974:	00000000 	nop
80033978:	04008010 	beqz	a0,0x8003398c
8003397c:	00000000 	nop
80033980:	be54000c 	jal	0x800152f8
80033984:	00000000 	nop
80033988:	100000ae 	sw	zero,16(s0)
8003398c:	1400bf8f 	lw	ra,20(sp)
80033990:	1000b08f 	lw	s0,16(sp)
80033994:	1800bd27 	addiu	sp,sp,24
80033998:	0800e003 	jr	ra
8003399c:	00000000 	nop
800339a0:	d8ffbd27 	addiu	sp,sp,-40
800339a4:	1680023c 	lui	v0,0x8016
800339a8:	1000b0af 	sw	s0,16(sp)
800339ac:	8c765024 	addiu	s0,v0,30348
800339b0:	1400b1af 	sw	s1,20(sp)
800339b4:	10001124 	li	s1,16
800339b8:	1c00b3af 	sw	s3,28(sp)
800339bc:	fbff1324 	li	s3,-5
800339c0:	1800b2af 	sw	s2,24(sp)
800339c4:	01001224 	li	s2,1
800339c8:	2000bfaf 	sw	ra,32(sp)
800339cc:	00000296 	lhu	v0,0(s0)
800339d0:	00000000 	nop
800339d4:	24105300 	and	v0,v0,s3
800339d8:	00140200 	sll	v0,v0,0x10
800339dc:	03140200 	sra	v0,v0,0x10
800339e0:	04005214 	bne	v0,s2,0x800339f4
800339e4:	ffff2226 	addiu	v0,s1,-1
800339e8:	4fd0000c 	jal	0x8003413c
800339ec:	21200002 	move	a0,s0
800339f0:	ffff2226 	addiu	v0,s1,-1
800339f4:	21884000 	move	s1,v0
800339f8:	ffff4230 	andi	v0,v0,0xffff
800339fc:	f3ff4014 	bnez	v0,0x800339cc
80033a00:	18001026 	addiu	s0,s0,24
80033a04:	2000bf8f 	lw	ra,32(sp)
80033a08:	1c00b38f 	lw	s3,28(sp)
80033a0c:	1800b28f 	lw	s2,24(sp)
80033a10:	1400b18f 	lw	s1,20(sp)
80033a14:	1000b08f 	lw	s0,16(sp)
80033a18:	2800bd27 	addiu	sp,sp,40
80033a1c:	0800e003 	jr	ra
80033a20:	00000000 	nop
80033a24:	e0ffbd27 	addiu	sp,sp,-32
80033a28:	1680023c 	lui	v0,0x8016
80033a2c:	1000b0af 	sw	s0,16(sp)
80033a30:	8c765024 	addiu	s0,v0,30348
80033a34:	1400b1af 	sw	s1,20(sp)
80033a38:	10001124 	li	s1,16
80033a3c:	1800b2af 	sw	s2,24(sp)
80033a40:	fbff1224 	li	s2,-5
80033a44:	1c00bfaf 	sw	ra,28(sp)
80033a48:	00000296 	lhu	v0,0(s0)
80033a4c:	00000000 	nop
80033a50:	24105200 	and	v0,v0,s2
80033a54:	04004010 	beqz	v0,0x80033a68
80033a58:	ffff2226 	addiu	v0,s1,-1
80033a5c:	4fd0000c 	jal	0x8003413c
80033a60:	21200002 	move	a0,s0
80033a64:	ffff2226 	addiu	v0,s1,-1
80033a68:	21884000 	move	s1,v0
80033a6c:	00140200 	sll	v0,v0,0x10
80033a70:	f5ff4014 	bnez	v0,0x80033a48
80033a74:	18001026 	addiu	s0,s0,24
80033a78:	1c00bf8f 	lw	ra,28(sp)
80033a7c:	1800b28f 	lw	s2,24(sp)
80033a80:	1400b18f 	lw	s1,20(sp)
80033a84:	1000b08f 	lw	s0,16(sp)
80033a88:	2000bd27 	addiu	sp,sp,32
80033a8c:	0800e003 	jr	ra
80033a90:	00000000 	nop
80033a94:	e8ffbd27 	addiu	sp,sp,-24
80033a98:	1000b0af 	sw	s0,16(sp)
80033a9c:	21808000 	move	s0,a0
80033aa0:	1680023c 	lui	v0,0x8016
80033aa4:	8c764224 	addiu	v0,v0,30348
80033aa8:	10000424 	li	a0,16
80033aac:	fbff0524 	li	a1,-5
80033ab0:	ff000624 	li	a2,255
80033ab4:	1400bfaf 	sw	ra,20(sp)
80033ab8:	000002ae 	sw	v0,0(s0)
80033abc:	0000038e 	lw	v1,0(s0)
80033ac0:	00000000 	nop
80033ac4:	00006294 	lhu	v0,0(v1)
80033ac8:	00000000 	nop
80033acc:	24104500 	and	v0,v0,a1
80033ad0:	16004010 	beqz	v0,0x80033b2c
80033ad4:	18006224 	addiu	v0,v1,24
80033ad8:	000002ae 	sw	v0,0(s0)
80033adc:	ffff8224 	addiu	v0,a0,-1
80033ae0:	21204000 	move	a0,v0
80033ae4:	ffff4230 	andi	v0,v0,0xffff
80033ae8:	f4ff4014 	bnez	v0,0x80033abc
80033aec:	00000000 	nop
80033af0:	68d0000c 	jal	0x800341a0
80033af4:	00000000 	nop
80033af8:	1680023c 	lui	v0,0x8016
80033afc:	8c764224 	addiu	v0,v0,30348
80033b00:	000002ae 	sw	v0,0(s0)
80033b04:	10000424 	li	a0,16
80033b08:	fbff0524 	li	a1,-5
80033b0c:	ff000624 	li	a2,255
80033b10:	0000038e 	lw	v1,0(s0)
80033b14:	00000000 	nop
80033b18:	00006294 	lhu	v0,0(v1)
80033b1c:	00000000 	nop
80033b20:	24104500 	and	v0,v0,a1
80033b24:	03004014 	bnez	v0,0x80033b34
80033b28:	18006224 	addiu	v0,v1,24
80033b2c:	d4d00008 	j	0x80034350
80033b30:	040066a4 	sh	a2,4(v1)
80033b34:	000002ae 	sw	v0,0(s0)
80033b38:	ffff8224 	addiu	v0,a0,-1
80033b3c:	21204000 	move	a0,v0
80033b40:	ffff4230 	andi	v0,v0,0xffff
80033b44:	f2ff4014 	bnez	v0,0x80033b10
80033b48:	00000000 	nop
80033b4c:	000000ae 	sw	zero,0(s0)
80033b50:	1400bf8f 	lw	ra,20(sp)
80033b54:	1000b08f 	lw	s0,16(sp)
80033b58:	1800bd27 	addiu	sp,sp,24
80033b5c:	0800e003 	jr	ra
80033b60:	00000000 	nop
80033b64:	b8ffbd27 	addiu	sp,sp,-72
80033b68:	3000b2af 	sw	s2,48(sp)
80033b6c:	21908000 	move	s2,a0
80033b70:	2800b0af 	sw	s0,40(sp)
80033b74:	2180a000 	move	s0,a1
80033b78:	3800b4af 	sw	s4,56(sp)
80033b7c:	21a0c000 	move	s4,a2
80033b80:	3c00b5af 	sw	s5,60(sp)
80033b84:	21a8e000 	move	s5,a3
80033b88:	3400b3af 	sw	s3,52(sp)
80033b8c:	1680023c 	lui	v0,0x8016
80033b90:	90d04224 	addiu	v0,v0,-12144
80033b94:	80181000 	sll	v1,s0,0x2
80033b98:	21186200 	addu	v1,v1,v0
80033b9c:	4c830234 	li	v0,0x834c
80033ba0:	4000bfaf 	sw	ra,64(sp)
80033ba4:	2c00b1af 	sw	s1,44(sp)
80033ba8:	0000448e 	lw	a0,0(s2)
80033bac:	21186200 	addu	v1,v1,v0
80033bb0:	1800a4af 	sw	a0,24(sp)
80033bb4:	0000718c 	lw	s1,0(v1)
80033bb8:	2c008014 	bnez	a0,0x80033c6c
80033bbc:	801f133c 	lui	s3,0x1f80
80033bc0:	a5d0000c 	jal	0x80034294
80033bc4:	1800a427 	addiu	a0,sp,24
80033bc8:	1800a28f 	lw	v0,24(sp)
80033bcc:	00000000 	nop
80033bd0:	04004014 	bnez	v0,0x80033be4
80033bd4:	00000000 	nop
80033bd8:	77d10008 	j	0x800345dc
80033bdc:	21100000 	move	v0,zero
80033be0:	1800a28f 	lw	v0,24(sp)
80033be4:	00000000 	nop
80033be8:	1000448c 	lw	a0,16(v0)
80033bec:	020050a4 	sh	s0,2(v0)
80033bf0:	06008010 	beqz	a0,0x80033c0c
80033bf4:	140052ac 	sw	s2,20(v0)
80033bf8:	be54000c 	jal	0x800152f8
80033bfc:	00000000 	nop
80033c00:	1800a28f 	lw	v0,24(sp)
80033c04:	00000000 	nop
80033c08:	100040ac 	sw	zero,16(v0)
80033c0c:	2000628e 	lw	v0,32(s3)
80033c10:	00000000 	nop
80033c14:	0400448c 	lw	a0,4(v0)
80033c18:	b454000c 	jal	0x800152d0
80033c1c:	c0200400 	sll	a0,a0,0x3
80033c20:	1800a38f 	lw	v1,24(sp)
80033c24:	0f004014 	bnez	v0,0x80033c64
80033c28:	100062ac 	sw	v0,16(v1)
80033c2c:	68d0000c 	jal	0x800341a0
80033c30:	00000000 	nop
80033c34:	27d4000c 	jal	0x8003509c
80033c38:	00000000 	nop
80033c3c:	89d0000c 	jal	0x80034224
80033c40:	00000000 	nop
80033c44:	48d4000c 	jal	0x80035120
80033c48:	00000000 	nop
80033c4c:	21100000 	move	v0,zero
80033c50:	1800a48f 	lw	a0,24(sp)
80033c54:	ffff0334 	li	v1,0xffff
80033c58:	140080ac 	sw	zero,20(a0)
80033c5c:	77d10008 	j	0x800345dc
80033c60:	020083a4 	sh	v1,2(a0)
80033c64:	25d10008 	j	0x80034494
80033c68:	000043ae 	sw	v1,0(s2)
80033c6c:	02008294 	lhu	v0,2(a0)
80033c70:	00000000 	nop
80033c74:	07005010 	beq	v0,s0,0x80033c94
80033c78:	00000000 	nop
80033c7c:	4fd0000c 	jal	0x8003413c
80033c80:	00000000 	nop
80033c84:	1800a38f 	lw	v1,24(sp)
80033c88:	ff000224 	li	v0,255
80033c8c:	f8d00008 	j	0x800343e0
80033c90:	040062a4 	sh	v0,4(v1)
80033c94:	21202002 	move	a0,s1
80033c98:	21288002 	move	a1,s4
80033c9c:	2130a002 	move	a2,s5
80033ca0:	1c00a727 	addiu	a3,sp,28
80033ca4:	2000a227 	addiu	v0,sp,32
80033ca8:	3fcf000c 	jal	0x80033cfc
80033cac:	1000a2af 	sw	v0,16(sp)
80033cb0:	1800a58f 	lw	a1,24(sp)
80033cb4:	00000000 	nop
80033cb8:	0400a394 	lhu	v1,4(a1)
80033cbc:	00000000 	nop
80033cc0:	06007414 	bne	v1,s4,0x80033cdc
80033cc4:	21904000 	move	s2,v0
80033cc8:	0600a394 	lhu	v1,6(a1)
80033ccc:	1c00a28f 	lw	v0,28(sp)
80033cd0:	00000000 	nop
80033cd4:	24006210 	beq	v1,v0,0x80033d68
80033cd8:	1780103c 	lui	s0,0x8017
80033cdc:	0c00638e 	lw	v1,12(s3)
80033ce0:	00000000 	nop
80033ce4:	0c006224 	addiu	v0,v1,12
80033ce8:	200062ae 	sw	v0,32(s3)
80033cec:	0c00628c 	lw	v0,12(v1)
80033cf0:	00000000 	nop
80033cf4:	0c004224 	addiu	v0,v0,12
80033cf8:	21186200 	addu	v1,v1,v0
80033cfc:	480063ae 	sw	v1,72(s3)
80033d00:	0c00238e 	lw	v1,12(s1)
80033d04:	03004292 	lbu	v0,3(s2)
80033d08:	21182302 	addu	v1,s1,v1
80033d0c:	80100200 	sll	v0,v0,0x2
80033d10:	21104300 	addu	v0,v0,v1
80033d14:	0000428c 	lw	v0,0(v0)
80033d18:	00000000 	nop
80033d1c:	21102202 	addu	v0,s1,v0
80033d20:	0800a2ac 	sw	v0,8(a1)
80033d24:	02004292 	lbu	v0,2(s2)
80033d28:	00000000 	nop
80033d2c:	80100200 	sll	v0,v0,0x2
80033d30:	21104300 	addu	v0,v0,v1
80033d34:	0000468c 	lw	a2,0(v0)
80033d38:	1000a48c 	lw	a0,16(a1)
80033d3c:	21302602 	addu	a2,s1,a2
80033d40:	0c00a6ac 	sw	a2,12(a1)
80033d44:	2000628e 	lw	v0,32(s3)
80033d48:	0800a58c 	lw	a1,8(a1)
80033d4c:	0400478c 	lw	a3,4(v0)
80033d50:	a1ce000c 	jal	0x80033a84
80033d54:	1780103c 	lui	s0,0x8017
80033d58:	1800a28f 	lw	v0,24(sp)
80033d5c:	1c00a397 	lhu	v1,28(sp)
80033d60:	040054a4 	sh	s4,4(v0)
80033d64:	060043a4 	sh	v1,6(v0)
80033d68:	d0bb1026 	addiu	s0,s0,-17456
80033d6c:	0c00238e 	lw	v1,12(s1)
80033d70:	03004292 	lbu	v0,3(s2)
80033d74:	21182302 	addu	v1,s1,v1
80033d78:	80100200 	sll	v0,v0,0x2
80033d7c:	21104300 	addu	v0,v0,v1
80033d80:	0000468c 	lw	a2,0(v0)
80033d84:	1800a28f 	lw	v0,24(sp)
80033d88:	21302602 	addu	a2,s1,a2
80033d8c:	080046ac 	sw	a2,8(v0)
80033d90:	2000628e 	lw	v0,32(s3)
80033d94:	21200002 	move	a0,s0
80033d98:	0400478c 	lw	a3,4(v0)
80033d9c:	0000458c 	lw	a1,0(v0)
80033da0:	0c00628e 	lw	v0,12(s3)
80033da4:	0c00a524 	addiu	a1,a1,12
80033da8:	c0ce000c 	jal	0x80033b00
80033dac:	21284500 	addu	a1,v0,a1
80033db0:	2000a78f 	lw	a3,32(sp)
80033db4:	1800a28f 	lw	v0,24(sp)
80033db8:	2000638e 	lw	v1,32(s3)
80033dbc:	1000458c 	lw	a1,16(v0)
80033dc0:	0400668c 	lw	a2,4(v1)
80033dc4:	81d2010c 	jal	0x80074a04
80033dc8:	21200002 	move	a0,s0
80033dcc:	1800a28f 	lw	v0,24(sp)
80033dd0:	06000324 	li	v1,6
80033dd4:	480070ae 	sw	s0,72(s3)
80033dd8:	000043a4 	sh	v1,0(v0)
80033ddc:	4000bf8f 	lw	ra,64(sp)
80033de0:	3c00b58f 	lw	s5,60(sp)
80033de4:	3800b48f 	lw	s4,56(sp)
80033de8:	3400b38f 	lw	s3,52(sp)
80033dec:	3000b28f 	lw	s2,48(sp)
80033df0:	2c00b18f 	lw	s1,44(sp)
80033df4:	2800b08f 	lw	s0,40(sp)
80033df8:	4800bd27 	addiu	sp,sp,72
80033dfc:	0800e003 	jr	ra
80033e00:	00000000 	nop
80033e04:	e0ffbd27 	addiu	sp,sp,-32
80033e08:	1680023c 	lui	v0,0x8016
80033e0c:	90d04224 	addiu	v0,v0,-12144
80033e10:	80180500 	sll	v1,a1,0x2
80033e14:	21186200 	addu	v1,v1,v0
80033e18:	4c830234 	li	v0,0x834c
80033e1c:	1400b1af 	sw	s1,20(sp)
80033e20:	21886200 	addu	s1,v1,v0
80033e24:	1c00bfaf 	sw	ra,28(sp)
80033e28:	1800b2af 	sw	s2,24(sp)
80033e2c:	1000b0af 	sw	s0,16(sp)
80033e30:	0000238e 	lw	v1,0(s1)
80033e34:	00000000 	nop
80033e38:	04006294 	lhu	v0,4(v1)
80033e3c:	0000908c 	lw	s0,0(a0)
80033e40:	15004014 	bnez	v0,0x80033e98
80033e44:	801f123c 	lui	s2,0x1f80
80033e48:	06000012 	beqz	s0,0x80033e64
80033e4c:	00000000 	nop
80033e50:	4fd0000c 	jal	0x8003413c
80033e54:	21200002 	move	a0,s0
80033e58:	02d4000c 	jal	0x80035008
80033e5c:	21200002 	move	a0,s0
80033e60:	0000238e 	lw	v1,0(s1)
80033e64:	00000000 	nop
80033e68:	0800628c 	lw	v0,8(v1)
80033e6c:	00000000 	nop
80033e70:	21186200 	addu	v1,v1,v0
80033e74:	0c006224 	addiu	v0,v1,12
80033e78:	0c0043ae 	sw	v1,12(s2)
80033e7c:	200042ae 	sw	v0,32(s2)
80033e80:	0c00648c 	lw	a0,12(v1)
80033e84:	01000224 	li	v0,1
80033e88:	0c008424 	addiu	a0,a0,12
80033e8c:	21186400 	addu	v1,v1,a0
80033e90:	b0d10008 	j	0x800346c0
80033e94:	480043ae 	sw	v1,72(s2)
80033e98:	06006294 	lhu	v0,6(v1)
80033e9c:	00000000 	nop
80033ea0:	05004010 	beqz	v0,0x80033eb8
80033ea4:	00000000 	nop
80033ea8:	a7d5000c 	jal	0x8003569c
80033eac:	00000000 	nop
80033eb0:	b0d10008 	j	0x800346c0
80033eb4:	00000000 	nop
80033eb8:	d9d0000c 	jal	0x80034364
80033ebc:	00000000 	nop
80033ec0:	1c00bf8f 	lw	ra,28(sp)
80033ec4:	1800b28f 	lw	s2,24(sp)
80033ec8:	1400b18f 	lw	s1,20(sp)
80033ecc:	1000b08f 	lw	s0,16(sp)
80033ed0:	2000bd27 	addiu	sp,sp,32
80033ed4:	0800e003 	jr	ra
80033ed8:	00000000 	nop
80033edc:	3400828c 	lw	v0,52(a0)
80033ee0:	2800878c 	lw	a3,40(a0)
80033ee4:	2c00868c 	lw	a2,44(a0)
80033ee8:	3000888c 	lw	t0,48(a0)
80033eec:	040040ac 	sw	zero,4(v0)
80033ef0:	3400828c 	lw	v0,52(a0)
80033ef4:	00000000 	nop
80033ef8:	080045ac 	sw	a1,8(v0)
80033efc:	3400838c 	lw	v1,52(a0)
80033f00:	2800828c 	lw	v0,40(a0)
80033f04:	21200000 	move	a0,zero
80033f08:	1300a018 	blez	a1,0x80033f58
80033f0c:	000062ac 	sw	v0,0(v1)
80033f10:	00800b3c 	lui	t3,0x8000
80033f14:	ffff0a24 	li	t2,-1
80033f18:	ffff0934 	li	t1,0xffff
80033f1c:	0b00e324 	addiu	v1,a3,11
80033f20:	0000ebac 	sw	t3,0(a3)
80033f24:	01006aac 	sw	t2,1(v1)
80033f28:	f9ff66ac 	sw	a2,-7(v1)
80033f2c:	4400c8ac 	sw	t0,68(a2)
80033f30:	fdff69a4 	sh	t1,-3(v1)
80033f34:	ffff60a0 	sb	zero,-1(v1)
80033f38:	000060a0 	sb	zero,0(v1)
80033f3c:	10006324 	addiu	v1,v1,16
80033f40:	1000e724 	addiu	a3,a3,16
80033f44:	5000c624 	addiu	a2,a2,80
80033f48:	01008424 	addiu	a0,a0,1
80033f4c:	2a108500 	slt	v0,a0,a1
80033f50:	f3ff4014 	bnez	v0,0x80033f20
80033f54:	28000825 	addiu	t0,t0,40
80033f58:	0800e003 	jr	ra
80033f5c:	00000000 	nop
80033f60:	0400838c 	lw	v1,4(a0)
80033f64:	0000878c 	lw	a3,0(a0)
80033f68:	0a006018 	blez	v1,0x80033f94
80033f6c:	21300000 	move	a2,zero
80033f70:	0800e294 	lhu	v0,8(a3)
80033f74:	00000000 	nop
80033f78:	0500a210 	beq	a1,v0,0x80033f90
80033f7c:	00000000 	nop
80033f80:	0100c624 	addiu	a2,a2,1
80033f84:	2a10c300 	slt	v0,a2,v1
80033f88:	f9ff4014 	bnez	v0,0x80033f70
80033f8c:	1000e724 	addiu	a3,a3,16
80033f90:	0400838c 	lw	v1,4(a0)
80033f94:	00000000 	nop
80033f98:	0200c310 	beq	a2,v1,0x80033fa4
80033f9c:	21100000 	move	v0,zero
80033fa0:	2110e000 	move	v0,a3
80033fa4:	0800e003 	jr	ra
80033fa8:	00000000 	nop
80033fac:	0400838c 	lw	v1,4(a0)
80033fb0:	0000878c 	lw	a3,0(a0)
80033fb4:	0a006018 	blez	v1,0x80033fe0
80033fb8:	21300000 	move	a2,zero
80033fbc:	0c00e28c 	lw	v0,12(a3)
80033fc0:	00000000 	nop
80033fc4:	0500a210 	beq	a1,v0,0x80033fdc
80033fc8:	00000000 	nop
80033fcc:	0100c624 	addiu	a2,a2,1
80033fd0:	2a10c300 	slt	v0,a2,v1
80033fd4:	f9ff4014 	bnez	v0,0x80033fbc
80033fd8:	1000e724 	addiu	a3,a3,16
80033fdc:	0400838c 	lw	v1,4(a0)
80033fe0:	00000000 	nop
80033fe4:	0200c310 	beq	a2,v1,0x80033ff0
80033fe8:	21100000 	move	v0,zero
80033fec:	2110e000 	move	v0,a3
80033ff0:	0800e003 	jr	ra
80033ff4:	00000000 	nop
80033ff8:	21388000 	move	a3,a0
80033ffc:	0400e68c 	lw	a2,4(a3)
80034000:	0000e48c 	lw	a0,0(a3)
80034004:	0f00c018 	blez	a2,0x80034044
80034008:	21180000 	move	v1,zero
8003400c:	ffff0824 	li	t0,-1
80034010:	0c00828c 	lw	v0,12(a0)
80034014:	00000000 	nop
80034018:	05004810 	beq	v0,t0,0x80034030
8003401c:	00000000 	nop
80034020:	01006324 	addiu	v1,v1,1
80034024:	2a106600 	slt	v0,v1,a2
80034028:	f9ff4014 	bnez	v0,0x80034010
8003402c:	10008424 	addiu	a0,a0,16
80034030:	0400e28c 	lw	v0,4(a3)
80034034:	00000000 	nop
80034038:	2a106200 	slt	v0,v1,v0
8003403c:	0c004014 	bnez	v0,0x80034070
80034040:	00000000 	nop
80034044:	0800e28c 	lw	v0,8(a3)
80034048:	00000000 	nop
8003404c:	2a106200 	slt	v0,v1,v0
80034050:	33004010 	beqz	v0,0x80034120
80034054:	21100000 	move	v0,zero
80034058:	0400e28c 	lw	v0,4(a3)
8003405c:	0000e48c 	lw	a0,0(a3)
80034060:	00190200 	sll	v1,v0,0x4
80034064:	21208300 	addu	a0,a0,v1
80034068:	01004224 	addiu	v0,v0,1
8003406c:	0400e2ac 	sw	v0,4(a3)
80034070:	0400828c 	lw	v0,4(a0)
80034074:	0c0085ac 	sw	a1,12(a0)
80034078:	000080ac 	sw	zero,0(a0)
8003407c:	480040ac 	sw	zero,72(v0)
80034080:	0400828c 	lw	v0,4(a0)
80034084:	00100324 	li	v1,4096
80034088:	040043a4 	sh	v1,4(v0)
8003408c:	0400828c 	lw	v0,4(a0)
80034090:	00000000 	nop
80034094:	060040a4 	sh	zero,6(v0)
80034098:	0400828c 	lw	v0,4(a0)
8003409c:	00000000 	nop
800340a0:	080040a4 	sh	zero,8(v0)
800340a4:	0400828c 	lw	v0,4(a0)
800340a8:	00000000 	nop
800340ac:	0a0040a4 	sh	zero,10(v0)
800340b0:	0400828c 	lw	v0,4(a0)
800340b4:	00000000 	nop
800340b8:	0c0043a4 	sh	v1,12(v0)
800340bc:	0400828c 	lw	v0,4(a0)
800340c0:	00000000 	nop
800340c4:	0e0040a4 	sh	zero,14(v0)
800340c8:	0400828c 	lw	v0,4(a0)
800340cc:	00000000 	nop
800340d0:	100040a4 	sh	zero,16(v0)
800340d4:	0400828c 	lw	v0,4(a0)
800340d8:	00000000 	nop
800340dc:	120040a4 	sh	zero,18(v0)
800340e0:	0400828c 	lw	v0,4(a0)
800340e4:	00000000 	nop
800340e8:	140043a4 	sh	v1,20(v0)
800340ec:	0400828c 	lw	v0,4(a0)
800340f0:	00000000 	nop
800340f4:	180040ac 	sw	zero,24(v0)
800340f8:	0400828c 	lw	v0,4(a0)
800340fc:	00000000 	nop
80034100:	1c0040ac 	sw	zero,28(v0)
80034104:	0400838c 	lw	v1,4(a0)
80034108:	21108000 	move	v0,a0
8003410c:	200060ac 	sw	zero,32(v1)
80034110:	ffff0334 	li	v1,0xffff
80034114:	080043a4 	sh	v1,8(v0)
80034118:	0a0040a0 	sb	zero,10(v0)
8003411c:	0b0040a0 	sb	zero,11(v0)
80034120:	0800e003 	jr	ra
80034124:	00000000 	nop
80034128:	0400878c 	lw	a3,4(a0)
8003412c:	0000868c 	lw	a2,0(a0)
80034130:	0e00e018 	blez	a3,0x8003416c
80034134:	21180000 	move	v1,zero
80034138:	0c00c28c 	lw	v0,12(a2)
8003413c:	00000000 	nop
80034140:	05004510 	beq	v0,a1,0x80034158
80034144:	00000000 	nop
80034148:	01006324 	addiu	v1,v1,1
8003414c:	2a106700 	slt	v0,v1,a3
80034150:	f9ff4014 	bnez	v0,0x80034138
80034154:	1000c624 	addiu	a2,a2,16
80034158:	0400828c 	lw	v0,4(a0)
8003415c:	00000000 	nop
80034160:	2a106200 	slt	v0,v1,v0
80034164:	03004014 	bnez	v0,0x80034174
80034168:	2110c000 	move	v0,a2
8003416c:	61d20008 	j	0x80034984
80034170:	21100000 	move	v0,zero
80034174:	ffff0334 	li	v1,0xffff
80034178:	080043a4 	sh	v1,8(v0)
8003417c:	0a0040a0 	sb	zero,10(v0)
80034180:	0b0040a0 	sb	zero,11(v0)
80034184:	0800e003 	jr	ra
80034188:	00000000 	nop
8003418c:	0400838c 	lw	v1,4(a0)
80034190:	00000000 	nop
80034194:	09006018 	blez	v1,0x800341bc
80034198:	21200000 	move	a0,zero
8003419c:	0000a28c 	lw	v0,0(a1)
800341a0:	00000000 	nop
800341a4:	0500c210 	beq	a2,v0,0x800341bc
800341a8:	00000000 	nop
800341ac:	01008424 	addiu	a0,a0,1
800341b0:	ffff6324 	addiu	v1,v1,-1
800341b4:	f9ff601c 	bgtz	v1,0x8003419c
800341b8:	0400a524 	addiu	a1,a1,4
800341bc:	02006010 	beqz	v1,0x800341c8
800341c0:	ffff0234 	li	v0,0xffff
800341c4:	ffff8230 	andi	v0,a0,0xffff
800341c8:	0800e003 	jr	ra
800341cc:	00000000 	nop
800341d0:	50ffbd27 	addiu	sp,sp,-176
800341d4:	a000b6af 	sw	s6,160(sp)
800341d8:	21b0a000 	move	s6,a1
800341dc:	8c00b1af 	sw	s1,140(sp)
800341e0:	04009124 	addiu	s1,a0,4
800341e4:	ac00bfaf 	sw	ra,172(sp)
800341e8:	a800beaf 	sw	s8,168(sp)
800341ec:	a400b7af 	sw	s7,164(sp)
800341f0:	9c00b5af 	sw	s5,156(sp)
800341f4:	9800b4af 	sw	s4,152(sp)
800341f8:	9400b3af 	sw	s3,148(sp)
800341fc:	9000b2af 	sw	s2,144(sp)
80034200:	8800b0af 	sw	s0,136(sp)
80034204:	b000a4af 	sw	a0,176(sp)
80034208:	b800a6af 	sw	a2,184(sp)
8003420c:	bc00a7af 	sw	a3,188(sp)
80034210:	0000828c 	lw	v0,0(a0)
80034214:	2120c002 	move	a0,s6
80034218:	c000be8f 	lw	s8,192(sp)
8003421c:	ffff5330 	andi	s3,v0,0xffff
80034220:	21286002 	move	a1,s3
80034224:	021c0200 	srl	v1,v0,0x10
80034228:	0f007730 	andi	s7,v1,0xf
8003422c:	021d0200 	srl	v1,v0,0x14
80034230:	0f007430 	andi	s4,v1,0xf
80034234:	02160200 	srl	v0,v0,0x18
80034238:	ebd1000c 	jal	0x800347ac
8003423c:	8000a2af 	sw	v0,128(sp)
80034240:	21904000 	move	s2,v0
80034244:	04004016 	bnez	s2,0x80034258
80034248:	3800b527 	addiu	s5,sp,56
8003424c:	2800b227 	addiu	s2,sp,40
80034250:	9bd20008 	j	0x80034a6c
80034254:	5800b027 	addiu	s0,sp,88
80034258:	0400428e 	lw	v0,4(s2)
8003425c:	00000000 	nop
80034260:	4400508c 	lw	s0,68(v0)
80034264:	04005524 	addiu	s5,v0,4
80034268:	000040a4 	sh	zero,0(v0)
8003426c:	0900e22e 	sltiu	v0,s7,9
80034270:	ea004010 	beqz	v0,0x8003461c
80034274:	0180023c 	lui	v0,0x8001
80034278:	a8144224 	addiu	v0,v0,5288
8003427c:	80181700 	sll	v1,s7,0x2
80034280:	21186200 	addu	v1,v1,v0
80034284:	0000628c 	lw	v0,0(v1)
80034288:	00000000 	nop
8003428c:	08004000 	jr	v0
80034290:	00000000 	nop
80034294:	0000428e 	lw	v0,0(s2)
80034298:	0000238e 	lw	v1,0(s1)
8003429c:	0400248e 	lw	a0,4(s1)
800342a0:	24104300 	and	v0,v0,v1
800342a4:	25104400 	or	v0,v0,a0
800342a8:	87d30008 	j	0x80034e1c
800342ac:	000042ae 	sw	v0,0(s2)
800342b0:	01008232 	andi	v0,s4,0x1
800342b4:	65004010 	beqz	v0,0x8003444c
800342b8:	02008232 	andi	v0,s4,0x2
800342bc:	23004010 	beqz	v0,0x8003434c
800342c0:	0bb6053c 	lui	a1,0xb60b
800342c4:	0000248e 	lw	a0,0(s1)
800342c8:	b760a534 	ori	a1,a1,0x60b7
800342cc:	18008500 	mult	a0,a1
800342d0:	10000296 	lhu	v0,16(s0)
800342d4:	10400000 	mfhi	t0
800342d8:	21180401 	addu	v1,t0,a0
800342dc:	031a0300 	sra	v1,v1,0x8
800342e0:	c3270400 	sra	a0,a0,0x1f
800342e4:	23186400 	subu	v1,v1,a0
800342e8:	21104300 	addu	v0,v0,v1
800342ec:	100002a6 	sh	v0,16(s0)
800342f0:	0400248e 	lw	a0,4(s1)
800342f4:	00000000 	nop
800342f8:	18008500 	mult	a0,a1
800342fc:	12000296 	lhu	v0,18(s0)
80034300:	10400000 	mfhi	t0
80034304:	21180401 	addu	v1,t0,a0
80034308:	031a0300 	sra	v1,v1,0x8
8003430c:	c3270400 	sra	a0,a0,0x1f
80034310:	23186400 	subu	v1,v1,a0
80034314:	21104300 	addu	v0,v0,v1
80034318:	120002a6 	sh	v0,18(s0)
8003431c:	0800248e 	lw	a0,8(s1)
80034320:	00000000 	nop
80034324:	18008500 	mult	a0,a1
80034328:	0c003126 	addiu	s1,s1,12
8003432c:	14000296 	lhu	v0,20(s0)
80034330:	10400000 	mfhi	t0
80034334:	21180401 	addu	v1,t0,a0
80034338:	031a0300 	sra	v1,v1,0x8
8003433c:	c3270400 	sra	a0,a0,0x1f
80034340:	23186400 	subu	v1,v1,a0
80034344:	21104300 	addu	v0,v0,v1
80034348:	140002a6 	sh	v0,20(s0)
8003434c:	04008232 	andi	v0,s4,0x4
80034350:	21004010 	beqz	v0,0x800343d8
80034354:	08008232 	andi	v0,s4,0x8
80034358:	00002386 	lh	v1,0(s1)
8003435c:	0000028e 	lw	v0,0(s0)
80034360:	00000000 	nop
80034364:	18004300 	mult	v0,v1
80034368:	12100000 	mflo	v0
8003436c:	02004104 	bgez	v0,0x80034378
80034370:	00000000 	nop
80034374:	ff0f4224 	addiu	v0,v0,4095
80034378:	03130200 	sra	v0,v0,0xc
8003437c:	000002ae 	sw	v0,0(s0)
80034380:	02002386 	lh	v1,2(s1)
80034384:	0400028e 	lw	v0,4(s0)
80034388:	00000000 	nop
8003438c:	18004300 	mult	v0,v1
80034390:	12100000 	mflo	v0
80034394:	02004104 	bgez	v0,0x800343a0
80034398:	00000000 	nop
8003439c:	ff0f4224 	addiu	v0,v0,4095
800343a0:	03130200 	sra	v0,v0,0xc
800343a4:	040002ae 	sw	v0,4(s0)
800343a8:	04002386 	lh	v1,4(s1)
800343ac:	0800028e 	lw	v0,8(s0)
800343b0:	00000000 	nop
800343b4:	18004300 	mult	v0,v1
800343b8:	12100000 	mflo	v0
800343bc:	02004104 	bgez	v0,0x800343c8
800343c0:	00000000 	nop
800343c4:	ff0f4224 	addiu	v0,v0,4095
800343c8:	03130200 	sra	v0,v0,0xc
800343cc:	080002ae 	sw	v0,8(s0)
800343d0:	08003126 	addiu	s1,s1,8
800343d4:	08008232 	andi	v0,s4,0x8
800343d8:	10004010 	beqz	v0,0x8003441c
800343dc:	10000426 	addiu	a0,s0,16
800343e0:	1800028e 	lw	v0,24(s0)
800343e4:	0000238e 	lw	v1,0(s1)
800343e8:	00000000 	nop
800343ec:	21104300 	addu	v0,v0,v1
800343f0:	180002ae 	sw	v0,24(s0)
800343f4:	1c00028e 	lw	v0,28(s0)
800343f8:	0400238e 	lw	v1,4(s1)
800343fc:	00000000 	nop
80034400:	21104300 	addu	v0,v0,v1
80034404:	1c0002ae 	sw	v0,28(s0)
80034408:	2000028e 	lw	v0,32(s0)
8003440c:	0800238e 	lw	v1,8(s1)
80034410:	00000000 	nop
80034414:	21104300 	addu	v0,v0,v1
80034418:	200002ae 	sw	v0,32(s0)
8003441c:	b1d3010c 	jal	0x80074ec4
80034420:	2128a002 	move	a1,s5
80034424:	2120a002 	move	a0,s5
80034428:	61d3010c 	jal	0x80074d84
8003442c:	21280002 	move	a1,s0
80034430:	2120a002 	move	a0,s5
80034434:	55d3010c 	jal	0x80074d54
80034438:	18000526 	addiu	a1,s0,24
8003443c:	0400438e 	lw	v1,4(s2)
80034440:	01000224 	li	v0,1
80034444:	87d30008 	j	0x80034e1c
80034448:	020062a4 	sh	v0,2(v1)
8003444c:	02009232 	andi	s2,s4,0x2
80034450:	20004012 	beqz	s2,0x800344d4
80034454:	0bb6043c 	lui	a0,0xb60b
80034458:	0000238e 	lw	v1,0(s1)
8003445c:	b7608434 	ori	a0,a0,0x60b7
80034460:	18006400 	mult	v1,a0
80034464:	10400000 	mfhi	t0
80034468:	21100301 	addu	v0,t0,v1
8003446c:	03120200 	sra	v0,v0,0x8
80034470:	c31f0300 	sra	v1,v1,0x1f
80034474:	23104300 	subu	v0,v0,v1
80034478:	100002a6 	sh	v0,16(s0)
8003447c:	0400238e 	lw	v1,4(s1)
80034480:	00000000 	nop
80034484:	18006400 	mult	v1,a0
80034488:	10400000 	mfhi	t0
8003448c:	21100301 	addu	v0,t0,v1
80034490:	03120200 	sra	v0,v0,0x8
80034494:	c31f0300 	sra	v1,v1,0x1f
80034498:	23104300 	subu	v0,v0,v1
8003449c:	120002a6 	sh	v0,18(s0)
800344a0:	0800238e 	lw	v1,8(s1)
800344a4:	00000000 	nop
800344a8:	18006400 	mult	v1,a0
800344ac:	2128a002 	move	a1,s5
800344b0:	0c003126 	addiu	s1,s1,12
800344b4:	10000426 	addiu	a0,s0,16
800344b8:	10400000 	mfhi	t0
800344bc:	21100301 	addu	v0,t0,v1
800344c0:	03120200 	sra	v0,v0,0x8
800344c4:	c31f0300 	sra	v1,v1,0x1f
800344c8:	23104300 	subu	v0,v0,v1
800344cc:	b1d3010c 	jal	0x80074ec4
800344d0:	140002a6 	sh	v0,20(s0)
800344d4:	04008232 	andi	v0,s4,0x4
800344d8:	12004010 	beqz	v0,0x80034524
800344dc:	08008232 	andi	v0,s4,0x8
800344e0:	00002286 	lh	v0,0(s1)
800344e4:	00000000 	nop
800344e8:	000002ae 	sw	v0,0(s0)
800344ec:	02002286 	lh	v0,2(s1)
800344f0:	00000000 	nop
800344f4:	040002ae 	sw	v0,4(s0)
800344f8:	04002286 	lh	v0,4(s1)
800344fc:	08003126 	addiu	s1,s1,8
80034500:	04004016 	bnez	s2,0x80034514
80034504:	080002ae 	sw	v0,8(s0)
80034508:	10000426 	addiu	a0,s0,16
8003450c:	b1d3010c 	jal	0x80074ec4
80034510:	2128a002 	move	a1,s5
80034514:	2120a002 	move	a0,s5
80034518:	61d3010c 	jal	0x80074d84
8003451c:	21280002 	move	a1,s0
80034520:	08008232 	andi	v0,s4,0x8
80034524:	3d004010 	beqz	v0,0x8003461c
80034528:	2120a002 	move	a0,s5
8003452c:	0000228e 	lw	v0,0(s1)
80034530:	00000000 	nop
80034534:	180002ae 	sw	v0,24(s0)
80034538:	0400228e 	lw	v0,4(s1)
8003453c:	00000000 	nop
80034540:	1c0002ae 	sw	v0,28(s0)
80034544:	0800228e 	lw	v0,8(s1)
80034548:	18000526 	addiu	a1,s0,24
8003454c:	55d3010c 	jal	0x80074d54
80034550:	200002ae 	sw	v0,32(s0)
80034554:	87d30008 	j	0x80034e1c
80034558:	00000000 	nop
8003455c:	2f00c013 	beqz	s8,0x8003461c
80034560:	00000000 	nop
80034564:	00002696 	lhu	a2,0(s1)
80034568:	b800a58f 	lw	a1,184(sp)
8003456c:	63d2000c 	jal	0x8003498c
80034570:	2120c003 	move	a0,s8
80034574:	080042a6 	sh	v0,8(s2)
80034578:	08004296 	lhu	v0,8(s2)
8003457c:	bc00a88f 	lw	t0,188(sp)
80034580:	80100200 	sll	v0,v0,0x2
80034584:	21104800 	addu	v0,v0,t0
80034588:	00004290 	lbu	v0,0(v0)
8003458c:	87d30008 	j	0x80034e1c
80034590:	0a0042a2 	sb	v0,10(s2)
80034594:	0000258e 	lw	a1,0(s1)
80034598:	00000000 	nop
8003459c:	0300a010 	beqz	a1,0x800345ac
800345a0:	ffff0234 	li	v0,0xffff
800345a4:	0400a214 	bne	a1,v0,0x800345b8
800345a8:	00000000 	nop
800345ac:	0400428e 	lw	v0,4(s2)
800345b0:	87d30008 	j	0x80034e1c
800345b4:	480040ac 	sw	zero,72(v0)
800345b8:	ebd1000c 	jal	0x800347ac
800345bc:	2120c002 	move	a0,s6
800345c0:	0400438e 	lw	v1,4(s2)
800345c4:	0400428c 	lw	v0,4(v0)
800345c8:	87d30008 	j	0x80034e1c
800345cc:	480062ac 	sw	v0,72(v1)
800345d0:	1200c012 	beqz	s6,0x8003461c
800345d4:	00000000 	nop
800345d8:	05008012 	beqz	s4,0x800345f0
800345dc:	01000224 	li	v0,1
800345e0:	0c008212 	beq	s4,v0,0x80034614
800345e4:	2120c002 	move	a0,s6
800345e8:	87d30008 	j	0x80034e1c
800345ec:	00000000 	nop
800345f0:	2120c002 	move	a0,s6
800345f4:	ebd1000c 	jal	0x800347ac
800345f8:	21286002 	move	a1,s3
800345fc:	07004014 	bnez	v0,0x8003461c
80034600:	2120c002 	move	a0,s6
80034604:	fed1000c 	jal	0x800347f8
80034608:	21286002 	move	a1,s3
8003460c:	87d30008 	j	0x80034e1c
80034610:	00000000 	nop
80034614:	4ad2000c 	jal	0x80034928
80034618:	21286002 	move	a1,s3
8003461c:	8000a88f 	lw	t0,128(sp)
80034620:	00000000 	nop
80034624:	80100800 	sll	v0,t0,0x2
80034628:	b000a88f 	lw	t0,176(sp)
8003462c:	00000000 	nop
80034630:	21100201 	addu	v0,t0,v0
80034634:	ac00bf8f 	lw	ra,172(sp)
80034638:	a800be8f 	lw	s8,168(sp)
8003463c:	a400b78f 	lw	s7,164(sp)
80034640:	a000b68f 	lw	s6,160(sp)
80034644:	9c00b58f 	lw	s5,156(sp)
80034648:	9800b48f 	lw	s4,152(sp)
8003464c:	9400b38f 	lw	s3,148(sp)
80034650:	9000b28f 	lw	s2,144(sp)
80034654:	8c00b18f 	lw	s1,140(sp)
80034658:	8800b08f 	lw	s0,136(sp)
8003465c:	b000bd27 	addiu	sp,sp,176
80034660:	0800e003 	jr	ra
80034664:	00000000 	nop
80034668:	c8ffbd27 	addiu	sp,sp,-56
8003466c:	2800b4af 	sw	s4,40(sp)
80034670:	21a0c000 	move	s4,a2
80034674:	2c00b5af 	sw	s5,44(sp)
80034678:	3000bfaf 	sw	ra,48(sp)
8003467c:	2400b3af 	sw	s3,36(sp)
80034680:	2000b2af 	sw	s2,32(sp)
80034684:	1c00b1af 	sw	s1,28(sp)
80034688:	1800b0af 	sw	s0,24(sp)
8003468c:	0400a28c 	lw	v0,4(a1)
80034690:	4800b38f 	lw	s3,72(sp)
80034694:	4c00b28f 	lw	s2,76(sp)
80034698:	0200b194 	lhu	s1,2(a1)
8003469c:	2b208200 	sltu	a0,a0,v0
800346a0:	0f008014 	bnez	a0,0x800346e0
800346a4:	21a8e000 	move	s5,a3
800346a8:	0800a524 	addiu	a1,a1,8
800346ac:	0c002012 	beqz	s1,0x800346e0
800346b0:	21800000 	move	s0,zero
800346b4:	1000b2af 	sw	s2,16(sp)
800346b8:	2120a000 	move	a0,a1
800346bc:	21288002 	move	a1,s4
800346c0:	2130a002 	move	a2,s5
800346c4:	74d2000c 	jal	0x800349d0
800346c8:	21386002 	move	a3,s3
800346cc:	21284000 	move	a1,v0
800346d0:	01001026 	addiu	s0,s0,1
800346d4:	2b101102 	sltu	v0,s0,s1
800346d8:	f6ff4014 	bnez	v0,0x800346b4
800346dc:	00000000 	nop
800346e0:	2110a000 	move	v0,a1
800346e4:	3000bf8f 	lw	ra,48(sp)
800346e8:	2c00b58f 	lw	s5,44(sp)
800346ec:	2800b48f 	lw	s4,40(sp)
800346f0:	2400b38f 	lw	s3,36(sp)
800346f4:	2000b28f 	lw	s2,32(sp)
800346f8:	1c00b18f 	lw	s1,28(sp)
800346fc:	1800b08f 	lw	s0,24(sp)
80034700:	3800bd27 	addiu	sp,sp,56
80034704:	0800e003 	jr	ra
80034708:	00000000 	nop
8003470c:	1680023c 	lui	v0,0x8016
80034710:	90d04224 	addiu	v0,v0,-12144
80034714:	ffff8430 	andi	a0,a0,0xffff
80034718:	80200400 	sll	a0,a0,0x2
8003471c:	21208200 	addu	a0,a0,v0
80034720:	4c830234 	li	v0,0x834c
80034724:	21208200 	addu	a0,a0,v0
80034728:	000085ac 	sw	a1,0(a0)
8003472c:	0800a28c 	lw	v0,8(a1)
80034730:	00000000 	nop
80034734:	2128a200 	addu	a1,a1,v0
80034738:	801f013c 	lui	at,0x1f80
8003473c:	0c0025ac 	sw	a1,12(at)
80034740:	0800e003 	jr	ra
80034744:	00000000 	nop
80034748:	1680023c 	lui	v0,0x8016
8003474c:	0c784424 	addiu	a0,v0,30732
80034750:	10000524 	li	a1,16
80034754:	08000824 	li	t0,8
80034758:	ff000724 	li	a3,255
8003475c:	ffff0634 	li	a2,0xffff
80034760:	38008324 	addiu	v1,a0,56
80034764:	000088a4 	sh	t0,0(a0)
80034768:	caff66a4 	sh	a2,-54(v1)
8003476c:	ccff67a4 	sh	a3,-52(v1)
80034770:	d0ff60ac 	sw	zero,-48(v1)
80034774:	d4ff60ac 	sw	zero,-44(v1)
80034778:	d8ff60ac 	sw	zero,-40(v1)
8003477c:	dcff60ac 	sw	zero,-36(v1)
80034780:	e0ff60ac 	sw	zero,-32(v1)
80034784:	e4ff60ac 	sw	zero,-28(v1)
80034788:	e8ff66ac 	sw	a2,-24(v1)
8003478c:	ecff60ac 	sw	zero,-20(v1)
80034790:	f0ff60ac 	sw	zero,-16(v1)
80034794:	f4ff60ac 	sw	zero,-12(v1)
80034798:	f8ff60ac 	sw	zero,-8(v1)
8003479c:	fcff60ac 	sw	zero,-4(v1)
800347a0:	000060ac 	sw	zero,0(v1)
800347a4:	3c006324 	addiu	v1,v1,60
800347a8:	ffffa224 	addiu	v0,a1,-1
800347ac:	21284000 	move	a1,v0
800347b0:	ffff4230 	andi	v0,v0,0xffff
800347b4:	ebff4014 	bnez	v0,0x80034764
800347b8:	3c008424 	addiu	a0,a0,60
800347bc:	0800e003 	jr	ra
800347c0:	00000000 	nop
800347c4:	1680023c 	lui	v0,0x8016
800347c8:	0c784324 	addiu	v1,v0,30732
800347cc:	10000424 	li	a0,16
800347d0:	f7ff0624 	li	a2,-9
800347d4:	09000524 	li	a1,9
800347d8:	00006294 	lhu	v0,0(v1)
800347dc:	00000000 	nop
800347e0:	24104600 	and	v0,v0,a2
800347e4:	02004010 	beqz	v0,0x800347f0
800347e8:	ffff8224 	addiu	v0,a0,-1
800347ec:	000065a4 	sh	a1,0(v1)
800347f0:	21204000 	move	a0,v0
800347f4:	ffff4230 	andi	v0,v0,0xffff
800347f8:	f7ff4014 	bnez	v0,0x800347d8
800347fc:	3c006324 	addiu	v1,v1,60
80034800:	0800e003 	jr	ra
80034804:	00000000 	nop
80034808:	e8ffbd27 	addiu	sp,sp,-24
8003480c:	1000b0af 	sw	s0,16(sp)
80034810:	21808000 	move	s0,a0
80034814:	1c000012 	beqz	s0,0x80034888
80034818:	1400bfaf 	sw	ra,20(sp)
8003481c:	00000296 	lhu	v0,0(s0)
80034820:	00000000 	nop
80034824:	08004230 	andi	v0,v0,0x8
80034828:	17004010 	beqz	v0,0x80034888
8003482c:	08000224 	li	v0,8
80034830:	3800038e 	lw	v1,56(s0)
80034834:	000002a6 	sh	v0,0(s0)
80034838:	000060ac 	sw	zero,0(v1)
8003483c:	2800048e 	lw	a0,40(s0)
80034840:	ffff0234 	li	v0,0xffff
80034844:	020002a6 	sh	v0,2(s0)
80034848:	ff000224 	li	v0,255
8003484c:	040002a6 	sh	v0,4(s0)
80034850:	ffff0234 	li	v0,0xffff
80034854:	080000ae 	sw	zero,8(s0)
80034858:	0c0000ae 	sw	zero,12(s0)
8003485c:	100000ae 	sw	zero,16(s0)
80034860:	140000ae 	sw	zero,20(s0)
80034864:	180000ae 	sw	zero,24(s0)
80034868:	1c0000ae 	sw	zero,28(s0)
8003486c:	200002ae 	sw	v0,32(s0)
80034870:	04008010 	beqz	a0,0x80034884
80034874:	240000ae 	sw	zero,36(s0)
80034878:	be54000c 	jal	0x800152f8
8003487c:	00000000 	nop
80034880:	280000ae 	sw	zero,40(s0)
80034884:	380000ae 	sw	zero,56(s0)
80034888:	1400bf8f 	lw	ra,20(sp)
8003488c:	1000b08f 	lw	s0,16(sp)
80034890:	1800bd27 	addiu	sp,sp,24
80034894:	0800e003 	jr	ra
80034898:	00000000 	nop
8003489c:	d8ffbd27 	addiu	sp,sp,-40
800348a0:	1680023c 	lui	v0,0x8016
800348a4:	1000b0af 	sw	s0,16(sp)
800348a8:	0c785024 	addiu	s0,v0,30732
800348ac:	1400b1af 	sw	s1,20(sp)
800348b0:	10001124 	li	s1,16
800348b4:	1c00b3af 	sw	s3,28(sp)
800348b8:	f7ff1324 	li	s3,-9
800348bc:	1800b2af 	sw	s2,24(sp)
800348c0:	01001224 	li	s2,1
800348c4:	2000bfaf 	sw	ra,32(sp)
800348c8:	00000296 	lhu	v0,0(s0)
800348cc:	00000000 	nop
800348d0:	24105300 	and	v0,v0,s3
800348d4:	00140200 	sll	v0,v0,0x10
800348d8:	03140200 	sra	v0,v0,0x10
800348dc:	04005214 	bne	v0,s2,0x800348f0
800348e0:	ffff2226 	addiu	v0,s1,-1
800348e4:	02d4000c 	jal	0x80035008
800348e8:	21200002 	move	a0,s0
800348ec:	ffff2226 	addiu	v0,s1,-1
800348f0:	21884000 	move	s1,v0
800348f4:	ffff4230 	andi	v0,v0,0xffff
800348f8:	f3ff4014 	bnez	v0,0x800348c8
800348fc:	3c001026 	addiu	s0,s0,60
80034900:	2000bf8f 	lw	ra,32(sp)
80034904:	1c00b38f 	lw	s3,28(sp)
80034908:	1800b28f 	lw	s2,24(sp)
8003490c:	1400b18f 	lw	s1,20(sp)
80034910:	1000b08f 	lw	s0,16(sp)
80034914:	2800bd27 	addiu	sp,sp,40
80034918:	0800e003 	jr	ra
8003491c:	00000000 	nop
80034920:	e0ffbd27 	addiu	sp,sp,-32
80034924:	1680023c 	lui	v0,0x8016
80034928:	1000b0af 	sw	s0,16(sp)
8003492c:	0c785024 	addiu	s0,v0,30732
80034930:	1400b1af 	sw	s1,20(sp)
80034934:	10001124 	li	s1,16
80034938:	1800b2af 	sw	s2,24(sp)
8003493c:	f7ff1224 	li	s2,-9
80034940:	1c00bfaf 	sw	ra,28(sp)
80034944:	00000296 	lhu	v0,0(s0)
80034948:	00000000 	nop
8003494c:	24105200 	and	v0,v0,s2
80034950:	04004010 	beqz	v0,0x80034964
80034954:	ffff2226 	addiu	v0,s1,-1
80034958:	02d4000c 	jal	0x80035008
8003495c:	21200002 	move	a0,s0
80034960:	ffff2226 	addiu	v0,s1,-1
80034964:	21884000 	move	s1,v0
80034968:	00140200 	sll	v0,v0,0x10
8003496c:	f5ff4014 	bnez	v0,0x80034944
80034970:	3c001026 	addiu	s0,s0,60
80034974:	1c00bf8f 	lw	ra,28(sp)
80034978:	1800b28f 	lw	s2,24(sp)
8003497c:	1400b18f 	lw	s1,20(sp)
80034980:	1000b08f 	lw	s0,16(sp)
80034984:	2000bd27 	addiu	sp,sp,32
80034988:	0800e003 	jr	ra
8003498c:	00000000 	nop
80034990:	e8ffbd27 	addiu	sp,sp,-24
80034994:	1000b0af 	sw	s0,16(sp)
80034998:	21808000 	move	s0,a0
8003499c:	1680023c 	lui	v0,0x8016
800349a0:	0c784224 	addiu	v0,v0,30732
800349a4:	10000424 	li	a0,16
800349a8:	f7ff0524 	li	a1,-9
800349ac:	ff000624 	li	a2,255
800349b0:	1400bfaf 	sw	ra,20(sp)
800349b4:	000002ae 	sw	v0,0(s0)
800349b8:	0000038e 	lw	v1,0(s0)
800349bc:	00000000 	nop
800349c0:	00006294 	lhu	v0,0(v1)
800349c4:	00000000 	nop
800349c8:	24104500 	and	v0,v0,a1
800349cc:	16004010 	beqz	v0,0x80034a28
800349d0:	3c006224 	addiu	v0,v1,60
800349d4:	000002ae 	sw	v0,0(s0)
800349d8:	ffff8224 	addiu	v0,a0,-1
800349dc:	21204000 	move	a0,v0
800349e0:	ffff4230 	andi	v0,v0,0xffff
800349e4:	f4ff4014 	bnez	v0,0x800349b8
800349e8:	00000000 	nop
800349ec:	27d4000c 	jal	0x8003509c
800349f0:	00000000 	nop
800349f4:	1680023c 	lui	v0,0x8016
800349f8:	0c784224 	addiu	v0,v0,30732
800349fc:	000002ae 	sw	v0,0(s0)
80034a00:	10000424 	li	a0,16
80034a04:	f7ff0524 	li	a1,-9
80034a08:	ff000624 	li	a2,255
80034a0c:	0000038e 	lw	v1,0(s0)
80034a10:	00000000 	nop
80034a14:	00006294 	lhu	v0,0(v1)
80034a18:	00000000 	nop
80034a1c:	24104500 	and	v0,v0,a1
80034a20:	03004014 	bnez	v0,0x80034a30
80034a24:	3c006224 	addiu	v0,v1,60
80034a28:	93d40008 	j	0x8003524c
80034a2c:	040066a4 	sh	a2,4(v1)
80034a30:	000002ae 	sw	v0,0(s0)
80034a34:	ffff8224 	addiu	v0,a0,-1
80034a38:	21204000 	move	a0,v0
80034a3c:	ffff4230 	andi	v0,v0,0xffff
80034a40:	f2ff4014 	bnez	v0,0x80034a0c
80034a44:	00000000 	nop
80034a48:	000000ae 	sw	zero,0(s0)
80034a4c:	1400bf8f 	lw	ra,20(sp)
80034a50:	1000b08f 	lw	s0,16(sp)
80034a54:	1800bd27 	addiu	sp,sp,24
80034a58:	0800e003 	jr	ra
80034a5c:	00000000 	nop
80034a60:	e0ffbd27 	addiu	sp,sp,-32
80034a64:	1000b0af 	sw	s0,16(sp)
80034a68:	21808000 	move	s0,a0
80034a6c:	1800bfaf 	sw	ra,24(sp)
80034a70:	1400b1af 	sw	s1,20(sp)
80034a74:	4800048e 	lw	a0,72(s0)
80034a78:	00000000 	nop
80034a7c:	6b008014 	bnez	a0,0x80034c2c
80034a80:	801f113c 	lui	s1,0x1f80
80034a84:	801f053c 	lui	a1,0x1f80
80034a88:	a800a534 	ori	a1,a1,0xa8
80034a8c:	0000ac8c 	lw	t4,0(a1)
80034a90:	0400ad8c 	lw	t5,4(a1)
80034a94:	0000cc48 	ctc2	t4,$0
80034a98:	0008cd48 	ctc2	t5,$1
80034a9c:	0800ac8c 	lw	t4,8(a1)
80034aa0:	0c00ad8c 	lw	t5,12(a1)
80034aa4:	1000ae8c 	lw	t6,16(a1)
80034aa8:	0010cc48 	ctc2	t4,$2
80034aac:	0018cd48 	ctc2	t5,$3
80034ab0:	0020ce48 	ctc2	t6,$4
80034ab4:	1400ac8c 	lw	t4,20(a1)
80034ab8:	1800ad8c 	lw	t5,24(a1)
80034abc:	0028cc48 	ctc2	t4,$5
80034ac0:	1c00ae8c 	lw	t6,28(a1)
80034ac4:	0030cd48 	ctc2	t5,$6
80034ac8:	0038ce48 	ctc2	t6,$7
80034acc:	18000296 	lhu	v0,24(s0)
80034ad0:	00000000 	nop
80034ad4:	9c0022a6 	sh	v0,156(s1)
80034ad8:	1c000296 	lhu	v0,28(s0)
80034adc:	00000000 	nop
80034ae0:	9e0022a6 	sh	v0,158(s1)
80034ae4:	20000296 	lhu	v0,32(s0)
80034ae8:	801f053c 	lui	a1,0x1f80
80034aec:	9c00a534 	ori	a1,a1,0x9c
80034af0:	a00022a6 	sh	v0,160(s1)
80034af4:	0000a0c8 	lwc2	$0,0(a1)
80034af8:	0400a1c8 	lwc2	$1,4(a1)
	...
80034b04:	1200484a 	c2	0x480012
80034b08:	38000226 	addiu	v0,s0,56
80034b0c:	000059e8 	swc2	$25,0(v0)
80034b10:	04005ae8 	swc2	$26,4(v0)
80034b14:	08005be8 	swc2	$27,8(v0)
80034b18:	24000326 	addiu	v1,s0,36
80034b1c:	14006c8c 	lw	t4,20(v1)
80034b20:	18006d8c 	lw	t5,24(v1)
80034b24:	0028cc48 	ctc2	t4,$5
80034b28:	1c006e8c 	lw	t6,28(v1)
80034b2c:	0030cd48 	ctc2	t5,$6
80034b30:	0038ce48 	ctc2	t6,$7
80034b34:	04000226 	addiu	v0,s0,4
80034b38:	00004c94 	lhu	t4,0(v0)
80034b3c:	06004d94 	lhu	t5,6(v0)
80034b40:	0c004e94 	lhu	t6,12(v0)
80034b44:	00488c48 	mtc2	t4,$9
80034b48:	00508d48 	mtc2	t5,$10
80034b4c:	00588e48 	mtc2	t6,$11
	...
80034b58:	12e0494a 	c2	0x49e012
80034b5c:	00480c48 	mfc2	t4,$9
80034b60:	00500d48 	mfc2	t5,$10
80034b64:	00580e48 	mfc2	t6,$11
80034b68:	00006ca4 	sh	t4,0(v1)
80034b6c:	06006da4 	sh	t5,6(v1)
80034b70:	0c006ea4 	sh	t6,12(v1)
80034b74:	06000226 	addiu	v0,s0,6
80034b78:	00004c94 	lhu	t4,0(v0)
80034b7c:	06004d94 	lhu	t5,6(v0)
80034b80:	0c004e94 	lhu	t6,12(v0)
80034b84:	00488c48 	mtc2	t4,$9
80034b88:	00508d48 	mtc2	t5,$10
80034b8c:	00588e48 	mtc2	t6,$11
	...
80034b98:	12e0494a 	c2	0x49e012
80034b9c:	26000226 	addiu	v0,s0,38
80034ba0:	00480c48 	mfc2	t4,$9
80034ba4:	00500d48 	mfc2	t5,$10
80034ba8:	00580e48 	mfc2	t6,$11
80034bac:	00004ca4 	sh	t4,0(v0)
80034bb0:	06004da4 	sh	t5,6(v0)
80034bb4:	0c004ea4 	sh	t6,12(v0)
80034bb8:	08000226 	addiu	v0,s0,8
80034bbc:	00004c94 	lhu	t4,0(v0)
80034bc0:	06004d94 	lhu	t5,6(v0)
80034bc4:	0c004e94 	lhu	t6,12(v0)
80034bc8:	00488c48 	mtc2	t4,$9
80034bcc:	00508d48 	mtc2	t5,$10
80034bd0:	00588e48 	mtc2	t6,$11
	...
80034bdc:	12e0494a 	c2	0x49e012
80034be0:	28000226 	addiu	v0,s0,40
80034be4:	00480c48 	mfc2	t4,$9
80034be8:	00500d48 	mfc2	t5,$10
80034bec:	00580e48 	mfc2	t6,$11
80034bf0:	00004ca4 	sh	t4,0(v0)
80034bf4:	06004da4 	sh	t5,6(v0)
80034bf8:	0c004ea4 	sh	t6,12(v0)
80034bfc:	00006c8c 	lw	t4,0(v1)
80034c00:	04006d8c 	lw	t5,4(v1)
80034c04:	0000cc48 	ctc2	t4,$0
80034c08:	0008cd48 	ctc2	t5,$1
80034c0c:	08006c8c 	lw	t4,8(v1)
80034c10:	0c006d8c 	lw	t5,12(v1)
80034c14:	10006e8c 	lw	t6,16(v1)
80034c18:	0010cc48 	ctc2	t4,$2
80034c1c:	0018cd48 	ctc2	t5,$3
80034c20:	0020ce48 	ctc2	t6,$4
80034c24:	7ad50008 	j	0x800355e8
80034c28:	01000224 	li	v0,1
80034c2c:	00000296 	lhu	v0,0(s0)
80034c30:	00000000 	nop
80034c34:	13004010 	beqz	v0,0x80034c84
80034c38:	24000226 	addiu	v0,s0,36
80034c3c:	14004c8c 	lw	t4,20(v0)
80034c40:	18004d8c 	lw	t5,24(v0)
80034c44:	0028cc48 	ctc2	t4,$5
80034c48:	1c004e8c 	lw	t6,28(v0)
80034c4c:	0030cd48 	ctc2	t5,$6
80034c50:	0038ce48 	ctc2	t6,$7
80034c54:	00004c8c 	lw	t4,0(v0)
80034c58:	04004d8c 	lw	t5,4(v0)
80034c5c:	0000cc48 	ctc2	t4,$0
80034c60:	0008cd48 	ctc2	t5,$1
80034c64:	08004c8c 	lw	t4,8(v0)
80034c68:	0c004d8c 	lw	t5,12(v0)
80034c6c:	10004e8c 	lw	t6,16(v0)
80034c70:	0010cc48 	ctc2	t4,$2
80034c74:	0018cd48 	ctc2	t5,$3
80034c78:	0020ce48 	ctc2	t6,$4
80034c7c:	7bd50008 	j	0x800355ec
80034c80:	00000000 	nop
80034c84:	98d4000c 	jal	0x80035260
80034c88:	00000000 	nop
80034c8c:	18000296 	lhu	v0,24(s0)
80034c90:	00000000 	nop
80034c94:	9c0022a6 	sh	v0,156(s1)
80034c98:	1c000296 	lhu	v0,28(s0)
80034c9c:	00000000 	nop
80034ca0:	9e0022a6 	sh	v0,158(s1)
80034ca4:	20000296 	lhu	v0,32(s0)
80034ca8:	801f053c 	lui	a1,0x1f80
80034cac:	9c00a534 	ori	a1,a1,0x9c
80034cb0:	a00022a6 	sh	v0,160(s1)
80034cb4:	0000a0c8 	lwc2	$0,0(a1)
80034cb8:	0400a1c8 	lwc2	$1,4(a1)
	...
80034cc4:	1200484a 	c2	0x480012
80034cc8:	38000226 	addiu	v0,s0,56
80034ccc:	000059e8 	swc2	$25,0(v0)
80034cd0:	04005ae8 	swc2	$26,4(v0)
80034cd4:	08005be8 	swc2	$27,8(v0)
80034cd8:	24000326 	addiu	v1,s0,36
80034cdc:	14006c8c 	lw	t4,20(v1)
80034ce0:	18006d8c 	lw	t5,24(v1)
80034ce4:	0028cc48 	ctc2	t4,$5
80034ce8:	1c006e8c 	lw	t6,28(v1)
80034cec:	0030cd48 	ctc2	t5,$6
80034cf0:	0038ce48 	ctc2	t6,$7
80034cf4:	04000226 	addiu	v0,s0,4
80034cf8:	00004c94 	lhu	t4,0(v0)
80034cfc:	06004d94 	lhu	t5,6(v0)
80034d00:	0c004e94 	lhu	t6,12(v0)
80034d04:	00488c48 	mtc2	t4,$9
80034d08:	00508d48 	mtc2	t5,$10
80034d0c:	00588e48 	mtc2	t6,$11
	...
80034d18:	12e0494a 	c2	0x49e012
80034d1c:	00480c48 	mfc2	t4,$9
80034d20:	00500d48 	mfc2	t5,$10
80034d24:	00580e48 	mfc2	t6,$11
80034d28:	00006ca4 	sh	t4,0(v1)
80034d2c:	06006da4 	sh	t5,6(v1)
80034d30:	0c006ea4 	sh	t6,12(v1)
80034d34:	06000226 	addiu	v0,s0,6
80034d38:	00004c94 	lhu	t4,0(v0)
80034d3c:	06004d94 	lhu	t5,6(v0)
80034d40:	0c004e94 	lhu	t6,12(v0)
80034d44:	00488c48 	mtc2	t4,$9
80034d48:	00508d48 	mtc2	t5,$10
80034d4c:	00588e48 	mtc2	t6,$11
	...
80034d58:	12e0494a 	c2	0x49e012
80034d5c:	26000226 	addiu	v0,s0,38
80034d60:	00480c48 	mfc2	t4,$9
80034d64:	00500d48 	mfc2	t5,$10
80034d68:	00580e48 	mfc2	t6,$11
80034d6c:	00004ca4 	sh	t4,0(v0)
80034d70:	06004da4 	sh	t5,6(v0)
80034d74:	0c004ea4 	sh	t6,12(v0)
80034d78:	08000226 	addiu	v0,s0,8
80034d7c:	00004c94 	lhu	t4,0(v0)
80034d80:	06004d94 	lhu	t5,6(v0)
80034d84:	0c004e94 	lhu	t6,12(v0)
80034d88:	00488c48 	mtc2	t4,$9
80034d8c:	00508d48 	mtc2	t5,$10
80034d90:	00588e48 	mtc2	t6,$11
	...
80034d9c:	12e0494a 	c2	0x49e012
80034da0:	28000226 	addiu	v0,s0,40
80034da4:	00480c48 	mfc2	t4,$9
80034da8:	00500d48 	mfc2	t5,$10
80034dac:	00580e48 	mfc2	t6,$11
80034db0:	00004ca4 	sh	t4,0(v0)
80034db4:	06004da4 	sh	t5,6(v0)
80034db8:	0c004ea4 	sh	t6,12(v0)
80034dbc:	00006c8c 	lw	t4,0(v1)
80034dc0:	04006d8c 	lw	t5,4(v1)
80034dc4:	0000cc48 	ctc2	t4,$0
80034dc8:	0008cd48 	ctc2	t5,$1
80034dcc:	08006c8c 	lw	t4,8(v1)
80034dd0:	0c006d8c 	lw	t5,12(v1)
80034dd4:	10006e8c 	lw	t6,16(v1)
80034dd8:	0010cc48 	ctc2	t4,$2
80034ddc:	0018cd48 	ctc2	t5,$3
80034de0:	0020ce48 	ctc2	t6,$4
80034de4:	01000224 	li	v0,1
80034de8:	000002a6 	sh	v0,0(s0)
80034dec:	1800bf8f 	lw	ra,24(sp)
80034df0:	1400b18f 	lw	s1,20(sp)
80034df4:	1000b08f 	lw	s0,16(sp)
80034df8:	2000bd27 	addiu	sp,sp,32
80034dfc:	0800e003 	jr	ra
80034e00:	00000000 	nop
80034e04:	d8ffbd27 	addiu	sp,sp,-40
80034e08:	801f033c 	lui	v1,0x1f80
80034e0c:	a400638c 	lw	v1,164(v1)
80034e10:	ffff0224 	li	v0,-1
80034e14:	2000bfaf 	sw	ra,32(sp)
80034e18:	1c00b3af 	sw	s3,28(sp)
80034e1c:	1800b2af 	sw	s2,24(sp)
80034e20:	1400b1af 	sw	s1,20(sp)
80034e24:	1000b0af 	sw	s0,16(sp)
80034e28:	0400718c 	lw	s1,4(v1)
80034e2c:	0000638c 	lw	v1,0(v1)
80034e30:	ffff3126 	addiu	s1,s1,-1
80034e34:	11002212 	beq	s1,v0,0x80034e7c
80034e38:	21904000 	move	s2,v0
80034e3c:	ffff1334 	li	s3,0xffff
80034e40:	04007024 	addiu	s0,v1,4
80034e44:	0800028e 	lw	v0,8(s0)
80034e48:	00000000 	nop
80034e4c:	08005210 	beq	v0,s2,0x80034e70
80034e50:	00000000 	nop
80034e54:	04000296 	lhu	v0,4(s0)
80034e58:	00000000 	nop
80034e5c:	04005310 	beq	v0,s3,0x80034e70
80034e60:	00000000 	nop
80034e64:	0000048e 	lw	a0,0(s0)
80034e68:	98d4000c 	jal	0x80035260
80034e6c:	00000000 	nop
80034e70:	ffff3126 	addiu	s1,s1,-1
80034e74:	f3ff3216 	bne	s1,s2,0x80034e44
80034e78:	10001026 	addiu	s0,s0,16
80034e7c:	2000bf8f 	lw	ra,32(sp)
80034e80:	1c00b38f 	lw	s3,28(sp)
80034e84:	1800b28f 	lw	s2,24(sp)
80034e88:	1400b18f 	lw	s1,20(sp)
80034e8c:	1000b08f 	lw	s0,16(sp)
80034e90:	2800bd27 	addiu	sp,sp,40
80034e94:	0800e003 	jr	ra
80034e98:	00000000 	nop
80034e9c:	c8ffbd27 	addiu	sp,sp,-56
80034ea0:	2800b2af 	sw	s2,40(sp)
80034ea4:	21908000 	move	s2,a0
80034ea8:	2400b1af 	sw	s1,36(sp)
80034eac:	2188a000 	move	s1,a1
80034eb0:	2c00b3af 	sw	s3,44(sp)
80034eb4:	2198c000 	move	s3,a2
80034eb8:	3000b4af 	sw	s4,48(sp)
80034ebc:	1680023c 	lui	v0,0x8016
80034ec0:	90d04224 	addiu	v0,v0,-12144
80034ec4:	80181100 	sll	v1,s1,0x2
80034ec8:	21186200 	addu	v1,v1,v0
80034ecc:	4c830234 	li	v0,0x834c
80034ed0:	3400bfaf 	sw	ra,52(sp)
80034ed4:	2000b0af 	sw	s0,32(sp)
80034ed8:	0000448e 	lw	a0,0(s2)
80034edc:	21186200 	addu	v1,v1,v0
80034ee0:	1800a4af 	sw	a0,24(sp)
80034ee4:	0000708c 	lw	s0,0(v1)
80034ee8:	4e008014 	bnez	a0,0x80035024
80034eec:	21a0e000 	move	s4,a3
80034ef0:	64d4000c 	jal	0x80035190
80034ef4:	1800a427 	addiu	a0,sp,24
80034ef8:	1800a28f 	lw	v0,24(sp)
80034efc:	00000000 	nop
80034f00:	04004014 	bnez	v0,0x80034f14
80034f04:	00000000 	nop
80034f08:	a1d60008 	j	0x80035a84
80034f0c:	21100000 	move	v0,zero
80034f10:	1800a28f 	lw	v0,24(sp)
80034f14:	00000000 	nop
80034f18:	2800448c 	lw	a0,40(v0)
80034f1c:	020051a4 	sh	s1,2(v0)
80034f20:	06008010 	beqz	a0,0x80034f3c
80034f24:	380052ac 	sw	s2,56(v0)
80034f28:	be54000c 	jal	0x800152f8
80034f2c:	00000000 	nop
80034f30:	1800a28f 	lw	v0,24(sp)
80034f34:	00000000 	nop
80034f38:	280040ac 	sw	zero,40(v0)
80034f3c:	06000296 	lhu	v0,6(s0)
80034f40:	94000424 	li	a0,148
80034f44:	18004400 	mult	v0,a0
80034f48:	12200000 	mflo	a0
80034f4c:	b454000c 	jal	0x800152d0
80034f50:	00000000 	nop
80034f54:	1800a58f 	lw	a1,24(sp)
80034f58:	00000000 	nop
80034f5c:	2800a2ac 	sw	v0,40(a1)
80034f60:	06000396 	lhu	v1,6(s0)
80034f64:	00000000 	nop
80034f68:	00190300 	sll	v1,v1,0x4
80034f6c:	21104300 	addu	v0,v0,v1
80034f70:	2c00a2ac 	sw	v0,44(a1)
80034f74:	06000496 	lhu	a0,6(s0)
80034f78:	00000000 	nop
80034f7c:	80180400 	sll	v1,a0,0x2
80034f80:	21186400 	addu	v1,v1,a0
80034f84:	00190300 	sll	v1,v1,0x4
80034f88:	21104300 	addu	v0,v0,v1
80034f8c:	3000a2ac 	sw	v0,48(a1)
80034f90:	06000496 	lhu	a0,6(s0)
80034f94:	00000000 	nop
80034f98:	80180400 	sll	v1,a0,0x2
80034f9c:	21186400 	addu	v1,v1,a0
80034fa0:	c0180300 	sll	v1,v1,0x3
80034fa4:	2800a48c 	lw	a0,40(a1)
80034fa8:	21104300 	addu	v0,v0,v1
80034fac:	0f008014 	bnez	a0,0x80034fec
80034fb0:	3400a2ac 	sw	v0,52(a1)
80034fb4:	68d0000c 	jal	0x800341a0
80034fb8:	00000000 	nop
80034fbc:	27d4000c 	jal	0x8003509c
80034fc0:	00000000 	nop
80034fc4:	89d0000c 	jal	0x80034224
80034fc8:	00000000 	nop
80034fcc:	48d4000c 	jal	0x80035120
80034fd0:	00000000 	nop
80034fd4:	21100000 	move	v0,zero
80034fd8:	1800a48f 	lw	a0,24(sp)
80034fdc:	ffff0334 	li	v1,0xffff
80034fe0:	380080ac 	sw	zero,56(a0)
80034fe4:	a1d60008 	j	0x80035a84
80034fe8:	020083a4 	sh	v1,2(a0)
80034fec:	000045ae 	sw	a1,0(s2)
80034ff0:	1800a48f 	lw	a0,24(sp)
80034ff4:	06000596 	lhu	a1,6(s0)
80034ff8:	b7d1000c 	jal	0x800346dc
80034ffc:	00000000 	nop
80035000:	0c00028e 	lw	v0,12(s0)
80035004:	1800a38f 	lw	v1,24(sp)
80035008:	21100202 	addu	v0,s0,v0
8003500c:	080062ac 	sw	v0,8(v1)
80035010:	1000028e 	lw	v0,16(s0)
80035014:	00000000 	nop
80035018:	21100202 	addu	v0,s0,v0
8003501c:	13d60008 	j	0x8003584c
80035020:	0c0062ac 	sw	v0,12(v1)
80035024:	02008294 	lhu	v0,2(a0)
80035028:	00000000 	nop
8003502c:	07005110 	beq	v0,s1,0x8003504c
80035030:	00000000 	nop
80035034:	02d4000c 	jal	0x80035008
80035038:	00000000 	nop
8003503c:	1800a38f 	lw	v1,24(sp)
80035040:	ff000224 	li	v0,255
80035044:	c4d50008 	j	0x80035710
80035048:	040062a4 	sh	v0,4(v1)
8003504c:	1800a48f 	lw	a0,24(sp)
80035050:	00000000 	nop
80035054:	04008294 	lhu	v0,4(a0)
80035058:	00000000 	nop
8003505c:	28005310 	beq	v0,s3,0x80035100
80035060:	80181300 	sll	v1,s3,0x2
80035064:	1400028e 	lw	v0,20(s0)
80035068:	00000000 	nop
8003506c:	21100202 	addu	v0,s0,v0
80035070:	21186200 	addu	v1,v1,v0
80035074:	0000628c 	lw	v0,0(v1)
80035078:	00000000 	nop
8003507c:	21100202 	addu	v0,s0,v0
80035080:	04004324 	addiu	v1,v0,4
80035084:	100083ac 	sw	v1,16(a0)
80035088:	0400438c 	lw	v1,4(v0)
8003508c:	08004224 	addiu	v0,v0,8
80035090:	100082ac 	sw	v0,16(a0)
80035094:	240082ac 	sw	v0,36(a0)
80035098:	feff6224 	addiu	v0,v1,-2
8003509c:	180083ac 	sw	v1,24(a0)
800350a0:	ffff6324 	addiu	v1,v1,-1
800350a4:	0c006010 	beqz	v1,0x800350d8
800350a8:	140082ac 	sw	v0,20(a0)
800350ac:	21308000 	move	a2,a0
800350b0:	1400c28c 	lw	v0,20(a2)
800350b4:	2400c48c 	lw	a0,36(a2)
800350b8:	21284000 	move	a1,v0
800350bc:	00008394 	lhu	v1,0(a0)
800350c0:	ffff4224 	addiu	v0,v0,-1
800350c4:	1400c2ac 	sw	v0,20(a2)
800350c8:	80180300 	sll	v1,v1,0x2
800350cc:	21208300 	addu	a0,a0,v1
800350d0:	f7ffa014 	bnez	a1,0x800350b0
800350d4:	2400c4ac 	sw	a0,36(a2)
800350d8:	1800a38f 	lw	v1,24(sp)
800350dc:	00000000 	nop
800350e0:	2400628c 	lw	v0,36(v1)
800350e4:	1000648c 	lw	a0,16(v1)
800350e8:	0400458c 	lw	a1,4(v0)
800350ec:	ffff0224 	li	v0,-1
800350f0:	240064ac 	sw	a0,36(v1)
800350f4:	140060ac 	sw	zero,20(v1)
800350f8:	200062ac 	sw	v0,32(v1)
800350fc:	1c0065ac 	sw	a1,28(v1)
80035100:	1800a58f 	lw	a1,24(sp)
80035104:	00000000 	nop
80035108:	1c00a28c 	lw	v0,28(a1)
8003510c:	00000000 	nop
80035110:	18005400 	mult	v0,s4
80035114:	2000a38c 	lw	v1,32(a1)
80035118:	12400000 	mflo	t0
8003511c:	028b0800 	srl	s1,t0,0xc
80035120:	2b102302 	sltu	v0,s1,v1
80035124:	2a004010 	beqz	v0,0x800351d0
80035128:	0400b3a4 	sh	s3,4(a1)
8003512c:	ffff0224 	li	v0,-1
80035130:	27006210 	beq	v1,v0,0x800351d0
80035134:	00000000 	nop
80035138:	1400a28c 	lw	v0,20(a1)
8003513c:	1800a48c 	lw	a0,24(a1)
80035140:	21184000 	move	v1,v0
80035144:	01004224 	addiu	v0,v0,1
80035148:	2b186400 	sltu	v1,v1,a0
8003514c:	1b006010 	beqz	v1,0x800351bc
80035150:	1400a2ac 	sw	v0,20(a1)
80035154:	1800a38f 	lw	v1,24(sp)
80035158:	00000000 	nop
8003515c:	0c00628c 	lw	v0,12(v1)
80035160:	2400648c 	lw	a0,36(v1)
80035164:	1000a2af 	sw	v0,16(sp)
80035168:	0800028e 	lw	v0,8(s0)
8003516c:	00000000 	nop
80035170:	21100202 	addu	v0,s0,v0
80035174:	04004224 	addiu	v0,v0,4
80035178:	1400a2af 	sw	v0,20(sp)
8003517c:	0400848c 	lw	a0,4(a0)
80035180:	2400658c 	lw	a1,36(v1)
80035184:	3400668c 	lw	a2,52(v1)
80035188:	0800678c 	lw	a3,8(v1)
8003518c:	9ad3000c 	jal	0x80034e68
80035190:	00000000 	nop
80035194:	1800a48f 	lw	a0,24(sp)
80035198:	00000000 	nop
8003519c:	1400838c 	lw	v1,20(a0)
800351a0:	1800858c 	lw	a1,24(a0)
800351a4:	240082ac 	sw	v0,36(a0)
800351a8:	21106000 	move	v0,v1
800351ac:	01006324 	addiu	v1,v1,1
800351b0:	2b104500 	sltu	v0,v0,a1
800351b4:	e7ff4014 	bnez	v0,0x80035154
800351b8:	140083ac 	sw	v1,20(a0)
800351bc:	1800a28f 	lw	v0,24(sp)
800351c0:	00000000 	nop
800351c4:	1000438c 	lw	v1,16(v0)
800351c8:	140040ac 	sw	zero,20(v0)
800351cc:	240043ac 	sw	v1,36(v0)
800351d0:	1800a38f 	lw	v1,24(sp)
800351d4:	00000000 	nop
800351d8:	3400628c 	lw	v0,52(v1)
800351dc:	801f013c 	lui	at,0x1f80
800351e0:	a40022ac 	sw	v0,164(at)
800351e4:	2400628c 	lw	v0,36(v1)
800351e8:	00000000 	nop
800351ec:	0400428c 	lw	v0,4(v0)
800351f0:	00000000 	nop
800351f4:	2b102202 	sltu	v0,s1,v0
800351f8:	1e004014 	bnez	v0,0x80035274
800351fc:	00000000 	nop
80035200:	1800a38f 	lw	v1,24(sp)
80035204:	00000000 	nop
80035208:	0c00628c 	lw	v0,12(v1)
8003520c:	00000000 	nop
80035210:	1000a2af 	sw	v0,16(sp)
80035214:	0800028e 	lw	v0,8(s0)
80035218:	00000000 	nop
8003521c:	21100202 	addu	v0,s0,v0
80035220:	04004224 	addiu	v0,v0,4
80035224:	1400a2af 	sw	v0,20(sp)
80035228:	2400658c 	lw	a1,36(v1)
8003522c:	3400668c 	lw	a2,52(v1)
80035230:	0800678c 	lw	a3,8(v1)
80035234:	9ad3000c 	jal	0x80034e68
80035238:	21202002 	move	a0,s1
8003523c:	1800a38f 	lw	v1,24(sp)
80035240:	81d5000c 	jal	0x80035604
80035244:	240062ac 	sw	v0,36(v1)
80035248:	1800a38f 	lw	v1,24(sp)
8003524c:	00000000 	nop
80035250:	1400628c 	lw	v0,20(v1)
80035254:	2400648c 	lw	a0,36(v1)
80035258:	01004224 	addiu	v0,v0,1
8003525c:	140062ac 	sw	v0,20(v1)
80035260:	0400828c 	lw	v0,4(a0)
80035264:	00000000 	nop
80035268:	2b102202 	sltu	v0,s1,v0
8003526c:	e4ff4010 	beqz	v0,0x80035200
80035270:	00000000 	nop
80035274:	1800a28f 	lw	v0,24(sp)
80035278:	0a000324 	li	v1,10
8003527c:	200051ac 	sw	s1,32(v0)
80035280:	000043a4 	sh	v1,0(v0)
80035284:	3400bf8f 	lw	ra,52(sp)
80035288:	3000b48f 	lw	s4,48(sp)
8003528c:	2c00b38f 	lw	s3,44(sp)
80035290:	2800b28f 	lw	s2,40(sp)
80035294:	2400b18f 	lw	s1,36(sp)
80035298:	2000b08f 	lw	s0,32(sp)
8003529c:	3800bd27 	addiu	sp,sp,56
800352a0:	0800e003 	jr	ra
800352a4:	00000000 	nop
800352a8:	e0ffbd27 	addiu	sp,sp,-32
800352ac:	1680023c 	lui	v0,0x8016
800352b0:	90d04224 	addiu	v0,v0,-12144
800352b4:	80180500 	sll	v1,a1,0x2
800352b8:	21186200 	addu	v1,v1,v0
800352bc:	4c830234 	li	v0,0x834c
800352c0:	1400b1af 	sw	s1,20(sp)
800352c4:	21886200 	addu	s1,v1,v0
800352c8:	1c00bfaf 	sw	ra,28(sp)
800352cc:	1800b2af 	sw	s2,24(sp)
800352d0:	1000b0af 	sw	s0,16(sp)
800352d4:	0000238e 	lw	v1,0(s1)
800352d8:	00000000 	nop
800352dc:	04006294 	lhu	v0,4(v1)
800352e0:	0000908c 	lw	s0,0(a0)
800352e4:	15004014 	bnez	v0,0x8003533c
800352e8:	801f123c 	lui	s2,0x1f80
800352ec:	06000012 	beqz	s0,0x80035308
800352f0:	00000000 	nop
800352f4:	02d4000c 	jal	0x80035008
800352f8:	21200002 	move	a0,s0
800352fc:	4fd0000c 	jal	0x8003413c
80035300:	21200002 	move	a0,s0
80035304:	0000238e 	lw	v1,0(s1)
80035308:	00000000 	nop
8003530c:	0800628c 	lw	v0,8(v1)
80035310:	00000000 	nop
80035314:	21186200 	addu	v1,v1,v0
80035318:	0c006224 	addiu	v0,v1,12
8003531c:	0c0043ae 	sw	v1,12(s2)
80035320:	200042ae 	sw	v0,32(s2)
80035324:	0c00648c 	lw	a0,12(v1)
80035328:	01000224 	li	v0,1
8003532c:	0c008424 	addiu	a0,a0,12
80035330:	21186400 	addu	v1,v1,a0
80035334:	d9d60008 	j	0x80035b64
80035338:	480043ae 	sw	v1,72(s2)
8003533c:	06006294 	lhu	v0,6(v1)
80035340:	00000000 	nop
80035344:	05004010 	beqz	v0,0x8003535c
80035348:	00000000 	nop
8003534c:	a7d5000c 	jal	0x8003569c
80035350:	00000000 	nop
80035354:	d9d60008 	j	0x80035b64
80035358:	00000000 	nop
8003535c:	d9d0000c 	jal	0x80034364
80035360:	00000000 	nop
80035364:	1c00bf8f 	lw	ra,28(sp)
80035368:	1800b28f 	lw	s2,24(sp)
8003536c:	1400b18f 	lw	s1,20(sp)
80035370:	1000b08f 	lw	s0,16(sp)
80035374:	2000bd27 	addiu	sp,sp,32
80035378:	0800e003 	jr	ra
8003537c:	00000000 	nop
80035380:	c0ffbd27 	addiu	sp,sp,-64
80035384:	1680023c 	lui	v0,0x8016
80035388:	90d04224 	addiu	v0,v0,-12144
8003538c:	80280500 	sll	a1,a1,0x2
80035390:	2128a200 	addu	a1,a1,v0
80035394:	4c830234 	li	v0,0x834c
80035398:	2128a200 	addu	a1,a1,v0
8003539c:	3800bfaf 	sw	ra,56(sp)
800353a0:	3400b1af 	sw	s1,52(sp)
800353a4:	3000b0af 	sw	s0,48(sp)
800353a8:	0000a58c 	lw	a1,0(a1)
800353ac:	5000b08f 	lw	s0,80(sp)
800353b0:	0300a010 	beqz	a1,0x800353c0
800353b4:	00000000 	nop
800353b8:	05008014 	bnez	a0,0x800353d0
800353bc:	80100600 	sll	v0,a2,0x2
800353c0:	080000ae 	sw	zero,8(s0)
800353c4:	040000ae 	sw	zero,4(s0)
800353c8:	2cd70008 	j	0x80035cb0
800353cc:	000000ae 	sw	zero,0(s0)
800353d0:	21104600 	addu	v0,v0,a2
800353d4:	c0100200 	sll	v0,v0,0x3
800353d8:	0800a38c 	lw	v1,8(a1)
800353dc:	3400848c 	lw	a0,52(a0)
800353e0:	2118a300 	addu	v1,a1,v1
800353e4:	21104300 	addu	v0,v0,v1
800353e8:	0c00428c 	lw	v0,12(v0)
800353ec:	2128c000 	move	a1,a2
800353f0:	0c004224 	addiu	v0,v0,12
800353f4:	21186200 	addu	v1,v1,v0
800353f8:	c0100700 	sll	v0,a3,0x3
800353fc:	d8d1000c 	jal	0x80034760
80035400:	21886200 	addu	s1,v1,v0
80035404:	21384000 	move	a3,v0
80035408:	2900e010 	beqz	a3,0x800354b0
8003540c:	00000000 	nop
80035410:	0400e28c 	lw	v0,4(a3)
80035414:	00000000 	nop
80035418:	06004010 	beqz	v0,0x80035434
8003541c:	00000000 	nop
80035420:	000040a4 	sh	zero,0(v0)
80035424:	4800428c 	lw	v0,72(v0)
80035428:	00000000 	nop
8003542c:	fcff4014 	bnez	v0,0x80035420
80035430:	00000000 	nop
80035434:	0880023c 	lui	v0,0x8008
80035438:	801f063c 	lui	a2,0x1f80
8003543c:	a800c634 	ori	a2,a2,0xa8
80035440:	0c044524 	addiu	a1,v0,1036
80035444:	0000a38c 	lw	v1,0(a1)
80035448:	0400a48c 	lw	a0,4(a1)
8003544c:	0000c3ac 	sw	v1,0(a2)
80035450:	0400c4ac 	sw	a0,4(a2)
80035454:	0800a38c 	lw	v1,8(a1)
80035458:	0c00a48c 	lw	a0,12(a1)
8003545c:	0800c3ac 	sw	v1,8(a2)
80035460:	0c00c4ac 	sw	a0,12(a2)
80035464:	1000a38c 	lw	v1,16(a1)
80035468:	1400a48c 	lw	a0,20(a1)
8003546c:	1000c3ac 	sw	v1,16(a2)
80035470:	1400c4ac 	sw	a0,20(a2)
80035474:	1800a38c 	lw	v1,24(a1)
80035478:	1c00a48c 	lw	a0,28(a1)
8003547c:	1800c3ac 	sw	v1,24(a2)
80035480:	1c00c4ac 	sw	a0,28(a2)
80035484:	0400e48c 	lw	a0,4(a3)
80035488:	98d4000c 	jal	0x80035260
8003548c:	00000000 	nop
80035490:	000020ca 	lwc2	$0,0(s1)
80035494:	040021ca 	lwc2	$1,4(s1)
	...
800354a0:	1200484a 	c2	0x480012
800354a4:	000019ea 	swc2	$25,0(s0)
800354a8:	04001aea 	swc2	$26,4(s0)
800354ac:	08001bea 	swc2	$27,8(s0)
800354b0:	3800bf8f 	lw	ra,56(sp)
800354b4:	3400b18f 	lw	s1,52(sp)
800354b8:	3000b08f 	lw	s0,48(sp)
800354bc:	4000bd27 	addiu	sp,sp,64
800354c0:	0800e003 	jr	ra
800354c4:	00000000 	nop
800354c8:	e0ffbd27 	addiu	sp,sp,-32
800354cc:	48710224 	li	v0,29000
800354d0:	1000a2af 	sw	v0,16(sp)
800354d4:	20008224 	addiu	v0,a0,32
800354d8:	2120a000 	move	a0,a1
800354dc:	21284000 	move	a1,v0
800354e0:	80000624 	li	a2,128
800354e4:	606d0724 	li	a3,28000
800354e8:	1800bfaf 	sw	ra,24(sp)
800354ec:	9560010c 	jal	0x80058254
800354f0:	1400a0af 	sw	zero,20(sp)
800354f4:	1800bf8f 	lw	ra,24(sp)
800354f8:	2000bd27 	addiu	sp,sp,32
800354fc:	0800e003 	jr	ra
80035500:	00000000 	nop
80035504:	d0ffbd27 	addiu	sp,sp,-48
80035508:	1980023c 	lui	v0,0x8019
8003550c:	2000b0af 	sw	s0,32(sp)
80035510:	1c0f508c 	lw	s0,3868(v0)
80035514:	21408000 	move	t0,a0
80035518:	2c00bfaf 	sw	ra,44(sp)
8003551c:	2800b2af 	sw	s2,40(sp)
80035520:	2400b1af 	sw	s1,36(sp)
80035524:	08000292 	lbu	v0,8(s0)
80035528:	00000000 	nop
8003552c:	50004014 	bnez	v0,0x80035670
80035530:	2138a000 	move	a3,a1
80035534:	ff0f033c 	lui	v1,0xfff
80035538:	ffff6334 	ori	v1,v1,0xffff
8003553c:	2000028e 	lw	v0,32(s0)
80035540:	2418e300 	and	v1,a3,v1
80035544:	1000a2af 	sw	v0,16(sp)
80035548:	2400028e 	lw	v0,36(s0)
8003554c:	1b80123c 	lui	s2,0x801b
80035550:	23104300 	subu	v0,v0,v1
80035554:	21104600 	addu	v0,v0,a2
80035558:	1400a2af 	sw	v0,20(sp)
8003555c:	2800028e 	lw	v0,40(s0)
80035560:	48595126 	addiu	s1,s2,22856
80035564:	1800a2af 	sw	v0,24(sp)
80035568:	1000a28f 	lw	v0,16(sp)
8003556c:	1400a38f 	lw	v1,20(sp)
80035570:	1800a48f 	lw	a0,24(sp)
80035574:	1c00a58f 	lw	a1,28(sp)
80035578:	040022ae 	sw	v0,4(s1)
8003557c:	080023ae 	sw	v1,8(s1)
80035580:	0c0024ae 	sw	a0,12(s1)
80035584:	100025ae 	sw	a1,16(s1)
80035588:	1c0028a6 	sh	t0,28(s1)
8003558c:	1e0027a6 	sh	a3,30(s1)
80035590:	4300028a 	lwl	v0,67(s0)
80035594:	4000029a 	lwr	v0,64(s0)
80035598:	4700038a 	lwl	v1,71(s0)
8003559c:	4400039a 	lwr	v1,68(s0)
800355a0:	170022aa 	swl	v0,23(s1)
800355a4:	140022ba 	swr	v0,20(s1)
800355a8:	1b0023aa 	swl	v1,27(s1)
800355ac:	180023ba 	swr	v1,24(s1)
800355b0:	40000286 	lh	v0,64(s0)
800355b4:	00000000 	nop
800355b8:	18004200 	mult	v0,v0
800355bc:	12180000 	mflo	v1
800355c0:	44000286 	lh	v0,68(s0)
800355c4:	00000000 	nop
800355c8:	18004200 	mult	v0,v0
800355cc:	12380000 	mflo	a3
800355d0:	b1d1010c 	jal	0x800746c4
800355d4:	21206700 	addu	a0,v1,a3
800355d8:	220022a6 	sh	v0,34(s1)
800355dc:	44000486 	lh	a0,68(s0)
800355e0:	40000586 	lh	a1,64(s0)
800355e4:	a9db010c 	jal	0x80076ea4
800355e8:	00000000 	nop
800355ec:	200022a6 	sh	v0,32(s1)
800355f0:	00000292 	lbu	v0,0(s0)
800355f4:	02000424 	li	a0,2
800355f8:	07004330 	andi	v1,v0,0x7
800355fc:	0e006410 	beq	v1,a0,0x80035638
80035600:	03006228 	slti	v0,v1,3
80035604:	05004010 	beqz	v0,0x8003561c
80035608:	01000224 	li	v0,1
8003560c:	0d006210 	beq	v1,v0,0x80035644
80035610:	21100000 	move	v0,zero
80035614:	9fd70008 	j	0x80035e7c
80035618:	00000000 	nop
8003561c:	03000224 	li	v0,3
80035620:	0b006210 	beq	v1,v0,0x80035650
80035624:	04000224 	li	v0,4
80035628:	0c006210 	beq	v1,v0,0x8003565c
8003562c:	21100000 	move	v0,zero
80035630:	9fd70008 	j	0x80035e7c
80035634:	00000000 	nop
80035638:	32000224 	li	v0,50
8003563c:	98d70008 	j	0x80035e60
80035640:	485942ae 	sw	v0,22856(s2)
80035644:	a2000224 	li	v0,162
80035648:	98d70008 	j	0x80035e60
8003564c:	485942ae 	sw	v0,22856(s2)
80035650:	b2000224 	li	v0,178
80035654:	98d70008 	j	0x80035e60
80035658:	485942ae 	sw	v0,22856(s2)
8003565c:	485944ae 	sw	a0,22856(s2)
80035660:	5125010c 	jal	0x80049544
80035664:	21202002 	move	a0,s1
80035668:	9fd70008 	j	0x80035e7c
8003566c:	00000000 	nop
80035670:	ffff4224 	addiu	v0,v0,-1
80035674:	080002a2 	sb	v0,8(s0)
80035678:	21100000 	move	v0,zero
8003567c:	2c00bf8f 	lw	ra,44(sp)
80035680:	2800b28f 	lw	s2,40(sp)
80035684:	2400b18f 	lw	s1,36(sp)
80035688:	2000b08f 	lw	s0,32(sp)
8003568c:	3000bd27 	addiu	sp,sp,48
80035690:	0800e003 	jr	ra
80035694:	00000000 	nop
80035698:	a0ffbd27 	addiu	sp,sp,-96
8003569c:	4000b0af 	sw	s0,64(sp)
800356a0:	21808000 	move	s0,a0
800356a4:	4400b1af 	sw	s1,68(sp)
800356a8:	2188a000 	move	s1,a1
800356ac:	4c00b3af 	sw	s3,76(sp)
800356b0:	2198c000 	move	s3,a2
800356b4:	5800b6af 	sw	s6,88(sp)
800356b8:	21b0e000 	move	s6,a3
800356bc:	3000a427 	addiu	a0,sp,48
800356c0:	21280000 	move	a1,zero
800356c4:	4800b2af 	sw	s2,72(sp)
800356c8:	7000b28f 	lw	s2,112(sp)
800356cc:	0c000624 	li	a2,12
800356d0:	5c00bfaf 	sw	ra,92(sp)
800356d4:	5400b5af 	sw	s5,84(sp)
800356d8:	ade2010c 	jal	0x80078ab4
800356dc:	5000b4af 	sw	s4,80(sp)
800356e0:	20002232 	andi	v0,s1,0x20
800356e4:	42a10200 	srl	s4,v0,0x5
800356e8:	f0ff033c 	lui	v1,0xfff0
800356ec:	ffff6334 	ori	v1,v1,0xffff
800356f0:	0f00023c 	lui	v0,0xf
800356f4:	24a80202 	and	s5,s0,v0
800356f8:	24800302 	and	s0,s0,v1
800356fc:	80000232 	andi	v0,s0,0x80
80035700:	05004010 	beqz	v0,0x80035718
80035704:	04006426 	addiu	a0,s3,4
80035708:	00100524 	li	a1,4096
8003570c:	16006696 	lhu	a2,22(s3)
80035710:	f8f6000c 	jal	0x8003dbe0
80035714:	21384002 	move	a3,s2
80035718:	10000232 	andi	v0,s0,0x10
8003571c:	81004010 	beqz	v0,0x80035924
80035720:	1b80023c 	lui	v0,0x801b
80035724:	a459438c 	lw	v1,22948(v0)
80035728:	00000000 	nop
8003572c:	40100300 	sll	v0,v1,0x1
80035730:	21104300 	addu	v0,v0,v1
80035734:	80100200 	sll	v0,v0,0x2
80035738:	21104300 	addu	v0,v0,v1
8003573c:	80100200 	sll	v0,v0,0x2
80035740:	21104300 	addu	v0,v0,v1
80035744:	80100200 	sll	v0,v0,0x2
80035748:	1c80033c 	lui	v1,0x801c
8003574c:	38a16324 	addiu	v1,v1,-24264
80035750:	0e004012 	beqz	s2,0x8003578c
80035754:	21804300 	addu	s0,v0,v1
80035758:	7400038e 	lw	v1,116(s0)
8003575c:	0000448e 	lw	a0,0(s2)
80035760:	7c00028e 	lw	v0,124(s0)
80035764:	0800458e 	lw	a1,8(s2)
80035768:	23206400 	subu	a0,v1,a0
8003576c:	6d28010c 	jal	0x8004a1b4
80035770:	23284500 	subu	a1,v0,a1
80035774:	00084524 	addiu	a1,v0,2048
80035778:	8e000486 	lh	a0,142(s0)
8003577c:	5228010c 	jal	0x8004a148
80035780:	00080624 	li	a2,2048
80035784:	67004010 	beqz	v0,0x80035924
80035788:	00000000 	nop
8003578c:	0200023c 	lui	v0,0x2
80035790:	2410a202 	and	v0,s5,v0
80035794:	03004010 	beqz	v0,0x800357a4
80035798:	c0003132 	andi	s1,s1,0xc0
8003579c:	ead70008 	j	0x80035fa8
800357a0:	10003136 	ori	s1,s1,0x10
800357a4:	20003136 	ori	s1,s1,0x20
800357a8:	ff008232 	andi	v0,s4,0xff
800357ac:	04004010 	beqz	v0,0x800357c0
800357b0:	1a80023c 	lui	v0,0x801a
800357b4:	788f4394 	lhu	v1,-28808(v0)
800357b8:	f2d70008 	j	0x80035fc8
800357bc:	00000000 	nop
800357c0:	1a80023c 	lui	v0,0x801a
800357c4:	6c8f4394 	lhu	v1,-28820(v0)
800357c8:	aaaa023c 	lui	v0,0xaaaa
800357cc:	abaa4234 	ori	v0,v0,0xaaab
800357d0:	19006200 	multu	v1,v0
800357d4:	10500000 	mfhi	t2
800357d8:	82400a00 	srl	t0,t2,0x2
800357dc:	ff000331 	andi	v1,t0,0xff
800357e0:	0600622c 	sltiu	v0,v1,6
800357e4:	0c004010 	beqz	v0,0x80035818
800357e8:	80280300 	sll	a1,v1,0x2
800357ec:	40100300 	sll	v0,v1,0x1
800357f0:	1a80033c 	lui	v1,0x801a
800357f4:	288f6324 	addiu	v1,v1,-28888
800357f8:	21104300 	addu	v0,v0,v1
800357fc:	78004494 	lhu	a0,120(v0)
80035800:	2110a503 	addu	v0,sp,a1
80035804:	320044a4 	sh	a0,50(v0)
80035808:	300044a4 	sh	a0,48(v0)
8003580c:	b8006794 	lhu	a3,184(v1)
80035810:	08d80008 	j	0x80036020
80035814:	ff000231 	andi	v0,t0,0xff
80035818:	21380000 	move	a3,zero
8003581c:	ff000231 	andi	v0,t0,0xff
80035820:	0600422c 	sltiu	v0,v0,6
80035824:	03004014 	bnez	v0,0x80035834
80035828:	04006626 	addiu	a2,s3,4
8003582c:	1a80023c 	lui	v0,0x801a
80035830:	e28f4624 	addiu	a2,v0,-28702
80035834:	21280000 	move	a1,zero
80035838:	1800a327 	addiu	v1,sp,24
8003583c:	0100a524 	addiu	a1,a1,1
80035840:	0000c294 	lhu	v0,0(a2)
80035844:	0200c624 	addiu	a2,a2,2
80035848:	000062a4 	sh	v0,0(v1)
8003584c:	0300a228 	slti	v0,a1,3
80035850:	faff4014 	bnez	v0,0x8003583c
80035854:	02006324 	addiu	v1,v1,2
80035858:	0a006626 	addiu	a2,s3,10
8003585c:	21280000 	move	a1,zero
80035860:	aaaa093c 	lui	t1,0xaaaa
80035864:	abaa2935 	ori	t1,t1,0xaaab
80035868:	1800a427 	addiu	a0,sp,24
8003586c:	0000c394 	lhu	v1,0(a2)
80035870:	00000000 	nop
80035874:	03006014 	bnez	v1,0x80035884
80035878:	00000000 	nop
8003587c:	29d80008 	j	0x800360a4
80035880:	060080a4 	sh	zero,6(a0)
80035884:	18008294 	lhu	v0,24(a0)
80035888:	00000000 	nop
8003588c:	19004900 	multu	v0,t1
80035890:	21106700 	addu	v0,v1,a3
80035894:	10500000 	mfhi	t2
80035898:	82180a00 	srl	v1,t2,0x2
8003589c:	21104300 	addu	v0,v0,v1
800358a0:	060082a4 	sh	v0,6(a0)
800358a4:	02008424 	addiu	a0,a0,2
800358a8:	0100a524 	addiu	a1,a1,1
800358ac:	0600a228 	slti	v0,a1,6
800358b0:	eeff4014 	bnez	v0,0x8003586c
800358b4:	0200c624 	addiu	a2,a2,2
800358b8:	ff000231 	andi	v0,t0,0xff
800358bc:	0600422c 	sltiu	v0,v0,6
800358c0:	03004010 	beqz	v0,0x800358d0
800358c4:	01000224 	li	v0,1
800358c8:	35d80008 	j	0x800360d4
800358cc:	1000a2af 	sw	v0,16(sp)
800358d0:	1000a0af 	sw	zero,16(sp)
800358d4:	21200002 	move	a0,s0
800358d8:	01000524 	li	a1,1
800358dc:	2130c002 	move	a2,s6
800358e0:	be37010c 	jal	0x8004def8
800358e4:	1800a727 	addiu	a3,sp,24
800358e8:	21204000 	move	a0,v0
800358ec:	40002232 	andi	v0,s1,0x40
800358f0:	05004010 	beqz	v0,0x80035908
800358f4:	0100023c 	lui	v0,0x1
800358f8:	00240400 	sll	a0,a0,0x10
800358fc:	a29a000c 	jal	0x80026a88
80035900:	03240400 	sra	a0,a0,0x10
80035904:	0100023c 	lui	v0,0x1
80035908:	2410a202 	and	v0,s5,v0
8003590c:	05004010 	beqz	v0,0x80035924
80035910:	00000000 	nop
80035914:	7000028e 	lw	v0,112(s0)
80035918:	00000000 	nop
8003591c:	00084234 	ori	v0,v0,0x800
80035920:	700002ae 	sw	v0,112(s0)
80035924:	5c00bf8f 	lw	ra,92(sp)
80035928:	5800b68f 	lw	s6,88(sp)
8003592c:	5400b58f 	lw	s5,84(sp)
80035930:	5000b48f 	lw	s4,80(sp)
80035934:	4c00b38f 	lw	s3,76(sp)
80035938:	4800b28f 	lw	s2,72(sp)
8003593c:	4400b18f 	lw	s1,68(sp)
80035940:	4000b08f 	lw	s0,64(sp)
80035944:	6000bd27 	addiu	sp,sp,96
80035948:	0800e003 	jr	ra
8003594c:	00000000 	nop
80035950:	e0ffbd27 	addiu	sp,sp,-32
80035954:	1980033c 	lui	v1,0x8019
80035958:	98d26324 	addiu	v1,v1,-11624
8003595c:	1800bfaf 	sw	ra,24(sp)
80035960:	843c628c 	lw	v0,15492(v1)
80035964:	2138a000 	move	a3,a1
80035968:	00004590 	lbu	a1,0(v0)
8003596c:	1000a6af 	sw	a2,16(sp)
80035970:	803c668c 	lw	a2,15488(v1)
80035974:	a6d7000c 	jal	0x80035e98
80035978:	00000000 	nop
8003597c:	1800bf8f 	lw	ra,24(sp)
80035980:	2000bd27 	addiu	sp,sp,32
80035984:	0800e003 	jr	ra
80035988:	00000000 	nop
8003598c:	1980023c 	lui	v0,0x8019
80035990:	1c0f458c 	lw	a1,3868(v0)
80035994:	d8ffbd27 	addiu	sp,sp,-40
80035998:	2000bfaf 	sw	ra,32(sp)
8003599c:	4000a284 	lh	v0,64(a1)
800359a0:	2000a38c 	lw	v1,32(a1)
800359a4:	c0100200 	sll	v0,v0,0x3
800359a8:	23186200 	subu	v1,v1,v0
800359ac:	1000a3af 	sw	v1,16(sp)
800359b0:	4200a284 	lh	v0,66(a1)
800359b4:	2400a38c 	lw	v1,36(a1)
800359b8:	c0100200 	sll	v0,v0,0x3
800359bc:	23186200 	subu	v1,v1,v0
800359c0:	1400a3af 	sw	v1,20(sp)
800359c4:	4400a284 	lh	v0,68(a1)
800359c8:	2800a38c 	lw	v1,40(a1)
800359cc:	c0100200 	sll	v0,v0,0x3
800359d0:	23186200 	subu	v1,v1,v0
800359d4:	1800a3af 	sw	v1,24(sp)
800359d8:	0100a290 	lbu	v0,1(a1)
800359dc:	00000000 	nop
800359e0:	d4ff4224 	addiu	v0,v0,-44
800359e4:	0400422c 	sltiu	v0,v0,4
800359e8:	04004010 	beqz	v0,0x800359fc
800359ec:	00000000 	nop
800359f0:	5200a584 	lh	a1,82(a1)
800359f4:	80d80008 	j	0x80036200
800359f8:	00000000 	nop
800359fc:	00140524 	li	a1,5120
80035a00:	54d8000c 	jal	0x80036150
80035a04:	1000a627 	addiu	a2,sp,16
80035a08:	2000bf8f 	lw	ra,32(sp)
80035a0c:	2800bd27 	addiu	sp,sp,40
80035a10:	0800e003 	jr	ra
80035a14:	00000000 	nop
80035a18:	c0ffbd27 	addiu	sp,sp,-64
80035a1c:	2800b0af 	sw	s0,40(sp)
80035a20:	21808000 	move	s0,a0
80035a24:	2110a000 	move	v0,a1
80035a28:	3400b3af 	sw	s3,52(sp)
80035a2c:	2198c000 	move	s3,a2
80035a30:	2c00b1af 	sw	s1,44(sp)
80035a34:	2188e000 	move	s1,a3
80035a38:	3000b2af 	sw	s2,48(sp)
80035a3c:	2000b227 	addiu	s2,sp,32
80035a40:	3800bfaf 	sw	ra,56(sp)
80035a44:	0a000486 	lh	a0,10(s0)
80035a48:	02000592 	lbu	a1,2(s0)
80035a4c:	14000696 	lhu	a2,20(s0)
80035a50:	21384000 	move	a3,v0
80035a54:	1000b2af 	sw	s2,16(sp)
80035a58:	8ccf000c 	jal	0x80033e30
80035a5c:	28008424 	addiu	a0,a0,40
80035a60:	2000a387 	lh	v1,32(sp)
80035a64:	00002286 	lh	v0,0(s1)
80035a68:	00000000 	nop
80035a6c:	18006200 	mult	v1,v0
80035a70:	2200a387 	lh	v1,34(sp)
80035a74:	12400000 	mflo	t0
80035a78:	03130800 	sra	v0,t0,0xc
80035a7c:	2000a2a7 	sh	v0,32(sp)
80035a80:	02002286 	lh	v0,2(s1)
80035a84:	00000000 	nop
80035a88:	18006200 	mult	v1,v0
80035a8c:	2400a387 	lh	v1,36(sp)
80035a90:	12400000 	mflo	t0
80035a94:	03130800 	sra	v0,t0,0xc
80035a98:	2200a2a7 	sh	v0,34(sp)
80035a9c:	04002286 	lh	v0,4(s1)
80035aa0:	00000000 	nop
80035aa4:	18006200 	mult	v1,v0
80035aa8:	12400000 	mflo	t0
80035aac:	03130800 	sra	v0,t0,0xc
80035ab0:	2400a2a7 	sh	v0,36(sp)
80035ab4:	30000296 	lhu	v0,48(s0)
80035ab8:	1800a427 	addiu	a0,sp,24
80035abc:	1800a2a7 	sh	v0,24(sp)
80035ac0:	32000296 	lhu	v0,50(s0)
80035ac4:	21284002 	move	a1,s2
80035ac8:	00084224 	addiu	v0,v0,2048
80035acc:	1a00a2a7 	sh	v0,26(sp)
80035ad0:	34000296 	lhu	v0,52(s0)
80035ad4:	21306002 	move	a2,s3
80035ad8:	1e28010c 	jal	0x8004a078
80035adc:	1c00a2a7 	sh	v0,28(sp)
80035ae0:	3800bf8f 	lw	ra,56(sp)
80035ae4:	3400b38f 	lw	s3,52(sp)
80035ae8:	3000b28f 	lw	s2,48(sp)
80035aec:	2c00b18f 	lw	s1,44(sp)
80035af0:	2800b08f 	lw	s0,40(sp)
80035af4:	4000bd27 	addiu	sp,sp,64
80035af8:	0800e003 	jr	ra
80035afc:	00000000 	nop
80035b00:	e0ffbd27 	addiu	sp,sp,-32
80035b04:	1400b1af 	sw	s1,20(sp)
80035b08:	21888000 	move	s1,a0
80035b0c:	1000b0af 	sw	s0,16(sp)
80035b10:	1800bfaf 	sw	ra,24(sp)
80035b14:	86d8000c 	jal	0x80036218
80035b18:	2180c000 	move	s0,a2
80035b1c:	0000028e 	lw	v0,0(s0)
80035b20:	2000238e 	lw	v1,32(s1)
80035b24:	00000000 	nop
80035b28:	21104300 	addu	v0,v0,v1
80035b2c:	000002ae 	sw	v0,0(s0)
80035b30:	0400028e 	lw	v0,4(s0)
80035b34:	2400238e 	lw	v1,36(s1)
80035b38:	00000000 	nop
80035b3c:	21104300 	addu	v0,v0,v1
80035b40:	040002ae 	sw	v0,4(s0)
80035b44:	0800028e 	lw	v0,8(s0)
80035b48:	2800238e 	lw	v1,40(s1)
80035b4c:	00000000 	nop
80035b50:	21104300 	addu	v0,v0,v1
80035b54:	080002ae 	sw	v0,8(s0)
80035b58:	1800bf8f 	lw	ra,24(sp)
80035b5c:	1400b18f 	lw	s1,20(sp)
80035b60:	1000b08f 	lw	s0,16(sp)
80035b64:	2000bd27 	addiu	sp,sp,32
80035b68:	0800e003 	jr	ra
80035b6c:	00000000 	nop
80035b70:	1980023c 	lui	v0,0x8019
80035b74:	18e34324 	addiu	v1,v0,-7400
80035b78:	80000424 	li	a0,128
80035b7c:	ff000524 	li	a1,255
80035b80:	00006290 	lbu	v0,0(v1)
80035b84:	00000000 	nop
80035b88:	07004510 	beq	v0,a1,0x80035ba8
80035b8c:	ffff8224 	addiu	v0,a0,-1
80035b90:	21204000 	move	a0,v0
80035b94:	ffff4230 	andi	v0,v0,0xffff
80035b98:	f9ff4014 	bnez	v0,0x80035b80
80035b9c:	58006324 	addiu	v1,v1,88
80035ba0:	ebd80008 	j	0x800363ac
80035ba4:	21100000 	move	v0,zero
80035ba8:	21106000 	move	v0,v1
80035bac:	0800e003 	jr	ra
80035bb0:	00000000 	nop
80035bb4:	01000224 	li	v0,1
80035bb8:	060082a0 	sb	v0,6(a0)
80035bbc:	80000224 	li	v0,128
80035bc0:	020082a0 	sb	v0,2(a0)
80035bc4:	34000224 	li	v0,52
80035bc8:	090082a0 	sb	v0,9(a0)
80035bcc:	00100224 	li	v0,4096
80035bd0:	0a0085a4 	sh	a1,10(a0)
80035bd4:	070087a0 	sb	a3,7(a0)
80035bd8:	120082a4 	sh	v0,18(a0)
80035bdc:	3c0086a4 	sh	a2,60(a0)
80035be0:	3a0086a4 	sh	a2,58(a0)
80035be4:	0800e003 	jr	ra
80035be8:	380086a4 	sh	a2,56(a0)
80035bec:	05000224 	li	v0,5
80035bf0:	060082a0 	sb	v0,6(a0)
80035bf4:	80000224 	li	v0,128
80035bf8:	020082a0 	sb	v0,2(a0)
80035bfc:	33000224 	li	v0,51
80035c00:	090082a0 	sb	v0,9(a0)
80035c04:	00100224 	li	v0,4096
80035c08:	0a0085a4 	sh	a1,10(a0)
80035c0c:	070087a0 	sb	a3,7(a0)
80035c10:	120082a4 	sh	v0,18(a0)
80035c14:	3c0086a4 	sh	a2,60(a0)
80035c18:	3a0086a4 	sh	a2,58(a0)
80035c1c:	0800e003 	jr	ra
80035c20:	380086a4 	sh	a2,56(a0)
80035c24:	0e000224 	li	v0,14
80035c28:	060082a0 	sb	v0,6(a0)
80035c2c:	80000224 	li	v0,128
80035c30:	020082a0 	sb	v0,2(a0)
80035c34:	05000224 	li	v0,5
80035c38:	070082a0 	sb	v0,7(a0)
80035c3c:	34000224 	li	v0,52
80035c40:	090082a0 	sb	v0,9(a0)
80035c44:	00100224 	li	v0,4096
80035c48:	120082a4 	sh	v0,18(a0)
80035c4c:	00010224 	li	v0,256
80035c50:	3a0082a4 	sh	v0,58(a0)
80035c54:	3c0082a4 	sh	v0,60(a0)
80035c58:	380082a4 	sh	v0,56(a0)
80035c5c:	a0000224 	li	v0,160
80035c60:	7800e724 	addiu	a3,a3,120
80035c64:	0a0085a4 	sh	a1,10(a0)
80035c68:	200082ac 	sw	v0,32(a0)
80035c6c:	240087ac 	sw	a3,36(a0)
80035c70:	280080ac 	sw	zero,40(a0)
80035c74:	300086a4 	sh	a2,48(a0)
80035c78:	340080a4 	sh	zero,52(a0)
80035c7c:	0800e003 	jr	ra
80035c80:	320080a4 	sh	zero,50(a0)
80035c84:	a0ffbd27 	addiu	sp,sp,-96
80035c88:	4000b0af 	sw	s0,64(sp)
80035c8c:	2180a000 	move	s0,a1
80035c90:	4400b1af 	sw	s1,68(sp)
80035c94:	2188c000 	move	s1,a2
80035c98:	5400b5af 	sw	s5,84(sp)
80035c9c:	21a8e000 	move	s5,a3
80035ca0:	20000232 	andi	v0,s0,0x20
80035ca4:	5000b4af 	sw	s4,80(sp)
80035ca8:	42a10200 	srl	s4,v0,0x5
80035cac:	5800b6af 	sw	s6,88(sp)
80035cb0:	21b08000 	move	s6,a0
80035cb4:	4c00b3af 	sw	s3,76(sp)
80035cb8:	7000b327 	addiu	s3,sp,112
80035cbc:	5c00bfaf 	sw	ra,92(sp)
80035cc0:	dcd8000c 	jal	0x80036370
80035cc4:	4800b2af 	sw	s2,72(sp)
80035cc8:	21904000 	move	s2,v0
80035ccc:	45064012 	beqz	s2,0x800375e4
80035cd0:	21104002 	move	v0,s2
80035cd4:	000050a2 	sb	s0,0(s2)
80035cd8:	0900a012 	beqz	s5,0x80035d00
80035cdc:	010051a2 	sb	s1,1(s2)
80035ce0:	0000a28e 	lw	v0,0(s5)
80035ce4:	0400a38e 	lw	v1,4(s5)
80035ce8:	0800a48e 	lw	a0,8(s5)
80035cec:	0c00a58e 	lw	a1,12(s5)
80035cf0:	200042ae 	sw	v0,32(s2)
80035cf4:	240043ae 	sw	v1,36(s2)
80035cf8:	280044ae 	sw	a0,40(s2)
80035cfc:	2c0045ae 	sw	a1,44(s2)
80035d00:	7000a68f 	lw	a2,112(sp)
80035d04:	00000000 	nop
80035d08:	0b00c010 	beqz	a2,0x80035d38
80035d0c:	00000000 	nop
80035d10:	0300c288 	lwl	v0,3(a2)
80035d14:	0000c298 	lwr	v0,0(a2)
80035d18:	0700c388 	lwl	v1,7(a2)
80035d1c:	0400c398 	lwr	v1,4(a2)
80035d20:	430042aa 	swl	v0,67(s2)
80035d24:	400042ba 	swr	v0,64(s2)
80035d28:	470043aa 	swl	v1,71(s2)
80035d2c:	440043ba 	swr	v1,68(s2)
80035d30:	51d90008 	j	0x80036544
80035d34:	00000000 	nop
80035d38:	440040a6 	sh	zero,68(s2)
80035d3c:	420040a6 	sh	zero,66(s2)
80035d40:	400040a6 	sh	zero,64(s2)
80035d44:	01004392 	lbu	v1,1(s2)
80035d48:	00100224 	li	v0,4096
80035d4c:	3c0042a6 	sh	v0,60(s2)
80035d50:	3a0042a6 	sh	v0,58(s2)
80035d54:	380042a6 	sh	v0,56(s2)
80035d58:	01000224 	li	v0,1
80035d5c:	060042a2 	sb	v0,6(s2)
80035d60:	ff000224 	li	v0,255
80035d64:	090042a2 	sb	v0,9(s2)
80035d68:	ffff0224 	li	v0,-1
80035d6c:	050040a2 	sb	zero,5(s2)
80035d70:	040056a2 	sb	s6,4(s2)
80035d74:	340040a6 	sh	zero,52(s2)
80035d78:	320040a6 	sh	zero,50(s2)
80035d7c:	300040a6 	sh	zero,48(s2)
80035d80:	140040a6 	sh	zero,20(s2)
80035d84:	030040a2 	sb	zero,3(s2)
80035d88:	080040a2 	sb	zero,8(s2)
80035d8c:	120040a6 	sh	zero,18(s2)
80035d90:	070040a2 	sb	zero,7(s2)
80035d94:	100042a6 	sh	v0,16(s2)
80035d98:	0e0040a6 	sh	zero,14(s2)
80035d9c:	f600622c 	sltiu	v0,v1,246
80035da0:	0d064010 	beqz	v0,0x800375d8
80035da4:	1c0040ae 	sw	zero,28(s2)
80035da8:	0180023c 	lui	v0,0x8001
80035dac:	cc144224 	addiu	v0,v0,5324
80035db0:	80180300 	sll	v1,v1,0x2
80035db4:	21186200 	addu	v1,v1,v0
80035db8:	0000628c 	lw	v0,0(v1)
80035dbc:	00000000 	nop
80035dc0:	08004000 	jr	v0
80035dc4:	00000000 	nop
80035dc8:	20005126 	addiu	s1,s2,32
80035dcc:	21282002 	move	a1,s1
80035dd0:	80000624 	li	a2,128
80035dd4:	606d0724 	li	a3,28000
80035dd8:	00004492 	lbu	a0,0(s2)
80035ddc:	48710224 	li	v0,29000
80035de0:	1000a2af 	sw	v0,16(sp)
80035de4:	1400a0af 	sw	zero,20(sp)
80035de8:	82200400 	srl	a0,a0,0x2
80035dec:	08008430 	andi	a0,a0,0x8
80035df0:	9560010c 	jal	0x80058254
80035df4:	1c008424 	addiu	a0,a0,28
80035df8:	0080033c 	lui	v1,0x8000
80035dfc:	40006334 	ori	v1,v1,0x40
80035e00:	0a000424 	li	a0,10
80035e04:	ab000624 	li	a2,171
80035e08:	32000224 	li	v0,50
80035e0c:	100042a6 	sh	v0,16(s2)
80035e10:	40000224 	li	v0,64
80035e14:	00004592 	lbu	a1,0(s2)
80035e18:	40005026 	addiu	s0,s2,64
80035e1c:	500040a2 	sb	zero,80(s2)
80035e20:	510040a2 	sb	zero,81(s2)
80035e24:	060040a2 	sb	zero,6(s2)
80035e28:	0c0042a6 	sh	v0,12(s2)
80035e2c:	180043ae 	sw	v1,24(s2)
80035e30:	1000b0af 	sw	s0,16(sp)
80035e34:	0400628e 	lw	v0,4(s3)
80035e38:	21382002 	move	a3,s1
80035e3c:	1800b2af 	sw	s2,24(sp)
80035e40:	21d9000c 	jal	0x80036484
80035e44:	1400a2af 	sw	v0,20(sp)
80035e48:	0a000424 	li	a0,10
80035e4c:	00004592 	lbu	a1,0(s2)
80035e50:	aa000624 	li	a2,170
80035e54:	1000b0af 	sw	s0,16(sp)
80035e58:	0400628e 	lw	v0,4(s3)
80035e5c:	b3da0008 	j	0x80036acc
80035e60:	21382002 	move	a3,s1
80035e64:	21204002 	move	a0,s2
80035e68:	c0281400 	sll	a1,s4,0x3
80035e6c:	0400a534 	ori	a1,a1,0x4
80035e70:	0400668e 	lw	a2,4(s3)
80035e74:	fbd8000c 	jal	0x800363ec
80035e78:	0d000724 	li	a3,13
80035e7c:	32000224 	li	v0,50
80035e80:	c1da0008 	j	0x80036b04
80035e84:	100042a6 	sh	v0,16(s2)
80035e88:	21204002 	move	a0,s2
80035e8c:	c0281400 	sll	a1,s4,0x3
80035e90:	bbda0008 	j	0x80036aec
80035e94:	0300a534 	ori	a1,a1,0x3
80035e98:	21204002 	move	a0,s2
80035e9c:	c0281400 	sll	a1,s4,0x3
80035ea0:	0400668e 	lw	a2,4(s3)
80035ea4:	1000628e 	lw	v0,16(s3)
80035ea8:	1800678e 	lw	a3,24(s3)
80035eac:	edd8000c 	jal	0x800363b4
80035eb0:	21284500 	addu	a1,v0,a1
80035eb4:	08006296 	lhu	v0,8(s3)
80035eb8:	00000000 	nop
80035ebc:	500042a6 	sh	v0,80(s2)
80035ec0:	0c006296 	lhu	v0,12(s3)
80035ec4:	00000000 	nop
80035ec8:	100042a6 	sh	v0,16(s2)
80035ecc:	14006296 	lhu	v0,20(s3)
80035ed0:	00000000 	nop
80035ed4:	520042a6 	sh	v0,82(s2)
80035ed8:	1c00628e 	lw	v0,28(s3)
80035edc:	00000000 	nop
80035ee0:	03004388 	lwl	v1,3(v0)
80035ee4:	00004398 	lwr	v1,0(v0)
80035ee8:	07004488 	lwl	a0,7(v0)
80035eec:	04004498 	lwr	a0,4(v0)
80035ef0:	330043aa 	swl	v1,51(s2)
80035ef4:	300043ba 	swr	v1,48(s2)
80035ef8:	370044aa 	swl	a0,55(s2)
80035efc:	340044ba 	swr	a0,52(s2)
80035f00:	79df0008 	j	0x80037de4
80035f04:	21104002 	move	v0,s2
80035f08:	20005126 	addiu	s1,s2,32
80035f0c:	21282002 	move	a1,s1
80035f10:	80000624 	li	a2,128
80035f14:	606d0724 	li	a3,28000
80035f18:	00004492 	lbu	a0,0(s2)
80035f1c:	48710224 	li	v0,29000
80035f20:	1000a2af 	sw	v0,16(sp)
80035f24:	1400a0af 	sw	zero,20(sp)
80035f28:	82200400 	srl	a0,a0,0x2
80035f2c:	08008430 	andi	a0,a0,0x8
80035f30:	9560010c 	jal	0x80058254
80035f34:	1c008424 	addiu	a0,a0,28
80035f38:	0080053c 	lui	a1,0x8000
80035f3c:	4000a534 	ori	a1,a1,0x40
80035f40:	0a000424 	li	a0,10
80035f44:	0800628e 	lw	v0,8(s3)
80035f48:	af000624 	li	a2,175
80035f4c:	03004388 	lwl	v1,3(v0)
80035f50:	00004398 	lwr	v1,0(v0)
80035f54:	07004888 	lwl	t0,7(v0)
80035f58:	04004898 	lwr	t0,4(v0)
80035f5c:	330043aa 	swl	v1,51(s2)
80035f60:	300043ba 	swr	v1,48(s2)
80035f64:	370048aa 	swl	t0,55(s2)
80035f68:	340048ba 	swr	t0,52(s2)
80035f6c:	32004396 	lhu	v1,50(s2)
80035f70:	40005026 	addiu	s0,s2,64
80035f74:	180045ae 	sw	a1,24(s2)
80035f78:	00004592 	lbu	a1,0(s2)
80035f7c:	32000224 	li	v0,50
80035f80:	100042a6 	sh	v0,16(s2)
80035f84:	40000224 	li	v0,64
80035f88:	500040a2 	sb	zero,80(s2)
80035f8c:	510040a2 	sb	zero,81(s2)
80035f90:	060040a2 	sb	zero,6(s2)
80035f94:	0c0042a6 	sh	v0,12(s2)
80035f98:	00086324 	addiu	v1,v1,2048
80035f9c:	320043a6 	sh	v1,50(s2)
80035fa0:	1000b0af 	sw	s0,16(sp)
80035fa4:	0400628e 	lw	v0,4(s3)
80035fa8:	21382002 	move	a3,s1
80035fac:	1800b2af 	sw	s2,24(sp)
80035fb0:	21d9000c 	jal	0x80036484
80035fb4:	1400a2af 	sw	v0,20(sp)
80035fb8:	0a000424 	li	a0,10
80035fbc:	00004592 	lbu	a1,0(s2)
80035fc0:	b0000624 	li	a2,176
80035fc4:	1000b0af 	sw	s0,16(sp)
80035fc8:	0400628e 	lw	v0,4(s3)
80035fcc:	b3da0008 	j	0x80036acc
80035fd0:	21382002 	move	a3,s1
80035fd4:	21204002 	move	a0,s2
80035fd8:	c0281400 	sll	a1,s4,0x3
80035fdc:	0400668e 	lw	a2,4(s3)
80035fe0:	edd8000c 	jal	0x800363b4
80035fe4:	0f000724 	li	a3,15
80035fe8:	32000224 	li	v0,50
80035fec:	100042a6 	sh	v0,16(s2)
80035ff0:	500040a2 	sb	zero,80(s2)
80035ff4:	0800628e 	lw	v0,8(s3)
80035ff8:	00000000 	nop
80035ffc:	1c0042ae 	sw	v0,28(s2)
80036000:	33004388 	lwl	v1,51(v0)
80036004:	30004398 	lwr	v1,48(v0)
80036008:	37004488 	lwl	a0,55(v0)
8003600c:	34004498 	lwr	a0,52(v0)
80036010:	330043aa 	swl	v1,51(s2)
80036014:	300043ba 	swr	v1,48(s2)
80036018:	370044aa 	swl	a0,55(s2)
8003601c:	340044ba 	swr	a0,52(s2)
80036020:	79df0008 	j	0x80037de4
80036024:	21104002 	move	v0,s2
80036028:	21204002 	move	a0,s2
8003602c:	c0281400 	sll	a1,s4,0x3
80036030:	0100a534 	ori	a1,a1,0x1
80036034:	0400668e 	lw	a2,4(s3)
80036038:	fbd8000c 	jal	0x800363ec
8003603c:	0f000724 	li	a3,15
80036040:	32000224 	li	v0,50
80036044:	100042a6 	sh	v0,16(s2)
80036048:	500040a2 	sb	zero,80(s2)
8003604c:	c1da0008 	j	0x80036b04
80036050:	510040a2 	sb	zero,81(s2)
80036054:	21204002 	move	a0,s2
80036058:	c0281400 	sll	a1,s4,0x3
8003605c:	0400668e 	lw	a2,4(s3)
80036060:	1000628e 	lw	v0,16(s3)
80036064:	1400678e 	lw	a3,20(s3)
80036068:	fbd8000c 	jal	0x800363ec
8003606c:	21284500 	addu	a1,v0,a1
80036070:	06dd0008 	j	0x80037418
80036074:	00000000 	nop
80036078:	21204002 	move	a0,s2
8003607c:	c0281400 	sll	a1,s4,0x3
80036080:	0400668e 	lw	a2,4(s3)
80036084:	1000628e 	lw	v0,16(s3)
80036088:	1400678e 	lw	a3,20(s3)
8003608c:	fbd8000c 	jal	0x800363ec
80036090:	21284500 	addu	a1,v0,a1
80036094:	06dd0008 	j	0x80037418
80036098:	00000000 	nop
8003609c:	21204002 	move	a0,s2
800360a0:	c0281400 	sll	a1,s4,0x3
800360a4:	0400668e 	lw	a2,4(s3)
800360a8:	1000628e 	lw	v0,16(s3)
800360ac:	1400678e 	lw	a3,20(s3)
800360b0:	edd8000c 	jal	0x800363b4
800360b4:	21284500 	addu	a1,v0,a1
800360b8:	06dd0008 	j	0x80037418
800360bc:	00000000 	nop
800360c0:	38004486 	lh	a0,56(s2)
800360c4:	10000224 	li	v0,16
800360c8:	02008104 	bgez	a0,0x800360d4
800360cc:	500042a2 	sb	v0,80(s2)
800360d0:	0f008424 	addiu	a0,a0,15
800360d4:	3a004386 	lh	v1,58(s2)
800360d8:	80da0008 	j	0x80036a00
800360dc:	03110400 	sra	v0,a0,0x4
800360e0:	38004486 	lh	a0,56(s2)
800360e4:	08000224 	li	v0,8
800360e8:	02008104 	bgez	a0,0x800360f4
800360ec:	500042a2 	sb	v0,80(s2)
800360f0:	0f008424 	addiu	a0,a0,15
800360f4:	3a004386 	lh	v1,58(s2)
800360f8:	03110400 	sra	v0,a0,0x4
800360fc:	02006104 	bgez	v1,0x80036108
80036100:	0c0042a6 	sh	v0,12(s2)
80036104:	0f006324 	addiu	v1,v1,15
80036108:	03110300 	sra	v0,v1,0x4
8003610c:	0080033c 	lui	v1,0x8000
80036110:	25104300 	or	v0,v0,v1
80036114:	b1e2010c 	jal	0x80078ac4
80036118:	180042ae 	sw	v0,24(s2)
8003611c:	02004104 	bgez	v0,0x80036128
80036120:	00000000 	nop
80036124:	7f004224 	addiu	v0,v0,127
80036128:	c3110200 	sra	v0,v0,0x7
8003612c:	87da0008 	j	0x80036a1c
80036130:	520042a6 	sh	v0,82(s2)
80036134:	38004386 	lh	v1,56(s2)
80036138:	0f000224 	li	v0,15
8003613c:	070042a2 	sb	v0,7(s2)
80036140:	40100300 	sll	v0,v1,0x1
80036144:	21104300 	addu	v0,v0,v1
80036148:	c0110200 	sll	v0,v0,0x7
8003614c:	02004104 	bgez	v0,0x80036158
80036150:	500040a2 	sb	zero,80(s2)
80036154:	ff0f4224 	addiu	v0,v0,4095
80036158:	3a004386 	lh	v1,58(s2)
8003615c:	03130200 	sra	v0,v0,0xc
80036160:	0c0042a6 	sh	v0,12(s2)
80036164:	40100300 	sll	v0,v1,0x1
80036168:	21104300 	addu	v0,v0,v1
8003616c:	c0110200 	sll	v0,v0,0x7
80036170:	02004104 	bgez	v0,0x8003617c
80036174:	00000000 	nop
80036178:	ff0f4224 	addiu	v0,v0,4095
8003617c:	84da0008 	j	0x80036a10
80036180:	03130200 	sra	v0,v0,0xc
80036184:	38004286 	lh	v0,56(s2)
80036188:	00000000 	nop
8003618c:	02004104 	bgez	v0,0x80036198
80036190:	500040a2 	sb	zero,80(s2)
80036194:	0f004224 	addiu	v0,v0,15
80036198:	3a004386 	lh	v1,58(s2)
8003619c:	03110200 	sra	v0,v0,0x4
800361a0:	02006104 	bgez	v1,0x800361ac
800361a4:	0c0042a6 	sh	v0,12(s2)
800361a8:	3f006324 	addiu	v1,v1,63
800361ac:	84da0008 	j	0x80036a10
800361b0:	83110300 	sra	v0,v1,0x6
800361b4:	38004286 	lh	v0,56(s2)
800361b8:	00000000 	nop
800361bc:	02004104 	bgez	v0,0x800361c8
800361c0:	500040a2 	sb	zero,80(s2)
800361c4:	0f004224 	addiu	v0,v0,15
800361c8:	3a004386 	lh	v1,58(s2)
800361cc:	03110200 	sra	v0,v0,0x4
800361d0:	02006104 	bgez	v1,0x800361dc
800361d4:	0c0042a6 	sh	v0,12(s2)
800361d8:	ff006324 	addiu	v1,v1,255
800361dc:	84da0008 	j	0x80036a10
800361e0:	03120300 	sra	v0,v1,0x8
800361e4:	38004286 	lh	v0,56(s2)
800361e8:	00000000 	nop
800361ec:	02004104 	bgez	v0,0x800361f8
800361f0:	500040a2 	sb	zero,80(s2)
800361f4:	0f004224 	addiu	v0,v0,15
800361f8:	3a004386 	lh	v1,58(s2)
800361fc:	03110200 	sra	v0,v0,0x4
80036200:	02006104 	bgez	v1,0x8003620c
80036204:	0c0042a6 	sh	v0,12(s2)
80036208:	0f006324 	addiu	v1,v1,15
8003620c:	03110300 	sra	v0,v1,0x4
80036210:	0080033c 	lui	v1,0x8000
80036214:	25104300 	or	v0,v0,v1
80036218:	180042ae 	sw	v0,24(s2)
8003621c:	20005026 	addiu	s0,s2,32
80036220:	21280002 	move	a1,s0
80036224:	80000624 	li	a2,128
80036228:	606d0724 	li	a3,28000
8003622c:	00004492 	lbu	a0,0(s2)
80036230:	48710224 	li	v0,29000
80036234:	1000a2af 	sw	v0,16(sp)
80036238:	1400a0af 	sw	zero,20(sp)
8003623c:	82200400 	srl	a0,a0,0x2
80036240:	08008430 	andi	a0,a0,0x8
80036244:	9560010c 	jal	0x80058254
80036248:	1c008424 	addiu	a0,a0,28
8003624c:	32000224 	li	v0,50
80036250:	100042a6 	sh	v0,16(s2)
80036254:	80000224 	li	v0,128
80036258:	020042a2 	sb	v0,2(s2)
8003625c:	c0101400 	sll	v0,s4,0x3
80036260:	0a0042a6 	sh	v0,10(s2)
80036264:	0d000224 	li	v0,13
80036268:	070042a2 	sb	v0,7(s2)
8003626c:	33000224 	li	v0,51
80036270:	090042a2 	sb	v0,9(s2)
80036274:	00100224 	li	v0,4096
80036278:	120042a6 	sh	v0,18(s2)
8003627c:	04006296 	lhu	v0,4(s3)
80036280:	0a000424 	li	a0,10
80036284:	3c0042a6 	sh	v0,60(s2)
80036288:	3a0042a6 	sh	v0,58(s2)
8003628c:	380042a6 	sh	v0,56(s2)
80036290:	0800628e 	lw	v0,8(s3)
80036294:	2b000624 	li	a2,43
80036298:	03004388 	lwl	v1,3(v0)
8003629c:	00004398 	lwr	v1,0(v0)
800362a0:	07004588 	lwl	a1,7(v0)
800362a4:	04004598 	lwr	a1,4(v0)
800362a8:	330043aa 	swl	v1,51(s2)
800362ac:	300043ba 	swr	v1,48(s2)
800362b0:	370045aa 	swl	a1,55(s2)
800362b4:	340045ba 	swr	a1,52(s2)
800362b8:	00004592 	lbu	a1,0(s2)
800362bc:	40004226 	addiu	v0,s2,64
800362c0:	1000a2af 	sw	v0,16(sp)
800362c4:	0400628e 	lw	v0,4(s3)
800362c8:	21380002 	move	a3,s0
800362cc:	1800b2af 	sw	s2,24(sp)
800362d0:	21d9000c 	jal	0x80036484
800362d4:	1400a2af 	sw	v0,20(sp)
800362d8:	79df0008 	j	0x80037de4
800362dc:	21104002 	move	v0,s2
800362e0:	21204002 	move	a0,s2
800362e4:	c0281400 	sll	a1,s4,0x3
800362e8:	0100a534 	ori	a1,a1,0x1
800362ec:	0400668e 	lw	a2,4(s3)
800362f0:	fbd8000c 	jal	0x800363ec
800362f4:	0f000724 	li	a3,15
800362f8:	32000224 	li	v0,50
800362fc:	100042a6 	sh	v0,16(s2)
80036300:	500040a2 	sb	zero,80(s2)
80036304:	0800628e 	lw	v0,8(s3)
80036308:	78df0008 	j	0x80037de0
8003630c:	1c0042ae 	sw	v0,28(s2)
80036310:	0400628e 	lw	v0,4(s3)
80036314:	0080033c 	lui	v1,0x8000
80036318:	03004488 	lwl	a0,3(v0)
8003631c:	00004498 	lwr	a0,0(v0)
80036320:	07004588 	lwl	a1,7(v0)
80036324:	04004598 	lwr	a1,4(v0)
80036328:	330044aa 	swl	a0,51(s2)
8003632c:	300044ba 	swr	a0,48(s2)
80036330:	370045aa 	swl	a1,55(s2)
80036334:	340045ba 	swr	a1,52(s2)
80036338:	32000224 	li	v0,50
8003633c:	100042a6 	sh	v0,16(s2)
80036340:	80000224 	li	v0,128
80036344:	020042a2 	sb	v0,2(s2)
80036348:	33000224 	li	v0,51
8003634c:	090042a2 	sb	v0,9(s2)
80036350:	00100224 	li	v0,4096
80036354:	120042a6 	sh	v0,18(s2)
80036358:	3c0042a6 	sh	v0,60(s2)
8003635c:	3a0042a6 	sh	v0,58(s2)
80036360:	380042a6 	sh	v0,56(s2)
80036364:	20000224 	li	v0,32
80036368:	0c0042a6 	sh	v0,12(s2)
8003636c:	01004292 	lbu	v0,1(s2)
80036370:	20006334 	ori	v1,v1,0x20
80036374:	180043ae 	sw	v1,24(s2)
80036378:	08000324 	li	v1,8
8003637c:	070040a2 	sb	zero,7(s2)
80036380:	500043a2 	sb	v1,80(s2)
80036384:	a2ff4224 	addiu	v0,v0,-94
80036388:	0a0042a6 	sh	v0,10(s2)
8003638c:	08006296 	lhu	v0,8(s3)
80036390:	78df0008 	j	0x80037de0
80036394:	520042a6 	sh	v0,82(s2)
80036398:	60000224 	li	v0,96
8003639c:	100042a6 	sh	v0,16(s2)
800363a0:	80000224 	li	v0,128
800363a4:	020042a2 	sb	v0,2(s2)
800363a8:	0c006392 	lbu	v1,12(s3)
800363ac:	0f000224 	li	v0,15
800363b0:	070042a2 	sb	v0,7(s2)
800363b4:	33000224 	li	v0,51
800363b8:	090042a2 	sb	v0,9(s2)
800363bc:	00100224 	li	v0,4096
800363c0:	120042a6 	sh	v0,18(s2)
800363c4:	10006324 	addiu	v1,v1,16
800363c8:	0a0043a6 	sh	v1,10(s2)
800363cc:	04006296 	lhu	v0,4(s3)
800363d0:	00000000 	nop
800363d4:	3c0042a6 	sh	v0,60(s2)
800363d8:	3a0042a6 	sh	v0,58(s2)
800363dc:	380042a6 	sh	v0,56(s2)
800363e0:	0800628e 	lw	v0,8(s3)
800363e4:	00000000 	nop
800363e8:	03004388 	lwl	v1,3(v0)
800363ec:	00004398 	lwr	v1,0(v0)
800363f0:	07004488 	lwl	a0,7(v0)
800363f4:	04004498 	lwr	a0,4(v0)
800363f8:	330043aa 	swl	v1,51(s2)
800363fc:	300043ba 	swr	v1,48(s2)
80036400:	370044aa 	swl	a0,55(s2)
80036404:	340044ba 	swr	a0,52(s2)
80036408:	38004386 	lh	v1,56(s2)
8003640c:	00000000 	nop
80036410:	c0100300 	sll	v0,v1,0x3
80036414:	23104300 	subu	v0,v0,v1
80036418:	c0110200 	sll	v0,v0,0x7
8003641c:	02004104 	bgez	v0,0x80036428
80036420:	00000000 	nop
80036424:	ff0f4224 	addiu	v0,v0,4095
80036428:	03130200 	sra	v0,v0,0xc
8003642c:	0c0042a6 	sh	v0,12(s2)
80036430:	c0100300 	sll	v0,v1,0x3
80036434:	23104300 	subu	v0,v0,v1
80036438:	c0110200 	sll	v0,v0,0x7
8003643c:	02004104 	bgez	v0,0x80036448
80036440:	00000000 	nop
80036444:	ff0f4224 	addiu	v0,v0,4095
80036448:	ebde0008 	j	0x80037bac
8003644c:	03130200 	sra	v0,v0,0xc
80036450:	60000224 	li	v0,96
80036454:	100042a6 	sh	v0,16(s2)
80036458:	80000224 	li	v0,128
8003645c:	020042a2 	sb	v0,2(s2)
80036460:	0c006392 	lbu	v1,12(s3)
80036464:	0d000224 	li	v0,13
80036468:	070042a2 	sb	v0,7(s2)
8003646c:	33000224 	li	v0,51
80036470:	090042a2 	sb	v0,9(s2)
80036474:	00100224 	li	v0,4096
80036478:	120042a6 	sh	v0,18(s2)
8003647c:	10006324 	addiu	v1,v1,16
80036480:	0a0043a6 	sh	v1,10(s2)
80036484:	04006296 	lhu	v0,4(s3)
80036488:	00000000 	nop
8003648c:	3c0042a6 	sh	v0,60(s2)
80036490:	3a0042a6 	sh	v0,58(s2)
80036494:	380042a6 	sh	v0,56(s2)
80036498:	0800628e 	lw	v0,8(s3)
8003649c:	00000000 	nop
800364a0:	03004388 	lwl	v1,3(v0)
800364a4:	00004398 	lwr	v1,0(v0)
800364a8:	07004488 	lwl	a0,7(v0)
800364ac:	04004498 	lwr	a0,4(v0)
800364b0:	330043aa 	swl	v1,51(s2)
800364b4:	300043ba 	swr	v1,48(s2)
800364b8:	370044aa 	swl	a0,55(s2)
800364bc:	340044ba 	swr	a0,52(s2)
800364c0:	38004386 	lh	v1,56(s2)
800364c4:	00000000 	nop
800364c8:	c0100300 	sll	v0,v1,0x3
800364cc:	23104300 	subu	v0,v0,v1
800364d0:	c0110200 	sll	v0,v0,0x7
800364d4:	02004104 	bgez	v0,0x800364e0
800364d8:	00000000 	nop
800364dc:	ff0f4224 	addiu	v0,v0,4095
800364e0:	03130200 	sra	v0,v0,0xc
800364e4:	0c0042a6 	sh	v0,12(s2)
800364e8:	c0100300 	sll	v0,v1,0x3
800364ec:	23104300 	subu	v0,v0,v1
800364f0:	c0110200 	sll	v0,v0,0x7
800364f4:	02004104 	bgez	v0,0x80036500
800364f8:	00000000 	nop
800364fc:	ff0f4224 	addiu	v0,v0,4095
80036500:	ebde0008 	j	0x80037bac
80036504:	03130200 	sra	v0,v0,0xc
80036508:	60000224 	li	v0,96
8003650c:	100042a6 	sh	v0,16(s2)
80036510:	84000224 	li	v0,132
80036514:	020042a2 	sb	v0,2(s2)
80036518:	0c006392 	lbu	v1,12(s3)
8003651c:	0d000224 	li	v0,13
80036520:	070042a2 	sb	v0,7(s2)
80036524:	33000224 	li	v0,51
80036528:	090042a2 	sb	v0,9(s2)
8003652c:	00100224 	li	v0,4096
80036530:	120042a6 	sh	v0,18(s2)
80036534:	10006324 	addiu	v1,v1,16
80036538:	0a0043a6 	sh	v1,10(s2)
8003653c:	04006296 	lhu	v0,4(s3)
80036540:	00000000 	nop
80036544:	3c0042a6 	sh	v0,60(s2)
80036548:	3a0042a6 	sh	v0,58(s2)
8003654c:	380042a6 	sh	v0,56(s2)
80036550:	0800628e 	lw	v0,8(s3)
80036554:	00000000 	nop
80036558:	03004388 	lwl	v1,3(v0)
8003655c:	00004398 	lwr	v1,0(v0)
80036560:	07004488 	lwl	a0,7(v0)
80036564:	04004498 	lwr	a0,4(v0)
80036568:	330043aa 	swl	v1,51(s2)
8003656c:	300043ba 	swr	v1,48(s2)
80036570:	370044aa 	swl	a0,55(s2)
80036574:	340044ba 	swr	a0,52(s2)
80036578:	38004386 	lh	v1,56(s2)
8003657c:	00000000 	nop
80036580:	c0100300 	sll	v0,v1,0x3
80036584:	23104300 	subu	v0,v0,v1
80036588:	c0110200 	sll	v0,v0,0x7
8003658c:	02004104 	bgez	v0,0x80036598
80036590:	00000000 	nop
80036594:	ff0f4224 	addiu	v0,v0,4095
80036598:	03130200 	sra	v0,v0,0xc
8003659c:	0c0042a6 	sh	v0,12(s2)
800365a0:	c0100300 	sll	v0,v1,0x3
800365a4:	23104300 	subu	v0,v0,v1
800365a8:	c0110200 	sll	v0,v0,0x7
800365ac:	02004104 	bgez	v0,0x800365b8
800365b0:	00000000 	nop
800365b4:	ff0f4224 	addiu	v0,v0,4095
800365b8:	ebde0008 	j	0x80037bac
800365bc:	03130200 	sra	v0,v0,0xc
800365c0:	01004392 	lbu	v1,1(s2)
800365c4:	05000224 	li	v0,5
800365c8:	060042a2 	sb	v0,6(s2)
800365cc:	87000224 	li	v0,135
800365d0:	02006214 	bne	v1,v0,0x800365dc
800365d4:	40000224 	li	v0,64
800365d8:	80000224 	li	v0,128
800365dc:	b1e2010c 	jal	0x80078ac4
800365e0:	100042a6 	sh	v0,16(s2)
800365e4:	40180200 	sll	v1,v0,0x1
800365e8:	21186200 	addu	v1,v1,v0
800365ec:	02006104 	bgez	v1,0x800365f8
800365f0:	00000000 	nop
800365f4:	ff7f6324 	addiu	v1,v1,32767
800365f8:	c21b0300 	srl	v1,v1,0xf
800365fc:	ff006230 	andi	v0,v1,0xff
80036600:	0300422c 	sltiu	v0,v0,3
80036604:	02004014 	bnez	v0,0x80036610
80036608:	00000000 	nop
8003660c:	02000324 	li	v1,2
80036610:	01004492 	lbu	a0,1(s2)
80036614:	60000224 	li	v0,96
80036618:	02008214 	bne	a0,v0,0x80036624
8003661c:	99000624 	li	a2,153
80036620:	04006324 	addiu	v1,v1,4
80036624:	02008614 	bne	a0,a2,0x80036630
80036628:	79000224 	li	v0,121
8003662c:	03006324 	addiu	v1,v1,3
80036630:	02008214 	bne	a0,v0,0x8003663c
80036634:	85000524 	li	a1,133
80036638:	02006324 	addiu	v1,v1,2
8003663c:	02008514 	bne	a0,a1,0x80036648
80036640:	a3000224 	li	v0,163
80036644:	04006324 	addiu	v1,v1,4
80036648:	03008214 	bne	a0,v0,0x80036658
8003664c:	80006234 	ori	v0,v1,0x80
80036650:	02006324 	addiu	v1,v1,2
80036654:	80006234 	ori	v0,v1,0x80
80036658:	020042a2 	sb	v0,2(s2)
8003665c:	08006292 	lbu	v0,8(s3)
80036660:	01004392 	lbu	v1,1(s2)
80036664:	10004224 	addiu	v0,v0,16
80036668:	0a0042a6 	sh	v0,10(s2)
8003666c:	34000224 	li	v0,52
80036670:	0b006210 	beq	v1,v0,0x800366a0
80036674:	8f000224 	li	v0,143
80036678:	0a006210 	beq	v1,v0,0x800366a4
8003667c:	0e000224 	li	v0,14
80036680:	07006510 	beq	v1,a1,0x800366a0
80036684:	4b000224 	li	v0,75
80036688:	05006210 	beq	v1,v0,0x800366a0
8003668c:	73000224 	li	v0,115
80036690:	04006210 	beq	v1,v0,0x800366a4
80036694:	0e000224 	li	v0,14
80036698:	02006614 	bne	v1,a2,0x800366a4
8003669c:	0f000224 	li	v0,15
800366a0:	0e000224 	li	v0,14
800366a4:	070042a2 	sb	v0,7(s2)
800366a8:	00100224 	li	v0,4096
800366ac:	120042a6 	sh	v0,18(s2)
800366b0:	04006296 	lhu	v0,4(s3)
800366b4:	00000000 	nop
800366b8:	001c0200 	sll	v1,v0,0x10
800366bc:	031c0300 	sra	v1,v1,0x10
800366c0:	3c0042a6 	sh	v0,60(s2)
800366c4:	3a0042a6 	sh	v0,58(s2)
800366c8:	02006104 	bgez	v1,0x800366d4
800366cc:	380042a6 	sh	v0,56(s2)
800366d0:	07006324 	addiu	v1,v1,7
800366d4:	38004486 	lh	a0,56(s2)
800366d8:	c3100300 	sra	v0,v1,0x3
800366dc:	02008104 	bgez	a0,0x800366e8
800366e0:	0c0042a6 	sh	v0,12(s2)
800366e4:	07008424 	addiu	a0,a0,7
800366e8:	c3100400 	sra	v0,a0,0x3
800366ec:	0080033c 	lui	v1,0x8000
800366f0:	25104300 	or	v0,v0,v1
800366f4:	01004392 	lbu	v1,1(s2)
800366f8:	180042ae 	sw	v0,24(s2)
800366fc:	56000224 	li	v0,86
80036700:	07006210 	beq	v1,v0,0x80036720
80036704:	5f000224 	li	v0,95
80036708:	05006210 	beq	v1,v0,0x80036720
8003670c:	79000224 	li	v0,121
80036710:	03006210 	beq	v1,v0,0x80036720
80036714:	70000224 	li	v0,112
80036718:	ef016214 	bne	v1,v0,0x80036ed8
8003671c:	00000000 	nop
80036720:	b1e2010c 	jal	0x80078ac4
80036724:	00000000 	nop
80036728:	43120200 	sra	v0,v0,0x9
8003672c:	80ff4224 	addiu	v0,v0,-128
80036730:	78df0008 	j	0x80037de0
80036734:	500042a2 	sb	v0,80(s2)
80036738:	01000224 	li	v0,1
8003673c:	060042a2 	sb	v0,6(s2)
80036740:	20000224 	li	v0,32
80036744:	100042a6 	sh	v0,16(s2)
80036748:	82000224 	li	v0,130
8003674c:	020042a2 	sb	v0,2(s2)
80036750:	0c006392 	lbu	v1,12(s3)
80036754:	0d000224 	li	v0,13
80036758:	070042a2 	sb	v0,7(s2)
8003675c:	00100224 	li	v0,4096
80036760:	120042a6 	sh	v0,18(s2)
80036764:	10006324 	addiu	v1,v1,16
80036768:	0a0043a6 	sh	v1,10(s2)
8003676c:	04006296 	lhu	v0,4(s3)
80036770:	00000000 	nop
80036774:	3c0042a6 	sh	v0,60(s2)
80036778:	3a0042a6 	sh	v0,58(s2)
8003677c:	380042a6 	sh	v0,56(s2)
80036780:	0800628e 	lw	v0,8(s3)
80036784:	00000000 	nop
80036788:	03004388 	lwl	v1,3(v0)
8003678c:	00004398 	lwr	v1,0(v0)
80036790:	07004488 	lwl	a0,7(v0)
80036794:	04004498 	lwr	a0,4(v0)
80036798:	330043aa 	swl	v1,51(s2)
8003679c:	300043ba 	swr	v1,48(s2)
800367a0:	370044aa 	swl	a0,55(s2)
800367a4:	340044ba 	swr	a0,52(s2)
800367a8:	38004286 	lh	v0,56(s2)
800367ac:	00000000 	nop
800367b0:	02004104 	bgez	v0,0x800367bc
800367b4:	00000000 	nop
800367b8:	07004224 	addiu	v0,v0,7
800367bc:	38004386 	lh	v1,56(s2)
800367c0:	c3100200 	sra	v0,v0,0x3
800367c4:	02006104 	bgez	v1,0x800367d0
800367c8:	0c0042a6 	sh	v0,12(s2)
800367cc:	07006324 	addiu	v1,v1,7
800367d0:	c3100300 	sra	v0,v1,0x3
800367d4:	0080033c 	lui	v1,0x8000
800367d8:	25104300 	or	v0,v0,v1
800367dc:	180042ae 	sw	v0,24(s2)
800367e0:	1000628e 	lw	v0,16(s3)
800367e4:	78df0008 	j	0x80037de0
800367e8:	4c0042ae 	sw	v0,76(s2)
800367ec:	01000224 	li	v0,1
800367f0:	060042a2 	sb	v0,6(s2)
800367f4:	60000224 	li	v0,96
800367f8:	100042a6 	sh	v0,16(s2)
800367fc:	06dc0008 	j	0x80037018
80036800:	80000224 	li	v0,128
80036804:	01000224 	li	v0,1
80036808:	060042a2 	sb	v0,6(s2)
8003680c:	60000224 	li	v0,96
80036810:	100042a6 	sh	v0,16(s2)
80036814:	81000224 	li	v0,129
80036818:	020042a2 	sb	v0,2(s2)
8003681c:	0c006392 	lbu	v1,12(s3)
80036820:	0d000224 	li	v0,13
80036824:	070042a2 	sb	v0,7(s2)
80036828:	00100224 	li	v0,4096
8003682c:	120042a6 	sh	v0,18(s2)
80036830:	10006324 	addiu	v1,v1,16
80036834:	0a0043a6 	sh	v1,10(s2)
80036838:	04006296 	lhu	v0,4(s3)
8003683c:	00000000 	nop
80036840:	3c0042a6 	sh	v0,60(s2)
80036844:	3a0042a6 	sh	v0,58(s2)
80036848:	380042a6 	sh	v0,56(s2)
8003684c:	0800628e 	lw	v0,8(s3)
80036850:	00000000 	nop
80036854:	03004388 	lwl	v1,3(v0)
80036858:	00004398 	lwr	v1,0(v0)
8003685c:	07004488 	lwl	a0,7(v0)
80036860:	04004498 	lwr	a0,4(v0)
80036864:	330043aa 	swl	v1,51(s2)
80036868:	300043ba 	swr	v1,48(s2)
8003686c:	370044aa 	swl	a0,55(s2)
80036870:	340044ba 	swr	a0,52(s2)
80036874:	38004286 	lh	v0,56(s2)
80036878:	00000000 	nop
8003687c:	02004104 	bgez	v0,0x80036888
80036880:	00000000 	nop
80036884:	07004224 	addiu	v0,v0,7
80036888:	38004386 	lh	v1,56(s2)
8003688c:	c3100200 	sra	v0,v0,0x3
80036890:	02006104 	bgez	v1,0x8003689c
80036894:	0c0042a6 	sh	v0,12(s2)
80036898:	07006324 	addiu	v1,v1,7
8003689c:	c3100300 	sra	v0,v1,0x3
800368a0:	0080033c 	lui	v1,0x8000
800368a4:	25104300 	or	v0,v0,v1
800368a8:	180042ae 	sw	v0,24(s2)
800368ac:	80fc0224 	li	v0,-896
800368b0:	500042a6 	sh	v0,80(s2)
800368b4:	1000628e 	lw	v0,16(s3)
800368b8:	78df0008 	j	0x80037de0
800368bc:	1c0042ae 	sw	v0,28(s2)
800368c0:	01000224 	li	v0,1
800368c4:	060042a2 	sb	v0,6(s2)
800368c8:	24000224 	li	v0,36
800368cc:	100042a6 	sh	v0,16(s2)
800368d0:	82000224 	li	v0,130
800368d4:	020042a2 	sb	v0,2(s2)
800368d8:	0c006392 	lbu	v1,12(s3)
800368dc:	0d000224 	li	v0,13
800368e0:	070042a2 	sb	v0,7(s2)
800368e4:	00100224 	li	v0,4096
800368e8:	120042a6 	sh	v0,18(s2)
800368ec:	10006324 	addiu	v1,v1,16
800368f0:	0a0043a6 	sh	v1,10(s2)
800368f4:	04006296 	lhu	v0,4(s3)
800368f8:	00000000 	nop
800368fc:	3c0042a6 	sh	v0,60(s2)
80036900:	3a0042a6 	sh	v0,58(s2)
80036904:	380042a6 	sh	v0,56(s2)
80036908:	0800628e 	lw	v0,8(s3)
8003690c:	00000000 	nop
80036910:	03004388 	lwl	v1,3(v0)
80036914:	00004398 	lwr	v1,0(v0)
80036918:	07004488 	lwl	a0,7(v0)
8003691c:	04004498 	lwr	a0,4(v0)
80036920:	330043aa 	swl	v1,51(s2)
80036924:	300043ba 	swr	v1,48(s2)
80036928:	370044aa 	swl	a0,55(s2)
8003692c:	340044ba 	swr	a0,52(s2)
80036930:	38004286 	lh	v0,56(s2)
80036934:	00000000 	nop
80036938:	02004104 	bgez	v0,0x80036944
8003693c:	00000000 	nop
80036940:	07004224 	addiu	v0,v0,7
80036944:	38004386 	lh	v1,56(s2)
80036948:	c3100200 	sra	v0,v0,0x3
8003694c:	02006104 	bgez	v1,0x80036958
80036950:	0c0042a6 	sh	v0,12(s2)
80036954:	07006324 	addiu	v1,v1,7
80036958:	c3100300 	sra	v0,v1,0x3
8003695c:	0080033c 	lui	v1,0x8000
80036960:	25104300 	or	v0,v0,v1
80036964:	180042ae 	sw	v0,24(s2)
80036968:	1000628e 	lw	v0,16(s3)
8003696c:	00000000 	nop
80036970:	4c0042ae 	sw	v0,76(s2)
80036974:	a800428c 	lw	v0,168(v0)
80036978:	4c00438e 	lw	v1,76(s2)
8003697c:	1c004294 	lhu	v0,28(v0)
80036980:	00000000 	nop
80036984:	500042a6 	sh	v0,80(s2)
80036988:	a800628c 	lw	v0,168(v1)
8003698c:	00000000 	nop
80036990:	22004294 	lhu	v0,34(v0)
80036994:	78df0008 	j	0x80037de0
80036998:	520042a6 	sh	v0,82(s2)
8003699c:	05000224 	li	v0,5
800369a0:	060042a2 	sb	v0,6(s2)
800369a4:	20000224 	li	v0,32
800369a8:	100042a6 	sh	v0,16(s2)
800369ac:	80000224 	li	v0,128
800369b0:	020042a2 	sb	v0,2(s2)
800369b4:	0c006392 	lbu	v1,12(s3)
800369b8:	0d000224 	li	v0,13
800369bc:	070042a2 	sb	v0,7(s2)
800369c0:	00100224 	li	v0,4096
800369c4:	120042a6 	sh	v0,18(s2)
800369c8:	10006324 	addiu	v1,v1,16
800369cc:	0a0043a6 	sh	v1,10(s2)
800369d0:	04006296 	lhu	v0,4(s3)
800369d4:	00000000 	nop
800369d8:	3c0042a6 	sh	v0,60(s2)
800369dc:	3a0042a6 	sh	v0,58(s2)
800369e0:	380042a6 	sh	v0,56(s2)
800369e4:	0800628e 	lw	v0,8(s3)
800369e8:	00000000 	nop
800369ec:	03004388 	lwl	v1,3(v0)
800369f0:	00004398 	lwr	v1,0(v0)
800369f4:	07004488 	lwl	a0,7(v0)
800369f8:	04004498 	lwr	a0,4(v0)
800369fc:	330043aa 	swl	v1,51(s2)
80036a00:	300043ba 	swr	v1,48(s2)
80036a04:	370044aa 	swl	a0,55(s2)
80036a08:	340044ba 	swr	a0,52(s2)
80036a0c:	38004396 	lhu	v1,56(s2)
80036a10:	80fc0224 	li	v0,-896
80036a14:	500042a6 	sh	v0,80(s2)
80036a18:	38004286 	lh	v0,56(s2)
80036a1c:	0c0043a6 	sh	v1,12(s2)
80036a20:	0080033c 	lui	v1,0x8000
80036a24:	25104300 	or	v0,v0,v1
80036a28:	180042ae 	sw	v0,24(s2)
80036a2c:	1000628e 	lw	v0,16(s3)
80036a30:	00000000 	nop
80036a34:	1c0042ae 	sw	v0,28(s2)
80036a38:	4c00428c 	lw	v0,76(v0)
80036a3c:	00000000 	nop
80036a40:	4c0042ae 	sw	v0,76(s2)
80036a44:	7800428c 	lw	v0,120(v0)
80036a48:	320040a6 	sh	zero,50(s2)
80036a4c:	400040a6 	sh	zero,64(s2)
80036a50:	420040a6 	sh	zero,66(s2)
80036a54:	440040a6 	sh	zero,68(s2)
80036a58:	78df0008 	j	0x80037de0
80036a5c:	240042ae 	sw	v0,36(s2)
80036a60:	05000224 	li	v0,5
80036a64:	060042a2 	sb	v0,6(s2)
80036a68:	20000224 	li	v0,32
80036a6c:	100042a6 	sh	v0,16(s2)
80036a70:	80000224 	li	v0,128
80036a74:	020042a2 	sb	v0,2(s2)
80036a78:	0c006392 	lbu	v1,12(s3)
80036a7c:	0d000224 	li	v0,13
80036a80:	070042a2 	sb	v0,7(s2)
80036a84:	00100224 	li	v0,4096
80036a88:	120042a6 	sh	v0,18(s2)
80036a8c:	10006324 	addiu	v1,v1,16
80036a90:	0a0043a6 	sh	v1,10(s2)
80036a94:	04006296 	lhu	v0,4(s3)
80036a98:	00000000 	nop
80036a9c:	3c0042a6 	sh	v0,60(s2)
80036aa0:	3a0042a6 	sh	v0,58(s2)
80036aa4:	380042a6 	sh	v0,56(s2)
80036aa8:	0800628e 	lw	v0,8(s3)
80036aac:	00000000 	nop
80036ab0:	03004388 	lwl	v1,3(v0)
80036ab4:	00004398 	lwr	v1,0(v0)
80036ab8:	07004488 	lwl	a0,7(v0)
80036abc:	04004498 	lwr	a0,4(v0)
80036ac0:	330043aa 	swl	v1,51(s2)
80036ac4:	300043ba 	swr	v1,48(s2)
80036ac8:	370044aa 	swl	a0,55(s2)
80036acc:	340044ba 	swr	a0,52(s2)
80036ad0:	38004396 	lhu	v1,56(s2)
80036ad4:	80fc0224 	li	v0,-896
80036ad8:	500042a6 	sh	v0,80(s2)
80036adc:	38004286 	lh	v0,56(s2)
80036ae0:	0c0043a6 	sh	v1,12(s2)
80036ae4:	0080033c 	lui	v1,0x8000
80036ae8:	25104300 	or	v0,v0,v1
80036aec:	180042ae 	sw	v0,24(s2)
80036af0:	1000628e 	lw	v0,16(s3)
80036af4:	00000000 	nop
80036af8:	1c0042ae 	sw	v0,28(s2)
80036afc:	4c00428c 	lw	v0,76(v0)
80036b00:	00000000 	nop
80036b04:	4c0042ae 	sw	v0,76(s2)
80036b08:	1a80023c 	lui	v0,0x801a
80036b0c:	7491428c 	lw	v0,-28300(v0)
80036b10:	320040a6 	sh	zero,50(s2)
80036b14:	400040a6 	sh	zero,64(s2)
80036b18:	420040a6 	sh	zero,66(s2)
80036b1c:	440040a6 	sh	zero,68(s2)
80036b20:	40064224 	addiu	v0,v0,1600
80036b24:	78df0008 	j	0x80037de0
80036b28:	240042ae 	sw	v0,36(s2)
80036b2c:	01000224 	li	v0,1
80036b30:	060042a2 	sb	v0,6(s2)
80036b34:	20000224 	li	v0,32
80036b38:	100042a6 	sh	v0,16(s2)
80036b3c:	81000224 	li	v0,129
80036b40:	020042a2 	sb	v0,2(s2)
80036b44:	0c006392 	lbu	v1,12(s3)
80036b48:	0d000224 	li	v0,13
80036b4c:	070042a2 	sb	v0,7(s2)
80036b50:	00100224 	li	v0,4096
80036b54:	120042a6 	sh	v0,18(s2)
80036b58:	10006324 	addiu	v1,v1,16
80036b5c:	0a0043a6 	sh	v1,10(s2)
80036b60:	04006296 	lhu	v0,4(s3)
80036b64:	00000000 	nop
80036b68:	3c0042a6 	sh	v0,60(s2)
80036b6c:	3a0042a6 	sh	v0,58(s2)
80036b70:	380042a6 	sh	v0,56(s2)
80036b74:	0800628e 	lw	v0,8(s3)
80036b78:	00000000 	nop
80036b7c:	03004388 	lwl	v1,3(v0)
80036b80:	00004398 	lwr	v1,0(v0)
80036b84:	07004488 	lwl	a0,7(v0)
80036b88:	04004498 	lwr	a0,4(v0)
80036b8c:	330043aa 	swl	v1,51(s2)
80036b90:	300043ba 	swr	v1,48(s2)
80036b94:	370044aa 	swl	a0,55(s2)
80036b98:	340044ba 	swr	a0,52(s2)
80036b9c:	38004286 	lh	v0,56(s2)
80036ba0:	00000000 	nop
80036ba4:	02004104 	bgez	v0,0x80036bb0
80036ba8:	00000000 	nop
80036bac:	07004224 	addiu	v0,v0,7
80036bb0:	38004386 	lh	v1,56(s2)
80036bb4:	c3100200 	sra	v0,v0,0x3
80036bb8:	02006104 	bgez	v1,0x80036bc4
80036bbc:	0c0042a6 	sh	v0,12(s2)
80036bc0:	07006324 	addiu	v1,v1,7
80036bc4:	c3100300 	sra	v0,v1,0x3
80036bc8:	0080033c 	lui	v1,0x8000
80036bcc:	25104300 	or	v0,v0,v1
80036bd0:	180042ae 	sw	v0,24(s2)
80036bd4:	80fc0224 	li	v0,-896
80036bd8:	500042a6 	sh	v0,80(s2)
80036bdc:	1000628e 	lw	v0,16(s3)
80036be0:	00000000 	nop
80036be4:	1c0042ae 	sw	v0,28(s2)
80036be8:	4c00428c 	lw	v0,76(v0)
80036bec:	78df0008 	j	0x80037de0
80036bf0:	4c0042ae 	sw	v0,76(s2)
80036bf4:	21204002 	move	a0,s2
80036bf8:	0400668e 	lw	a2,4(s3)
80036bfc:	1000658e 	lw	a1,16(s3)
80036c00:	1400678e 	lw	a3,20(s3)
80036c04:	1000a524 	addiu	a1,a1,16
80036c08:	fbd8000c 	jal	0x800363ec
80036c0c:	0400e734 	ori	a3,a3,0x4
80036c10:	83000224 	li	v0,131
80036c14:	020042a2 	sb	v0,2(s2)
80036c18:	08006296 	lhu	v0,8(s3)
80036c1c:	00000000 	nop
80036c20:	500042a6 	sh	v0,80(s2)
80036c24:	0c006296 	lhu	v0,12(s3)
80036c28:	78df0008 	j	0x80037de0
80036c2c:	100042a6 	sh	v0,16(s2)
80036c30:	01000224 	li	v0,1
80036c34:	060042a2 	sb	v0,6(s2)
80036c38:	c8de0008 	j	0x80037b20
80036c3c:	20000224 	li	v0,32
80036c40:	01004392 	lbu	v1,1(s2)
80036c44:	01000224 	li	v0,1
80036c48:	060042a2 	sb	v0,6(s2)
80036c4c:	40000224 	li	v0,64
80036c50:	100042a6 	sh	v0,16(s2)
80036c54:	83000224 	li	v0,131
80036c58:	020042a2 	sb	v0,2(s2)
80036c5c:	a4000224 	li	v0,164
80036c60:	02006214 	bne	v1,v0,0x80036c6c
80036c64:	85000224 	li	v0,133
80036c68:	020042a2 	sb	v0,2(s2)
80036c6c:	0c006392 	lbu	v1,12(s3)
80036c70:	0d000224 	li	v0,13
80036c74:	070042a2 	sb	v0,7(s2)
80036c78:	00100224 	li	v0,4096
80036c7c:	120042a6 	sh	v0,18(s2)
80036c80:	10006324 	addiu	v1,v1,16
80036c84:	0a0043a6 	sh	v1,10(s2)
80036c88:	04006296 	lhu	v0,4(s3)
80036c8c:	00000000 	nop
80036c90:	3c0042a6 	sh	v0,60(s2)
80036c94:	3a0042a6 	sh	v0,58(s2)
80036c98:	380042a6 	sh	v0,56(s2)
80036c9c:	0800628e 	lw	v0,8(s3)
80036ca0:	00000000 	nop
80036ca4:	03004388 	lwl	v1,3(v0)
80036ca8:	00004398 	lwr	v1,0(v0)
80036cac:	07004488 	lwl	a0,7(v0)
80036cb0:	04004498 	lwr	a0,4(v0)
80036cb4:	330043aa 	swl	v1,51(s2)
80036cb8:	300043ba 	swr	v1,48(s2)
80036cbc:	370044aa 	swl	a0,55(s2)
80036cc0:	340044ba 	swr	a0,52(s2)
80036cc4:	38004296 	lhu	v0,56(s2)
80036cc8:	38004496 	lhu	a0,56(s2)
80036ccc:	00140200 	sll	v0,v0,0x10
80036cd0:	031c0200 	sra	v1,v0,0x10
80036cd4:	c2170200 	srl	v0,v0,0x1f
80036cd8:	21186200 	addu	v1,v1,v0
80036cdc:	43180300 	sra	v1,v1,0x1
80036ce0:	00240400 	sll	a0,a0,0x10
80036ce4:	03140400 	sra	v0,a0,0x10
80036ce8:	c2270400 	srl	a0,a0,0x1f
80036cec:	21104400 	addu	v0,v0,a0
80036cf0:	43100200 	sra	v0,v0,0x1
80036cf4:	ebde0008 	j	0x80037bac
80036cf8:	0c0043a6 	sh	v1,12(s2)
80036cfc:	10000224 	li	v0,16
80036d00:	100042a6 	sh	v0,16(s2)
80036d04:	060040a2 	sb	zero,6(s2)
80036d08:	0400628e 	lw	v0,4(s3)
80036d0c:	00000000 	nop
80036d10:	21184000 	move	v1,v0
80036d14:	4c0042ae 	sw	v0,76(s2)
80036d18:	00100224 	li	v0,4096
80036d1c:	240062a4 	sh	v0,36(v1)
80036d20:	0d000224 	li	v0,13
80036d24:	1e0062a0 	sb	v0,30(v1)
80036d28:	ff0f0224 	li	v0,4095
80036d2c:	78df0008 	j	0x80037de0
80036d30:	360062a4 	sh	v0,54(v1)
80036d34:	05000224 	li	v0,5
80036d38:	060042a2 	sb	v0,6(s2)
80036d3c:	10000224 	li	v0,16
80036d40:	b1e2010c 	jal	0x80078ac4
80036d44:	100042a6 	sh	v0,16(s2)
80036d48:	40180200 	sll	v1,v0,0x1
80036d4c:	21186200 	addu	v1,v1,v0
80036d50:	02006104 	bgez	v1,0x80036d5c
80036d54:	00000000 	nop
80036d58:	ff7f6324 	addiu	v1,v1,32767
80036d5c:	c21b0300 	srl	v1,v1,0xf
80036d60:	ff006230 	andi	v0,v1,0xff
80036d64:	0300422c 	sltiu	v0,v0,3
80036d68:	02004014 	bnez	v0,0x80036d74
80036d6c:	00000000 	nop
80036d70:	02000324 	li	v1,2
80036d74:	03006224 	addiu	v0,v1,3
80036d78:	a9dd0008 	j	0x800376a4
80036d7c:	80004234 	ori	v0,v0,0x80
80036d80:	01000224 	li	v0,1
80036d84:	060042a2 	sb	v0,6(s2)
80036d88:	40000224 	li	v0,64
80036d8c:	100042a6 	sh	v0,16(s2)
80036d90:	83000224 	li	v0,131
80036d94:	020042a2 	sb	v0,2(s2)
80036d98:	08006392 	lbu	v1,8(s3)
80036d9c:	0f000224 	li	v0,15
80036da0:	070042a2 	sb	v0,7(s2)
80036da4:	00100224 	li	v0,4096
80036da8:	120042a6 	sh	v0,18(s2)
80036dac:	10006324 	addiu	v1,v1,16
80036db0:	0a0043a6 	sh	v1,10(s2)
80036db4:	04006496 	lhu	a0,4(s3)
80036db8:	00000000 	nop
80036dbc:	001c0400 	sll	v1,a0,0x10
80036dc0:	031c0300 	sra	v1,v1,0x10
80036dc4:	40100300 	sll	v0,v1,0x1
80036dc8:	21104300 	addu	v0,v0,v1
80036dcc:	40120200 	sll	v0,v0,0x9
80036dd0:	3c0044a6 	sh	a0,60(s2)
80036dd4:	3a0044a6 	sh	a0,58(s2)
80036dd8:	02004104 	bgez	v0,0x80036de4
80036ddc:	380044a6 	sh	a0,56(s2)
80036de0:	ff0f4224 	addiu	v0,v0,4095
80036de4:	38004386 	lh	v1,56(s2)
80036de8:	03130200 	sra	v0,v0,0xc
80036dec:	0c0042a6 	sh	v0,12(s2)
80036df0:	40100300 	sll	v0,v1,0x1
80036df4:	21104300 	addu	v0,v0,v1
80036df8:	40120200 	sll	v0,v0,0x9
80036dfc:	02004104 	bgez	v0,0x80036e08
80036e00:	0a000424 	li	a0,10
80036e04:	ff0f4224 	addiu	v0,v0,4095
80036e08:	03130200 	sra	v0,v0,0xc
80036e0c:	0080033c 	lui	v1,0x8000
80036e10:	00004592 	lbu	a1,0(s2)
80036e14:	25104300 	or	v0,v0,v1
80036e18:	180042ae 	sw	v0,24(s2)
80036e1c:	40004226 	addiu	v0,s2,64
80036e20:	1000a2af 	sw	v0,16(sp)
80036e24:	38004286 	lh	v0,56(s2)
80036e28:	d6000624 	li	a2,214
80036e2c:	1400a2af 	sw	v0,20(sp)
80036e30:	0a004286 	lh	v0,10(s2)
80036e34:	5bdf0008 	j	0x80037d6c
80036e38:	20004726 	addiu	a3,s2,32
80036e3c:	05000224 	li	v0,5
80036e40:	060042a2 	sb	v0,6(s2)
80036e44:	40000224 	li	v0,64
80036e48:	100042a6 	sh	v0,16(s2)
80036e4c:	80000224 	li	v0,128
80036e50:	020042a2 	sb	v0,2(s2)
80036e54:	08006392 	lbu	v1,8(s3)
80036e58:	69df0008 	j	0x80037da4
80036e5c:	0f000224 	li	v0,15
80036e60:	05000224 	li	v0,5
80036e64:	060042a2 	sb	v0,6(s2)
80036e68:	10000224 	li	v0,16
80036e6c:	b1e2010c 	jal	0x80078ac4
80036e70:	100042a6 	sh	v0,16(s2)
80036e74:	40180200 	sll	v1,v0,0x1
80036e78:	21186200 	addu	v1,v1,v0
80036e7c:	02006104 	bgez	v1,0x80036e88
80036e80:	00000000 	nop
80036e84:	ff7f6324 	addiu	v1,v1,32767
80036e88:	c21b0300 	srl	v1,v1,0xf
80036e8c:	ff006230 	andi	v0,v1,0xff
80036e90:	0300422c 	sltiu	v0,v0,3
80036e94:	03004014 	bnez	v0,0x80036ea4
80036e98:	80006234 	ori	v0,v1,0x80
80036e9c:	02000324 	li	v1,2
80036ea0:	80006234 	ori	v0,v1,0x80
80036ea4:	020042a2 	sb	v0,2(s2)
80036ea8:	08006392 	lbu	v1,8(s3)
80036eac:	0f000224 	li	v0,15
80036eb0:	070042a2 	sb	v0,7(s2)
80036eb4:	00100224 	li	v0,4096
80036eb8:	120042a6 	sh	v0,18(s2)
80036ebc:	10006324 	addiu	v1,v1,16
80036ec0:	0a0043a6 	sh	v1,10(s2)
80036ec4:	04006296 	lhu	v0,4(s3)
80036ec8:	00000000 	nop
80036ecc:	3c0042a6 	sh	v0,60(s2)
80036ed0:	3a0042a6 	sh	v0,58(s2)
80036ed4:	380042a6 	sh	v0,56(s2)
80036ed8:	b1e2010c 	jal	0x80078ac4
80036edc:	00000000 	nop
80036ee0:	c3120200 	sra	v0,v0,0xb
80036ee4:	10004224 	addiu	v0,v0,16
80036ee8:	78df0008 	j	0x80037de0
80036eec:	500042a2 	sb	v0,80(s2)
80036ef0:	01000224 	li	v0,1
80036ef4:	060042a2 	sb	v0,6(s2)
80036ef8:	40000224 	li	v0,64
80036efc:	100042a6 	sh	v0,16(s2)
80036f00:	86000224 	li	v0,134
80036f04:	020042a2 	sb	v0,2(s2)
80036f08:	08006392 	lbu	v1,8(s3)
80036f0c:	0f000224 	li	v0,15
80036f10:	070042a2 	sb	v0,7(s2)
80036f14:	00100224 	li	v0,4096
80036f18:	120042a6 	sh	v0,18(s2)
80036f1c:	10006324 	addiu	v1,v1,16
80036f20:	0a0043a6 	sh	v1,10(s2)
80036f24:	04006496 	lhu	a0,4(s3)
80036f28:	00000000 	nop
80036f2c:	001c0400 	sll	v1,a0,0x10
80036f30:	031c0300 	sra	v1,v1,0x10
80036f34:	40100300 	sll	v0,v1,0x1
80036f38:	21104300 	addu	v0,v0,v1
80036f3c:	40120200 	sll	v0,v0,0x9
80036f40:	3c0044a6 	sh	a0,60(s2)
80036f44:	3a0044a6 	sh	a0,58(s2)
80036f48:	02004104 	bgez	v0,0x80036f54
80036f4c:	380044a6 	sh	a0,56(s2)
80036f50:	ff0f4224 	addiu	v0,v0,4095
80036f54:	38004386 	lh	v1,56(s2)
80036f58:	03130200 	sra	v0,v0,0xc
80036f5c:	0c0042a6 	sh	v0,12(s2)
80036f60:	40100300 	sll	v0,v1,0x1
80036f64:	21104300 	addu	v0,v0,v1
80036f68:	40120200 	sll	v0,v0,0x9
80036f6c:	02004104 	bgez	v0,0x80036f78
80036f70:	00000000 	nop
80036f74:	ff0f4224 	addiu	v0,v0,4095
80036f78:	ebde0008 	j	0x80037bac
80036f7c:	03130200 	sra	v0,v0,0xc
80036f80:	01000224 	li	v0,1
80036f84:	060042a2 	sb	v0,6(s2)
80036f88:	40000224 	li	v0,64
80036f8c:	100042a6 	sh	v0,16(s2)
80036f90:	83000224 	li	v0,131
80036f94:	020042a2 	sb	v0,2(s2)
80036f98:	08006392 	lbu	v1,8(s3)
80036f9c:	0f000224 	li	v0,15
80036fa0:	070042a2 	sb	v0,7(s2)
80036fa4:	00100224 	li	v0,4096
80036fa8:	120042a6 	sh	v0,18(s2)
80036fac:	10006324 	addiu	v1,v1,16
80036fb0:	0a0043a6 	sh	v1,10(s2)
80036fb4:	04006496 	lhu	a0,4(s3)
80036fb8:	00000000 	nop
80036fbc:	001c0400 	sll	v1,a0,0x10
80036fc0:	031c0300 	sra	v1,v1,0x10
80036fc4:	40100300 	sll	v0,v1,0x1
80036fc8:	21104300 	addu	v0,v0,v1
80036fcc:	40120200 	sll	v0,v0,0x9
80036fd0:	3c0044a6 	sh	a0,60(s2)
80036fd4:	3a0044a6 	sh	a0,58(s2)
80036fd8:	02004104 	bgez	v0,0x80036fe4
80036fdc:	380044a6 	sh	a0,56(s2)
80036fe0:	ff0f4224 	addiu	v0,v0,4095
80036fe4:	38004386 	lh	v1,56(s2)
80036fe8:	03130200 	sra	v0,v0,0xc
80036fec:	0c0042a6 	sh	v0,12(s2)
80036ff0:	40100300 	sll	v0,v1,0x1
80036ff4:	21104300 	addu	v0,v0,v1
80036ff8:	40120200 	sll	v0,v0,0x9
80036ffc:	02004104 	bgez	v0,0x80037008
80037000:	00000000 	nop
80037004:	ff0f4224 	addiu	v0,v0,4095
80037008:	ebde0008 	j	0x80037bac
8003700c:	03130200 	sra	v0,v0,0xc
80037010:	01000224 	li	v0,1
80037014:	060042a2 	sb	v0,6(s2)
80037018:	40000224 	li	v0,64
8003701c:	100042a6 	sh	v0,16(s2)
80037020:	84000224 	li	v0,132
80037024:	020042a2 	sb	v0,2(s2)
80037028:	08006392 	lbu	v1,8(s3)
8003702c:	0f000224 	li	v0,15
80037030:	070042a2 	sb	v0,7(s2)
80037034:	00100224 	li	v0,4096
80037038:	120042a6 	sh	v0,18(s2)
8003703c:	10006324 	addiu	v1,v1,16
80037040:	0a0043a6 	sh	v1,10(s2)
80037044:	04006496 	lhu	a0,4(s3)
80037048:	00000000 	nop
8003704c:	001c0400 	sll	v1,a0,0x10
80037050:	031c0300 	sra	v1,v1,0x10
80037054:	40100300 	sll	v0,v1,0x1
80037058:	21104300 	addu	v0,v0,v1
8003705c:	40120200 	sll	v0,v0,0x9
80037060:	3c0044a6 	sh	a0,60(s2)
80037064:	3a0044a6 	sh	a0,58(s2)
80037068:	02004104 	bgez	v0,0x80037074
8003706c:	380044a6 	sh	a0,56(s2)
80037070:	ff0f4224 	addiu	v0,v0,4095
80037074:	38004386 	lh	v1,56(s2)
80037078:	03130200 	sra	v0,v0,0xc
8003707c:	0c0042a6 	sh	v0,12(s2)
80037080:	40100300 	sll	v0,v1,0x1
80037084:	21104300 	addu	v0,v0,v1
80037088:	40120200 	sll	v0,v0,0x9
8003708c:	02004104 	bgez	v0,0x80037098
80037090:	00000000 	nop
80037094:	ff0f4224 	addiu	v0,v0,4095
80037098:	ebde0008 	j	0x80037bac
8003709c:	03130200 	sra	v0,v0,0xc
800370a0:	05000224 	li	v0,5
800370a4:	060042a2 	sb	v0,6(s2)
800370a8:	40000224 	li	v0,64
800370ac:	100042a6 	sh	v0,16(s2)
800370b0:	80000224 	li	v0,128
800370b4:	020042a2 	sb	v0,2(s2)
800370b8:	0c006392 	lbu	v1,12(s3)
800370bc:	0d000224 	li	v0,13
800370c0:	070042a2 	sb	v0,7(s2)
800370c4:	00100224 	li	v0,4096
800370c8:	120042a6 	sh	v0,18(s2)
800370cc:	10006324 	addiu	v1,v1,16
800370d0:	0a0043a6 	sh	v1,10(s2)
800370d4:	04006296 	lhu	v0,4(s3)
800370d8:	00000000 	nop
800370dc:	3c0042a6 	sh	v0,60(s2)
800370e0:	3a0042a6 	sh	v0,58(s2)
800370e4:	380042a6 	sh	v0,56(s2)
800370e8:	0800628e 	lw	v0,8(s3)
800370ec:	00000000 	nop
800370f0:	03004388 	lwl	v1,3(v0)
800370f4:	00004398 	lwr	v1,0(v0)
800370f8:	07004488 	lwl	a0,7(v0)
800370fc:	04004498 	lwr	a0,4(v0)
80037100:	330043aa 	swl	v1,51(s2)
80037104:	300043ba 	swr	v1,48(s2)
80037108:	370044aa 	swl	a0,55(s2)
8003710c:	340044ba 	swr	a0,52(s2)
80037110:	38004286 	lh	v0,56(s2)
80037114:	300040a6 	sh	zero,48(s2)
80037118:	320040a6 	sh	zero,50(s2)
8003711c:	e1de0008 	j	0x80037b84
80037120:	340040a6 	sh	zero,52(s2)
80037124:	01000224 	li	v0,1
80037128:	060042a2 	sb	v0,6(s2)
8003712c:	40000224 	li	v0,64
80037130:	100042a6 	sh	v0,16(s2)
80037134:	84000224 	li	v0,132
80037138:	020042a2 	sb	v0,2(s2)
8003713c:	0c006392 	lbu	v1,12(s3)
80037140:	80000224 	li	v0,128
80037144:	070042a2 	sb	v0,7(s2)
80037148:	cede0008 	j	0x80037b38
8003714c:	00100224 	li	v0,4096
80037150:	01000224 	li	v0,1
80037154:	060042a2 	sb	v0,6(s2)
80037158:	40000224 	li	v0,64
8003715c:	100042a6 	sh	v0,16(s2)
80037160:	84000224 	li	v0,132
80037164:	020042a2 	sb	v0,2(s2)
80037168:	0c006392 	lbu	v1,12(s3)
8003716c:	0d000224 	li	v0,13
80037170:	070042a2 	sb	v0,7(s2)
80037174:	00100224 	li	v0,4096
80037178:	120042a6 	sh	v0,18(s2)
8003717c:	10006324 	addiu	v1,v1,16
80037180:	0a0043a6 	sh	v1,10(s2)
80037184:	04006296 	lhu	v0,4(s3)
80037188:	00000000 	nop
8003718c:	3c0042a6 	sh	v0,60(s2)
80037190:	3a0042a6 	sh	v0,58(s2)
80037194:	380042a6 	sh	v0,56(s2)
80037198:	0800628e 	lw	v0,8(s3)
8003719c:	00000000 	nop
800371a0:	03004388 	lwl	v1,3(v0)
800371a4:	00004398 	lwr	v1,0(v0)
800371a8:	07004488 	lwl	a0,7(v0)
800371ac:	04004498 	lwr	a0,4(v0)
800371b0:	330043aa 	swl	v1,51(s2)
800371b4:	300043ba 	swr	v1,48(s2)
800371b8:	370044aa 	swl	a0,55(s2)
800371bc:	340044ba 	swr	a0,52(s2)
800371c0:	38004296 	lhu	v0,56(s2)
800371c4:	38004496 	lhu	a0,56(s2)
800371c8:	00140200 	sll	v0,v0,0x10
800371cc:	031c0200 	sra	v1,v0,0x10
800371d0:	c2170200 	srl	v0,v0,0x1f
800371d4:	21186200 	addu	v1,v1,v0
800371d8:	43180300 	sra	v1,v1,0x1
800371dc:	00240400 	sll	a0,a0,0x10
800371e0:	03140400 	sra	v0,a0,0x10
800371e4:	c2270400 	srl	a0,a0,0x1f
800371e8:	21104400 	addu	v0,v0,a0
800371ec:	43100200 	sra	v0,v0,0x1
800371f0:	ebde0008 	j	0x80037bac
800371f4:	0c0043a6 	sh	v1,12(s2)
800371f8:	01000224 	li	v0,1
800371fc:	060042a2 	sb	v0,6(s2)
80037200:	40000224 	li	v0,64
80037204:	100042a6 	sh	v0,16(s2)
80037208:	81000224 	li	v0,129
8003720c:	020042a2 	sb	v0,2(s2)
80037210:	0c006392 	lbu	v1,12(s3)
80037214:	0d000224 	li	v0,13
80037218:	070042a2 	sb	v0,7(s2)
8003721c:	00100224 	li	v0,4096
80037220:	120042a6 	sh	v0,18(s2)
80037224:	10006324 	addiu	v1,v1,16
80037228:	a7de0008 	j	0x80037a9c
8003722c:	0a0043a6 	sh	v1,10(s2)
80037230:	01004392 	lbu	v1,1(s2)
80037234:	01000224 	li	v0,1
80037238:	060042a2 	sb	v0,6(s2)
8003723c:	40000224 	li	v0,64
80037240:	100042a6 	sh	v0,16(s2)
80037244:	80000224 	li	v0,128
80037248:	020042a2 	sb	v0,2(s2)
8003724c:	a8000224 	li	v0,168
80037250:	02006214 	bne	v1,v0,0x8003725c
80037254:	84000224 	li	v0,132
80037258:	020042a2 	sb	v0,2(s2)
8003725c:	01004292 	lbu	v0,1(s2)
80037260:	40000424 	li	a0,64
80037264:	02004414 	bne	v0,a0,0x80037270
80037268:	84000224 	li	v0,132
8003726c:	020042a2 	sb	v0,2(s2)
80037270:	0c006292 	lbu	v0,12(s3)
80037274:	01004392 	lbu	v1,1(s2)
80037278:	10004224 	addiu	v0,v0,16
8003727c:	03006414 	bne	v1,a0,0x8003728c
80037280:	0a0042a6 	sh	v0,10(s2)
80037284:	a4de0008 	j	0x80037a90
80037288:	0e000224 	li	v0,14
8003728c:	0d000224 	li	v0,13
80037290:	070042a2 	sb	v0,7(s2)
80037294:	00100224 	li	v0,4096
80037298:	120042a6 	sh	v0,18(s2)
8003729c:	04006296 	lhu	v0,4(s3)
800372a0:	00000000 	nop
800372a4:	3c0042a6 	sh	v0,60(s2)
800372a8:	3a0042a6 	sh	v0,58(s2)
800372ac:	380042a6 	sh	v0,56(s2)
800372b0:	0800628e 	lw	v0,8(s3)
800372b4:	00000000 	nop
800372b8:	03004388 	lwl	v1,3(v0)
800372bc:	00004398 	lwr	v1,0(v0)
800372c0:	07004488 	lwl	a0,7(v0)
800372c4:	04004498 	lwr	a0,4(v0)
800372c8:	330043aa 	swl	v1,51(s2)
800372cc:	300043ba 	swr	v1,48(s2)
800372d0:	370044aa 	swl	a0,55(s2)
800372d4:	340044ba 	swr	a0,52(s2)
800372d8:	38004296 	lhu	v0,56(s2)
800372dc:	3a004496 	lhu	a0,58(s2)
800372e0:	00140200 	sll	v0,v0,0x10
800372e4:	031c0200 	sra	v1,v0,0x10
800372e8:	c2170200 	srl	v0,v0,0x1f
800372ec:	21186200 	addu	v1,v1,v0
800372f0:	43180300 	sra	v1,v1,0x1
800372f4:	00240400 	sll	a0,a0,0x10
800372f8:	03140400 	sra	v0,a0,0x10
800372fc:	c2270400 	srl	a0,a0,0x1f
80037300:	21104400 	addu	v0,v0,a0
80037304:	43100200 	sra	v0,v0,0x1
80037308:	0c0043a6 	sh	v1,12(s2)
8003730c:	78df0008 	j	0x80037de0
80037310:	180042ae 	sw	v0,24(s2)
80037314:	01000224 	li	v0,1
80037318:	060042a2 	sb	v0,6(s2)
8003731c:	40000224 	li	v0,64
80037320:	100042a6 	sh	v0,16(s2)
80037324:	80000224 	li	v0,128
80037328:	020042a2 	sb	v0,2(s2)
8003732c:	0c006392 	lbu	v1,12(s3)
80037330:	00100224 	li	v0,4096
80037334:	070040a2 	sb	zero,7(s2)
80037338:	120042a6 	sh	v0,18(s2)
8003733c:	10006324 	addiu	v1,v1,16
80037340:	0a0043a6 	sh	v1,10(s2)
80037344:	04006296 	lhu	v0,4(s3)
80037348:	00000000 	nop
8003734c:	3c0042a6 	sh	v0,60(s2)
80037350:	3a0042a6 	sh	v0,58(s2)
80037354:	380042a6 	sh	v0,56(s2)
80037358:	0800628e 	lw	v0,8(s3)
8003735c:	00000000 	nop
80037360:	03004388 	lwl	v1,3(v0)
80037364:	00004398 	lwr	v1,0(v0)
80037368:	07004488 	lwl	a0,7(v0)
8003736c:	04004498 	lwr	a0,4(v0)
80037370:	330043aa 	swl	v1,51(s2)
80037374:	300043ba 	swr	v1,48(s2)
80037378:	370044aa 	swl	a0,55(s2)
8003737c:	340044ba 	swr	a0,52(s2)
80037380:	38004286 	lh	v0,56(s2)
80037384:	00000000 	nop
80037388:	02004104 	bgez	v0,0x80037394
8003738c:	00000000 	nop
80037390:	07004224 	addiu	v0,v0,7
80037394:	38004386 	lh	v1,56(s2)
80037398:	c3100200 	sra	v0,v0,0x3
8003739c:	02006104 	bgez	v1,0x800373a8
800373a0:	0c0042a6 	sh	v0,12(s2)
800373a4:	07006324 	addiu	v1,v1,7
800373a8:	c3100300 	sra	v0,v1,0x3
800373ac:	0080033c 	lui	v1,0x8000
800373b0:	25104300 	or	v0,v0,v1
800373b4:	78df0008 	j	0x80037de0
800373b8:	180042ae 	sw	v0,24(s2)
800373bc:	01000224 	li	v0,1
800373c0:	060042a2 	sb	v0,6(s2)
800373c4:	40000224 	li	v0,64
800373c8:	100042a6 	sh	v0,16(s2)
800373cc:	80000224 	li	v0,128
800373d0:	020042a2 	sb	v0,2(s2)
800373d4:	0c006392 	lbu	v1,12(s3)
800373d8:	0d000224 	li	v0,13
800373dc:	070042a2 	sb	v0,7(s2)
800373e0:	00100224 	li	v0,4096
800373e4:	120042a6 	sh	v0,18(s2)
800373e8:	10006324 	addiu	v1,v1,16
800373ec:	0a0043a6 	sh	v1,10(s2)
800373f0:	04006296 	lhu	v0,4(s3)
800373f4:	00000000 	nop
800373f8:	3c0042a6 	sh	v0,60(s2)
800373fc:	3a0042a6 	sh	v0,58(s2)
80037400:	380042a6 	sh	v0,56(s2)
80037404:	0800628e 	lw	v0,8(s3)
80037408:	00000000 	nop
8003740c:	03004388 	lwl	v1,3(v0)
80037410:	00004398 	lwr	v1,0(v0)
80037414:	07004488 	lwl	a0,7(v0)
80037418:	04004498 	lwr	a0,4(v0)
8003741c:	330043aa 	swl	v1,51(s2)
80037420:	300043ba 	swr	v1,48(s2)
80037424:	370044aa 	swl	a0,55(s2)
80037428:	340044ba 	swr	a0,52(s2)
8003742c:	38004296 	lhu	v0,56(s2)
80037430:	0080033c 	lui	v1,0x8000
80037434:	0c0042a6 	sh	v0,12(s2)
80037438:	38004286 	lh	v0,56(s2)
8003743c:	34004486 	lh	a0,52(s2)
80037440:	25104300 	or	v0,v0,v1
80037444:	31d1010c 	jal	0x800744c4
80037448:	180042ae 	sw	v0,24(s2)
8003744c:	38004386 	lh	v1,56(s2)
80037450:	00000000 	nop
80037454:	18006200 	mult	v1,v0
80037458:	12180000 	mflo	v1
8003745c:	02006104 	bgez	v1,0x80037468
80037460:	00000000 	nop
80037464:	ff0f6324 	addiu	v1,v1,4095
80037468:	2000428e 	lw	v0,32(s2)
8003746c:	031b0300 	sra	v1,v1,0xc
80037470:	21104300 	addu	v0,v0,v1
80037474:	2000a2af 	sw	v0,32(sp)
80037478:	34004486 	lh	a0,52(s2)
8003747c:	fdd0010c 	jal	0x800743f4
80037480:	00000000 	nop
80037484:	38004386 	lh	v1,56(s2)
80037488:	00000000 	nop
8003748c:	18006200 	mult	v1,v0
80037490:	12180000 	mflo	v1
80037494:	02006104 	bgez	v1,0x800374a0
80037498:	00000000 	nop
8003749c:	ff0f6324 	addiu	v1,v1,4095
800374a0:	2400428e 	lw	v0,36(s2)
800374a4:	031b0300 	sra	v1,v1,0xc
800374a8:	21104300 	addu	v0,v0,v1
800374ac:	2400a2af 	sw	v0,36(sp)
800374b0:	34004486 	lh	a0,52(s2)
800374b4:	31d1010c 	jal	0x800744c4
800374b8:	00088424 	addiu	a0,a0,2048
800374bc:	38004386 	lh	v1,56(s2)
800374c0:	00000000 	nop
800374c4:	18006200 	mult	v1,v0
800374c8:	12180000 	mflo	v1
800374cc:	02006104 	bgez	v1,0x800374d8
800374d0:	00000000 	nop
800374d4:	ff0f6324 	addiu	v1,v1,4095
800374d8:	2000428e 	lw	v0,32(s2)
800374dc:	031b0300 	sra	v1,v1,0xc
800374e0:	21104300 	addu	v0,v0,v1
800374e4:	3000a2af 	sw	v0,48(sp)
800374e8:	34004486 	lh	a0,52(s2)
800374ec:	fdd0010c 	jal	0x800743f4
800374f0:	00088424 	addiu	a0,a0,2048
800374f4:	38004386 	lh	v1,56(s2)
800374f8:	00000000 	nop
800374fc:	18006200 	mult	v1,v0
80037500:	12180000 	mflo	v1
80037504:	02006104 	bgez	v1,0x80037510
80037508:	0a000424 	li	a0,10
8003750c:	ff0f6324 	addiu	v1,v1,4095
80037510:	e9000624 	li	a2,233
80037514:	031b0300 	sra	v1,v1,0xc
80037518:	2400428e 	lw	v0,36(s2)
8003751c:	40005126 	addiu	s1,s2,64
80037520:	21104300 	addu	v0,v0,v1
80037524:	3400a2af 	sw	v0,52(sp)
80037528:	00004592 	lbu	a1,0(s2)
8003752c:	00041024 	li	s0,1024
80037530:	1000b1af 	sw	s1,16(sp)
80037534:	1400b0af 	sw	s0,20(sp)
80037538:	0a004286 	lh	v0,10(s2)
8003753c:	2000a727 	addiu	a3,sp,32
80037540:	1c00b2af 	sw	s2,28(sp)
80037544:	f0ff4224 	addiu	v0,v0,-16
80037548:	21d9000c 	jal	0x80036484
8003754c:	1800a2af 	sw	v0,24(sp)
80037550:	0a000424 	li	a0,10
80037554:	00004592 	lbu	a1,0(s2)
80037558:	ea000624 	li	a2,234
8003755c:	1000b1af 	sw	s1,16(sp)
80037560:	1400b0af 	sw	s0,20(sp)
80037564:	0a004286 	lh	v0,10(s2)
80037568:	3000a727 	addiu	a3,sp,48
8003756c:	1c00b2af 	sw	s2,28(sp)
80037570:	f0ff4224 	addiu	v0,v0,-16
80037574:	21d9000c 	jal	0x80036484
80037578:	1800a2af 	sw	v0,24(sp)
8003757c:	79df0008 	j	0x80037de4
80037580:	21104002 	move	v0,s2
80037584:	05000224 	li	v0,5
80037588:	060042a2 	sb	v0,6(s2)
8003758c:	40000224 	li	v0,64
80037590:	100042a6 	sh	v0,16(s2)
80037594:	83000224 	li	v0,131
80037598:	020042a2 	sb	v0,2(s2)
8003759c:	08006392 	lbu	v1,8(s3)
800375a0:	0d000224 	li	v0,13
800375a4:	070042a2 	sb	v0,7(s2)
800375a8:	00100224 	li	v0,4096
800375ac:	120042a6 	sh	v0,18(s2)
800375b0:	10006324 	addiu	v1,v1,16
800375b4:	0a0043a6 	sh	v1,10(s2)
800375b8:	04006296 	lhu	v0,4(s3)
800375bc:	00000000 	nop
800375c0:	3c0042a6 	sh	v0,60(s2)
800375c4:	3a0042a6 	sh	v0,58(s2)
800375c8:	380042a6 	sh	v0,56(s2)
800375cc:	0c00628e 	lw	v0,12(s3)
800375d0:	78df0008 	j	0x80037de0
800375d4:	1c0042ae 	sw	v0,28(s2)
800375d8:	ff000224 	li	v0,255
800375dc:	000042a2 	sb	v0,0(s2)
800375e0:	21104002 	move	v0,s2
800375e4:	5c00bf8f 	lw	ra,92(sp)
800375e8:	5800b68f 	lw	s6,88(sp)
800375ec:	5400b58f 	lw	s5,84(sp)
800375f0:	5000b48f 	lw	s4,80(sp)
800375f4:	4c00b38f 	lw	s3,76(sp)
800375f8:	4800b28f 	lw	s2,72(sp)
800375fc:	4400b18f 	lw	s1,68(sp)
80037600:	4000b08f 	lw	s0,64(sp)
80037604:	6000bd27 	addiu	sp,sp,96
80037608:	0800e003 	jr	ra
8003760c:	00000000 	nop
80037610:	d8ffbd27 	addiu	sp,sp,-40
80037614:	1000b0af 	sw	s0,16(sp)
80037618:	3800b08f 	lw	s0,56(sp)
8003761c:	1980023c 	lui	v0,0x8019
80037620:	1400b1af 	sw	s1,20(sp)
80037624:	1c0f518c 	lw	s1,3868(v0)
80037628:	1800b2af 	sw	s2,24(sp)
8003762c:	2190a000 	move	s2,a1
80037630:	2000b4af 	sw	s4,32(sp)
80037634:	21a0c000 	move	s4,a2
80037638:	1c00b3af 	sw	s3,28(sp)
8003763c:	2198e000 	move	s3,a3
80037640:	2400bfaf 	sw	ra,36(sp)
80037644:	3e28010c 	jal	0x8004a0f8
80037648:	21280002 	move	a1,s0
8003764c:	40002296 	lhu	v0,64(s1)
80037650:	00000396 	lhu	v1,0(s0)
80037654:	00000000 	nop
80037658:	21104300 	addu	v0,v0,v1
8003765c:	400022a6 	sh	v0,64(s1)
80037660:	42002296 	lhu	v0,66(s1)
80037664:	02000396 	lhu	v1,2(s0)
80037668:	40002486 	lh	a0,64(s1)
8003766c:	21104300 	addu	v0,v0,v1
80037670:	420022a6 	sh	v0,66(s1)
80037674:	44002296 	lhu	v0,68(s1)
80037678:	04000396 	lhu	v1,4(s0)
8003767c:	42002586 	lh	a1,66(s1)
80037680:	21104300 	addu	v0,v0,v1
80037684:	00340200 	sll	a2,v0,0x10
80037688:	03340600 	sra	a2,a2,0x10
8003768c:	d028010c 	jal	0x8004a340
80037690:	440022a6 	sh	v0,68(s1)
80037694:	21284000 	move	a1,v0
80037698:	2a104502 	slt	v0,s2,a1
8003769c:	37004010 	beqz	v0,0x8003777c
800376a0:	00000000 	nop
800376a4:	40002286 	lh	v0,64(s1)
800376a8:	00000000 	nop
800376ac:	18005200 	mult	v0,s2
800376b0:	12100000 	mflo	v0
	...
800376bc:	1a004500 	div	zero,v0,a1
800376c0:	0200a014 	bnez	a1,0x800376cc
800376c4:	00000000 	nop
800376c8:	0d000700 	break	0x7
800376cc:	ffff0124 	li	at,-1
800376d0:	0400a114 	bne	a1,at,0x800376e4
800376d4:	0080013c 	lui	at,0x8000
800376d8:	02004114 	bne	v0,at,0x800376e4
800376dc:	00000000 	nop
800376e0:	0d000600 	break	0x6
800376e4:	12200000 	mflo	a0
800376e8:	42002286 	lh	v0,66(s1)
800376ec:	00000000 	nop
800376f0:	18005200 	mult	v0,s2
800376f4:	12100000 	mflo	v0
	...
80037700:	1a004500 	div	zero,v0,a1
80037704:	0200a014 	bnez	a1,0x80037710
80037708:	00000000 	nop
8003770c:	0d000700 	break	0x7
80037710:	ffff0124 	li	at,-1
80037714:	0400a114 	bne	a1,at,0x80037728
80037718:	0080013c 	lui	at,0x8000
8003771c:	02004114 	bne	v0,at,0x80037728
80037720:	00000000 	nop
80037724:	0d000600 	break	0x6
80037728:	12180000 	mflo	v1
8003772c:	44002286 	lh	v0,68(s1)
80037730:	00000000 	nop
80037734:	18005200 	mult	v0,s2
80037738:	12100000 	mflo	v0
	...
80037744:	1a004500 	div	zero,v0,a1
80037748:	0200a014 	bnez	a1,0x80037754
8003774c:	00000000 	nop
80037750:	0d000700 	break	0x7
80037754:	ffff0124 	li	at,-1
80037758:	0400a114 	bne	a1,at,0x8003776c
8003775c:	0080013c 	lui	at,0x8000
80037760:	02004114 	bne	v0,at,0x8003776c
80037764:	00000000 	nop
80037768:	0d000600 	break	0x6
8003776c:	12100000 	mflo	v0
80037770:	400024a6 	sh	a0,64(s1)
80037774:	420023a6 	sh	v1,66(s1)
80037778:	440022a6 	sh	v0,68(s1)
8003777c:	40002386 	lh	v1,64(s1)
80037780:	2000228e 	lw	v0,32(s1)
80037784:	42002486 	lh	a0,66(s1)
80037788:	44002586 	lh	a1,68(s1)
8003778c:	21104300 	addu	v0,v0,v1
80037790:	200022ae 	sw	v0,32(s1)
80037794:	2400228e 	lw	v0,36(s1)
80037798:	2800238e 	lw	v1,40(s1)
8003779c:	21104400 	addu	v0,v0,a0
800377a0:	21186500 	addu	v1,v1,a1
800377a4:	240022ae 	sw	v0,36(s1)
800377a8:	ffff0224 	li	v0,-1
800377ac:	08006212 	beq	s3,v0,0x800377d0
800377b0:	280023ae 	sw	v1,40(s1)
800377b4:	21208002 	move	a0,s4
800377b8:	21286002 	move	a1,s3
800377bc:	41d7000c 	jal	0x80035d04
800377c0:	21300000 	move	a2,zero
800377c4:	21184000 	move	v1,v0
800377c8:	02006014 	bnez	v1,0x800377d4
800377cc:	ffff0224 	li	v0,-1
800377d0:	21100000 	move	v0,zero
800377d4:	2400bf8f 	lw	ra,36(sp)
800377d8:	2000b48f 	lw	s4,32(sp)
800377dc:	1c00b38f 	lw	s3,28(sp)
800377e0:	1800b28f 	lw	s2,24(sp)
800377e4:	1400b18f 	lw	s1,20(sp)
800377e8:	1000b08f 	lw	s0,16(sp)
800377ec:	2800bd27 	addiu	sp,sp,40
800377f0:	0800e003 	jr	ra
800377f4:	00000000 	nop
800377f8:	a0ffbd27 	addiu	sp,sp,-96
800377fc:	1980023c 	lui	v0,0x8019
80037800:	4800b0af 	sw	s0,72(sp)
80037804:	1c0f508c 	lw	s0,3868(v0)
80037808:	5400b3af 	sw	s3,84(sp)
8003780c:	21988000 	move	s3,a0
80037810:	4c00b1af 	sw	s1,76(sp)
80037814:	2188a000 	move	s1,a1
80037818:	5000b2af 	sw	s2,80(sp)
8003781c:	2190c000 	move	s2,a2
80037820:	5800b4af 	sw	s4,88(sp)
80037824:	5c00bfaf 	sw	ra,92(sp)
80037828:	00000292 	lbu	v0,0(s0)
8003782c:	7c00a38f 	lw	v1,124(sp)
80037830:	40004230 	andi	v0,v0,0x40
80037834:	2f004010 	beqz	v0,0x800378f4
80037838:	21a0e000 	move	s4,a3
8003783c:	20000426 	addiu	a0,s0,32
80037840:	c05d0724 	li	a3,24000
80037844:	32000586 	lh	a1,50(s0)
80037848:	30000686 	lh	a2,48(s0)
8003784c:	4000a227 	addiu	v0,sp,64
80037850:	1000a3af 	sw	v1,16(sp)
80037854:	1400a3af 	sw	v1,20(sp)
80037858:	1800a2af 	sw	v0,24(sp)
8003785c:	962d010c 	jal	0x8004b658
80037860:	1c00a0af 	sw	zero,28(sp)
80037864:	21204000 	move	a0,v0
80037868:	32008010 	beqz	a0,0x80037934
8003786c:	00000000 	nop
80037870:	7400828c 	lw	v0,116(a0)
80037874:	00000000 	nop
80037878:	2000a2af 	sw	v0,32(sp)
8003787c:	30008294 	lhu	v0,48(a0)
80037880:	7800838c 	lw	v1,120(a0)
80037884:	42100200 	srl	v0,v0,0x1
80037888:	23186200 	subu	v1,v1,v0
8003788c:	2400a3af 	sw	v1,36(sp)
80037890:	7c00828c 	lw	v0,124(a0)
80037894:	00000000 	nop
80037898:	2800a2af 	sw	v0,40(sp)
8003789c:	3000a727 	addiu	a3,sp,48
800378a0:	2000a28f 	lw	v0,32(sp)
800378a4:	2000048e 	lw	a0,32(s0)
800378a8:	2400a38f 	lw	v1,36(sp)
800378ac:	2400058e 	lw	a1,36(s0)
800378b0:	2800068e 	lw	a2,40(s0)
800378b4:	23204400 	subu	a0,v0,a0
800378b8:	2800a28f 	lw	v0,40(sp)
800378bc:	23286500 	subu	a1,v1,a1
800378c0:	e428010c 	jal	0x8004a390
800378c4:	23304600 	subu	a2,v0,a2
800378c8:	30000486 	lh	a0,48(s0)
800378cc:	3000a587 	lh	a1,48(sp)
800378d0:	b225010c 	jal	0x800496c8
800378d4:	21304002 	move	a2,s2
800378d8:	32000486 	lh	a0,50(s0)
800378dc:	300002a6 	sh	v0,48(s0)
800378e0:	3200a587 	lh	a1,50(sp)
800378e4:	b225010c 	jal	0x800496c8
800378e8:	21304002 	move	a2,s2
800378ec:	4de00008 	j	0x80038134
800378f0:	320002a6 	sh	v0,50(s0)
800378f4:	20000426 	addiu	a0,s0,32
800378f8:	c05d0624 	li	a2,24000
800378fc:	32000586 	lh	a1,50(s0)
80037900:	cdfa000c 	jal	0x8003eb34
80037904:	00100724 	li	a3,4096
80037908:	ffff0324 	li	v1,-1
8003790c:	09004310 	beq	v0,v1,0x80037934
80037910:	4000a2af 	sw	v0,64(sp)
80037914:	1a80023c 	lui	v0,0x801a
80037918:	288f4224 	addiu	v0,v0,-28888
8003791c:	4802438c 	lw	v1,584(v0)
80037920:	4c02448c 	lw	a0,588(v0)
80037924:	5002428c 	lw	v0,592(v0)
80037928:	2000a3af 	sw	v1,32(sp)
8003792c:	25e00008 	j	0x80038094
80037930:	2400a4af 	sw	a0,36(sp)
80037934:	30000426 	addiu	a0,s0,48
80037938:	c227010c 	jal	0x80049f08
8003793c:	3800a527 	addiu	a1,sp,56
80037940:	4000a38f 	lw	v1,64(sp)
80037944:	00000000 	nop
80037948:	07006004 	bltz	v1,0x80037968
8003794c:	3800a227 	addiu	v0,sp,56
80037950:	7400a28f 	lw	v0,116(sp)
80037954:	00000000 	nop
80037958:	2a104300 	slt	v0,v0,v1
8003795c:	02004014 	bnez	v0,0x80037968
80037960:	3800a227 	addiu	v0,sp,56
80037964:	7800b18f 	lw	s1,120(sp)
80037968:	00000000 	nop
8003796c:	21202002 	move	a0,s1
80037970:	21286002 	move	a1,s3
80037974:	7000a78f 	lw	a3,112(sp)
80037978:	21308002 	move	a2,s4
8003797c:	84df000c 	jal	0x80037e10
80037980:	1000a2af 	sw	v0,16(sp)
80037984:	5c00bf8f 	lw	ra,92(sp)
80037988:	5800b48f 	lw	s4,88(sp)
8003798c:	5400b38f 	lw	s3,84(sp)
80037990:	5000b28f 	lw	s2,80(sp)
80037994:	4c00b18f 	lw	s1,76(sp)
80037998:	4800b08f 	lw	s0,72(sp)
8003799c:	6000bd27 	addiu	sp,sp,96
800379a0:	0800e003 	jr	ra
800379a4:	00000000 	nop
800379a8:	d8ffbd27 	addiu	sp,sp,-40
800379ac:	21388000 	move	a3,a0
800379b0:	1980023c 	lui	v0,0x8019
800379b4:	1800b2af 	sw	s2,24(sp)
800379b8:	1c0f528c 	lw	s2,3868(v0)
800379bc:	2140a000 	move	t0,a1
800379c0:	1c00b3af 	sw	s3,28(sp)
800379c4:	2198c000 	move	s3,a2
800379c8:	2000bfaf 	sw	ra,32(sp)
800379cc:	1400b1af 	sw	s1,20(sp)
800379d0:	1000b0af 	sw	s0,16(sp)
800379d4:	08004292 	lbu	v0,8(s2)
800379d8:	00000000 	nop
800379dc:	3d004014 	bnez	v0,0x80037ad4
800379e0:	21300000 	move	a2,zero
800379e4:	1b80113c 	lui	s1,0x801b
800379e8:	48593026 	addiu	s0,s1,22856
800379ec:	2000428e 	lw	v0,32(s2)
800379f0:	2400438e 	lw	v1,36(s2)
800379f4:	2800448e 	lw	a0,40(s2)
800379f8:	2c00458e 	lw	a1,44(s2)
800379fc:	040002ae 	sw	v0,4(s0)
80037a00:	080003ae 	sw	v1,8(s0)
80037a04:	0c0004ae 	sw	a0,12(s0)
80037a08:	100005ae 	sw	a1,16(s0)
80037a0c:	1c0007a6 	sh	a3,28(s0)
80037a10:	1e0008a6 	sh	t0,30(s0)
80037a14:	4300428a 	lwl	v0,67(s2)
80037a18:	4000429a 	lwr	v0,64(s2)
80037a1c:	4700438a 	lwl	v1,71(s2)
80037a20:	4400439a 	lwr	v1,68(s2)
80037a24:	170002aa 	swl	v0,23(s0)
80037a28:	140002ba 	swr	v0,20(s0)
80037a2c:	1b0003aa 	swl	v1,27(s0)
80037a30:	180003ba 	swr	v1,24(s0)
80037a34:	40004286 	lh	v0,64(s2)
80037a38:	00000000 	nop
80037a3c:	18004200 	mult	v0,v0
80037a40:	12180000 	mflo	v1
80037a44:	44004286 	lh	v0,68(s2)
80037a48:	00000000 	nop
80037a4c:	18004200 	mult	v0,v0
80037a50:	12380000 	mflo	a3
80037a54:	b1d1010c 	jal	0x800746c4
80037a58:	21206700 	addu	a0,v1,a3
80037a5c:	220002a6 	sh	v0,34(s0)
80037a60:	44004486 	lh	a0,68(s2)
80037a64:	40004586 	lh	a1,64(s2)
80037a68:	a9db010c 	jal	0x80076ea4
80037a6c:	00000000 	nop
80037a70:	21200002 	move	a0,s0
80037a74:	200082a4 	sh	v0,32(a0)
80037a78:	80000224 	li	v0,128
80037a7c:	adef000c 	jal	0x8003beb4
80037a80:	485922ae 	sw	v0,22856(s1)
80037a84:	27100200 	nor	v0,zero,v0
80037a88:	2b100200 	sltu	v0,zero,v0
80037a8c:	c0310200 	sll	a2,v0,0x7
80037a90:	40004486 	lh	a0,64(s2)
80037a94:	2000428e 	lw	v0,32(s2)
80037a98:	42004586 	lh	a1,66(s2)
80037a9c:	2400438e 	lw	v1,36(s2)
80037aa0:	21104400 	addu	v0,v0,a0
80037aa4:	44004486 	lh	a0,68(s2)
80037aa8:	200042ae 	sw	v0,32(s2)
80037aac:	2800428e 	lw	v0,40(s2)
80037ab0:	21186500 	addu	v1,v1,a1
80037ab4:	240043ae 	sw	v1,36(s2)
80037ab8:	34004396 	lhu	v1,52(s2)
80037abc:	21104400 	addu	v0,v0,a0
80037ac0:	23187300 	subu	v1,v1,s3
80037ac4:	ff0f6330 	andi	v1,v1,0xfff
80037ac8:	280042ae 	sw	v0,40(s2)
80037acc:	b7e00008 	j	0x800382dc
80037ad0:	340043a6 	sh	v1,52(s2)
80037ad4:	ffff4224 	addiu	v0,v0,-1
80037ad8:	080042a2 	sb	v0,8(s2)
80037adc:	2110c000 	move	v0,a2
80037ae0:	2000bf8f 	lw	ra,32(sp)
80037ae4:	1c00b38f 	lw	s3,28(sp)
80037ae8:	1800b28f 	lw	s2,24(sp)
80037aec:	1400b18f 	lw	s1,20(sp)
80037af0:	1000b08f 	lw	s0,16(sp)
80037af4:	2800bd27 	addiu	sp,sp,40
80037af8:	0800e003 	jr	ra
80037afc:	00000000 	nop
80037b00:	e0ffbd27 	addiu	sp,sp,-32
80037b04:	1400b1af 	sw	s1,20(sp)
80037b08:	2188c000 	move	s1,a2
80037b0c:	1980023c 	lui	v0,0x8019
80037b10:	1000b0af 	sw	s0,16(sp)
80037b14:	1c0f508c 	lw	s0,3868(v0)
80037b18:	1800bfaf 	sw	ra,24(sp)
80037b1c:	41d7000c 	jal	0x80035d04
80037b20:	21300000 	move	a2,zero
80037b24:	40000586 	lh	a1,64(s0)
80037b28:	2000038e 	lw	v1,32(s0)
80037b2c:	42000686 	lh	a2,66(s0)
80037b30:	2400048e 	lw	a0,36(s0)
80037b34:	21186500 	addu	v1,v1,a1
80037b38:	44000586 	lh	a1,68(s0)
80037b3c:	200003ae 	sw	v1,32(s0)
80037b40:	2800038e 	lw	v1,40(s0)
80037b44:	21208600 	addu	a0,a0,a2
80037b48:	240004ae 	sw	a0,36(s0)
80037b4c:	34000496 	lhu	a0,52(s0)
80037b50:	21186500 	addu	v1,v1,a1
80037b54:	23209100 	subu	a0,a0,s1
80037b58:	ff0f8430 	andi	a0,a0,0xfff
80037b5c:	280003ae 	sw	v1,40(s0)
80037b60:	340004a6 	sh	a0,52(s0)
80037b64:	1800bf8f 	lw	ra,24(sp)
80037b68:	1400b18f 	lw	s1,20(sp)
80037b6c:	1000b08f 	lw	s0,16(sp)
80037b70:	2000bd27 	addiu	sp,sp,32
80037b74:	0800e003 	jr	ra
80037b78:	00000000 	nop
80037b7c:	1980023c 	lui	v0,0x8019
80037b80:	1c0f438c 	lw	v1,3868(v0)
80037b84:	00000000 	nop
80037b88:	40006484 	lh	a0,64(v1)
80037b8c:	2000628c 	lw	v0,32(v1)
80037b90:	42006584 	lh	a1,66(v1)
80037b94:	44006684 	lh	a2,68(v1)
80037b98:	23104400 	subu	v0,v0,a0
80037b9c:	200062ac 	sw	v0,32(v1)
80037ba0:	2400628c 	lw	v0,36(v1)
80037ba4:	2800648c 	lw	a0,40(v1)
80037ba8:	23104500 	subu	v0,v0,a1
80037bac:	23208600 	subu	a0,a0,a2
80037bb0:	240062ac 	sw	v0,36(v1)
80037bb4:	0800e003 	jr	ra
80037bb8:	280064ac 	sw	a0,40(v1)
80037bbc:	1980023c 	lui	v0,0x8019
80037bc0:	1c0f468c 	lw	a2,3868(v0)
80037bc4:	00000000 	nop
80037bc8:	4000c294 	lhu	v0,64(a2)
80037bcc:	4200c394 	lhu	v1,66(a2)
80037bd0:	00140200 	sll	v0,v0,0x10
80037bd4:	03240200 	sra	a0,v0,0x10
80037bd8:	c2170200 	srl	v0,v0,0x1f
80037bdc:	21208200 	addu	a0,a0,v0
80037be0:	43200400 	sra	a0,a0,0x1
80037be4:	001c0300 	sll	v1,v1,0x10
80037be8:	032c0300 	sra	a1,v1,0x10
80037bec:	c21f0300 	srl	v1,v1,0x1f
80037bf0:	2128a300 	addu	a1,a1,v1
80037bf4:	2000c28c 	lw	v0,32(a2)
80037bf8:	43280500 	sra	a1,a1,0x1
80037bfc:	23104400 	subu	v0,v0,a0
80037c00:	2000c2ac 	sw	v0,32(a2)
80037c04:	2400c28c 	lw	v0,36(a2)
80037c08:	4400c494 	lhu	a0,68(a2)
80037c0c:	23104500 	subu	v0,v0,a1
80037c10:	00240400 	sll	a0,a0,0x10
80037c14:	031c0400 	sra	v1,a0,0x10
80037c18:	c2270400 	srl	a0,a0,0x1f
80037c1c:	21186400 	addu	v1,v1,a0
80037c20:	2400c2ac 	sw	v0,36(a2)
80037c24:	2800c28c 	lw	v0,40(a2)
80037c28:	43180300 	sra	v1,v1,0x1
80037c2c:	23104300 	subu	v0,v0,v1
80037c30:	0800e003 	jr	ra
80037c34:	2800c2ac 	sw	v0,40(a2)
80037c38:	e8ffbd27 	addiu	sp,sp,-24
80037c3c:	2110a000 	move	v0,a1
80037c40:	1000bfaf 	sw	ra,16(sp)
80037c44:	00004584 	lh	a1,0(v0)
80037c48:	02004684 	lh	a2,2(v0)
80037c4c:	73e7010c 	jal	0x80079dcc
80037c50:	00000000 	nop
80037c54:	1000bf8f 	lw	ra,16(sp)
80037c58:	1800bd27 	addiu	sp,sp,24
80037c5c:	0800e003 	jr	ra
80037c60:	00000000 	nop
80037c64:	d0ffbd27 	addiu	sp,sp,-48
80037c68:	2800b0af 	sw	s0,40(sp)
80037c6c:	2180a000 	move	s0,a1
80037c70:	2c00bfaf 	sw	ra,44(sp)
80037c74:	0300e288 	lwl	v0,3(a3)
80037c78:	0000e298 	lwr	v0,0(a3)
80037c7c:	00000000 	nop
80037c80:	2300a2ab 	swl	v0,35(sp)
80037c84:	2000a2bb 	swr	v0,32(sp)
80037c88:	0300c288 	lwl	v0,3(a2)
80037c8c:	0000c298 	lwr	v0,0(a2)
80037c90:	0700c388 	lwl	v1,7(a2)
80037c94:	0400c398 	lwr	v1,4(a2)
80037c98:	1b00a2ab 	swl	v0,27(sp)
80037c9c:	1800a2bb 	swr	v0,24(sp)
80037ca0:	1f00a3ab 	swl	v1,31(sp)
80037ca4:	1c00a3bb 	swr	v1,28(sp)
80037ca8:	2000a527 	addiu	a1,sp,32
80037cac:	ff008430 	andi	a0,a0,0xff
80037cb0:	07008010 	beqz	a0,0x80037cd0
80037cb4:	1800a627 	addiu	a2,sp,24
80037cb8:	1800a297 	lhu	v0,24(sp)
80037cbc:	2000a397 	lhu	v1,32(sp)
80037cc0:	40004224 	addiu	v0,v0,64
80037cc4:	40006324 	addiu	v1,v1,64
80037cc8:	1800a2a7 	sh	v0,24(sp)
80037ccc:	2000a3a7 	sh	v1,32(sp)
80037cd0:	00000292 	lbu	v0,0(s0)
80037cd4:	00000000 	nop
80037cd8:	05004014 	bnez	v0,0x80037cf0
80037cdc:	00000000 	nop
80037ce0:	0ee1000c 	jal	0x80038438
80037ce4:	2120c000 	move	a0,a2
80037ce8:	42e10008 	j	0x80038508
80037cec:	00000000 	nop
80037cf0:	1e00a387 	lh	v1,30(sp)
80037cf4:	00000000 	nop
80037cf8:	2a104300 	slt	v0,v0,v1
80037cfc:	02004014 	bnez	v0,0x80037d08
80037d00:	00000000 	nop
80037d04:	000000a2 	sb	zero,0(s0)
80037d08:	2000a297 	lhu	v0,32(sp)
80037d0c:	2200a397 	lhu	v1,34(sp)
80037d10:	1800a597 	lhu	a1,24(sp)
80037d14:	1a00a697 	lhu	a2,26(sp)
80037d18:	1000a427 	addiu	a0,sp,16
80037d1c:	2000a5a7 	sh	a1,32(sp)
80037d20:	002c0500 	sll	a1,a1,0x10
80037d24:	032c0500 	sra	a1,a1,0x10
80037d28:	1000a2a7 	sh	v0,16(sp)
80037d2c:	1200a3a7 	sh	v1,18(sp)
80037d30:	00000392 	lbu	v1,0(s0)
80037d34:	1c00a297 	lhu	v0,28(sp)
80037d38:	2130c300 	addu	a2,a2,v1
80037d3c:	2200a6a7 	sh	a2,34(sp)
80037d40:	00340600 	sll	a2,a2,0x10
80037d44:	1400a2a7 	sh	v0,20(sp)
80037d48:	00000392 	lbu	v1,0(s0)
80037d4c:	1e00a297 	lhu	v0,30(sp)
80037d50:	03340600 	sra	a2,a2,0x10
80037d54:	23104300 	subu	v0,v0,v1
80037d58:	73e7010c 	jal	0x80079dcc
80037d5c:	1600a2a7 	sh	v0,22(sp)
80037d60:	00000292 	lbu	v0,0(s0)
80037d64:	00000000 	nop
80037d68:	0c004010 	beqz	v0,0x80037d9c
80037d6c:	1000a427 	addiu	a0,sp,16
80037d70:	1a00a697 	lhu	a2,26(sp)
80037d74:	1600a297 	lhu	v0,22(sp)
80037d78:	2000a587 	lh	a1,32(sp)
80037d7c:	2110c200 	addu	v0,a2,v0
80037d80:	2200a6a7 	sh	a2,34(sp)
80037d84:	00340600 	sll	a2,a2,0x10
80037d88:	1200a2a7 	sh	v0,18(sp)
80037d8c:	00000292 	lbu	v0,0(s0)
80037d90:	03340600 	sra	a2,a2,0x10
80037d94:	73e7010c 	jal	0x80079dcc
80037d98:	1600a2a7 	sh	v0,22(sp)
80037d9c:	2c00bf8f 	lw	ra,44(sp)
80037da0:	2800b08f 	lw	s0,40(sp)
80037da4:	3000bd27 	addiu	sp,sp,48
80037da8:	0800e003 	jr	ra
80037dac:	00000000 	nop
80037db0:	70febd27 	addiu	sp,sp,-400
80037db4:	1980023c 	lui	v0,0x8019
80037db8:	8001b6af 	sw	s6,384(sp)
80037dbc:	1c0f568c 	lw	s6,3868(v0)
80037dc0:	6801b0af 	sw	s0,360(sp)
80037dc4:	21800000 	move	s0,zero
80037dc8:	7401b3af 	sw	s3,372(sp)
80037dcc:	8c01bfaf 	sw	ra,396(sp)
80037dd0:	8801beaf 	sw	s8,392(sp)
80037dd4:	8401b7af 	sw	s7,388(sp)
80037dd8:	7c01b5af 	sw	s5,380(sp)
80037ddc:	7801b4af 	sw	s4,376(sp)
80037de0:	7001b2af 	sw	s2,368(sp)
80037de4:	6c01b1af 	sw	s1,364(sp)
80037de8:	0100d192 	lbu	s1,1(s6)
80037dec:	0500d292 	lbu	s2,5(s6)
80037df0:	f600222e 	sltiu	v0,s1,246
80037df4:	790d4010 	beqz	v0,0x8003b3dc
80037df8:	21980002 	move	s3,s0
80037dfc:	0180023c 	lui	v0,0x8001
80037e00:	a4184224 	addiu	v0,v0,6308
80037e04:	80181100 	sll	v1,s1,0x2
80037e08:	21186200 	addu	v1,v1,v0
80037e0c:	0000628c 	lw	v0,0(v1)
80037e10:	00000000 	nop
80037e14:	08004000 	jr	v0
80037e18:	00000000 	nop
80037e1c:	0c00c496 	lhu	a0,12(s6)
80037e20:	1800c58e 	lw	a1,24(s6)
80037e24:	c0e0000c 	jal	0x80038300
80037e28:	21300000 	move	a2,zero
80037e2c:	21804000 	move	s0,v0
80037e30:	6a0d0012 	beqz	s0,0x8003b3dc
80037e34:	10000232 	andi	v0,s0,0x10
80037e38:	15004010 	beqz	v0,0x80037e90
80037e3c:	1b80023c 	lui	v0,0x801b
80037e40:	a459438c 	lw	v1,22948(v0)
80037e44:	00000000 	nop
80037e48:	40100300 	sll	v0,v1,0x1
80037e4c:	21104300 	addu	v0,v0,v1
80037e50:	80100200 	sll	v0,v0,0x2
80037e54:	21104300 	addu	v0,v0,v1
80037e58:	80100200 	sll	v0,v0,0x2
80037e5c:	21104300 	addu	v0,v0,v1
80037e60:	80100200 	sll	v0,v0,0x2
80037e64:	1c80033c 	lui	v1,0x801c
80037e68:	38a16324 	addiu	v1,v1,-24264
80037e6c:	21184300 	addu	v1,v0,v1
80037e70:	2c006294 	lhu	v0,44(v1)
80037e74:	00000000 	nop
80037e78:	07004010 	beqz	v0,0x80037e98
80037e7c:	01000224 	li	v0,1
80037e80:	1f006390 	lbu	v1,31(v1)
80037e84:	00000000 	nop
80037e88:	03006210 	beq	v1,v0,0x80037e98
80037e8c:	00000000 	nop
80037e90:	63d8000c 	jal	0x8003618c
80037e94:	21200002 	move	a0,s0
80037e98:	0000c592 	lbu	a1,0(s6)
80037e9c:	2120c002 	move	a0,s6
80037ea0:	82280500 	srl	a1,a1,0x2
80037ea4:	0800a530 	andi	a1,a1,0x8
80037ea8:	32d7000c 	jal	0x80035cc8
80037eac:	1d00a524 	addiu	a1,a1,29
80037eb0:	2000c28e 	lw	v0,32(s6)
80037eb4:	00000000 	nop
80037eb8:	5000a2af 	sw	v0,80(sp)
80037ebc:	2400c28e 	lw	v0,36(s6)
80037ec0:	00000000 	nop
80037ec4:	5400a2af 	sw	v0,84(sp)
80037ec8:	2800c28e 	lw	v0,40(s6)
80037ecc:	00000000 	nop
80037ed0:	5800a2af 	sw	v0,88(sp)
80037ed4:	4000c296 	lhu	v0,64(s6)
80037ed8:	00000000 	nop
80037edc:	00140200 	sll	v0,v0,0x10
80037ee0:	43140200 	sra	v0,v0,0x11
80037ee4:	6800a2a7 	sh	v0,104(sp)
80037ee8:	4200c296 	lhu	v0,66(s6)
80037eec:	00000000 	nop
80037ef0:	00140200 	sll	v0,v0,0x10
80037ef4:	43140200 	sra	v0,v0,0x11
80037ef8:	6a00a2a7 	sh	v0,106(sp)
80037efc:	4400c296 	lhu	v0,68(s6)
80037f00:	00000000 	nop
80037f04:	00140200 	sll	v0,v0,0x10
80037f08:	43140200 	sra	v0,v0,0x11
80037f0c:	6c00a2a7 	sh	v0,108(sp)
80037f10:	01000232 	andi	v0,s0,0x1
80037f14:	03004010 	beqz	v0,0x80037f24
80037f18:	20000224 	li	v0,32
80037f1c:	fbe10008 	j	0x800387ec
80037f20:	6a00a2a7 	sh	v0,106(sp)
80037f24:	02000232 	andi	v0,s0,0x2
80037f28:	2a004010 	beqz	v0,0x80037fd4
80037f2c:	1b80023c 	lui	v0,0x801b
80037f30:	48594224 	addiu	v0,v0,22856
80037f34:	90004484 	lh	a0,144(v0)
80037f38:	8c004584 	lh	a1,140(v0)
80037f3c:	a9db010c 	jal	0x80076ea4
80037f40:	00000000 	nop
80037f44:	6c00a487 	lh	a0,108(sp)
80037f48:	6800a587 	lh	a1,104(sp)
80037f4c:	a9db010c 	jal	0x80076ea4
80037f50:	00045024 	addiu	s0,v0,1024
80037f54:	31d1010c 	jal	0x800744c4
80037f58:	23205000 	subu	a0,v0,s0
80037f5c:	80180200 	sll	v1,v0,0x2
80037f60:	21186200 	addu	v1,v1,v0
80037f64:	00110300 	sll	v0,v1,0x4
80037f68:	23104300 	subu	v0,v0,v1
80037f6c:	80100200 	sll	v0,v0,0x2
80037f70:	02004104 	bgez	v0,0x80037f7c
80037f74:	21200002 	move	a0,s0
80037f78:	ff0f4224 	addiu	v0,v0,4095
80037f7c:	31d1010c 	jal	0x800744c4
80037f80:	038b0200 	sra	s1,v0,0xc
80037f84:	18002202 	mult	s1,v0
80037f88:	12100000 	mflo	v0
80037f8c:	02004104 	bgez	v0,0x80037f98
80037f90:	00000000 	nop
80037f94:	ff0f4224 	addiu	v0,v0,4095
80037f98:	03130200 	sra	v0,v0,0xc
80037f9c:	6800a2a7 	sh	v0,104(sp)
80037fa0:	fdd0010c 	jal	0x800743f4
80037fa4:	21200002 	move	a0,s0
80037fa8:	18002202 	mult	s1,v0
80037fac:	12100000 	mflo	v0
80037fb0:	02004104 	bgez	v0,0x80037fbc
80037fb4:	00000000 	nop
80037fb8:	ff0f4224 	addiu	v0,v0,4095
80037fbc:	03130200 	sra	v0,v0,0xc
80037fc0:	6c00a2a7 	sh	v0,108(sp)
80037fc4:	00040224 	li	v0,1024
80037fc8:	6000a2a7 	sh	v0,96(sp)
80037fcc:	fde10008 	j	0x800387f4
80037fd0:	6200b0a7 	sh	s0,98(sp)
80037fd4:	04000232 	andi	v0,s0,0x4
80037fd8:	04004010 	beqz	v0,0x80037fec
80037fdc:	00080224 	li	v0,2048
80037fe0:	6a00a0a7 	sh	zero,106(sp)
80037fe4:	fce10008 	j	0x800387f0
80037fe8:	6000a2a7 	sh	v0,96(sp)
80037fec:	6000a0a7 	sh	zero,96(sp)
80037ff0:	6200a0a7 	sh	zero,98(sp)
80037ff4:	6400a0a7 	sh	zero,100(sp)
80037ff8:	0a000424 	li	a0,10
80037ffc:	ac000624 	li	a2,172
80038000:	5000b527 	addiu	s5,sp,80
80038004:	2138a002 	move	a3,s5
80038008:	6800b427 	addiu	s4,sp,104
8003800c:	00041024 	li	s0,1024
80038010:	06001124 	li	s1,6
80038014:	0d000224 	li	v0,13
80038018:	0000c592 	lbu	a1,0(s6)
8003801c:	6000b327 	addiu	s3,sp,96
80038020:	1000b4af 	sw	s4,16(sp)
80038024:	1400b0af 	sw	s0,20(sp)
80038028:	1800b0af 	sw	s0,24(sp)
8003802c:	1c00b1af 	sw	s1,28(sp)
80038030:	2000a0af 	sw	zero,32(sp)
80038034:	2400a0af 	sw	zero,36(sp)
80038038:	2800a2af 	sw	v0,40(sp)
8003803c:	21d9000c 	jal	0x80036484
80038040:	2c00b3af 	sw	s3,44(sp)
80038044:	0a000424 	li	a0,10
80038048:	ad000624 	li	a2,173
8003804c:	2138a002 	move	a3,s5
80038050:	01000224 	li	v0,1
80038054:	0000c592 	lbu	a1,0(s6)
80038058:	0f001224 	li	s2,15
8003805c:	1000b4af 	sw	s4,16(sp)
80038060:	1400b0af 	sw	s0,20(sp)
80038064:	1800b0af 	sw	s0,24(sp)
80038068:	1c00b1af 	sw	s1,28(sp)
8003806c:	2000a2af 	sw	v0,32(sp)
80038070:	2400a0af 	sw	zero,36(sp)
80038074:	2800b2af 	sw	s2,40(sp)
80038078:	21d9000c 	jal	0x80036484
8003807c:	2c00b3af 	sw	s3,44(sp)
80038080:	0a000424 	li	a0,10
80038084:	ae000624 	li	a2,174
80038088:	2138a002 	move	a3,s5
8003808c:	00081124 	li	s1,2048
80038090:	0e000224 	li	v0,14
80038094:	0000c592 	lbu	a1,0(s6)
80038098:	02001024 	li	s0,2
8003809c:	1000b4af 	sw	s4,16(sp)
800380a0:	1400a0af 	sw	zero,20(sp)
800380a4:	1800b1af 	sw	s1,24(sp)
800380a8:	1c00a2af 	sw	v0,28(sp)
800380ac:	2000b0af 	sw	s0,32(sp)
800380b0:	2400a0af 	sw	zero,36(sp)
800380b4:	2800b2af 	sw	s2,40(sp)
800380b8:	21d9000c 	jal	0x80036484
800380bc:	2c00b3af 	sw	s3,44(sp)
800380c0:	0a000424 	li	a0,10
800380c4:	ae000624 	li	a2,174
800380c8:	2138a002 	move	a3,s5
800380cc:	0000c592 	lbu	a1,0(s6)
800380d0:	e8070224 	li	v0,2024
800380d4:	1400a2af 	sw	v0,20(sp)
800380d8:	0c000224 	li	v0,12
800380dc:	1000b4af 	sw	s4,16(sp)
800380e0:	1800b1af 	sw	s1,24(sp)
800380e4:	1c00a2af 	sw	v0,28(sp)
800380e8:	2000b0af 	sw	s0,32(sp)
800380ec:	2400a0af 	sw	zero,36(sp)
800380f0:	2800b2af 	sw	s2,40(sp)
800380f4:	21d9000c 	jal	0x80036484
800380f8:	2c00b3af 	sw	s3,44(sp)
800380fc:	0a000424 	li	a0,10
80038100:	ae000624 	li	a2,174
80038104:	2138a002 	move	a3,s5
80038108:	0000c592 	lbu	a1,0(s6)
8003810c:	00100224 	li	v0,4096
80038110:	1400a2af 	sw	v0,20(sp)
80038114:	21108000 	move	v0,a0
80038118:	1000b4af 	sw	s4,16(sp)
8003811c:	1800b1af 	sw	s1,24(sp)
80038120:	1c00a2af 	sw	v0,28(sp)
80038124:	2000b0af 	sw	s0,32(sp)
80038128:	2400a0af 	sw	zero,36(sp)
8003812c:	2800b2af 	sw	s2,40(sp)
80038130:	21d9000c 	jal	0x80036484
80038134:	2c00b3af 	sw	s3,44(sp)
80038138:	a5e60008 	j	0x80039a94
8003813c:	ff000224 	li	v0,255
80038140:	1c00c68e 	lw	a2,28(s6)
80038144:	00000000 	nop
80038148:	0000c390 	lbu	v1,0(a2)
8003814c:	ff000224 	li	v0,255
80038150:	0b006210 	beq	v1,v0,0x80038180
80038154:	00000000 	nop
80038158:	2000c28c 	lw	v0,32(a2)
8003815c:	2400c38c 	lw	v1,36(a2)
80038160:	2800c48c 	lw	a0,40(a2)
80038164:	2c00c58c 	lw	a1,44(a2)
80038168:	2000c2ae 	sw	v0,32(s6)
8003816c:	2400c3ae 	sw	v1,36(s6)
80038170:	2800c4ae 	sw	a0,40(s6)
80038174:	2c00c5ae 	sw	a1,44(s6)
80038178:	61e20008 	j	0x80038984
8003817c:	00000000 	nop
80038180:	0000c3a2 	sb	v1,0(s6)
80038184:	1000c386 	lh	v1,16(s6)
80038188:	bceb0008 	j	0x8003aef0
8003818c:	08006228 	slti	v0,v1,8
80038190:	1c00c28e 	lw	v0,28(s6)
80038194:	00000000 	nop
80038198:	00004390 	lbu	v1,0(v0)
8003819c:	ff000224 	li	v0,255
800381a0:	25006210 	beq	v1,v0,0x80038238
800381a4:	0980023c 	lui	v0,0x8009
800381a8:	18804624 	addiu	a2,v0,-32744
800381ac:	0300c388 	lwl	v1,3(a2)
800381b0:	0000c398 	lwr	v1,0(a2)
800381b4:	0400c480 	lb	a0,4(a2)
800381b8:	0500c580 	lb	a1,5(a2)
800381bc:	7300a3ab 	swl	v1,115(sp)
800381c0:	7000a3bb 	swr	v1,112(sp)
800381c4:	7400a4a3 	sb	a0,116(sp)
800381c8:	7500a5a3 	sb	a1,117(sp)
800381cc:	5000c292 	lbu	v0,80(s6)
800381d0:	00000000 	nop
800381d4:	01004224 	addiu	v0,v0,1
800381d8:	5000c2a2 	sb	v0,80(s6)
800381dc:	00160200 	sll	v0,v0,0x18
800381e0:	03160200 	sra	v0,v0,0x18
800381e4:	06004228 	slti	v0,v0,6
800381e8:	02004014 	bnez	v0,0x800381f4
800381ec:	7000a327 	addiu	v1,sp,112
800381f0:	5000c0a2 	sb	zero,80(s6)
800381f4:	5000c282 	lb	v0,80(s6)
800381f8:	00000000 	nop
800381fc:	21106200 	addu	v0,v1,v0
80038200:	00004290 	lbu	v0,0(v0)
80038204:	1c00c38e 	lw	v1,28(s6)
80038208:	80004234 	ori	v0,v0,0x80
8003820c:	0200c2a2 	sb	v0,2(s6)
80038210:	2000628c 	lw	v0,32(v1)
80038214:	2400648c 	lw	a0,36(v1)
80038218:	2800658c 	lw	a1,40(v1)
8003821c:	2c00668c 	lw	a2,44(v1)
80038220:	2000c2ae 	sw	v0,32(s6)
80038224:	2400c4ae 	sw	a0,36(s6)
80038228:	2800c5ae 	sw	a1,40(s6)
8003822c:	2c00c6ae 	sw	a2,44(s6)
80038230:	8fe20008 	j	0x80038a3c
80038234:	00000000 	nop
80038238:	0000c3a2 	sb	v1,0(s6)
8003823c:	1000c386 	lh	v1,16(s6)
80038240:	bceb0008 	j	0x8003aef0
80038244:	08006228 	slti	v0,v1,8
80038248:	4200c296 	lhu	v0,66(s6)
8003824c:	5200c396 	lhu	v1,82(s6)
80038250:	4000c486 	lh	a0,64(s6)
80038254:	4400c586 	lh	a1,68(s6)
80038258:	21104300 	addu	v0,v0,v1
8003825c:	4200c2a6 	sh	v0,66(s6)
80038260:	2000c28e 	lw	v0,32(s6)
80038264:	2800c38e 	lw	v1,40(s6)
80038268:	21104400 	addu	v0,v0,a0
8003826c:	4200c486 	lh	a0,66(s6)
80038270:	2000c2ae 	sw	v0,32(s6)
80038274:	2400c28e 	lw	v0,36(s6)
80038278:	21186500 	addu	v1,v1,a1
8003827c:	2800c3ae 	sw	v1,40(s6)
80038280:	0500c392 	lbu	v1,5(s6)
80038284:	21104400 	addu	v0,v0,a0
80038288:	0600632c 	sltiu	v1,v1,6
8003828c:	05006010 	beqz	v1,0x800382a4
80038290:	2400c2ae 	sw	v0,36(s6)
80038294:	3800c296 	lhu	v0,56(s6)
80038298:	5000c396 	lhu	v1,80(s6)
8003829c:	ade20008 	j	0x80038ab4
800382a0:	21104300 	addu	v0,v0,v1
800382a4:	3800c296 	lhu	v0,56(s6)
800382a8:	5000c396 	lhu	v1,80(s6)
800382ac:	00000000 	nop
800382b0:	23104300 	subu	v0,v0,v1
800382b4:	3800c2a6 	sh	v0,56(s6)
800382b8:	3800c296 	lhu	v0,56(s6)
800382bc:	00000000 	nop
800382c0:	21184000 	move	v1,v0
800382c4:	3c00c2a6 	sh	v0,60(s6)
800382c8:	0500c292 	lbu	v0,5(s6)
800382cc:	3a00c3a6 	sh	v1,58(s6)
800382d0:	1000c386 	lh	v1,16(s6)
800382d4:	01004224 	addiu	v0,v0,1
800382d8:	bbeb0008 	j	0x8003aeec
800382dc:	0500c2a2 	sb	v0,5(s6)
800382e0:	4200c396 	lhu	v1,66(s6)
800382e4:	4000c586 	lh	a1,64(s6)
800382e8:	2000c28e 	lw	v0,32(s6)
800382ec:	5200c496 	lhu	a0,82(s6)
800382f0:	21104500 	addu	v0,v0,a1
800382f4:	4400c586 	lh	a1,68(s6)
800382f8:	21186400 	addu	v1,v1,a0
800382fc:	4200c3a6 	sh	v1,66(s6)
80038300:	3800c396 	lhu	v1,56(s6)
80038304:	5000c496 	lhu	a0,80(s6)
80038308:	2000c2ae 	sw	v0,32(s6)
8003830c:	2800c28e 	lw	v0,40(s6)
80038310:	21186400 	addu	v1,v1,a0
80038314:	4200c486 	lh	a0,66(s6)
80038318:	21104500 	addu	v0,v0,a1
8003831c:	2800c2ae 	sw	v0,40(s6)
80038320:	2400c28e 	lw	v0,36(s6)
80038324:	3800c3a6 	sh	v1,56(s6)
80038328:	3c00c3a6 	sh	v1,60(s6)
8003832c:	0500c392 	lbu	v1,5(s6)
80038330:	21104400 	addu	v0,v0,a0
80038334:	0300632c 	sltiu	v1,v1,3
80038338:	04006010 	beqz	v1,0x8003834c
8003833c:	2400c2ae 	sw	v0,36(s6)
80038340:	3800c286 	lh	v0,56(s6)
80038344:	d7e20008 	j	0x80038b5c
80038348:	40100200 	sll	v0,v0,0x1
8003834c:	3a00c296 	lhu	v0,58(s6)
80038350:	5000c396 	lhu	v1,80(s6)
80038354:	00000000 	nop
80038358:	23104300 	subu	v0,v0,v1
8003835c:	3a00c2a6 	sh	v0,58(s6)
80038360:	0500c292 	lbu	v0,5(s6)
80038364:	1000c386 	lh	v1,16(s6)
80038368:	01004224 	addiu	v0,v0,1
8003836c:	bbeb0008 	j	0x8003aeec
80038370:	0500c2a2 	sb	v0,5(s6)
80038374:	4200c296 	lhu	v0,66(s6)
80038378:	5200c396 	lhu	v1,82(s6)
8003837c:	4000c486 	lh	a0,64(s6)
80038380:	4400c586 	lh	a1,68(s6)
80038384:	21104300 	addu	v0,v0,v1
80038388:	4200c2a6 	sh	v0,66(s6)
8003838c:	2000c28e 	lw	v0,32(s6)
80038390:	2800c38e 	lw	v1,40(s6)
80038394:	21104400 	addu	v0,v0,a0
80038398:	2000c2ae 	sw	v0,32(s6)
8003839c:	0500c292 	lbu	v0,5(s6)
800383a0:	21186500 	addu	v1,v1,a1
800383a4:	2800c3ae 	sw	v1,40(s6)
800383a8:	5000c396 	lhu	v1,80(s6)
800383ac:	c0110200 	sll	v0,v0,0x7
800383b0:	23186200 	subu	v1,v1,v0
800383b4:	3800c296 	lhu	v0,56(s6)
800383b8:	0500c492 	lbu	a0,5(s6)
800383bc:	21104300 	addu	v0,v0,v1
800383c0:	4200c386 	lh	v1,66(s6)
800383c4:	01008424 	addiu	a0,a0,1
800383c8:	0500c4a2 	sb	a0,5(s6)
800383cc:	3800c2a6 	sh	v0,56(s6)
800383d0:	3c00c2a6 	sh	v0,60(s6)
800383d4:	2400c28e 	lw	v0,36(s6)
800383d8:	1000c486 	lh	a0,16(s6)
800383dc:	21104300 	addu	v0,v0,v1
800383e0:	2400c2ae 	sw	v0,36(s6)
800383e4:	08008228 	slti	v0,a0,8
800383e8:	fc0b4010 	beqz	v0,0x8003b3dc
800383ec:	40120400 	sll	v0,a0,0x9
800383f0:	f7ee0008 	j	0x8003bbdc
800383f4:	1200c2a6 	sh	v0,18(s6)
800383f8:	0980023c 	lui	v0,0x8009
800383fc:	20804624 	addiu	a2,v0,-32736
80038400:	0300c388 	lwl	v1,3(a2)
80038404:	0000c398 	lwr	v1,0(a2)
80038408:	0700c488 	lwl	a0,7(a2)
8003840c:	0400c498 	lwr	a0,4(a2)
80038410:	7b00a3ab 	swl	v1,123(sp)
80038414:	7800a3bb 	swr	v1,120(sp)
80038418:	7f00a4ab 	swl	a0,127(sp)
8003841c:	7c00a4bb 	swr	a0,124(sp)
80038420:	5000c526 	addiu	a1,s6,80
80038424:	7800a627 	addiu	a2,sp,120
80038428:	10030224 	li	v0,784
8003842c:	8000a2a7 	sh	v0,128(sp)
80038430:	60010224 	li	v0,352
80038434:	8200a2a7 	sh	v0,130(sp)
80038438:	0000c492 	lbu	a0,0(s6)
8003843c:	8000a727 	addiu	a3,sp,128
80038440:	20008430 	andi	a0,a0,0x20
80038444:	19e1000c 	jal	0x80038464
80038448:	2b200400 	sltu	a0,zero,a0
8003844c:	5000c292 	lbu	v0,80(s6)
80038450:	00000000 	nop
80038454:	04004224 	addiu	v0,v0,4
80038458:	9c004016 	bnez	s2,0x800386cc
8003845c:	5000c2a2 	sb	v0,80(s6)
80038460:	5100c292 	lbu	v0,81(s6)
80038464:	00000000 	nop
80038468:	01004224 	addiu	v0,v0,1
8003846c:	5100c2a2 	sb	v0,81(s6)
80038470:	00160200 	sll	v0,v0,0x18
80038474:	03160200 	sra	v0,v0,0x18
80038478:	0a004228 	slti	v0,v0,10
8003847c:	05004010 	beqz	v0,0x80038494
80038480:	00000000 	nop
80038484:	4200c296 	lhu	v0,66(s6)
80038488:	00000000 	nop
8003848c:	c8ff4224 	addiu	v0,v0,-56
80038490:	4200c2a6 	sh	v0,66(s6)
80038494:	0c00c496 	lhu	a0,12(s6)
80038498:	1800c58e 	lw	a1,24(s6)
8003849c:	c0e0000c 	jal	0x80038300
800384a0:	21300000 	move	a2,zero
800384a4:	21804000 	move	s0,v0
800384a8:	59000012 	beqz	s0,0x80038610
800384ac:	10000232 	andi	v0,s0,0x10
800384b0:	15004010 	beqz	v0,0x80038508
800384b4:	1b80023c 	lui	v0,0x801b
800384b8:	a459438c 	lw	v1,22948(v0)
800384bc:	00000000 	nop
800384c0:	40100300 	sll	v0,v1,0x1
800384c4:	21104300 	addu	v0,v0,v1
800384c8:	80100200 	sll	v0,v0,0x2
800384cc:	21104300 	addu	v0,v0,v1
800384d0:	80100200 	sll	v0,v0,0x2
800384d4:	21104300 	addu	v0,v0,v1
800384d8:	80100200 	sll	v0,v0,0x2
800384dc:	1c80033c 	lui	v1,0x801c
800384e0:	38a16324 	addiu	v1,v1,-24264
800384e4:	21184300 	addu	v1,v0,v1
800384e8:	2c006294 	lhu	v0,44(v1)
800384ec:	00000000 	nop
800384f0:	07004010 	beqz	v0,0x80038510
800384f4:	01000224 	li	v0,1
800384f8:	1f006390 	lbu	v1,31(v1)
800384fc:	00000000 	nop
80038500:	03006210 	beq	v1,v0,0x80038510
80038504:	00000000 	nop
80038508:	63d8000c 	jal	0x8003618c
8003850c:	21200002 	move	a0,s0
80038510:	0000c592 	lbu	a1,0(s6)
80038514:	2120c002 	move	a0,s6
80038518:	82280500 	srl	a1,a1,0x2
8003851c:	0800a530 	andi	a1,a1,0x8
80038520:	32d7000c 	jal	0x80035cc8
80038524:	1d00a524 	addiu	a1,a1,29
80038528:	2000c28e 	lw	v0,32(s6)
8003852c:	00000000 	nop
80038530:	9000a2af 	sw	v0,144(sp)
80038534:	2400c28e 	lw	v0,36(s6)
80038538:	00000000 	nop
8003853c:	9400a2af 	sw	v0,148(sp)
80038540:	2800c28e 	lw	v0,40(s6)
80038544:	00000000 	nop
80038548:	9800a2af 	sw	v0,152(sp)
8003854c:	4000c296 	lhu	v0,64(s6)
80038550:	00000000 	nop
80038554:	00140200 	sll	v0,v0,0x10
80038558:	43140200 	sra	v0,v0,0x11
8003855c:	8800a2a7 	sh	v0,136(sp)
80038560:	4200c296 	lhu	v0,66(s6)
80038564:	00000000 	nop
80038568:	00140200 	sll	v0,v0,0x10
8003856c:	43140200 	sra	v0,v0,0x11
80038570:	8a00a2a7 	sh	v0,138(sp)
80038574:	4400c296 	lhu	v0,68(s6)
80038578:	00000000 	nop
8003857c:	00140200 	sll	v0,v0,0x10
80038580:	43140200 	sra	v0,v0,0x11
80038584:	8c00a2a7 	sh	v0,140(sp)
80038588:	11000232 	andi	v0,s0,0x11
8003858c:	1a004010 	beqz	v0,0x800385f8
80038590:	0a000424 	li	a0,10
80038594:	b3000624 	li	a2,179
80038598:	9000a727 	addiu	a3,sp,144
8003859c:	01000224 	li	v0,1
800385a0:	0500c2a2 	sb	v0,5(s6)
800385a4:	8a00a0a7 	sh	zero,138(sp)
800385a8:	a000a0a7 	sh	zero,160(sp)
800385ac:	a200a0a7 	sh	zero,162(sp)
800385b0:	a400a0a7 	sh	zero,164(sp)
800385b4:	0000c592 	lbu	a1,0(s6)
800385b8:	8800a227 	addiu	v0,sp,136
800385bc:	1000a2af 	sw	v0,16(sp)
800385c0:	00020224 	li	v0,512
800385c4:	1400a2af 	sw	v0,20(sp)
800385c8:	00010224 	li	v0,256
800385cc:	1800a2af 	sw	v0,24(sp)
800385d0:	08000224 	li	v0,8
800385d4:	1c00a2af 	sw	v0,28(sp)
800385d8:	04000224 	li	v0,4
800385dc:	2000a2af 	sw	v0,32(sp)
800385e0:	0f000224 	li	v0,15
800385e4:	21d9000c 	jal	0x80036484
800385e8:	2400a2af 	sw	v0,36(sp)
800385ec:	5200c0a2 	sb	zero,82(s6)
800385f0:	84e30008 	j	0x80038e10
800385f4:	5300c0a2 	sb	zero,83(s6)
800385f8:	02000224 	li	v0,2
800385fc:	0500c2a2 	sb	v0,5(s6)
80038600:	08000224 	li	v0,8
80038604:	4000c0a6 	sh	zero,64(s6)
80038608:	4200c2a6 	sh	v0,66(s6)
8003860c:	4400c0a6 	sh	zero,68(s6)
80038610:	1b80023c 	lui	v0,0x801b
80038614:	48594424 	addiu	a0,v0,22856
80038618:	30008394 	lhu	v1,48(a0)
8003861c:	00080224 	li	v0,2048
80038620:	23104300 	subu	v0,v0,v1
80038624:	00440200 	sll	t0,v0,0x10
80038628:	6c0b0019 	blez	t0,0x8003b3dc
8003862c:	b1000624 	li	a2,177
80038630:	2000c28e 	lw	v0,32(s6)
80038634:	00000000 	nop
80038638:	9000a2af 	sw	v0,144(sp)
8003863c:	2400c28e 	lw	v0,36(s6)
80038640:	3000838c 	lw	v1,48(a0)
80038644:	00000000 	nop
80038648:	21104300 	addu	v0,v0,v1
8003864c:	9400a2af 	sw	v0,148(sp)
80038650:	2800c28e 	lw	v0,40(s6)
80038654:	00000000 	nop
80038658:	9800a2af 	sw	v0,152(sp)
8003865c:	4000c296 	lhu	v0,64(s6)
80038660:	00000000 	nop
80038664:	00140200 	sll	v0,v0,0x10
80038668:	43140200 	sra	v0,v0,0x11
8003866c:	8800a2a7 	sh	v0,136(sp)
80038670:	4200c296 	lhu	v0,66(s6)
80038674:	9000a727 	addiu	a3,sp,144
80038678:	00140200 	sll	v0,v0,0x10
8003867c:	43140200 	sra	v0,v0,0x11
80038680:	8a00a2a7 	sh	v0,138(sp)
80038684:	4400c296 	lhu	v0,68(s6)
80038688:	0a000424 	li	a0,10
8003868c:	00140200 	sll	v0,v0,0x10
80038690:	43140200 	sra	v0,v0,0x11
80038694:	8c00a2a7 	sh	v0,140(sp)
80038698:	0000c592 	lbu	a1,0(s6)
8003869c:	8800a227 	addiu	v0,sp,136
800386a0:	1000a2af 	sw	v0,16(sp)
800386a4:	83140800 	sra	v0,t0,0x12
800386a8:	1400a2af 	sw	v0,20(sp)
800386ac:	c3140800 	sra	v0,t0,0x13
800386b0:	1800a2af 	sw	v0,24(sp)
800386b4:	06000224 	li	v0,6
800386b8:	1c00a2af 	sw	v0,28(sp)
800386bc:	02000224 	li	v0,2
800386c0:	2000a2af 	sw	v0,32(sp)
800386c4:	45eb0008 	j	0x8003ad14
800386c8:	0f000224 	li	v0,15
800386cc:	01000224 	li	v0,1
800386d0:	89004216 	bne	s2,v0,0x800388f8
800386d4:	00000000 	nop
800386d8:	5200c292 	lbu	v0,82(s6)
800386dc:	00000000 	nop
800386e0:	01004224 	addiu	v0,v0,1
800386e4:	5200c2a2 	sb	v0,82(s6)
800386e8:	5300c292 	lbu	v0,83(s6)
800386ec:	5200c382 	lb	v1,82(s6)
800386f0:	01004224 	addiu	v0,v0,1
800386f4:	5300c2a2 	sb	v0,83(s6)
800386f8:	0e006228 	slti	v0,v1,14
800386fc:	e4024010 	beqz	v0,0x80039290
80038700:	08006228 	slti	v0,v1,8
80038704:	350b4010 	beqz	v0,0x8003b3dc
80038708:	e000a427 	addiu	a0,sp,224
8003870c:	4000c296 	lhu	v0,64(s6)
80038710:	a200a0a7 	sh	zero,162(sp)
80038714:	00140200 	sll	v0,v0,0x10
80038718:	43140200 	sra	v0,v0,0x11
8003871c:	a000a2a7 	sh	v0,160(sp)
80038720:	4400c296 	lhu	v0,68(s6)
80038724:	00000000 	nop
80038728:	00140200 	sll	v0,v0,0x10
8003872c:	43140200 	sra	v0,v0,0x11
80038730:	a400a2a7 	sh	v0,164(sp)
80038734:	3000c296 	lhu	v0,48(s6)
80038738:	00000000 	nop
8003873c:	23100200 	negu	v0,v0
80038740:	e000a2a7 	sh	v0,224(sp)
80038744:	3200c296 	lhu	v0,50(s6)
80038748:	c000b127 	addiu	s1,sp,192
8003874c:	23100200 	negu	v0,v0
80038750:	e200a2a7 	sh	v0,226(sp)
80038754:	3400c296 	lhu	v0,52(s6)
80038758:	21282002 	move	a1,s1
8003875c:	23100200 	negu	v0,v0
80038760:	55d4010c 	jal	0x80075154
80038764:	e400a2a7 	sh	v0,228(sp)
80038768:	5200c482 	lb	a0,82(s6)
8003876c:	00000000 	nop
80038770:	40220400 	sll	a0,a0,0x9
80038774:	31d1010c 	jal	0x800744c4
80038778:	00088424 	addiu	a0,a0,2048
8003877c:	02004104 	bgez	v0,0x80038788
80038780:	00000000 	nop
80038784:	0f004224 	addiu	v0,v0,15
80038788:	03110200 	sra	v0,v0,0x4
8003878c:	00014224 	addiu	v0,v0,256
80038790:	b800a2a7 	sh	v0,184(sp)
80038794:	ba00a0a7 	sh	zero,186(sp)
80038798:	5200c482 	lb	a0,82(s6)
8003879c:	00000000 	nop
800387a0:	40220400 	sll	a0,a0,0x9
800387a4:	fdd0010c 	jal	0x800743f4
800387a8:	00088424 	addiu	a0,a0,2048
800387ac:	02004104 	bgez	v0,0x800387b8
800387b0:	00000000 	nop
800387b4:	0f004224 	addiu	v0,v0,15
800387b8:	21202002 	move	a0,s1
800387bc:	b800b027 	addiu	s0,sp,184
800387c0:	21280002 	move	a1,s0
800387c4:	21300002 	move	a2,s0
800387c8:	03110200 	sra	v0,v0,0x4
800387cc:	3dd3010c 	jal	0x80074cf4
800387d0:	bc00a2a7 	sh	v0,188(sp)
800387d4:	0a000424 	li	a0,10
800387d8:	b2000624 	li	a2,178
800387dc:	a800b327 	addiu	s3,sp,168
800387e0:	21386002 	move	a3,s3
800387e4:	a000b227 	addiu	s2,sp,160
800387e8:	80001e24 	li	s8,128
800387ec:	b800a387 	lh	v1,184(sp)
800387f0:	2000c28e 	lw	v0,32(s6)
800387f4:	06001724 	li	s7,6
800387f8:	21104300 	addu	v0,v0,v1
800387fc:	a800a2af 	sw	v0,168(sp)
80038800:	2400c28e 	lw	v0,36(s6)
80038804:	bc00a387 	lh	v1,188(sp)
80038808:	03001524 	li	s5,3
8003880c:	ac00a2af 	sw	v0,172(sp)
80038810:	2800c28e 	lw	v0,40(s6)
80038814:	0f001424 	li	s4,15
80038818:	21104300 	addu	v0,v0,v1
8003881c:	b000a2af 	sw	v0,176(sp)
80038820:	0000c592 	lbu	a1,0(s6)
80038824:	00010924 	li	t1,256
80038828:	1000b2af 	sw	s2,16(sp)
8003882c:	1400a9af 	sw	t1,20(sp)
80038830:	1800beaf 	sw	s8,24(sp)
80038834:	1c00b7af 	sw	s7,28(sp)
80038838:	2000b5af 	sw	s5,32(sp)
8003883c:	21d9000c 	jal	0x80036484
80038840:	2400b4af 	sw	s4,36(sp)
80038844:	5200c482 	lb	a0,82(s6)
80038848:	31d1010c 	jal	0x800744c4
8003884c:	40220400 	sll	a0,a0,0x9
80038850:	02004104 	bgez	v0,0x8003885c
80038854:	00000000 	nop
80038858:	0f004224 	addiu	v0,v0,15
8003885c:	03110200 	sra	v0,v0,0x4
80038860:	00ff4224 	addiu	v0,v0,-256
80038864:	b800a2a7 	sh	v0,184(sp)
80038868:	ba00a0a7 	sh	zero,186(sp)
8003886c:	5200c482 	lb	a0,82(s6)
80038870:	fdd0010c 	jal	0x800743f4
80038874:	40220400 	sll	a0,a0,0x9
80038878:	02004104 	bgez	v0,0x80038884
8003887c:	21202002 	move	a0,s1
80038880:	0f004224 	addiu	v0,v0,15
80038884:	21280002 	move	a1,s0
80038888:	2130a000 	move	a2,a1
8003888c:	03110200 	sra	v0,v0,0x4
80038890:	3dd3010c 	jal	0x80074cf4
80038894:	bc00a2a7 	sh	v0,188(sp)
80038898:	b800a387 	lh	v1,184(sp)
8003889c:	2000c28e 	lw	v0,32(s6)
800388a0:	0a000424 	li	a0,10
800388a4:	21104300 	addu	v0,v0,v1
800388a8:	a800a2af 	sw	v0,168(sp)
800388ac:	2400c28e 	lw	v0,36(s6)
800388b0:	bc00a387 	lh	v1,188(sp)
800388b4:	b2000624 	li	a2,178
800388b8:	ac00a2af 	sw	v0,172(sp)
800388bc:	2800c28e 	lw	v0,40(s6)
800388c0:	21386002 	move	a3,s3
800388c4:	21104300 	addu	v0,v0,v1
800388c8:	b000a2af 	sw	v0,176(sp)
800388cc:	0000c592 	lbu	a1,0(s6)
800388d0:	00010924 	li	t1,256
800388d4:	1000b2af 	sw	s2,16(sp)
800388d8:	1400a9af 	sw	t1,20(sp)
800388dc:	1800beaf 	sw	s8,24(sp)
800388e0:	1c00b7af 	sw	s7,28(sp)
800388e4:	2000b5af 	sw	s5,32(sp)
800388e8:	21d9000c 	jal	0x80036484
800388ec:	2400b4af 	sw	s4,36(sp)
800388f0:	f7ee0008 	j	0x8003bbdc
800388f4:	00000000 	nop
800388f8:	3000c296 	lhu	v0,48(s6)
800388fc:	0500c392 	lbu	v1,5(s6)
80038900:	40004224 	addiu	v0,v0,64
80038904:	3000c2a6 	sh	v0,48(s6)
80038908:	01006224 	addiu	v0,v1,1
8003890c:	0e00632c 	sltiu	v1,v1,14
80038910:	b20a6014 	bnez	v1,0x8003b3dc
80038914:	0500c2a2 	sb	v0,5(s6)
80038918:	a5e60008 	j	0x80039a94
8003891c:	ff000224 	li	v0,255
80038920:	1c00c68e 	lw	a2,28(s6)
80038924:	00000000 	nop
80038928:	0000c390 	lbu	v1,0(a2)
8003892c:	ff000224 	li	v0,255
80038930:	25006210 	beq	v1,v0,0x800389c8
80038934:	01000224 	li	v0,1
80038938:	0500c390 	lbu	v1,5(a2)
8003893c:	00000000 	nop
80038940:	22006210 	beq	v1,v0,0x800389cc
80038944:	ff000224 	li	v0,255
80038948:	0b006014 	bnez	v1,0x80038978
8003894c:	00000000 	nop
80038950:	2000c28c 	lw	v0,32(a2)
80038954:	2400c38c 	lw	v1,36(a2)
80038958:	2800c48c 	lw	a0,40(a2)
8003895c:	2c00c58c 	lw	a1,44(a2)
80038960:	2000c2ae 	sw	v0,32(s6)
80038964:	2400c3ae 	sw	v1,36(s6)
80038968:	2800c4ae 	sw	a0,40(s6)
8003896c:	2c00c5ae 	sw	a1,44(s6)
80038970:	66e40008 	j	0x80039198
80038974:	00000000 	nop
80038978:	5000c292 	lbu	v0,80(s6)
8003897c:	2400c38e 	lw	v1,36(s6)
80038980:	01004224 	addiu	v0,v0,1
80038984:	5000c2a2 	sb	v0,80(s6)
80038988:	00160200 	sll	v0,v0,0x18
8003898c:	03150200 	sra	v0,v0,0x14
80038990:	21186200 	addu	v1,v1,v0
80038994:	2400c3ae 	sw	v1,36(s6)
80038998:	1c00c28e 	lw	v0,28(s6)
8003899c:	00000000 	nop
800389a0:	33004388 	lwl	v1,51(v0)
800389a4:	30004398 	lwr	v1,48(v0)
800389a8:	37004488 	lwl	a0,55(v0)
800389ac:	34004498 	lwr	a0,52(v0)
800389b0:	3300c3aa 	swl	v1,51(s6)
800389b4:	3000c3ba 	swr	v1,48(s6)
800389b8:	3700c4aa 	swl	a0,55(s6)
800389bc:	3400c4ba 	swr	a0,52(s6)
800389c0:	74e40008 	j	0x800391d0
800389c4:	00000000 	nop
800389c8:	ff000224 	li	v0,255
800389cc:	0000c2a2 	sb	v0,0(s6)
800389d0:	1000c386 	lh	v1,16(s6)
800389d4:	bceb0008 	j	0x8003aef0
800389d8:	08006228 	slti	v0,v1,8
800389dc:	1c00c68e 	lw	a2,28(s6)
800389e0:	00000000 	nop
800389e4:	0000c390 	lbu	v1,0(a2)
800389e8:	ff000224 	li	v0,255
800389ec:	28006210 	beq	v1,v0,0x80038a90
800389f0:	01000224 	li	v0,1
800389f4:	0500c390 	lbu	v1,5(a2)
800389f8:	00000000 	nop
800389fc:	25006210 	beq	v1,v0,0x80038a94
80038a00:	ff000224 	li	v0,255
80038a04:	0b006014 	bnez	v1,0x80038a34
80038a08:	00000000 	nop
80038a0c:	2000c28c 	lw	v0,32(a2)
80038a10:	2400c38c 	lw	v1,36(a2)
80038a14:	2800c48c 	lw	a0,40(a2)
80038a18:	2c00c58c 	lw	a1,44(a2)
80038a1c:	2000c2ae 	sw	v0,32(s6)
80038a20:	2400c3ae 	sw	v1,36(s6)
80038a24:	2800c4ae 	sw	a0,40(s6)
80038a28:	2c00c5ae 	sw	a1,44(s6)
80038a2c:	95e40008 	j	0x80039254
80038a30:	00000000 	nop
80038a34:	5000c292 	lbu	v0,80(s6)
80038a38:	2400c38e 	lw	v1,36(s6)
80038a3c:	01004224 	addiu	v0,v0,1
80038a40:	5000c2a2 	sb	v0,80(s6)
80038a44:	00160200 	sll	v0,v0,0x18
80038a48:	83150200 	sra	v0,v0,0x16
80038a4c:	21186200 	addu	v1,v1,v0
80038a50:	2400c3ae 	sw	v1,36(s6)
80038a54:	5100c292 	lbu	v0,81(s6)
80038a58:	00000000 	nop
80038a5c:	01004224 	addiu	v0,v0,1
80038a60:	5100c2a2 	sb	v0,81(s6)
80038a64:	00160200 	sll	v0,v0,0x18
80038a68:	03160200 	sra	v0,v0,0x18
80038a6c:	04004228 	slti	v0,v0,4
80038a70:	02004014 	bnez	v0,0x80038a7c
80038a74:	00000000 	nop
80038a78:	5100c0a2 	sb	zero,81(s6)
80038a7c:	5100c292 	lbu	v0,81(s6)
80038a80:	00000000 	nop
80038a84:	80004234 	ori	v0,v0,0x80
80038a88:	a6e40008 	j	0x80039298
80038a8c:	0200c2a2 	sb	v0,2(s6)
80038a90:	ff000224 	li	v0,255
80038a94:	0000c2a2 	sb	v0,0(s6)
80038a98:	1000c386 	lh	v1,16(s6)
80038a9c:	bceb0008 	j	0x8003aef0
80038aa0:	08006228 	slti	v0,v1,8
80038aa4:	4000c386 	lh	v1,64(s6)
80038aa8:	2000c28e 	lw	v0,32(s6)
80038aac:	4200c486 	lh	a0,66(s6)
80038ab0:	4400c586 	lh	a1,68(s6)
80038ab4:	21104300 	addu	v0,v0,v1
80038ab8:	2000c2ae 	sw	v0,32(s6)
80038abc:	2400c28e 	lw	v0,36(s6)
80038ac0:	2800c38e 	lw	v1,40(s6)
80038ac4:	21104400 	addu	v0,v0,a0
80038ac8:	2400c2ae 	sw	v0,36(s6)
80038acc:	3800c296 	lhu	v0,56(s6)
80038ad0:	5000c496 	lhu	a0,80(s6)
80038ad4:	21186500 	addu	v1,v1,a1
80038ad8:	2800c3ae 	sw	v1,40(s6)
80038adc:	0500c392 	lbu	v1,5(s6)
80038ae0:	21104400 	addu	v0,v0,a0
80038ae4:	0300632c 	sltiu	v1,v1,3
80038ae8:	3800c2a6 	sh	v0,56(s6)
80038aec:	04006010 	beqz	v1,0x80038b00
80038af0:	3c00c2a6 	sh	v0,60(s6)
80038af4:	3800c286 	lh	v0,56(s6)
80038af8:	c4e40008 	j	0x80039310
80038afc:	40100200 	sll	v0,v0,0x1
80038b00:	3a00c296 	lhu	v0,58(s6)
80038b04:	5000c396 	lhu	v1,80(s6)
80038b08:	00000000 	nop
80038b0c:	23104300 	subu	v0,v0,v1
80038b10:	3a00c2a6 	sh	v0,58(s6)
80038b14:	0500c292 	lbu	v0,5(s6)
80038b18:	1000c386 	lh	v1,16(s6)
80038b1c:	01004224 	addiu	v0,v0,1
80038b20:	bbeb0008 	j	0x8003aeec
80038b24:	0500c2a2 	sb	v0,5(s6)
80038b28:	4000c386 	lh	v1,64(s6)
80038b2c:	2000c28e 	lw	v0,32(s6)
80038b30:	4200c486 	lh	a0,66(s6)
80038b34:	4400c586 	lh	a1,68(s6)
80038b38:	21104300 	addu	v0,v0,v1
80038b3c:	2000c2ae 	sw	v0,32(s6)
80038b40:	2400c28e 	lw	v0,36(s6)
80038b44:	2800c38e 	lw	v1,40(s6)
80038b48:	21104400 	addu	v0,v0,a0
80038b4c:	2400c2ae 	sw	v0,36(s6)
80038b50:	3800c296 	lhu	v0,56(s6)
80038b54:	5000c496 	lhu	a0,80(s6)
80038b58:	21186500 	addu	v1,v1,a1
80038b5c:	2800c3ae 	sw	v1,40(s6)
80038b60:	0500c392 	lbu	v1,5(s6)
80038b64:	21104400 	addu	v0,v0,a0
80038b68:	0300632c 	sltiu	v1,v1,3
80038b6c:	3800c2a6 	sh	v0,56(s6)
80038b70:	04006010 	beqz	v1,0x80038b84
80038b74:	3c00c2a6 	sh	v0,60(s6)
80038b78:	3800c286 	lh	v0,56(s6)
80038b7c:	e5e40008 	j	0x80039394
80038b80:	40100200 	sll	v0,v0,0x1
80038b84:	3a00c296 	lhu	v0,58(s6)
80038b88:	5000c396 	lhu	v1,80(s6)
80038b8c:	00000000 	nop
80038b90:	23104300 	subu	v0,v0,v1
80038b94:	3a00c2a6 	sh	v0,58(s6)
80038b98:	0500c292 	lbu	v0,5(s6)
80038b9c:	1000c386 	lh	v1,16(s6)
80038ba0:	01004224 	addiu	v0,v0,1
80038ba4:	bbeb0008 	j	0x8003aeec
80038ba8:	0500c2a2 	sb	v0,5(s6)
80038bac:	4000c386 	lh	v1,64(s6)
80038bb0:	2000c28e 	lw	v0,32(s6)
80038bb4:	4200c486 	lh	a0,66(s6)
80038bb8:	4400c586 	lh	a1,68(s6)
80038bbc:	21104300 	addu	v0,v0,v1
80038bc0:	2000c2ae 	sw	v0,32(s6)
80038bc4:	2400c28e 	lw	v0,36(s6)
80038bc8:	2800c38e 	lw	v1,40(s6)
80038bcc:	21104400 	addu	v0,v0,a0
80038bd0:	2400c2ae 	sw	v0,36(s6)
80038bd4:	3800c296 	lhu	v0,56(s6)
80038bd8:	5000c496 	lhu	a0,80(s6)
80038bdc:	21186500 	addu	v1,v1,a1
80038be0:	2800c3ae 	sw	v1,40(s6)
80038be4:	0500c392 	lbu	v1,5(s6)
80038be8:	21104400 	addu	v0,v0,a0
80038bec:	0300632c 	sltiu	v1,v1,3
80038bf0:	3800c2a6 	sh	v0,56(s6)
80038bf4:	04006010 	beqz	v1,0x80038c08
80038bf8:	3c00c2a6 	sh	v0,60(s6)
80038bfc:	3800c286 	lh	v0,56(s6)
80038c00:	06e50008 	j	0x80039418
80038c04:	40100200 	sll	v0,v0,0x1
80038c08:	3a00c296 	lhu	v0,58(s6)
80038c0c:	5000c396 	lhu	v1,80(s6)
80038c10:	00000000 	nop
80038c14:	23104300 	subu	v0,v0,v1
80038c18:	3a00c2a6 	sh	v0,58(s6)
80038c1c:	0500c292 	lbu	v0,5(s6)
80038c20:	1000c386 	lh	v1,16(s6)
80038c24:	01004224 	addiu	v0,v0,1
80038c28:	bbeb0008 	j	0x8003aeec
80038c2c:	0500c2a2 	sb	v0,5(s6)
80038c30:	1000c296 	lhu	v0,16(s6)
80038c34:	00000000 	nop
80038c38:	c2100200 	srl	v0,v0,0x3
80038c3c:	01004230 	andi	v0,v0,0x1
80038c40:	04004010 	beqz	v0,0x80038c54
80038c44:	00000000 	nop
80038c48:	3800c296 	lhu	v0,56(s6)
80038c4c:	18e50008 	j	0x80039460
80038c50:	c0ff4224 	addiu	v0,v0,-64
80038c54:	3800c296 	lhu	v0,56(s6)
80038c58:	00000000 	nop
80038c5c:	40004224 	addiu	v0,v0,64
80038c60:	3800c2a6 	sh	v0,56(s6)
80038c64:	45e50008 	j	0x80039514
80038c68:	21800000 	move	s0,zero
80038c6c:	3200c296 	lhu	v0,50(s6)
80038c70:	5200c396 	lhu	v1,82(s6)
80038c74:	00000000 	nop
80038c78:	21104300 	addu	v0,v0,v1
80038c7c:	b1e2010c 	jal	0x80078ac4
80038c80:	3200c2a6 	sh	v0,50(s6)
80038c84:	4000c396 	lhu	v1,64(s6)
80038c88:	02004104 	bgez	v0,0x80038c94
80038c8c:	20006324 	addiu	v1,v1,32
80038c90:	ff014224 	addiu	v0,v0,511
80038c94:	43120200 	sra	v0,v0,0x9
80038c98:	23106200 	subu	v0,v1,v0
80038c9c:	b1e2010c 	jal	0x80078ac4
80038ca0:	4000c2a6 	sh	v0,64(s6)
80038ca4:	4200c396 	lhu	v1,66(s6)
80038ca8:	02004104 	bgez	v0,0x80038cb4
80038cac:	10006324 	addiu	v1,v1,16
80038cb0:	ff034224 	addiu	v0,v0,1023
80038cb4:	83120200 	sra	v0,v0,0xa
80038cb8:	23106200 	subu	v0,v1,v0
80038cbc:	b1e2010c 	jal	0x80078ac4
80038cc0:	4200c2a6 	sh	v0,66(s6)
80038cc4:	4400c396 	lhu	v1,68(s6)
80038cc8:	02004104 	bgez	v0,0x80038cd4
80038ccc:	20006324 	addiu	v1,v1,32
80038cd0:	ff014224 	addiu	v0,v0,511
80038cd4:	43120200 	sra	v0,v0,0x9
80038cd8:	23106200 	subu	v0,v1,v0
80038cdc:	45e50008 	j	0x80039514
80038ce0:	4400c2a6 	sh	v0,68(s6)
80038ce4:	80001024 	li	s0,128
80038ce8:	45e50008 	j	0x80039514
80038cec:	01001324 	li	s3,1
80038cf0:	45e50008 	j	0x80039514
80038cf4:	80011024 	li	s0,384
80038cf8:	80011024 	li	s0,384
80038cfc:	45e50008 	j	0x80039514
80038d00:	01001324 	li	s3,1
80038d04:	3200c296 	lhu	v0,50(s6)
80038d08:	3000c0a6 	sh	zero,48(s6)
80038d0c:	80014224 	addiu	v0,v0,384
80038d10:	3200c2a6 	sh	v0,50(s6)
80038d14:	0c00c496 	lhu	a0,12(s6)
80038d18:	1800c58e 	lw	a1,24(s6)
80038d1c:	c0e0000c 	jal	0x80038300
80038d20:	21300002 	move	a2,s0
80038d24:	21804000 	move	s0,v0
80038d28:	2a000012 	beqz	s0,0x80038dd4
80038d2c:	10000232 	andi	v0,s0,0x10
80038d30:	1a004010 	beqz	v0,0x80038d9c
80038d34:	1b80023c 	lui	v0,0x801b
80038d38:	a459438c 	lw	v1,22948(v0)
80038d3c:	00000000 	nop
80038d40:	40100300 	sll	v0,v1,0x1
80038d44:	21104300 	addu	v0,v0,v1
80038d48:	80100200 	sll	v0,v0,0x2
80038d4c:	21104300 	addu	v0,v0,v1
80038d50:	80100200 	sll	v0,v0,0x2
80038d54:	21104300 	addu	v0,v0,v1
80038d58:	80100200 	sll	v0,v0,0x2
80038d5c:	1c80033c 	lui	v1,0x801c
80038d60:	38a16324 	addiu	v1,v1,-24264
80038d64:	21884300 	addu	s1,v0,v1
80038d68:	2c002296 	lhu	v0,44(s1)
80038d6c:	00000000 	nop
80038d70:	0c004010 	beqz	v0,0x80038da4
80038d74:	01001224 	li	s2,1
80038d78:	1f002292 	lbu	v0,31(s1)
80038d7c:	00000000 	nop
80038d80:	08005210 	beq	v0,s2,0x80038da4
80038d84:	00000000 	nop
80038d88:	63d8000c 	jal	0x8003618c
80038d8c:	21200002 	move	a0,s0
80038d90:	0500d2a2 	sb	s2,5(s6)
80038d94:	69e50008 	j	0x800395a4
80038d98:	5400d1ae 	sw	s1,84(s6)
80038d9c:	63d8000c 	jal	0x8003618c
80038da0:	21200002 	move	a0,s0
80038da4:	02006016 	bnez	s3,0x80038db0
80038da8:	ff000224 	li	v0,255
80038dac:	0000c2a2 	sb	v0,0(s6)
80038db0:	0000c592 	lbu	a1,0(s6)
80038db4:	2120c002 	move	a0,s6
80038db8:	82280500 	srl	a1,a1,0x2
80038dbc:	0800a530 	andi	a1,a1,0x8
80038dc0:	32d7000c 	jal	0x80035cc8
80038dc4:	1d00a524 	addiu	a1,a1,29
80038dc8:	07000224 	li	v0,7
80038dcc:	7be50008 	j	0x800395ec
80038dd0:	0800c2a2 	sb	v0,8(s6)
80038dd4:	5000c292 	lbu	v0,80(s6)
80038dd8:	4200c396 	lhu	v1,66(s6)
80038ddc:	00160200 	sll	v0,v0,0x18
80038de0:	03160200 	sra	v0,v0,0x18
80038de4:	21186200 	addu	v1,v1,v0
80038de8:	4200c3a6 	sh	v1,66(s6)
80038dec:	1000c386 	lh	v1,16(s6)
80038df0:	c3ee0008 	j	0x8003bb0c
80038df4:	20006228 	slti	v0,v1,32
80038df8:	3200c296 	lhu	v0,50(s6)
80038dfc:	0500c392 	lbu	v1,5(s6)
80038e00:	3000c0a6 	sh	zero,48(s6)
80038e04:	80004224 	addiu	v0,v0,128
80038e08:	2e006010 	beqz	v1,0x80038ec4
80038e0c:	3200c2a6 	sh	v0,50(s6)
80038e10:	01000224 	li	v0,1
80038e14:	05002216 	bne	s1,v0,0x80038e2c
80038e18:	00000000 	nop
80038e1c:	3400c296 	lhu	v0,52(s6)
80038e20:	00000000 	nop
80038e24:	80004224 	addiu	v0,v0,128
80038e28:	3400c2a6 	sh	v0,52(s6)
80038e2c:	3800c296 	lhu	v0,56(s6)
80038e30:	3c00c396 	lhu	v1,60(s6)
80038e34:	80004224 	addiu	v0,v0,128
80038e38:	3800c2a6 	sh	v0,56(s6)
80038e3c:	3800c486 	lh	a0,56(s6)
80038e40:	3a00c296 	lhu	v0,58(s6)
80038e44:	80006324 	addiu	v1,v1,128
80038e48:	3c00c3a6 	sh	v1,60(s6)
80038e4c:	80004224 	addiu	v0,v0,128
80038e50:	02008104 	bgez	a0,0x80038e5c
80038e54:	3a00c2a6 	sh	v0,58(s6)
80038e58:	0f008424 	addiu	a0,a0,15
80038e5c:	3800c386 	lh	v1,56(s6)
80038e60:	03110400 	sra	v0,a0,0x4
80038e64:	02006104 	bgez	v1,0x80038e70
80038e68:	0c00c2a6 	sh	v0,12(s6)
80038e6c:	0f006324 	addiu	v1,v1,15
80038e70:	03110300 	sra	v0,v1,0x4
80038e74:	0080043c 	lui	a0,0x8000
80038e78:	3800c386 	lh	v1,56(s6)
80038e7c:	25104400 	or	v0,v0,a0
80038e80:	00186328 	slti	v1,v1,6144
80038e84:	47006014 	bnez	v1,0x80038fa4
80038e88:	1800c2ae 	sw	v0,24(s6)
80038e8c:	21300000 	move	a2,zero
80038e90:	21284000 	move	a1,v0
80038e94:	0c00c496 	lhu	a0,12(s6)
80038e98:	ff000224 	li	v0,255
80038e9c:	41d7000c 	jal	0x80035d04
80038ea0:	0000c2a2 	sb	v0,0(s6)
80038ea4:	21204000 	move	a0,v0
80038ea8:	10008230 	andi	v0,a0,0x10
80038eac:	3d004010 	beqz	v0,0x80038fa4
80038eb0:	00000000 	nop
80038eb4:	63d8000c 	jal	0x8003618c
80038eb8:	00000000 	nop
80038ebc:	e9e50008 	j	0x800397a4
80038ec0:	00000000 	nop
80038ec4:	0c00c496 	lhu	a0,12(s6)
80038ec8:	1800c58e 	lw	a1,24(s6)
80038ecc:	c0e0000c 	jal	0x80038300
80038ed0:	21300000 	move	a2,zero
80038ed4:	21804000 	move	s0,v0
80038ed8:	32000012 	beqz	s0,0x80038fa4
80038edc:	2120c002 	move	a0,s6
80038ee0:	0000c592 	lbu	a1,0(s6)
80038ee4:	00000000 	nop
80038ee8:	82280500 	srl	a1,a1,0x2
80038eec:	0800a530 	andi	a1,a1,0x8
80038ef0:	32d7000c 	jal	0x80035cc8
80038ef4:	1d00a524 	addiu	a1,a1,29
80038ef8:	10000232 	andi	v0,s0,0x10
80038efc:	25004010 	beqz	v0,0x80038f94
80038f00:	1b80023c 	lui	v0,0x801b
80038f04:	a459438c 	lw	v1,22948(v0)
80038f08:	00000000 	nop
80038f0c:	40100300 	sll	v0,v1,0x1
80038f10:	21104300 	addu	v0,v0,v1
80038f14:	80100200 	sll	v0,v0,0x2
80038f18:	21104300 	addu	v0,v0,v1
80038f1c:	80100200 	sll	v0,v0,0x2
80038f20:	21104300 	addu	v0,v0,v1
80038f24:	80100200 	sll	v0,v0,0x2
80038f28:	1c80033c 	lui	v1,0x801c
80038f2c:	38a16324 	addiu	v1,v1,-24264
80038f30:	21904300 	addu	s2,v0,v1
80038f34:	2c004296 	lhu	v0,44(s2)
80038f38:	00000000 	nop
80038f3c:	17004010 	beqz	v0,0x80038f9c
80038f40:	01001324 	li	s3,1
80038f44:	1f004292 	lbu	v0,31(s2)
80038f48:	00000000 	nop
80038f4c:	14005310 	beq	v0,s3,0x80038fa0
80038f50:	ff000224 	li	v0,255
80038f54:	63d8000c 	jal	0x8003618c
80038f58:	21200002 	move	a0,s0
80038f5c:	1000c286 	lh	v0,16(s6)
80038f60:	00000000 	nop
80038f64:	20004228 	slti	v0,v0,32
80038f68:	02004014 	bnez	v0,0x80038f74
80038f6c:	20000224 	li	v0,32
80038f70:	1000c2a6 	sh	v0,16(s6)
80038f74:	0500d3a2 	sb	s3,5(s6)
80038f78:	18093312 	beq	s1,s3,0x8003b3dc
80038f7c:	5400d2ae 	sw	s2,84(s6)
80038f80:	10000224 	li	v0,16
80038f84:	15092212 	beq	s1,v0,0x8003b3dc
80038f88:	ff000224 	li	v0,255
80038f8c:	e9e50008 	j	0x800397a4
80038f90:	0000c2a2 	sb	v0,0(s6)
80038f94:	63d8000c 	jal	0x8003618c
80038f98:	21200002 	move	a0,s0
80038f9c:	ff000224 	li	v0,255
80038fa0:	0000c2a2 	sb	v0,0(s6)
80038fa4:	1000c386 	lh	v1,16(s6)
80038fa8:	c3ee0008 	j	0x8003bb0c
80038fac:	20006228 	slti	v0,v1,32
80038fb0:	1c00c28e 	lw	v0,28(s6)
80038fb4:	00000000 	nop
80038fb8:	00004390 	lbu	v1,0(v0)
80038fbc:	ff000224 	li	v0,255
80038fc0:	22006210 	beq	v1,v0,0x8003904c
80038fc4:	0980023c 	lui	v0,0x8009
80038fc8:	28804624 	addiu	a2,v0,-32728
80038fcc:	0300c388 	lwl	v1,3(a2)
80038fd0:	0000c398 	lwr	v1,0(a2)
80038fd4:	00000000 	nop
80038fd8:	a300a3ab 	swl	v1,163(sp)
80038fdc:	a000a3bb 	swr	v1,160(sp)
80038fe0:	5000c292 	lbu	v0,80(s6)
80038fe4:	00000000 	nop
80038fe8:	01004224 	addiu	v0,v0,1
80038fec:	5000c2a2 	sb	v0,80(s6)
80038ff0:	00160200 	sll	v0,v0,0x18
80038ff4:	03160200 	sra	v0,v0,0x18
80038ff8:	04004228 	slti	v0,v0,4
80038ffc:	02004014 	bnez	v0,0x80039008
80039000:	a000a327 	addiu	v1,sp,160
80039004:	5000c0a2 	sb	zero,80(s6)
80039008:	5000c282 	lb	v0,80(s6)
8003900c:	00000000 	nop
80039010:	21106200 	addu	v0,v1,v0
80039014:	00004290 	lbu	v0,0(v0)
80039018:	1c00c38e 	lw	v1,28(s6)
8003901c:	80004234 	ori	v0,v0,0x80
80039020:	0200c2a2 	sb	v0,2(s6)
80039024:	2000628c 	lw	v0,32(v1)
80039028:	2400648c 	lw	a0,36(v1)
8003902c:	2800658c 	lw	a1,40(v1)
80039030:	2c00668c 	lw	a2,44(v1)
80039034:	2000c2ae 	sw	v0,32(s6)
80039038:	2400c4ae 	sw	a0,36(s6)
8003903c:	2800c5ae 	sw	a1,40(s6)
80039040:	2c00c6ae 	sw	a2,44(s6)
80039044:	14e60008 	j	0x80039850
80039048:	00000000 	nop
8003904c:	0000c3a2 	sb	v1,0(s6)
80039050:	1000c386 	lh	v1,16(s6)
80039054:	00000000 	nop
80039058:	10006228 	slti	v0,v1,16
8003905c:	df084010 	beqz	v0,0x8003b3dc
80039060:	00120300 	sll	v0,v1,0x8
80039064:	f7ee0008 	j	0x8003bbdc
80039068:	1200c2a6 	sh	v0,18(s6)
8003906c:	0c00c496 	lhu	a0,12(s6)
80039070:	1800c58e 	lw	a1,24(s6)
80039074:	c0e0000c 	jal	0x80038300
80039078:	21300000 	move	a2,zero
8003907c:	21804000 	move	s0,v0
80039080:	1b000012 	beqz	s0,0x800390f0
80039084:	10000232 	andi	v0,s0,0x10
80039088:	15004010 	beqz	v0,0x800390e0
8003908c:	1b80023c 	lui	v0,0x801b
80039090:	a459438c 	lw	v1,22948(v0)
80039094:	00000000 	nop
80039098:	40100300 	sll	v0,v1,0x1
8003909c:	21104300 	addu	v0,v0,v1
800390a0:	80100200 	sll	v0,v0,0x2
800390a4:	21104300 	addu	v0,v0,v1
800390a8:	80100200 	sll	v0,v0,0x2
800390ac:	21104300 	addu	v0,v0,v1
800390b0:	80100200 	sll	v0,v0,0x2
800390b4:	1c80033c 	lui	v1,0x801c
800390b8:	38a16324 	addiu	v1,v1,-24264
800390bc:	21184300 	addu	v1,v0,v1
800390c0:	2c006294 	lhu	v0,44(v1)
800390c4:	00000000 	nop
800390c8:	71004010 	beqz	v0,0x80039290
800390cc:	01000224 	li	v0,1
800390d0:	1f006390 	lbu	v1,31(v1)
800390d4:	00000000 	nop
800390d8:	6e006210 	beq	v1,v0,0x80039294
800390dc:	ff000224 	li	v0,255
800390e0:	63d8000c 	jal	0x8003618c
800390e4:	21200002 	move	a0,s0
800390e8:	a5e60008 	j	0x80039a94
800390ec:	ff000224 	li	v0,255
800390f0:	3000c726 	addiu	a3,s6,48
800390f4:	4000c486 	lh	a0,64(s6)
800390f8:	5000c292 	lbu	v0,80(s6)
800390fc:	4400c686 	lh	a2,68(s6)
80039100:	4200c396 	lhu	v1,66(s6)
80039104:	00160200 	sll	v0,v0,0x18
80039108:	03160200 	sra	v0,v0,0x18
8003910c:	21186200 	addu	v1,v1,v0
80039110:	002c0300 	sll	a1,v1,0x10
80039114:	032c0500 	sra	a1,a1,0x10
80039118:	0329010c 	jal	0x8004a40c
8003911c:	4200c3a6 	sh	v1,66(s6)
80039120:	f7ee0008 	j	0x8003bbdc
80039124:	00000000 	nop
80039128:	3800c296 	lhu	v0,56(s6)
8003912c:	00000000 	nop
80039130:	60004224 	addiu	v0,v0,96
80039134:	3800c2a6 	sh	v0,56(s6)
80039138:	3a00c296 	lhu	v0,58(s6)
8003913c:	3800c386 	lh	v1,56(s6)
80039140:	60004224 	addiu	v0,v0,96
80039144:	3a00c2a6 	sh	v0,58(s6)
80039148:	c0100300 	sll	v0,v1,0x3
8003914c:	23104300 	subu	v0,v0,v1
80039150:	c0110200 	sll	v0,v0,0x7
80039154:	02004104 	bgez	v0,0x80039160
80039158:	00000000 	nop
8003915c:	ff0f4224 	addiu	v0,v0,4095
80039160:	3800c386 	lh	v1,56(s6)
80039164:	8fe60008 	j	0x80039a3c
80039168:	03130200 	sra	v0,v0,0xc
8003916c:	5555023c 	lui	v0,0x5555
80039170:	1000c396 	lhu	v1,16(s6)
80039174:	56554234 	ori	v0,v0,0x5556
80039178:	001c0300 	sll	v1,v1,0x10
8003917c:	03240300 	sra	a0,v1,0x10
80039180:	18008200 	mult	a0,v0
80039184:	3800c296 	lhu	v0,56(s6)
80039188:	c31f0300 	sra	v1,v1,0x1f
8003918c:	60004224 	addiu	v0,v0,96
80039190:	3800c2a6 	sh	v0,56(s6)
80039194:	3a00c296 	lhu	v0,58(s6)
80039198:	3800c586 	lh	a1,56(s6)
8003919c:	60004224 	addiu	v0,v0,96
800391a0:	3a00c2a6 	sh	v0,58(s6)
800391a4:	c0100500 	sll	v0,a1,0x3
800391a8:	23104500 	subu	v0,v0,a1
800391ac:	c0290200 	sll	a1,v0,0x7
800391b0:	10480000 	mfhi	t1
800391b4:	23182301 	subu	v1,t1,v1
800391b8:	40100300 	sll	v0,v1,0x1
800391bc:	21104300 	addu	v0,v0,v1
800391c0:	23208200 	subu	a0,a0,v0
800391c4:	8ae60008 	j	0x80039a28
800391c8:	80008434 	ori	a0,a0,0x80
800391cc:	5555023c 	lui	v0,0x5555
800391d0:	1000c396 	lhu	v1,16(s6)
800391d4:	56554234 	ori	v0,v0,0x5556
800391d8:	001c0300 	sll	v1,v1,0x10
800391dc:	03240300 	sra	a0,v1,0x10
800391e0:	18008200 	mult	a0,v0
800391e4:	3800c296 	lhu	v0,56(s6)
800391e8:	c31f0300 	sra	v1,v1,0x1f
800391ec:	60004224 	addiu	v0,v0,96
800391f0:	3800c2a6 	sh	v0,56(s6)
800391f4:	3a00c296 	lhu	v0,58(s6)
800391f8:	3800c586 	lh	a1,56(s6)
800391fc:	60004224 	addiu	v0,v0,96
80039200:	3a00c2a6 	sh	v0,58(s6)
80039204:	c0100500 	sll	v0,a1,0x3
80039208:	23104500 	subu	v0,v0,a1
8003920c:	c0290200 	sll	a1,v0,0x7
80039210:	10480000 	mfhi	t1
80039214:	23182301 	subu	v1,t1,v1
80039218:	40100300 	sll	v0,v1,0x1
8003921c:	21104300 	addu	v0,v0,v1
80039220:	23208200 	subu	a0,a0,v0
80039224:	84008434 	ori	a0,a0,0x84
80039228:	0200a104 	bgez	a1,0x80039234
8003922c:	0200c4a2 	sb	a0,2(s6)
80039230:	ff0fa524 	addiu	a1,a1,4095
80039234:	3800c386 	lh	v1,56(s6)
80039238:	03130500 	sra	v0,a1,0xc
8003923c:	0c00c2a6 	sh	v0,12(s6)
80039240:	c0100300 	sll	v0,v1,0x3
80039244:	23104300 	subu	v0,v0,v1
80039248:	c0110200 	sll	v0,v0,0x7
8003924c:	03004104 	bgez	v0,0x8003925c
80039250:	032b0200 	sra	a1,v0,0xc
80039254:	ff0f4224 	addiu	v0,v0,4095
80039258:	032b0200 	sra	a1,v0,0xc
8003925c:	0080023c 	lui	v0,0x8000
80039260:	2528a200 	or	a1,a1,v0
80039264:	0c00c496 	lhu	a0,12(s6)
80039268:	20000624 	li	a2,32
8003926c:	c0e0000c 	jal	0x80038300
80039270:	1800c5ae 	sw	a1,24(s6)
80039274:	21804000 	move	s0,v0
80039278:	58080012 	beqz	s0,0x8003b3dc
8003927c:	80000232 	andi	v0,s0,0x80
80039280:	52084014 	bnez	v0,0x8003b3cc
80039284:	0f000232 	andi	v0,s0,0xf
80039288:	54084010 	beqz	v0,0x8003b3dc
8003928c:	00000000 	nop
80039290:	ff000224 	li	v0,255
80039294:	f7ee0008 	j	0x8003bbdc
80039298:	0000c2a2 	sb	v0,0(s6)
8003929c:	3800c296 	lhu	v0,56(s6)
800392a0:	00000000 	nop
800392a4:	60004224 	addiu	v0,v0,96
800392a8:	3800c2a6 	sh	v0,56(s6)
800392ac:	3a00c296 	lhu	v0,58(s6)
800392b0:	3800c386 	lh	v1,56(s6)
800392b4:	60004224 	addiu	v0,v0,96
800392b8:	3a00c2a6 	sh	v0,58(s6)
800392bc:	c0100300 	sll	v0,v1,0x3
800392c0:	23104300 	subu	v0,v0,v1
800392c4:	c0110200 	sll	v0,v0,0x7
800392c8:	02004104 	bgez	v0,0x800392d4
800392cc:	00000000 	nop
800392d0:	ff0f4224 	addiu	v0,v0,4095
800392d4:	3800c386 	lh	v1,56(s6)
800392d8:	03130200 	sra	v0,v0,0xc
800392dc:	0c00c2a6 	sh	v0,12(s6)
800392e0:	c0100300 	sll	v0,v1,0x3
800392e4:	23104300 	subu	v0,v0,v1
800392e8:	c0110200 	sll	v0,v0,0x7
800392ec:	03004104 	bgez	v0,0x800392fc
800392f0:	032b0200 	sra	a1,v0,0xc
800392f4:	ff0f4224 	addiu	v0,v0,4095
800392f8:	032b0200 	sra	a1,v0,0xc
800392fc:	0080023c 	lui	v0,0x8000
80039300:	0c00c496 	lhu	a0,12(s6)
80039304:	5000c682 	lb	a2,80(s6)
80039308:	2528a200 	or	a1,a1,v0
8003930c:	6ae0000c 	jal	0x800381a8
80039310:	1800c5ae 	sw	a1,24(s6)
80039314:	21804000 	move	s0,v0
80039318:	04070012 	beqz	s0,0x8003af2c
8003931c:	80000232 	andi	v0,s0,0x80
80039320:	02074010 	beqz	v0,0x8003af2c
80039324:	00000000 	nop
80039328:	63d8000c 	jal	0x8003618c
8003932c:	21200002 	move	a0,s0
80039330:	03000224 	li	v0,3
80039334:	cbed0008 	j	0x8003b72c
80039338:	0800c2a2 	sb	v0,8(s6)
8003933c:	3400c296 	lhu	v0,52(s6)
80039340:	1000c386 	lh	v1,16(s6)
80039344:	e0ff4224 	addiu	v0,v0,-32
80039348:	ff0f4230 	andi	v0,v0,0xfff
8003934c:	3400c2a6 	sh	v0,52(s6)
80039350:	08000224 	li	v0,8
80039354:	67006214 	bne	v1,v0,0x800394f4
80039358:	c8000224 	li	v0,200
8003935c:	17002216 	bne	s1,v0,0x800393bc
80039360:	ee000224 	li	v0,238
80039364:	0a000424 	li	a0,10
80039368:	35000624 	li	a2,53
8003936c:	2000d226 	addiu	s2,s6,32
80039370:	0000c592 	lbu	a1,0(s6)
80039374:	4000d026 	addiu	s0,s6,64
80039378:	1000b0af 	sw	s0,16(sp)
8003937c:	3800c286 	lh	v0,56(s6)
80039380:	3000d126 	addiu	s1,s6,48
80039384:	1800b1af 	sw	s1,24(sp)
80039388:	1400a2af 	sw	v0,20(sp)
8003938c:	0a00c286 	lh	v0,10(s6)
80039390:	21384002 	move	a3,s2
80039394:	2000b6af 	sw	s6,32(sp)
80039398:	f0ff4224 	addiu	v0,v0,-16
8003939c:	21d9000c 	jal	0x80036484
800393a0:	1c00a2af 	sw	v0,28(sp)
800393a4:	0000c592 	lbu	a1,0(s6)
800393a8:	0a000424 	li	a0,10
800393ac:	1000b0af 	sw	s0,16(sp)
800393b0:	3800c286 	lh	v0,56(s6)
800393b4:	35e70008 	j	0x80039cd4
800393b8:	c9000624 	li	a2,201
800393bc:	17002216 	bne	s1,v0,0x8003941c
800393c0:	e4000224 	li	v0,228
800393c4:	0a000424 	li	a0,10
800393c8:	8d000624 	li	a2,141
800393cc:	2000d226 	addiu	s2,s6,32
800393d0:	0000c592 	lbu	a1,0(s6)
800393d4:	4000d026 	addiu	s0,s6,64
800393d8:	1000b0af 	sw	s0,16(sp)
800393dc:	3800c286 	lh	v0,56(s6)
800393e0:	3000d126 	addiu	s1,s6,48
800393e4:	1800b1af 	sw	s1,24(sp)
800393e8:	1400a2af 	sw	v0,20(sp)
800393ec:	0a00c286 	lh	v0,10(s6)
800393f0:	21384002 	move	a3,s2
800393f4:	2000b6af 	sw	s6,32(sp)
800393f8:	f0ff4224 	addiu	v0,v0,-16
800393fc:	21d9000c 	jal	0x80036484
80039400:	1c00a2af 	sw	v0,28(sp)
80039404:	0000c592 	lbu	a1,0(s6)
80039408:	0a000424 	li	a0,10
8003940c:	1000b0af 	sw	s0,16(sp)
80039410:	3800c286 	lh	v0,56(s6)
80039414:	35e70008 	j	0x80039cd4
80039418:	ef000624 	li	a2,239
8003941c:	17002216 	bne	s1,v0,0x8003947c
80039420:	d3000224 	li	v0,211
80039424:	0a000424 	li	a0,10
80039428:	82000624 	li	a2,130
8003942c:	2000d226 	addiu	s2,s6,32
80039430:	0000c592 	lbu	a1,0(s6)
80039434:	4000d026 	addiu	s0,s6,64
80039438:	1000b0af 	sw	s0,16(sp)
8003943c:	3800c286 	lh	v0,56(s6)
80039440:	3000d126 	addiu	s1,s6,48
80039444:	1800b1af 	sw	s1,24(sp)
80039448:	1400a2af 	sw	v0,20(sp)
8003944c:	0a00c286 	lh	v0,10(s6)
80039450:	21384002 	move	a3,s2
80039454:	2000b6af 	sw	s6,32(sp)
80039458:	f0ff4224 	addiu	v0,v0,-16
8003945c:	21d9000c 	jal	0x80036484
80039460:	1c00a2af 	sw	v0,28(sp)
80039464:	0000c592 	lbu	a1,0(s6)
80039468:	0a000424 	li	a0,10
8003946c:	1000b0af 	sw	s0,16(sp)
80039470:	3800c286 	lh	v0,56(s6)
80039474:	35e70008 	j	0x80039cd4
80039478:	e5000624 	li	a2,229
8003947c:	1d002216 	bne	s1,v0,0x800394f4
80039480:	0a000424 	li	a0,10
80039484:	53000624 	li	a2,83
80039488:	2000d226 	addiu	s2,s6,32
8003948c:	0000c592 	lbu	a1,0(s6)
80039490:	4000d026 	addiu	s0,s6,64
80039494:	1000b0af 	sw	s0,16(sp)
80039498:	3800c286 	lh	v0,56(s6)
8003949c:	3000d126 	addiu	s1,s6,48
800394a0:	1800b1af 	sw	s1,24(sp)
800394a4:	1400a2af 	sw	v0,20(sp)
800394a8:	0a00c286 	lh	v0,10(s6)
800394ac:	21384002 	move	a3,s2
800394b0:	2000b6af 	sw	s6,32(sp)
800394b4:	f0ff4224 	addiu	v0,v0,-16
800394b8:	21d9000c 	jal	0x80036484
800394bc:	1c00a2af 	sw	v0,28(sp)
800394c0:	0000c592 	lbu	a1,0(s6)
800394c4:	0a000424 	li	a0,10
800394c8:	1000b0af 	sw	s0,16(sp)
800394cc:	3800c286 	lh	v0,56(s6)
800394d0:	d4000624 	li	a2,212
800394d4:	1800b1af 	sw	s1,24(sp)
800394d8:	1400a2af 	sw	v0,20(sp)
800394dc:	0a00c286 	lh	v0,10(s6)
800394e0:	21384002 	move	a3,s2
800394e4:	2000b6af 	sw	s6,32(sp)
800394e8:	f0ff4224 	addiu	v0,v0,-16
800394ec:	21d9000c 	jal	0x80036484
800394f0:	1c00a2af 	sw	v0,28(sp)
800394f4:	1000c286 	lh	v0,16(s6)
800394f8:	00000000 	nop
800394fc:	10004228 	slti	v0,v0,16
80039500:	0a004010 	beqz	v0,0x8003952c
80039504:	00000000 	nop
80039508:	3800c296 	lhu	v0,56(s6)
8003950c:	3c00c396 	lhu	v1,60(s6)
80039510:	c0ff4224 	addiu	v0,v0,-64
80039514:	3800c2a6 	sh	v0,56(s6)
80039518:	3a00c296 	lhu	v0,58(s6)
8003951c:	c0ff6324 	addiu	v1,v1,-64
80039520:	3c00c3a6 	sh	v1,60(s6)
80039524:	53e70008 	j	0x80039d4c
80039528:	c0ff4224 	addiu	v0,v0,-64
8003952c:	3800c296 	lhu	v0,56(s6)
80039530:	3c00c396 	lhu	v1,60(s6)
80039534:	40004224 	addiu	v0,v0,64
80039538:	3800c2a6 	sh	v0,56(s6)
8003953c:	3a00c296 	lhu	v0,58(s6)
80039540:	40006324 	addiu	v1,v1,64
80039544:	3c00c3a6 	sh	v1,60(s6)
80039548:	40004224 	addiu	v0,v0,64
8003954c:	3a00c2a6 	sh	v0,58(s6)
80039550:	1000c386 	lh	v1,16(s6)
80039554:	c3ee0008 	j	0x8003bb0c
80039558:	20006228 	slti	v0,v1,32
8003955c:	0c00c496 	lhu	a0,12(s6)
80039560:	1800c58e 	lw	a1,24(s6)
80039564:	c0e0000c 	jal	0x80038300
80039568:	80000624 	li	a2,128
8003956c:	02004010 	beqz	v0,0x80039578
80039570:	ff000224 	li	v0,255
80039574:	0000c2a2 	sb	v0,0(s6)
80039578:	1000c386 	lh	v1,16(s6)
8003957c:	c3ee0008 	j	0x8003bb0c
80039580:	20006228 	slti	v0,v1,32
80039584:	20000624 	li	a2,32
80039588:	0c00c496 	lhu	a0,12(s6)
8003958c:	3c00c296 	lhu	v0,60(s6)
80039590:	1800c58e 	lw	a1,24(s6)
80039594:	e0004224 	addiu	v0,v0,224
80039598:	c0e0000c 	jal	0x80038300
8003959c:	3c00c2a6 	sh	v0,60(s6)
800395a0:	21804000 	move	s0,v0
800395a4:	07000012 	beqz	s0,0x800395c4
800395a8:	80000232 	andi	v0,s0,0x80
800395ac:	04004010 	beqz	v0,0x800395c0
800395b0:	ff000224 	li	v0,255
800395b4:	63d8000c 	jal	0x8003618c
800395b8:	21200002 	move	a0,s0
800395bc:	ff000224 	li	v0,255
800395c0:	0000c2a2 	sb	v0,0(s6)
800395c4:	1000c386 	lh	v1,16(s6)
800395c8:	c3ee0008 	j	0x8003bb0c
800395cc:	20006228 	slti	v0,v1,32
800395d0:	0c00c496 	lhu	a0,12(s6)
800395d4:	1800c58e 	lw	a1,24(s6)
800395d8:	c0e0000c 	jal	0x80038300
800395dc:	80000624 	li	a2,128
800395e0:	21804000 	move	s0,v0
800395e4:	07000012 	beqz	s0,0x80039604
800395e8:	80000232 	andi	v0,s0,0x80
800395ec:	04004010 	beqz	v0,0x80039600
800395f0:	ff000224 	li	v0,255
800395f4:	63d8000c 	jal	0x8003618c
800395f8:	21200002 	move	a0,s0
800395fc:	ff000224 	li	v0,255
80039600:	0000c2a2 	sb	v0,0(s6)
80039604:	1000c286 	lh	v0,16(s6)
80039608:	00000000 	nop
8003960c:	20004228 	slti	v0,v0,32
80039610:	4c064010 	beqz	v0,0x8003af44
80039614:	0d000324 	li	v1,13
80039618:	1000c286 	lh	v0,16(s6)
8003961c:	0700c3a2 	sb	v1,7(s6)
80039620:	d0ed0008 	j	0x8003b740
80039624:	c0110200 	sll	v0,v0,0x7
80039628:	0c00c496 	lhu	a0,12(s6)
8003962c:	1800c58e 	lw	a1,24(s6)
80039630:	c0e0000c 	jal	0x80038300
80039634:	80000624 	li	a2,128
80039638:	21804000 	move	s0,v0
8003963c:	61000012 	beqz	s0,0x800397c4
80039640:	80000232 	andi	v0,s0,0x80
80039644:	04004010 	beqz	v0,0x80039658
80039648:	21980000 	move	s3,zero
8003964c:	63d8000c 	jal	0x8003618c
80039650:	21200002 	move	a0,s0
80039654:	21980000 	move	s3,zero
80039658:	8481143c 	lui	s4,0x8184
8003965c:	a98d9436 	ori	s4,s4,0x8da9
80039660:	08001524 	li	s5,8
80039664:	a800b027 	addiu	s0,sp,168
80039668:	00061224 	li	s2,1536
8003966c:	b1e2010c 	jal	0x80078ac4
80039670:	00000000 	nop
80039674:	18005400 	mult	v0,s4
80039678:	10480000 	mfhi	t1
8003967c:	21182201 	addu	v1,t1,v0
80039680:	831a0300 	sra	v1,v1,0xa
80039684:	c3170200 	sra	v0,v0,0x1f
80039688:	23186200 	subu	v1,v1,v0
8003968c:	2318a302 	subu	v1,s5,v1
80039690:	b1e2010c 	jal	0x80078ac4
80039694:	a800a3a7 	sh	v1,168(sp)
80039698:	03004104 	bgez	v0,0x800396a8
8003969c:	831a0200 	sra	v1,v0,0xa
800396a0:	ff034224 	addiu	v0,v0,1023
800396a4:	831a0200 	sra	v1,v0,0xa
800396a8:	d0ff0224 	li	v0,-48
800396ac:	23104300 	subu	v0,v0,v1
800396b0:	b1e2010c 	jal	0x80078ac4
800396b4:	aa00a2a7 	sh	v0,170(sp)
800396b8:	18005400 	mult	v0,s4
800396bc:	a800a487 	lh	a0,168(sp)
800396c0:	10480000 	mfhi	t1
800396c4:	21182201 	addu	v1,t1,v0
800396c8:	831a0300 	sra	v1,v1,0xa
800396cc:	c3170200 	sra	v0,v0,0x1f
800396d0:	23186200 	subu	v1,v1,v0
800396d4:	2318a302 	subu	v1,s5,v1
800396d8:	ac00a3a7 	sh	v1,172(sp)
800396dc:	2000c28e 	lw	v0,32(s6)
800396e0:	00000000 	nop
800396e4:	23104400 	subu	v0,v0,a0
800396e8:	b000a2af 	sw	v0,176(sp)
800396ec:	2400c28e 	lw	v0,36(s6)
800396f0:	001c0300 	sll	v1,v1,0x10
800396f4:	b400a2af 	sw	v0,180(sp)
800396f8:	2800c28e 	lw	v0,40(s6)
800396fc:	031c0300 	sra	v1,v1,0x10
80039700:	23104300 	subu	v0,v0,v1
80039704:	b800a2af 	sw	v0,184(sp)
80039708:	3e000224 	li	v0,62
8003970c:	05002216 	bne	s1,v0,0x80039724
80039710:	6c000224 	li	v0,108
80039714:	0a000424 	li	a0,10
80039718:	0000c592 	lbu	a1,0(s6)
8003971c:	e5e70008 	j	0x80039f94
80039720:	3f000624 	li	a2,63
80039724:	05002216 	bne	s1,v0,0x8003973c
80039728:	48000224 	li	v0,72
8003972c:	0a000424 	li	a0,10
80039730:	0000c592 	lbu	a1,0(s6)
80039734:	e5e70008 	j	0x80039f94
80039738:	6d000624 	li	a2,109
8003973c:	05002216 	bne	s1,v0,0x80039754
80039740:	93000224 	li	v0,147
80039744:	0a000424 	li	a0,10
80039748:	0000c592 	lbu	a1,0(s6)
8003974c:	e5e70008 	j	0x80039f94
80039750:	49000624 	li	a2,73
80039754:	05002216 	bne	s1,v0,0x8003976c
80039758:	71000224 	li	v0,113
8003975c:	0a000424 	li	a0,10
80039760:	0000c592 	lbu	a1,0(s6)
80039764:	e5e70008 	j	0x80039f94
80039768:	94000624 	li	a2,148
8003976c:	05002216 	bne	s1,v0,0x80039784
80039770:	7a000224 	li	v0,122
80039774:	0a000424 	li	a0,10
80039778:	0000c592 	lbu	a1,0(s6)
8003977c:	e5e70008 	j	0x80039f94
80039780:	72000624 	li	a2,114
80039784:	0a002216 	bne	s1,v0,0x800397b0
80039788:	0a000424 	li	a0,10
8003978c:	0000c592 	lbu	a1,0(s6)
80039790:	7b000624 	li	a2,123
80039794:	1000b0af 	sw	s0,16(sp)
80039798:	1400b2af 	sw	s2,20(sp)
8003979c:	0a00c286 	lh	v0,10(s6)
800397a0:	b000a727 	addiu	a3,sp,176
800397a4:	f0ff4224 	addiu	v0,v0,-16
800397a8:	21d9000c 	jal	0x80036484
800397ac:	1800a2af 	sw	v0,24(sp)
800397b0:	01007326 	addiu	s3,s3,1
800397b4:	0400622a 	slti	v0,s3,4
800397b8:	acff4014 	bnez	v0,0x8003966c
800397bc:	ff000224 	li	v0,255
800397c0:	0000c2a2 	sb	v0,0(s6)
800397c4:	1000c286 	lh	v0,16(s6)
800397c8:	00000000 	nop
800397cc:	20004228 	slti	v0,v0,32
800397d0:	05004010 	beqz	v0,0x800397e8
800397d4:	0d000324 	li	v1,13
800397d8:	1000c286 	lh	v0,16(s6)
800397dc:	0700c3a2 	sb	v1,7(s6)
800397e0:	c0110200 	sll	v0,v0,0x7
800397e4:	1200c2a6 	sh	v0,18(s6)
800397e8:	4200c296 	lhu	v0,66(s6)
800397ec:	00000000 	nop
800397f0:	04004224 	addiu	v0,v0,4
800397f4:	f7ee0008 	j	0x8003bbdc
800397f8:	4200c2a6 	sh	v0,66(s6)
800397fc:	0c00c496 	lhu	a0,12(s6)
80039800:	1800c58e 	lw	a1,24(s6)
80039804:	c0e0000c 	jal	0x80038300
80039808:	21300000 	move	a2,zero
8003980c:	21804000 	move	s0,v0
80039810:	40000012 	beqz	s0,0x80039914
80039814:	80000232 	andi	v0,s0,0x80
80039818:	03004010 	beqz	v0,0x80039828
8003981c:	00000000 	nop
80039820:	63d8000c 	jal	0x8003618c
80039824:	21200002 	move	a0,s0
80039828:	21800000 	move	s0,zero
8003982c:	8481113c 	lui	s1,0x8184
80039830:	a98d3136 	ori	s1,s1,0x8da9
80039834:	08001224 	li	s2,8
80039838:	b1e2010c 	jal	0x80078ac4
8003983c:	00000000 	nop
80039840:	18005100 	mult	v0,s1
80039844:	10480000 	mfhi	t1
80039848:	21182201 	addu	v1,t1,v0
8003984c:	831a0300 	sra	v1,v1,0xa
80039850:	c3170200 	sra	v0,v0,0x1f
80039854:	23186200 	subu	v1,v1,v0
80039858:	23184302 	subu	v1,s2,v1
8003985c:	b1e2010c 	jal	0x80078ac4
80039860:	c000a3a7 	sh	v1,192(sp)
80039864:	03004104 	bgez	v0,0x80039874
80039868:	831a0200 	sra	v1,v0,0xa
8003986c:	ff034224 	addiu	v0,v0,1023
80039870:	831a0200 	sra	v1,v0,0xa
80039874:	d0ff0224 	li	v0,-48
80039878:	23104300 	subu	v0,v0,v1
8003987c:	b1e2010c 	jal	0x80078ac4
80039880:	c200a2a7 	sh	v0,194(sp)
80039884:	18005100 	mult	v0,s1
80039888:	0a000424 	li	a0,10
8003988c:	42000624 	li	a2,66
80039890:	c000a587 	lh	a1,192(sp)
80039894:	10480000 	mfhi	t1
80039898:	21182201 	addu	v1,t1,v0
8003989c:	831a0300 	sra	v1,v1,0xa
800398a0:	c3170200 	sra	v0,v0,0x1f
800398a4:	23186200 	subu	v1,v1,v0
800398a8:	23184302 	subu	v1,s2,v1
800398ac:	c400a3a7 	sh	v1,196(sp)
800398b0:	2000c28e 	lw	v0,32(s6)
800398b4:	c800a727 	addiu	a3,sp,200
800398b8:	23104500 	subu	v0,v0,a1
800398bc:	c800a2af 	sw	v0,200(sp)
800398c0:	2400c28e 	lw	v0,36(s6)
800398c4:	001c0300 	sll	v1,v1,0x10
800398c8:	cc00a2af 	sw	v0,204(sp)
800398cc:	2800c28e 	lw	v0,40(s6)
800398d0:	031c0300 	sra	v1,v1,0x10
800398d4:	23104300 	subu	v0,v0,v1
800398d8:	d000a2af 	sw	v0,208(sp)
800398dc:	0000c592 	lbu	a1,0(s6)
800398e0:	c000a227 	addiu	v0,sp,192
800398e4:	1000a2af 	sw	v0,16(sp)
800398e8:	00060224 	li	v0,1536
800398ec:	1400a2af 	sw	v0,20(sp)
800398f0:	0a00c286 	lh	v0,10(s6)
800398f4:	01001026 	addiu	s0,s0,1
800398f8:	f0ff4224 	addiu	v0,v0,-16
800398fc:	21d9000c 	jal	0x80036484
80039900:	1800a2af 	sw	v0,24(sp)
80039904:	0200022a 	slti	v0,s0,2
80039908:	cbff4014 	bnez	v0,0x80039838
8003990c:	ff000224 	li	v0,255
80039910:	0000c2a2 	sb	v0,0(s6)
80039914:	6666033c 	lui	v1,0x6666
80039918:	1000c296 	lhu	v0,16(s6)
8003991c:	67666334 	ori	v1,v1,0x6667
80039920:	00140200 	sll	v0,v0,0x10
80039924:	03240200 	sra	a0,v0,0x10
80039928:	18008300 	mult	a0,v1
8003992c:	c3170200 	sra	v0,v0,0x1f
80039930:	10480000 	mfhi	t1
80039934:	43180900 	sra	v1,t1,0x1
80039938:	23186200 	subu	v1,v1,v0
8003993c:	80100300 	sll	v0,v1,0x2
80039940:	21104300 	addu	v0,v0,v1
80039944:	23208200 	subu	a0,a0,v0
80039948:	00240400 	sll	a0,a0,0x10
8003994c:	3a008014 	bnez	a0,0x80039a38
80039950:	00000000 	nop
80039954:	21800000 	move	s0,zero
80039958:	8481113c 	lui	s1,0x8184
8003995c:	a98d3136 	ori	s1,s1,0x8da9
80039960:	08001224 	li	s2,8
80039964:	b1e2010c 	jal	0x80078ac4
80039968:	00000000 	nop
8003996c:	18005100 	mult	v0,s1
80039970:	10480000 	mfhi	t1
80039974:	21182201 	addu	v1,t1,v0
80039978:	831a0300 	sra	v1,v1,0xa
8003997c:	c3170200 	sra	v0,v0,0x1f
80039980:	23186200 	subu	v1,v1,v0
80039984:	23184302 	subu	v1,s2,v1
80039988:	b1e2010c 	jal	0x80078ac4
8003998c:	d800a3a7 	sh	v1,216(sp)
80039990:	03004104 	bgez	v0,0x800399a0
80039994:	831a0200 	sra	v1,v0,0xa
80039998:	ff034224 	addiu	v0,v0,1023
8003999c:	831a0200 	sra	v1,v0,0xa
800399a0:	d0ff0224 	li	v0,-48
800399a4:	23104300 	subu	v0,v0,v1
800399a8:	b1e2010c 	jal	0x80078ac4
800399ac:	da00a2a7 	sh	v0,218(sp)
800399b0:	18005100 	mult	v0,s1
800399b4:	0a000424 	li	a0,10
800399b8:	42000624 	li	a2,66
800399bc:	d800a587 	lh	a1,216(sp)
800399c0:	10480000 	mfhi	t1
800399c4:	21182201 	addu	v1,t1,v0
800399c8:	831a0300 	sra	v1,v1,0xa
800399cc:	c3170200 	sra	v0,v0,0x1f
800399d0:	23186200 	subu	v1,v1,v0
800399d4:	23184302 	subu	v1,s2,v1
800399d8:	dc00a3a7 	sh	v1,220(sp)
800399dc:	2000c28e 	lw	v0,32(s6)
800399e0:	e800a727 	addiu	a3,sp,232
800399e4:	23104500 	subu	v0,v0,a1
800399e8:	e800a2af 	sw	v0,232(sp)
800399ec:	2400c28e 	lw	v0,36(s6)
800399f0:	001c0300 	sll	v1,v1,0x10
800399f4:	ec00a2af 	sw	v0,236(sp)
800399f8:	2800c28e 	lw	v0,40(s6)
800399fc:	031c0300 	sra	v1,v1,0x10
80039a00:	23104300 	subu	v0,v0,v1
80039a04:	f000a2af 	sw	v0,240(sp)
80039a08:	0000c592 	lbu	a1,0(s6)
80039a0c:	d800a227 	addiu	v0,sp,216
80039a10:	1000a2af 	sw	v0,16(sp)
80039a14:	00060224 	li	v0,1536
80039a18:	1400a2af 	sw	v0,20(sp)
80039a1c:	0a00c286 	lh	v0,10(s6)
80039a20:	01001026 	addiu	s0,s0,1
80039a24:	f0ff4224 	addiu	v0,v0,-16
80039a28:	21d9000c 	jal	0x80036484
80039a2c:	1800a2af 	sw	v0,24(sp)
80039a30:	ccff001a 	blez	s0,0x80039964
80039a34:	00000000 	nop
80039a38:	1000c286 	lh	v0,16(s6)
80039a3c:	00000000 	nop
80039a40:	20004228 	slti	v0,v0,32
80039a44:	05004010 	beqz	v0,0x80039a5c
80039a48:	0d000324 	li	v1,13
80039a4c:	1000c286 	lh	v0,16(s6)
80039a50:	0700c3a2 	sb	v1,7(s6)
80039a54:	c0110200 	sll	v0,v0,0x7
80039a58:	1200c2a6 	sh	v0,18(s6)
80039a5c:	4200c296 	lhu	v0,66(s6)
80039a60:	00000000 	nop
80039a64:	10004224 	addiu	v0,v0,16
80039a68:	f7ee0008 	j	0x8003bbdc
80039a6c:	4200c2a6 	sh	v0,66(s6)
80039a70:	3400c296 	lhu	v0,52(s6)
80039a74:	ffff0324 	li	v1,-1
80039a78:	80ff4224 	addiu	v0,v0,-128
80039a7c:	ff0f4230 	andi	v0,v0,0xfff
80039a80:	3400c2a6 	sh	v0,52(s6)
80039a84:	5000c286 	lh	v0,80(s6)
80039a88:	4c00d28e 	lw	s2,76(s6)
80039a8c:	4e004310 	beq	v0,v1,0x80039bc8
80039a90:	ca000224 	li	v0,202
80039a94:	10002212 	beq	s1,v0,0x80039ad8
80039a98:	00000000 	nop
80039a9c:	e1000224 	li	v0,225
80039aa0:	0d002212 	beq	s1,v0,0x80039ad8
80039aa4:	00000000 	nop
80039aa8:	d0000224 	li	v0,208
80039aac:	0a002212 	beq	s1,v0,0x80039ad8
80039ab0:	00000000 	nop
80039ab4:	e6000224 	li	v0,230
80039ab8:	07002212 	beq	s1,v0,0x80039ad8
80039abc:	00000000 	nop
80039ac0:	db000224 	li	v0,219
80039ac4:	04002212 	beq	s1,v0,0x80039ad8
80039ac8:	00000000 	nop
80039acc:	de000224 	li	v0,222
80039ad0:	0b002216 	bne	s1,v0,0x80039b00
80039ad4:	00000000 	nop
80039ad8:	0b004492 	lbu	a0,11(s2)
80039adc:	08004592 	lbu	a1,8(s2)
80039ae0:	2a004686 	lh	a2,42(s2)
80039ae4:	5000c786 	lh	a3,80(s6)
80039ae8:	e000a227 	addiu	v0,sp,224
80039aec:	1000a2af 	sw	v0,16(sp)
80039af0:	8ccf000c 	jal	0x80033e30
80039af4:	80008424 	addiu	a0,a0,128
80039af8:	d8e80008 	j	0x8003a360
80039afc:	1801a427 	addiu	a0,sp,280
80039b00:	cd000224 	li	v0,205
80039b04:	07002212 	beq	s1,v0,0x80039b24
80039b08:	00000000 	nop
80039b0c:	eb000224 	li	v0,235
80039b10:	04002212 	beq	s1,v0,0x80039b24
80039b14:	00000000 	nop
80039b18:	d8000224 	li	v0,216
80039b1c:	10002216 	bne	s1,v0,0x80039b60
80039b20:	1801a427 	addiu	a0,sp,280
80039b24:	0b004592 	lbu	a1,11(s2)
80039b28:	5200c686 	lh	a2,82(s6)
80039b2c:	5000c786 	lh	a3,80(s6)
80039b30:	2001a227 	addiu	v0,sp,288
80039b34:	1000a2af 	sw	v0,16(sp)
80039b38:	a400448e 	lw	a0,164(s2)
80039b3c:	e0d6000c 	jal	0x80035b80
80039b40:	8000a524 	addiu	a1,a1,128
80039b44:	2001a297 	lhu	v0,288(sp)
80039b48:	2401a397 	lhu	v1,292(sp)
80039b4c:	2801a497 	lhu	a0,296(sp)
80039b50:	e000a2a7 	sh	v0,224(sp)
80039b54:	e200a3a7 	sh	v1,226(sp)
80039b58:	e400a4a7 	sh	a0,228(sp)
80039b5c:	1801a427 	addiu	a0,sp,280
80039b60:	f800b027 	addiu	s0,sp,248
80039b64:	1801a0a7 	sh	zero,280(sp)
80039b68:	8e004296 	lhu	v0,142(s2)
80039b6c:	21280002 	move	a1,s0
80039b70:	1c01a0a7 	sh	zero,284(sp)
80039b74:	23100200 	negu	v0,v0
80039b78:	b1d3010c 	jal	0x80074ec4
80039b7c:	1a01a2a7 	sh	v0,282(sp)
80039b80:	21200002 	move	a0,s0
80039b84:	e000a527 	addiu	a1,sp,224
80039b88:	3dd3010c 	jal	0x80074cf4
80039b8c:	2130a000 	move	a2,a1
80039b90:	e000a387 	lh	v1,224(sp)
80039b94:	7400428e 	lw	v0,116(s2)
80039b98:	00000000 	nop
80039b9c:	21104300 	addu	v0,v0,v1
80039ba0:	2000c2ae 	sw	v0,32(s6)
80039ba4:	e200a387 	lh	v1,226(sp)
80039ba8:	7800428e 	lw	v0,120(s2)
80039bac:	00000000 	nop
80039bb0:	21104300 	addu	v0,v0,v1
80039bb4:	2400c2ae 	sw	v0,36(s6)
80039bb8:	e400a387 	lh	v1,228(sp)
80039bbc:	7c00428e 	lw	v0,124(s2)
80039bc0:	f9e80008 	j	0x8003a3e4
80039bc4:	21104300 	addu	v0,v0,v1
80039bc8:	7400428e 	lw	v0,116(s2)
80039bcc:	00000000 	nop
80039bd0:	2000c2ae 	sw	v0,32(s6)
80039bd4:	7800428e 	lw	v0,120(s2)
80039bd8:	00000000 	nop
80039bdc:	2400c2ae 	sw	v0,36(s6)
80039be0:	7c00428e 	lw	v0,124(s2)
80039be4:	00000000 	nop
80039be8:	2800c2ae 	sw	v0,40(s6)
80039bec:	1000c386 	lh	v1,16(s6)
80039bf0:	21000224 	li	v0,33
80039bf4:	df006214 	bne	v1,v0,0x80039f74
80039bf8:	ca000224 	li	v0,202
80039bfc:	17002216 	bne	s1,v0,0x80039c5c
80039c00:	eb000224 	li	v0,235
80039c04:	0a000424 	li	a0,10
80039c08:	cb000624 	li	a2,203
80039c0c:	2000d226 	addiu	s2,s6,32
80039c10:	0000c592 	lbu	a1,0(s6)
80039c14:	4000d026 	addiu	s0,s6,64
80039c18:	1000b0af 	sw	s0,16(sp)
80039c1c:	3800c286 	lh	v0,56(s6)
80039c20:	3000d126 	addiu	s1,s6,48
80039c24:	1800b1af 	sw	s1,24(sp)
80039c28:	1400a2af 	sw	v0,20(sp)
80039c2c:	0a00c286 	lh	v0,10(s6)
80039c30:	21384002 	move	a3,s2
80039c34:	2000b6af 	sw	s6,32(sp)
80039c38:	f0ff4224 	addiu	v0,v0,-16
80039c3c:	21d9000c 	jal	0x80036484
80039c40:	1c00a2af 	sw	v0,28(sp)
80039c44:	0000c592 	lbu	a1,0(s6)
80039c48:	0a000424 	li	a0,10
80039c4c:	1000b0af 	sw	s0,16(sp)
80039c50:	3800c286 	lh	v0,56(s6)
80039c54:	d5e90008 	j	0x8003a754
80039c58:	3d000624 	li	a2,61
80039c5c:	17002216 	bne	s1,v0,0x80039cbc
80039c60:	cd000224 	li	v0,205
80039c64:	0a000424 	li	a0,10
80039c68:	ec000624 	li	a2,236
80039c6c:	2000d226 	addiu	s2,s6,32
80039c70:	0000c592 	lbu	a1,0(s6)
80039c74:	4000d026 	addiu	s0,s6,64
80039c78:	1000b0af 	sw	s0,16(sp)
80039c7c:	3800c286 	lh	v0,56(s6)
80039c80:	3000d126 	addiu	s1,s6,48
80039c84:	1800b1af 	sw	s1,24(sp)
80039c88:	1400a2af 	sw	v0,20(sp)
80039c8c:	0a00c286 	lh	v0,10(s6)
80039c90:	21384002 	move	a3,s2
80039c94:	2000b6af 	sw	s6,32(sp)
80039c98:	f0ff4224 	addiu	v0,v0,-16
80039c9c:	21d9000c 	jal	0x80036484
80039ca0:	1c00a2af 	sw	v0,28(sp)
80039ca4:	0000c592 	lbu	a1,0(s6)
80039ca8:	0a000424 	li	a0,10
80039cac:	1000b0af 	sw	s0,16(sp)
80039cb0:	3800c286 	lh	v0,56(s6)
80039cb4:	d5e90008 	j	0x8003a754
80039cb8:	8a000624 	li	a2,138
80039cbc:	17002216 	bne	s1,v0,0x80039d1c
80039cc0:	e1000224 	li	v0,225
80039cc4:	0a000424 	li	a0,10
80039cc8:	ce000624 	li	a2,206
80039ccc:	2000d226 	addiu	s2,s6,32
80039cd0:	0000c592 	lbu	a1,0(s6)
80039cd4:	4000d026 	addiu	s0,s6,64
80039cd8:	1000b0af 	sw	s0,16(sp)
80039cdc:	3800c286 	lh	v0,56(s6)
80039ce0:	3000d126 	addiu	s1,s6,48
80039ce4:	1800b1af 	sw	s1,24(sp)
80039ce8:	1400a2af 	sw	v0,20(sp)
80039cec:	0a00c286 	lh	v0,10(s6)
80039cf0:	21384002 	move	a3,s2
80039cf4:	2000b6af 	sw	s6,32(sp)
80039cf8:	f0ff4224 	addiu	v0,v0,-16
80039cfc:	21d9000c 	jal	0x80036484
80039d00:	1c00a2af 	sw	v0,28(sp)
80039d04:	0000c592 	lbu	a1,0(s6)
80039d08:	0a000424 	li	a0,10
80039d0c:	1000b0af 	sw	s0,16(sp)
80039d10:	3800c286 	lh	v0,56(s6)
80039d14:	d5e90008 	j	0x8003a754
80039d18:	46000624 	li	a2,70
80039d1c:	17002216 	bne	s1,v0,0x80039d7c
80039d20:	d0000224 	li	v0,208
80039d24:	0a000424 	li	a0,10
80039d28:	e2000624 	li	a2,226
80039d2c:	2000d226 	addiu	s2,s6,32
80039d30:	0000c592 	lbu	a1,0(s6)
80039d34:	4000d026 	addiu	s0,s6,64
80039d38:	1000b0af 	sw	s0,16(sp)
80039d3c:	3800c286 	lh	v0,56(s6)
80039d40:	3000d126 	addiu	s1,s6,48
80039d44:	1800b1af 	sw	s1,24(sp)
80039d48:	1400a2af 	sw	v0,20(sp)
80039d4c:	0a00c286 	lh	v0,10(s6)
80039d50:	21384002 	move	a3,s2
80039d54:	2000b6af 	sw	s6,32(sp)
80039d58:	f0ff4224 	addiu	v0,v0,-16
80039d5c:	21d9000c 	jal	0x80036484
80039d60:	1c00a2af 	sw	v0,28(sp)
80039d64:	0000c592 	lbu	a1,0(s6)
80039d68:	0a000424 	li	a0,10
80039d6c:	1000b0af 	sw	s0,16(sp)
80039d70:	3800c286 	lh	v0,56(s6)
80039d74:	d5e90008 	j	0x8003a754
80039d78:	81000624 	li	a2,129
80039d7c:	17002216 	bne	s1,v0,0x80039ddc
80039d80:	e6000224 	li	v0,230
80039d84:	0a000424 	li	a0,10
80039d88:	d1000624 	li	a2,209
80039d8c:	2000d226 	addiu	s2,s6,32
80039d90:	0000c592 	lbu	a1,0(s6)
80039d94:	4000d026 	addiu	s0,s6,64
80039d98:	1000b0af 	sw	s0,16(sp)
80039d9c:	3800c286 	lh	v0,56(s6)
80039da0:	3000d126 	addiu	s1,s6,48
80039da4:	1800b1af 	sw	s1,24(sp)
80039da8:	1400a2af 	sw	v0,20(sp)
80039dac:	0a00c286 	lh	v0,10(s6)
80039db0:	21384002 	move	a3,s2
80039db4:	2000b6af 	sw	s6,32(sp)
80039db8:	f0ff4224 	addiu	v0,v0,-16
80039dbc:	21d9000c 	jal	0x80036484
80039dc0:	1c00a2af 	sw	v0,28(sp)
80039dc4:	0000c592 	lbu	a1,0(s6)
80039dc8:	0a000424 	li	a0,10
80039dcc:	1000b0af 	sw	s0,16(sp)
80039dd0:	3800c286 	lh	v0,56(s6)
80039dd4:	d5e90008 	j	0x8003a754
80039dd8:	52000624 	li	a2,82
80039ddc:	17002216 	bne	s1,v0,0x80039e3c
80039de0:	d8000224 	li	v0,216
80039de4:	0a000424 	li	a0,10
80039de8:	e7000624 	li	a2,231
80039dec:	2000d226 	addiu	s2,s6,32
80039df0:	0000c592 	lbu	a1,0(s6)
80039df4:	4000d026 	addiu	s0,s6,64
80039df8:	1000b0af 	sw	s0,16(sp)
80039dfc:	3800c286 	lh	v0,56(s6)
80039e00:	3000d126 	addiu	s1,s6,48
80039e04:	1800b1af 	sw	s1,24(sp)
80039e08:	1400a2af 	sw	v0,20(sp)
80039e0c:	0a00c286 	lh	v0,10(s6)
80039e10:	21384002 	move	a3,s2
80039e14:	2000b6af 	sw	s6,32(sp)
80039e18:	f0ff4224 	addiu	v0,v0,-16
80039e1c:	21d9000c 	jal	0x80036484
80039e20:	1c00a2af 	sw	v0,28(sp)
80039e24:	0000c592 	lbu	a1,0(s6)
80039e28:	0a000424 	li	a0,10
80039e2c:	1000b0af 	sw	s0,16(sp)
80039e30:	3800c286 	lh	v0,56(s6)
80039e34:	d5e90008 	j	0x8003a754
80039e38:	86000624 	li	a2,134
80039e3c:	17002216 	bne	s1,v0,0x80039e9c
80039e40:	db000224 	li	v0,219
80039e44:	0a000424 	li	a0,10
80039e48:	d9000624 	li	a2,217
80039e4c:	2000d226 	addiu	s2,s6,32
80039e50:	0000c592 	lbu	a1,0(s6)
80039e54:	4000d026 	addiu	s0,s6,64
80039e58:	1000b0af 	sw	s0,16(sp)
80039e5c:	3800c286 	lh	v0,56(s6)
80039e60:	3000d126 	addiu	s1,s6,48
80039e64:	1800b1af 	sw	s1,24(sp)
80039e68:	1400a2af 	sw	v0,20(sp)
80039e6c:	0a00c286 	lh	v0,10(s6)
80039e70:	21384002 	move	a3,s2
80039e74:	2000b6af 	sw	s6,32(sp)
80039e78:	f0ff4224 	addiu	v0,v0,-16
80039e7c:	21d9000c 	jal	0x80036484
80039e80:	1c00a2af 	sw	v0,28(sp)
80039e84:	0000c592 	lbu	a1,0(s6)
80039e88:	0a000424 	li	a0,10
80039e8c:	1000b0af 	sw	s0,16(sp)
80039e90:	3800c286 	lh	v0,56(s6)
80039e94:	d5e90008 	j	0x8003a754
80039e98:	5a000624 	li	a2,90
80039e9c:	17002216 	bne	s1,v0,0x80039efc
80039ea0:	de000224 	li	v0,222
80039ea4:	0a000424 	li	a0,10
80039ea8:	dc000624 	li	a2,220
80039eac:	2000d226 	addiu	s2,s6,32
80039eb0:	0000c592 	lbu	a1,0(s6)
80039eb4:	4000d026 	addiu	s0,s6,64
80039eb8:	1000b0af 	sw	s0,16(sp)
80039ebc:	3800c286 	lh	v0,56(s6)
80039ec0:	3000d126 	addiu	s1,s6,48
80039ec4:	1800b1af 	sw	s1,24(sp)
80039ec8:	1400a2af 	sw	v0,20(sp)
80039ecc:	0a00c286 	lh	v0,10(s6)
80039ed0:	21384002 	move	a3,s2
80039ed4:	2000b6af 	sw	s6,32(sp)
80039ed8:	f0ff4224 	addiu	v0,v0,-16
80039edc:	21d9000c 	jal	0x80036484
80039ee0:	1c00a2af 	sw	v0,28(sp)
80039ee4:	0000c592 	lbu	a1,0(s6)
80039ee8:	0a000424 	li	a0,10
80039eec:	1000b0af 	sw	s0,16(sp)
80039ef0:	3800c286 	lh	v0,56(s6)
80039ef4:	d5e90008 	j	0x8003a754
80039ef8:	64000624 	li	a2,100
80039efc:	1d002216 	bne	s1,v0,0x80039f74
80039f00:	0a000424 	li	a0,10
80039f04:	df000624 	li	a2,223
80039f08:	2000d226 	addiu	s2,s6,32
80039f0c:	0000c592 	lbu	a1,0(s6)
80039f10:	4000d026 	addiu	s0,s6,64
80039f14:	1000b0af 	sw	s0,16(sp)
80039f18:	3800c286 	lh	v0,56(s6)
80039f1c:	3000d126 	addiu	s1,s6,48
80039f20:	1800b1af 	sw	s1,24(sp)
80039f24:	1400a2af 	sw	v0,20(sp)
80039f28:	0a00c286 	lh	v0,10(s6)
80039f2c:	21384002 	move	a3,s2
80039f30:	2000b6af 	sw	s6,32(sp)
80039f34:	f0ff4224 	addiu	v0,v0,-16
80039f38:	21d9000c 	jal	0x80036484
80039f3c:	1c00a2af 	sw	v0,28(sp)
80039f40:	0000c592 	lbu	a1,0(s6)
80039f44:	0a000424 	li	a0,10
80039f48:	1000b0af 	sw	s0,16(sp)
80039f4c:	3800c286 	lh	v0,56(s6)
80039f50:	7e000624 	li	a2,126
80039f54:	1800b1af 	sw	s1,24(sp)
80039f58:	1400a2af 	sw	v0,20(sp)
80039f5c:	0a00c286 	lh	v0,10(s6)
80039f60:	21384002 	move	a3,s2
80039f64:	2000b6af 	sw	s6,32(sp)
80039f68:	f0ff4224 	addiu	v0,v0,-16
80039f6c:	21d9000c 	jal	0x80036484
80039f70:	1c00a2af 	sw	v0,28(sp)
80039f74:	1000c286 	lh	v0,16(s6)
80039f78:	00000000 	nop
80039f7c:	18004228 	slti	v0,v0,24
80039f80:	0a004010 	beqz	v0,0x80039fac
80039f84:	00000000 	nop
80039f88:	3800c296 	lhu	v0,56(s6)
80039f8c:	3c00c396 	lhu	v1,60(s6)
80039f90:	c0ff4224 	addiu	v0,v0,-64
80039f94:	3800c2a6 	sh	v0,56(s6)
80039f98:	3a00c296 	lhu	v0,58(s6)
80039f9c:	c0ff6324 	addiu	v1,v1,-64
80039fa0:	3c00c3a6 	sh	v1,60(s6)
80039fa4:	f3e90008 	j	0x8003a7cc
80039fa8:	c0ff4224 	addiu	v0,v0,-64
80039fac:	3800c296 	lhu	v0,56(s6)
80039fb0:	3c00c396 	lhu	v1,60(s6)
80039fb4:	40004224 	addiu	v0,v0,64
80039fb8:	3800c2a6 	sh	v0,56(s6)
80039fbc:	3a00c296 	lhu	v0,58(s6)
80039fc0:	40006324 	addiu	v1,v1,64
80039fc4:	3c00c3a6 	sh	v1,60(s6)
80039fc8:	40004224 	addiu	v0,v0,64
80039fcc:	3a00c2a6 	sh	v0,58(s6)
80039fd0:	1000c386 	lh	v1,16(s6)
80039fd4:	c3ee0008 	j	0x8003bb0c
80039fd8:	20006228 	slti	v0,v1,32
80039fdc:	1000c486 	lh	a0,16(s6)
80039fe0:	31d1010c 	jal	0x800744c4
80039fe4:	c0220400 	sll	a0,a0,0xb
80039fe8:	21184000 	move	v1,v0
80039fec:	02006104 	bgez	v1,0x80039ff8
80039ff0:	00000000 	nop
80039ff4:	03006324 	addiu	v1,v1,3
80039ff8:	5000c296 	lhu	v0,80(s6)
80039ffc:	4c00d28e 	lw	s2,76(s6)
8003a000:	83180300 	sra	v1,v1,0x2
8003a004:	3c00c3a6 	sh	v1,60(s6)
8003a008:	3a00c3a6 	sh	v1,58(s6)
8003a00c:	3800c3a6 	sh	v1,56(s6)
8003a010:	20004224 	addiu	v0,v0,32
8003a014:	5000c2a6 	sh	v0,80(s6)
8003a018:	00140200 	sll	v0,v0,0x10
8003a01c:	03140200 	sra	v0,v0,0x10
8003a020:	80ff4228 	slti	v0,v0,-128
8003a024:	02004014 	bnez	v0,0x8003a030
8003a028:	80ff0224 	li	v0,-128
8003a02c:	5000c2a6 	sh	v0,80(s6)
8003a030:	5000c486 	lh	a0,80(s6)
8003a034:	31d1010c 	jal	0x800744c4
8003a038:	00000000 	nop
8003a03c:	5000c486 	lh	a0,80(s6)
8003a040:	fdd0010c 	jal	0x800743f4
8003a044:	21804000 	move	s0,v0
8003a048:	1c00c58e 	lw	a1,28(s6)
8003a04c:	7800438e 	lw	v1,120(s2)
8003a050:	2400a48c 	lw	a0,36(a1)
8003a054:	00000000 	nop
8003a058:	23186400 	subu	v1,v1,a0
8003a05c:	18007000 	mult	v1,s0
8003a060:	12180000 	mflo	v1
	...
8003a06c:	1a006200 	div	zero,v1,v0
8003a070:	02004014 	bnez	v0,0x8003a07c
8003a074:	00000000 	nop
8003a078:	0d000700 	break	0x7
8003a07c:	ffff0124 	li	at,-1
8003a080:	04004114 	bne	v0,at,0x8003a094
8003a084:	0080013c 	lui	at,0x8000
8003a088:	02006114 	bne	v1,at,0x8003a094
8003a08c:	00000000 	nop
8003a090:	0d000600 	break	0x6
8003a094:	12800000 	mflo	s0
8003a098:	3200a484 	lh	a0,50(a1)
8003a09c:	31d1010c 	jal	0x800744c4
8003a0a0:	00048424 	addiu	a0,a0,1024
8003a0a4:	18000202 	mult	s0,v0
8003a0a8:	1c00c28e 	lw	v0,28(s6)
8003a0ac:	12180000 	mflo	v1
8003a0b0:	02006104 	bgez	v1,0x8003a0bc
8003a0b4:	00000000 	nop
8003a0b8:	ff0f6324 	addiu	v1,v1,4095
8003a0bc:	031b0300 	sra	v1,v1,0xc
8003a0c0:	2000428c 	lw	v0,32(v0)
8003a0c4:	1c00c48e 	lw	a0,28(s6)
8003a0c8:	21104300 	addu	v0,v0,v1
8003a0cc:	2000c2ae 	sw	v0,32(s6)
8003a0d0:	32008484 	lh	a0,50(a0)
8003a0d4:	fdd0010c 	jal	0x800743f4
8003a0d8:	00048424 	addiu	a0,a0,1024
8003a0dc:	18000202 	mult	s0,v0
8003a0e0:	1c00c38e 	lw	v1,28(s6)
8003a0e4:	12100000 	mflo	v0
8003a0e8:	02004104 	bgez	v0,0x8003a0f4
8003a0ec:	00000000 	nop
8003a0f0:	ff0f4224 	addiu	v0,v0,4095
8003a0f4:	03130200 	sra	v0,v0,0xc
8003a0f8:	2800638c 	lw	v1,40(v1)
8003a0fc:	1000c486 	lh	a0,16(s6)
8003a100:	21186200 	addu	v1,v1,v0
8003a104:	20008228 	slti	v0,a0,32
8003a108:	03004010 	beqz	v0,0x8003a118
8003a10c:	2800c3ae 	sw	v1,40(s6)
8003a110:	c0110400 	sll	v0,a0,0x7
8003a114:	1200c2a6 	sh	v0,18(s6)
8003a118:	00040424 	li	a0,1024
8003a11c:	0080053c 	lui	a1,0x8000
8003a120:	0004a534 	ori	a1,a1,0x400
8003a124:	41d7000c 	jal	0x80035d04
8003a128:	21300000 	move	a2,zero
8003a12c:	21804000 	move	s0,v0
8003a130:	05000012 	beqz	s0,0x8003a148
8003a134:	80000232 	andi	v0,s0,0x80
8003a138:	03004010 	beqz	v0,0x8003a148
8003a13c:	00000000 	nop
8003a140:	63d8000c 	jal	0x8003618c
8003a144:	21200002 	move	a0,s0
8003a148:	2000c28e 	lw	v0,32(s6)
8003a14c:	0a00c386 	lh	v1,10(s6)
8003a150:	f800a2af 	sw	v0,248(sp)
8003a154:	2400c28e 	lw	v0,36(s6)
8003a158:	00000000 	nop
8003a15c:	fc00a2af 	sw	v0,252(sp)
8003a160:	2800c28e 	lw	v0,40(s6)
8003a164:	e000a0a7 	sh	zero,224(sp)
8003a168:	e200a0a7 	sh	zero,226(sp)
8003a16c:	e400a0a7 	sh	zero,228(sp)
8003a170:	0001a2af 	sw	v0,256(sp)
8003a174:	3d000224 	li	v0,61
8003a178:	07002216 	bne	s1,v0,0x8003a198
8003a17c:	f0ff6324 	addiu	v1,v1,-16
8003a180:	0a000424 	li	a0,10
8003a184:	cc000624 	li	a2,204
8003a188:	f800a727 	addiu	a3,sp,248
8003a18c:	0000c592 	lbu	a1,0(s6)
8003a190:	3ceb0008 	j	0x8003acf0
8003a194:	e000a227 	addiu	v0,sp,224
8003a198:	8a000224 	li	v0,138
8003a19c:	07002216 	bne	s1,v0,0x8003a1bc
8003a1a0:	46000224 	li	v0,70
8003a1a4:	0a000424 	li	a0,10
8003a1a8:	ed000624 	li	a2,237
8003a1ac:	f800a727 	addiu	a3,sp,248
8003a1b0:	0000c592 	lbu	a1,0(s6)
8003a1b4:	3ceb0008 	j	0x8003acf0
8003a1b8:	e000a227 	addiu	v0,sp,224
8003a1bc:	07002216 	bne	s1,v0,0x8003a1dc
8003a1c0:	81000224 	li	v0,129
8003a1c4:	0a000424 	li	a0,10
8003a1c8:	cf000624 	li	a2,207
8003a1cc:	f800a727 	addiu	a3,sp,248
8003a1d0:	0000c592 	lbu	a1,0(s6)
8003a1d4:	3ceb0008 	j	0x8003acf0
8003a1d8:	e000a227 	addiu	v0,sp,224
8003a1dc:	07002216 	bne	s1,v0,0x8003a1fc
8003a1e0:	52000224 	li	v0,82
8003a1e4:	0a000424 	li	a0,10
8003a1e8:	e3000624 	li	a2,227
8003a1ec:	f800a727 	addiu	a3,sp,248
8003a1f0:	0000c592 	lbu	a1,0(s6)
8003a1f4:	3ceb0008 	j	0x8003acf0
8003a1f8:	e000a227 	addiu	v0,sp,224
8003a1fc:	07002216 	bne	s1,v0,0x8003a21c
8003a200:	86000224 	li	v0,134
8003a204:	0a000424 	li	a0,10
8003a208:	d2000624 	li	a2,210
8003a20c:	f800a727 	addiu	a3,sp,248
8003a210:	0000c592 	lbu	a1,0(s6)
8003a214:	3ceb0008 	j	0x8003acf0
8003a218:	e000a227 	addiu	v0,sp,224
8003a21c:	07002216 	bne	s1,v0,0x8003a23c
8003a220:	5a000224 	li	v0,90
8003a224:	0a000424 	li	a0,10
8003a228:	e8000624 	li	a2,232
8003a22c:	f800a727 	addiu	a3,sp,248
8003a230:	0000c592 	lbu	a1,0(s6)
8003a234:	3ceb0008 	j	0x8003acf0
8003a238:	e000a227 	addiu	v0,sp,224
8003a23c:	07002216 	bne	s1,v0,0x8003a25c
8003a240:	64000224 	li	v0,100
8003a244:	0a000424 	li	a0,10
8003a248:	da000624 	li	a2,218
8003a24c:	f800a727 	addiu	a3,sp,248
8003a250:	0000c592 	lbu	a1,0(s6)
8003a254:	3ceb0008 	j	0x8003acf0
8003a258:	e000a227 	addiu	v0,sp,224
8003a25c:	07002216 	bne	s1,v0,0x8003a27c
8003a260:	7e000224 	li	v0,126
8003a264:	0a000424 	li	a0,10
8003a268:	dd000624 	li	a2,221
8003a26c:	f800a727 	addiu	a3,sp,248
8003a270:	0000c592 	lbu	a1,0(s6)
8003a274:	3ceb0008 	j	0x8003acf0
8003a278:	e000a227 	addiu	v0,sp,224
8003a27c:	57042216 	bne	s1,v0,0x8003b3dc
8003a280:	0a000424 	li	a0,10
8003a284:	e0000624 	li	a2,224
8003a288:	f800a727 	addiu	a3,sp,248
8003a28c:	0000c592 	lbu	a1,0(s6)
8003a290:	3ceb0008 	j	0x8003acf0
8003a294:	e000a227 	addiu	v0,sp,224
8003a298:	1000c486 	lh	a0,16(s6)
8003a29c:	31d1010c 	jal	0x800744c4
8003a2a0:	c0220400 	sll	a0,a0,0xb
8003a2a4:	21184000 	move	v1,v0
8003a2a8:	02006104 	bgez	v1,0x8003a2b4
8003a2ac:	00000000 	nop
8003a2b0:	03006324 	addiu	v1,v1,3
8003a2b4:	5000c296 	lhu	v0,80(s6)
8003a2b8:	83180300 	sra	v1,v1,0x2
8003a2bc:	3c00c3a6 	sh	v1,60(s6)
8003a2c0:	3a00c3a6 	sh	v1,58(s6)
8003a2c4:	3800c3a6 	sh	v1,56(s6)
8003a2c8:	20004224 	addiu	v0,v0,32
8003a2cc:	5000c2a6 	sh	v0,80(s6)
8003a2d0:	00140200 	sll	v0,v0,0x10
8003a2d4:	03140200 	sra	v0,v0,0x10
8003a2d8:	80ff4228 	slti	v0,v0,-128
8003a2dc:	02004014 	bnez	v0,0x8003a2e8
8003a2e0:	80ff0224 	li	v0,-128
8003a2e4:	5000c2a6 	sh	v0,80(s6)
8003a2e8:	5000c486 	lh	a0,80(s6)
8003a2ec:	31d1010c 	jal	0x800744c4
8003a2f0:	00000000 	nop
8003a2f4:	5000c486 	lh	a0,80(s6)
8003a2f8:	fdd0010c 	jal	0x800743f4
8003a2fc:	21804000 	move	s0,v0
8003a300:	1c00c58e 	lw	a1,28(s6)
8003a304:	1a80043c 	lui	a0,0x801a
8003a308:	2400a38c 	lw	v1,36(a1)
8003a30c:	7491848c 	lw	a0,-28300(a0)
8003a310:	c0f96324 	addiu	v1,v1,-1600
8003a314:	23208300 	subu	a0,a0,v1
8003a318:	18009000 	mult	a0,s0
8003a31c:	12180000 	mflo	v1
	...
8003a328:	1a006200 	div	zero,v1,v0
8003a32c:	02004014 	bnez	v0,0x8003a338
8003a330:	00000000 	nop
8003a334:	0d000700 	break	0x7
8003a338:	ffff0124 	li	at,-1
8003a33c:	04004114 	bne	v0,at,0x8003a350
8003a340:	0080013c 	lui	at,0x8000
8003a344:	02006114 	bne	v1,at,0x8003a350
8003a348:	00000000 	nop
8003a34c:	0d000600 	break	0x6
8003a350:	12800000 	mflo	s0
8003a354:	3200a484 	lh	a0,50(a1)
8003a358:	31d1010c 	jal	0x800744c4
8003a35c:	00048424 	addiu	a0,a0,1024
8003a360:	18000202 	mult	s0,v0
8003a364:	1c00c28e 	lw	v0,28(s6)
8003a368:	12180000 	mflo	v1
8003a36c:	02006104 	bgez	v1,0x8003a378
8003a370:	00000000 	nop
8003a374:	ff0f6324 	addiu	v1,v1,4095
8003a378:	031b0300 	sra	v1,v1,0xc
8003a37c:	2000428c 	lw	v0,32(v0)
8003a380:	1c00c48e 	lw	a0,28(s6)
8003a384:	21104300 	addu	v0,v0,v1
8003a388:	2000c2ae 	sw	v0,32(s6)
8003a38c:	32008484 	lh	a0,50(a0)
8003a390:	fdd0010c 	jal	0x800743f4
8003a394:	00048424 	addiu	a0,a0,1024
8003a398:	18000202 	mult	s0,v0
8003a39c:	1c00c38e 	lw	v1,28(s6)
8003a3a0:	12100000 	mflo	v0
8003a3a4:	02004104 	bgez	v0,0x8003a3b0
8003a3a8:	00000000 	nop
8003a3ac:	ff0f4224 	addiu	v0,v0,4095
8003a3b0:	03130200 	sra	v0,v0,0xc
8003a3b4:	2800638c 	lw	v1,40(v1)
8003a3b8:	1000c486 	lh	a0,16(s6)
8003a3bc:	21186200 	addu	v1,v1,v0
8003a3c0:	20008228 	slti	v0,a0,32
8003a3c4:	03004010 	beqz	v0,0x8003a3d4
8003a3c8:	2800c3ae 	sw	v1,40(s6)
8003a3cc:	c0110400 	sll	v0,a0,0x7
8003a3d0:	1200c2a6 	sh	v0,18(s6)
8003a3d4:	00040424 	li	a0,1024
8003a3d8:	0080053c 	lui	a1,0x8000
8003a3dc:	0004a534 	ori	a1,a1,0x400
8003a3e0:	41d7000c 	jal	0x80035d04
8003a3e4:	21300000 	move	a2,zero
8003a3e8:	21804000 	move	s0,v0
8003a3ec:	05000012 	beqz	s0,0x8003a404
8003a3f0:	80000232 	andi	v0,s0,0x80
8003a3f4:	03004010 	beqz	v0,0x8003a404
8003a3f8:	00000000 	nop
8003a3fc:	63d8000c 	jal	0x8003618c
8003a400:	21200002 	move	a0,s0
8003a404:	2000c28e 	lw	v0,32(s6)
8003a408:	0a00c386 	lh	v1,10(s6)
8003a40c:	1001a2af 	sw	v0,272(sp)
8003a410:	2400c28e 	lw	v0,36(s6)
8003a414:	00000000 	nop
8003a418:	1401a2af 	sw	v0,276(sp)
8003a41c:	2800c28e 	lw	v0,40(s6)
8003a420:	0801a0a7 	sh	zero,264(sp)
8003a424:	0a01a0a7 	sh	zero,266(sp)
8003a428:	0c01a0a7 	sh	zero,268(sp)
8003a42c:	1801a2af 	sw	v0,280(sp)
8003a430:	3d000224 	li	v0,61
8003a434:	04002216 	bne	s1,v0,0x8003a448
8003a438:	f0ff6324 	addiu	v1,v1,-16
8003a43c:	0a000424 	li	a0,10
8003a440:	39eb0008 	j	0x8003ace4
8003a444:	cc000624 	li	a2,204
8003a448:	8a000224 	li	v0,138
8003a44c:	04002216 	bne	s1,v0,0x8003a460
8003a450:	46000224 	li	v0,70
8003a454:	0a000424 	li	a0,10
8003a458:	39eb0008 	j	0x8003ace4
8003a45c:	ed000624 	li	a2,237
8003a460:	04002216 	bne	s1,v0,0x8003a474
8003a464:	81000224 	li	v0,129
8003a468:	0a000424 	li	a0,10
8003a46c:	39eb0008 	j	0x8003ace4
8003a470:	cf000624 	li	a2,207
8003a474:	04002216 	bne	s1,v0,0x8003a488
8003a478:	52000224 	li	v0,82
8003a47c:	0a000424 	li	a0,10
8003a480:	39eb0008 	j	0x8003ace4
8003a484:	e3000624 	li	a2,227
8003a488:	04002216 	bne	s1,v0,0x8003a49c
8003a48c:	86000224 	li	v0,134
8003a490:	0a000424 	li	a0,10
8003a494:	39eb0008 	j	0x8003ace4
8003a498:	d2000624 	li	a2,210
8003a49c:	04002216 	bne	s1,v0,0x8003a4b0
8003a4a0:	5a000224 	li	v0,90
8003a4a4:	0a000424 	li	a0,10
8003a4a8:	39eb0008 	j	0x8003ace4
8003a4ac:	e8000624 	li	a2,232
8003a4b0:	04002216 	bne	s1,v0,0x8003a4c4
8003a4b4:	64000224 	li	v0,100
8003a4b8:	0a000424 	li	a0,10
8003a4bc:	39eb0008 	j	0x8003ace4
8003a4c0:	da000624 	li	a2,218
8003a4c4:	04002216 	bne	s1,v0,0x8003a4d8
8003a4c8:	7e000224 	li	v0,126
8003a4cc:	0a000424 	li	a0,10
8003a4d0:	39eb0008 	j	0x8003ace4
8003a4d4:	dd000624 	li	a2,221
8003a4d8:	c0032216 	bne	s1,v0,0x8003b3dc
8003a4dc:	0a000424 	li	a0,10
8003a4e0:	e0000624 	li	a2,224
8003a4e4:	1001a727 	addiu	a3,sp,272
8003a4e8:	0000c592 	lbu	a1,0(s6)
8003a4ec:	0801a227 	addiu	v0,sp,264
8003a4f0:	1000a2af 	sw	v0,16(sp)
8003a4f4:	00020224 	li	v0,512
8003a4f8:	1400a2af 	sw	v0,20(sp)
8003a4fc:	00010224 	li	v0,256
8003a500:	1800a2af 	sw	v0,24(sp)
8003a504:	06000224 	li	v0,6
8003a508:	1c00a2af 	sw	v0,28(sp)
8003a50c:	03000224 	li	v0,3
8003a510:	2000a3af 	sw	v1,32(sp)
8003a514:	21d9000c 	jal	0x80036484
8003a518:	2400a2af 	sw	v0,36(sp)
8003a51c:	f7ee0008 	j	0x8003bbdc
8003a520:	00000000 	nop
8003a524:	1c00c28e 	lw	v0,28(s6)
8003a528:	1c00c38e 	lw	v1,28(s6)
8003a52c:	4c00d18e 	lw	s1,76(s6)
8003a530:	2000428c 	lw	v0,32(v0)
8003a534:	00000000 	nop
8003a538:	2000c2ae 	sw	v0,32(s6)
8003a53c:	2400628c 	lw	v0,36(v1)
8003a540:	00000000 	nop
8003a544:	2400c2ae 	sw	v0,36(s6)
8003a548:	5000c296 	lhu	v0,80(s6)
8003a54c:	2800638c 	lw	v1,40(v1)
8003a550:	20004224 	addiu	v0,v0,32
8003a554:	5000c2a6 	sh	v0,80(s6)
8003a558:	00140200 	sll	v0,v0,0x10
8003a55c:	03140200 	sra	v0,v0,0x10
8003a560:	80ff4228 	slti	v0,v0,-128
8003a564:	03004014 	bnez	v0,0x8003a574
8003a568:	2800c3ae 	sw	v1,40(s6)
8003a56c:	80ff0224 	li	v0,-128
8003a570:	5000c2a6 	sh	v0,80(s6)
8003a574:	5000c486 	lh	a0,80(s6)
8003a578:	31d1010c 	jal	0x800744c4
8003a57c:	00000000 	nop
8003a580:	5000c486 	lh	a0,80(s6)
8003a584:	fdd0010c 	jal	0x800743f4
8003a588:	21804000 	move	s0,v0
8003a58c:	1c00c48e 	lw	a0,28(s6)
8003a590:	7800238e 	lw	v1,120(s1)
8003a594:	2400848c 	lw	a0,36(a0)
8003a598:	00000000 	nop
8003a59c:	23186400 	subu	v1,v1,a0
8003a5a0:	18007000 	mult	v1,s0
8003a5a4:	12200000 	mflo	a0
	...
8003a5b0:	1a008200 	div	zero,a0,v0
8003a5b4:	02004014 	bnez	v0,0x8003a5c0
8003a5b8:	00000000 	nop
8003a5bc:	0d000700 	break	0x7
8003a5c0:	ffff0124 	li	at,-1
8003a5c4:	04004114 	bne	v0,at,0x8003a5d8
8003a5c8:	0080013c 	lui	at,0x8000
8003a5cc:	02008114 	bne	a0,at,0x8003a5d8
8003a5d0:	00000000 	nop
8003a5d4:	0d000600 	break	0x6
8003a5d8:	12100000 	mflo	v0
	...
8003a5e4:	18004200 	mult	v0,v0
8003a5e8:	12100000 	mflo	v0
8003a5ec:	00000000 	nop
8003a5f0:	b3eb0008 	j	0x8003aecc
8003a5f4:	18006300 	mult	v1,v1
8003a5f8:	1c00c28e 	lw	v0,28(s6)
8003a5fc:	1c00c38e 	lw	v1,28(s6)
8003a600:	2000428c 	lw	v0,32(v0)
8003a604:	00000000 	nop
8003a608:	2000c2ae 	sw	v0,32(s6)
8003a60c:	2400628c 	lw	v0,36(v1)
8003a610:	00000000 	nop
8003a614:	2400c2ae 	sw	v0,36(s6)
8003a618:	5000c296 	lhu	v0,80(s6)
8003a61c:	2800638c 	lw	v1,40(v1)
8003a620:	20004224 	addiu	v0,v0,32
8003a624:	5000c2a6 	sh	v0,80(s6)
8003a628:	00140200 	sll	v0,v0,0x10
8003a62c:	03140200 	sra	v0,v0,0x10
8003a630:	80ff4228 	slti	v0,v0,-128
8003a634:	03004014 	bnez	v0,0x8003a644
8003a638:	2800c3ae 	sw	v1,40(s6)
8003a63c:	80ff0224 	li	v0,-128
8003a640:	5000c2a6 	sh	v0,80(s6)
8003a644:	5000c486 	lh	a0,80(s6)
8003a648:	31d1010c 	jal	0x800744c4
8003a64c:	00000000 	nop
8003a650:	5000c486 	lh	a0,80(s6)
8003a654:	fdd0010c 	jal	0x800743f4
8003a658:	21804000 	move	s0,v0
8003a65c:	1c00c38e 	lw	v1,28(s6)
8003a660:	1a80043c 	lui	a0,0x801a
8003a664:	2400638c 	lw	v1,36(v1)
8003a668:	7491848c 	lw	a0,-28300(a0)
8003a66c:	c0f96324 	addiu	v1,v1,-1600
8003a670:	23208300 	subu	a0,a0,v1
8003a674:	18009000 	mult	a0,s0
8003a678:	12180000 	mflo	v1
	...
8003a684:	1a006200 	div	zero,v1,v0
8003a688:	02004014 	bnez	v0,0x8003a694
8003a68c:	00000000 	nop
8003a690:	0d000700 	break	0x7
8003a694:	ffff0124 	li	at,-1
8003a698:	04004114 	bne	v0,at,0x8003a6ac
8003a69c:	0080013c 	lui	at,0x8000
8003a6a0:	02006114 	bne	v1,at,0x8003a6ac
8003a6a4:	00000000 	nop
8003a6a8:	0d000600 	break	0x6
8003a6ac:	12100000 	mflo	v0
	...
8003a6b8:	18004200 	mult	v0,v0
8003a6bc:	12100000 	mflo	v0
	...
8003a6c8:	18008400 	mult	a0,a0
8003a6cc:	12180000 	mflo	v1
8003a6d0:	b1d1010c 	jal	0x800746c4
8003a6d4:	21204300 	addu	a0,v0,v1
8003a6d8:	3c00c2a6 	sh	v0,60(s6)
8003a6dc:	5000c296 	lhu	v0,80(s6)
8003a6e0:	1000c386 	lh	v1,16(s6)
8003a6e4:	23100200 	negu	v0,v0
8003a6e8:	3000c2a6 	sh	v0,48(s6)
8003a6ec:	08006228 	slti	v0,v1,8
8003a6f0:	3a034010 	beqz	v0,0x8003b3dc
8003a6f4:	40120300 	sll	v0,v1,0x9
8003a6f8:	f7ee0008 	j	0x8003bbdc
8003a6fc:	1200c2a6 	sh	v0,18(s6)
8003a700:	4000c386 	lh	v1,64(s6)
8003a704:	2000c28e 	lw	v0,32(s6)
8003a708:	4200c486 	lh	a0,66(s6)
8003a70c:	4400c586 	lh	a1,68(s6)
8003a710:	21104300 	addu	v0,v0,v1
8003a714:	2000c2ae 	sw	v0,32(s6)
8003a718:	2400c28e 	lw	v0,36(s6)
8003a71c:	2800c38e 	lw	v1,40(s6)
8003a720:	21104400 	addu	v0,v0,a0
8003a724:	2400c2ae 	sw	v0,36(s6)
8003a728:	3800c296 	lhu	v0,56(s6)
8003a72c:	5000c496 	lhu	a0,80(s6)
8003a730:	21186500 	addu	v1,v1,a1
8003a734:	2800c3ae 	sw	v1,40(s6)
8003a738:	0500c392 	lbu	v1,5(s6)
8003a73c:	21104400 	addu	v0,v0,a0
8003a740:	0300632c 	sltiu	v1,v1,3
8003a744:	3800c2a6 	sh	v0,56(s6)
8003a748:	04006010 	beqz	v1,0x8003a75c
8003a74c:	3c00c2a6 	sh	v0,60(s6)
8003a750:	3800c286 	lh	v0,56(s6)
8003a754:	dbeb0008 	j	0x8003af6c
8003a758:	40100200 	sll	v0,v0,0x1
8003a75c:	3a00c296 	lhu	v0,58(s6)
8003a760:	5000c396 	lhu	v1,80(s6)
8003a764:	00000000 	nop
8003a768:	23104300 	subu	v0,v0,v1
8003a76c:	3a00c2a6 	sh	v0,58(s6)
8003a770:	0500c292 	lbu	v0,5(s6)
8003a774:	00000000 	nop
8003a778:	01004224 	addiu	v0,v0,1
8003a77c:	f7ee0008 	j	0x8003bbdc
8003a780:	0500c2a2 	sb	v0,5(s6)
8003a784:	3800c296 	lhu	v0,56(s6)
8003a788:	00000000 	nop
8003a78c:	80004224 	addiu	v0,v0,128
8003a790:	3800c2a6 	sh	v0,56(s6)
8003a794:	3a00c296 	lhu	v0,58(s6)
8003a798:	3800c386 	lh	v1,56(s6)
8003a79c:	80004224 	addiu	v0,v0,128
8003a7a0:	3a00c2a6 	sh	v0,58(s6)
8003a7a4:	c0100300 	sll	v0,v1,0x3
8003a7a8:	23104300 	subu	v0,v0,v1
8003a7ac:	c0110200 	sll	v0,v0,0x7
8003a7b0:	02004104 	bgez	v0,0x8003a7bc
8003a7b4:	00000000 	nop
8003a7b8:	ff0f4224 	addiu	v0,v0,4095
8003a7bc:	3800c386 	lh	v1,56(s6)
8003a7c0:	03130200 	sra	v0,v0,0xc
8003a7c4:	0c00c2a6 	sh	v0,12(s6)
8003a7c8:	c0100300 	sll	v0,v1,0x3
8003a7cc:	23104300 	subu	v0,v0,v1
8003a7d0:	c0110200 	sll	v0,v0,0x7
8003a7d4:	03004104 	bgez	v0,0x8003a7e4
8003a7d8:	032b0200 	sra	a1,v0,0xc
8003a7dc:	ff0f4224 	addiu	v0,v0,4095
8003a7e0:	032b0200 	sra	a1,v0,0xc
8003a7e4:	0080023c 	lui	v0,0x8000
8003a7e8:	0c00c496 	lhu	a0,12(s6)
8003a7ec:	5000c682 	lb	a2,80(s6)
8003a7f0:	2528a200 	or	a1,a1,v0
8003a7f4:	6ae0000c 	jal	0x800381a8
8003a7f8:	1800c5ae 	sw	a1,24(s6)
8003a7fc:	1000c386 	lh	v1,16(s6)
8003a800:	00000000 	nop
8003a804:	20006228 	slti	v0,v1,32
8003a808:	02004010 	beqz	v0,0x8003a814
8003a80c:	c0110300 	sll	v0,v1,0x7
8003a810:	1200c2a6 	sh	v0,18(s6)
8003a814:	4200c296 	lhu	v0,66(s6)
8003a818:	0800c392 	lbu	v1,8(s6)
8003a81c:	02004224 	addiu	v0,v0,2
8003a820:	0a006014 	bnez	v1,0x8003a84c
8003a824:	4200c2a6 	sh	v0,66(s6)
8003a828:	1000c286 	lh	v0,16(s6)
8003a82c:	00000000 	nop
8003a830:	30004228 	slti	v0,v0,48
8003a834:	05004014 	bnez	v0,0x8003a84c
8003a838:	00000000 	nop
8003a83c:	63d8000c 	jal	0x8003618c
8003a840:	80000424 	li	a0,128
8003a844:	16ec0008 	j	0x8003b058
8003a848:	04000224 	li	v0,4
8003a84c:	0800c292 	lbu	v0,8(s6)
8003a850:	00000000 	nop
8003a854:	ffff4224 	addiu	v0,v0,-1
8003a858:	b1e2010c 	jal	0x80078ac4
8003a85c:	0800c2a2 	sb	v0,8(s6)
8003a860:	1000c386 	lh	v1,16(s6)
8003a864:	40000524 	li	a1,64
8003a868:	2318a300 	subu	v1,a1,v1
8003a86c:	02006104 	bgez	v1,0x8003a878
8003a870:	00c04424 	addiu	a0,v0,-16384
8003a874:	07006324 	addiu	v1,v1,7
8003a878:	c3100300 	sra	v0,v1,0x3
8003a87c:	09004224 	addiu	v0,v0,9
8003a880:	07204400 	srav	a0,a0,v0
8003a884:	02008224 	addiu	v0,a0,2
8003a888:	ffff4230 	andi	v0,v0,0xffff
8003a88c:	0500422c 	sltiu	v0,v0,5
8003a890:	08004014 	bnez	v0,0x8003a8b4
8003a894:	1a80023c 	lui	v0,0x801a
8003a898:	1a80033c 	lui	v1,0x801a
8003a89c:	288f6324 	addiu	v1,v1,-28888
8003a8a0:	8c026294 	lhu	v0,652(v1)
8003a8a4:	00000000 	nop
8003a8a8:	21104400 	addu	v0,v0,a0
8003a8ac:	8c0262a4 	sh	v0,652(v1)
8003a8b0:	1a80023c 	lui	v0,0x801a
8003a8b4:	288f4324 	addiu	v1,v0,-28888
8003a8b8:	8c026294 	lhu	v0,652(v1)
8003a8bc:	00000000 	nop
8003a8c0:	fff74224 	addiu	v0,v0,-2049
8003a8c4:	bf07422c 	sltiu	v0,v0,1983
8003a8c8:	02004010 	beqz	v0,0x8003a8d4
8003a8cc:	c00f0224 	li	v0,4032
8003a8d0:	8c0262a4 	sh	v0,652(v1)
8003a8d4:	8c026294 	lhu	v0,652(v1)
8003a8d8:	00000000 	nop
8003a8dc:	bfff4224 	addiu	v0,v0,-65
8003a8e0:	bf07422c 	sltiu	v0,v0,1983
8003a8e4:	bd024010 	beqz	v0,0x8003b3dc
8003a8e8:	00000000 	nop
8003a8ec:	f7ee0008 	j	0x8003bbdc
8003a8f0:	8c0265a4 	sh	a1,652(v1)
8003a8f4:	42ec0008 	j	0x8003b108
8003a8f8:	02000524 	li	a1,2
8003a8fc:	42ec0008 	j	0x8003b108
8003a900:	04000524 	li	a1,4
8003a904:	08000524 	li	a1,8
8003a908:	1000c486 	lh	a0,16(s6)
8003a90c:	00000000 	nop
8003a910:	10008228 	slti	v0,a0,16
8003a914:	09004010 	beqz	v0,0x8003a93c
8003a918:	00000000 	nop
8003a91c:	4c00c28e 	lw	v0,76(s6)
8003a920:	00000000 	nop
8003a924:	1e004390 	lbu	v1,30(v0)
8003a928:	00220400 	sll	a0,a0,0x8
8003a92c:	360044a4 	sh	a0,54(v0)
8003a930:	0d006334 	ori	v1,v1,0xd
8003a934:	5cec0008 	j	0x8003b170
8003a938:	1e0043a0 	sb	v1,30(v0)
8003a93c:	0c00801c 	bgtz	a0,0x8003a970
8003a940:	00000000 	nop
8003a944:	4c00c48e 	lw	a0,76(s6)
8003a948:	00000000 	nop
8003a94c:	1e008390 	lbu	v1,30(a0)
8003a950:	00000000 	nop
8003a954:	10006230 	andi	v0,v1,0x10
8003a958:	03004010 	beqz	v0,0x8003a968
8003a95c:	360080a4 	sh	zero,54(a0)
8003a960:	5bec0008 	j	0x8003b16c
8003a964:	f7006230 	andi	v0,v1,0xf7
8003a968:	f2006230 	andi	v0,v1,0xf2
8003a96c:	1e0082a0 	sb	v0,30(a0)
8003a970:	0800c292 	lbu	v0,8(s6)
8003a974:	00000000 	nop
8003a978:	97024014 	bnez	v0,0x8003b3d8
8003a97c:	ffff4224 	addiu	v0,v0,-1
8003a980:	1a80023c 	lui	v0,0x801a
8003a984:	288f4424 	addiu	a0,v0,-28888
8003a988:	06008394 	lhu	v1,6(a0)
8003a98c:	00000000 	nop
8003a990:	23106500 	subu	v0,v1,a1
8003a994:	21184000 	move	v1,v0
8003a998:	00140200 	sll	v0,v0,0x10
8003a99c:	02004104 	bgez	v0,0x8003a9a8
8003a9a0:	00000000 	nop
8003a9a4:	21180000 	move	v1,zero
8003a9a8:	f7ee0008 	j	0x8003bbdc
8003a9ac:	060083a4 	sh	v1,6(a0)
8003a9b0:	71ec0008 	j	0x8003b1c4
8003a9b4:	02000524 	li	a1,2
8003a9b8:	71ec0008 	j	0x8003b1c4
8003a9bc:	04000524 	li	a1,4
8003a9c0:	08000524 	li	a1,8
8003a9c4:	1000c486 	lh	a0,16(s6)
8003a9c8:	00000000 	nop
8003a9cc:	10008228 	slti	v0,a0,16
8003a9d0:	07004010 	beqz	v0,0x8003a9f0
8003a9d4:	00220400 	sll	a0,a0,0x8
8003a9d8:	4c00c28e 	lw	v0,76(s6)
8003a9dc:	00000000 	nop
8003a9e0:	1e004390 	lbu	v1,30(v0)
8003a9e4:	360044a4 	sh	a0,54(v0)
8003a9e8:	0d006334 	ori	v1,v1,0xd
8003a9ec:	1e0043a0 	sb	v1,30(v0)
8003a9f0:	1000c286 	lh	v0,16(s6)
8003a9f4:	00000000 	nop
8003a9f8:	0c00401c 	bgtz	v0,0x8003aa2c
8003a9fc:	00000000 	nop
8003aa00:	4c00c48e 	lw	a0,76(s6)
8003aa04:	00000000 	nop
8003aa08:	1e008390 	lbu	v1,30(a0)
8003aa0c:	00000000 	nop
8003aa10:	10006230 	andi	v0,v1,0x10
8003aa14:	03004010 	beqz	v0,0x8003aa24
8003aa18:	360080a4 	sh	zero,54(a0)
8003aa1c:	8aec0008 	j	0x8003b228
8003aa20:	f7006230 	andi	v0,v1,0xf7
8003aa24:	f2006230 	andi	v0,v1,0xf2
8003aa28:	1e0082a0 	sb	v0,30(a0)
8003aa2c:	0800c292 	lbu	v0,8(s6)
8003aa30:	00000000 	nop
8003aa34:	68024014 	bnez	v0,0x8003b3d8
8003aa38:	ffff4224 	addiu	v0,v0,-1
8003aa3c:	1a80023c 	lui	v0,0x801a
8003aa40:	288f5124 	addiu	s1,v0,-28888
8003aa44:	02003096 	lhu	s0,2(s1)
8003aa48:	00000000 	nop
8003aa4c:	23100502 	subu	v0,s0,a1
8003aa50:	21804000 	move	s0,v0
8003aa54:	00140200 	sll	v0,v0,0x10
8003aa58:	0400401c 	bgtz	v0,0x8003aa6c
8003aa5c:	00000000 	nop
8003aa60:	21800000 	move	s0,zero
8003aa64:	45ef000c 	jal	0x8003bd14
8003aa68:	21200000 	move	a0,zero
8003aa6c:	f7ee0008 	j	0x8003bbdc
8003aa70:	020030a6 	sh	s0,2(s1)
8003aa74:	3800c296 	lhu	v0,56(s6)
8003aa78:	3c00c396 	lhu	v1,60(s6)
8003aa7c:	60004224 	addiu	v0,v0,96
8003aa80:	3800c2a6 	sh	v0,56(s6)
8003aa84:	3800c486 	lh	a0,56(s6)
8003aa88:	3a00c296 	lhu	v0,58(s6)
8003aa8c:	60006324 	addiu	v1,v1,96
8003aa90:	3c00c3a6 	sh	v1,60(s6)
8003aa94:	60004224 	addiu	v0,v0,96
8003aa98:	02008104 	bgez	a0,0x8003aaa4
8003aa9c:	3a00c2a6 	sh	v0,58(s6)
8003aaa0:	03008424 	addiu	a0,a0,3
8003aaa4:	3800c586 	lh	a1,56(s6)
8003aaa8:	83100400 	sra	v0,a0,0x2
8003aaac:	0200a104 	bgez	a1,0x8003aab8
8003aab0:	0c00c2a6 	sh	v0,12(s6)
8003aab4:	0300a524 	addiu	a1,a1,3
8003aab8:	83280500 	sra	a1,a1,0x2
8003aabc:	0080023c 	lui	v0,0x8000
8003aac0:	2528a200 	or	a1,a1,v0
8003aac4:	0c00c496 	lhu	a0,12(s6)
8003aac8:	00010624 	li	a2,256
8003aacc:	c0e0000c 	jal	0x80038300
8003aad0:	1800c5ae 	sw	a1,24(s6)
8003aad4:	21804000 	move	s0,v0
8003aad8:	07000012 	beqz	s0,0x8003aaf8
8003aadc:	80000232 	andi	v0,s0,0x80
8003aae0:	04004010 	beqz	v0,0x8003aaf4
8003aae4:	ff000224 	li	v0,255
8003aae8:	63d8000c 	jal	0x8003618c
8003aaec:	21200002 	move	a0,s0
8003aaf0:	ff000224 	li	v0,255
8003aaf4:	0000c2a2 	sb	v0,0(s6)
8003aaf8:	6666033c 	lui	v1,0x6666
8003aafc:	1000c296 	lhu	v0,16(s6)
8003ab00:	67666334 	ori	v1,v1,0x6667
8003ab04:	00140200 	sll	v0,v0,0x10
8003ab08:	03240200 	sra	a0,v0,0x10
8003ab0c:	18008300 	mult	a0,v1
8003ab10:	c3170200 	sra	v0,v0,0x1f
8003ab14:	10480000 	mfhi	t1
8003ab18:	43180900 	sra	v1,t1,0x1
8003ab1c:	23186200 	subu	v1,v1,v0
8003ab20:	80100300 	sll	v0,v1,0x2
8003ab24:	21104300 	addu	v0,v0,v1
8003ab28:	23208200 	subu	a0,a0,v0
8003ab2c:	00240400 	sll	a0,a0,0x10
8003ab30:	42008014 	bnez	a0,0x8003ac3c
8003ab34:	21800000 	move	s0,zero
8003ab38:	b1e2010c 	jal	0x80078ac4
8003ab3c:	00000000 	nop
8003ab40:	4000c386 	lh	v1,64(s6)
8003ab44:	00000000 	nop
8003ab48:	02006104 	bgez	v1,0x8003ab54
8003ab4c:	00000000 	nop
8003ab50:	03006324 	addiu	v1,v1,3
8003ab54:	02004104 	bgez	v0,0x8003ab60
8003ab58:	83180300 	sra	v1,v1,0x2
8003ab5c:	ff034224 	addiu	v0,v0,1023
8003ab60:	83120200 	sra	v0,v0,0xa
8003ab64:	f0ff4224 	addiu	v0,v0,-16
8003ab68:	23106200 	subu	v0,v1,v0
8003ab6c:	b1e2010c 	jal	0x80078ac4
8003ab70:	2001a2a7 	sh	v0,288(sp)
8003ab74:	4200c386 	lh	v1,66(s6)
8003ab78:	00000000 	nop
8003ab7c:	02006104 	bgez	v1,0x8003ab88
8003ab80:	00000000 	nop
8003ab84:	03006324 	addiu	v1,v1,3
8003ab88:	02004104 	bgez	v0,0x8003ab94
8003ab8c:	83180300 	sra	v1,v1,0x2
8003ab90:	ff034224 	addiu	v0,v0,1023
8003ab94:	83120200 	sra	v0,v0,0xa
8003ab98:	23106200 	subu	v0,v1,v0
8003ab9c:	b1e2010c 	jal	0x80078ac4
8003aba0:	2201a2a7 	sh	v0,290(sp)
8003aba4:	4400c386 	lh	v1,68(s6)
8003aba8:	00000000 	nop
8003abac:	02006104 	bgez	v1,0x8003abb8
8003abb0:	00000000 	nop
8003abb4:	03006324 	addiu	v1,v1,3
8003abb8:	02004104 	bgez	v0,0x8003abc4
8003abbc:	83280300 	sra	a1,v1,0x2
8003abc0:	ff034224 	addiu	v0,v0,1023
8003abc4:	0a000424 	li	a0,10
8003abc8:	831a0200 	sra	v1,v0,0xa
8003abcc:	f0ff6324 	addiu	v1,v1,-16
8003abd0:	2318a300 	subu	v1,a1,v1
8003abd4:	2001a587 	lh	a1,288(sp)
8003abd8:	d7000624 	li	a2,215
8003abdc:	2401a3a7 	sh	v1,292(sp)
8003abe0:	2000c28e 	lw	v0,32(s6)
8003abe4:	2801a727 	addiu	a3,sp,296
8003abe8:	23104500 	subu	v0,v0,a1
8003abec:	2801a2af 	sw	v0,296(sp)
8003abf0:	2400c28e 	lw	v0,36(s6)
8003abf4:	001c0300 	sll	v1,v1,0x10
8003abf8:	2c01a2af 	sw	v0,300(sp)
8003abfc:	2800c28e 	lw	v0,40(s6)
8003ac00:	031c0300 	sra	v1,v1,0x10
8003ac04:	23104300 	subu	v0,v0,v1
8003ac08:	3001a2af 	sw	v0,304(sp)
8003ac0c:	0000c592 	lbu	a1,0(s6)
8003ac10:	2001a227 	addiu	v0,sp,288
8003ac14:	1000a2af 	sw	v0,16(sp)
8003ac18:	00020224 	li	v0,512
8003ac1c:	1400a2af 	sw	v0,20(sp)
8003ac20:	0a00c286 	lh	v0,10(s6)
8003ac24:	01001026 	addiu	s0,s0,1
8003ac28:	f0ff4224 	addiu	v0,v0,-16
8003ac2c:	21d9000c 	jal	0x80036484
8003ac30:	1800a2af 	sw	v0,24(sp)
8003ac34:	c0ff001a 	blez	s0,0x8003ab38
8003ac38:	00000000 	nop
8003ac3c:	1000c386 	lh	v1,16(s6)
8003ac40:	c3ee0008 	j	0x8003bb0c
8003ac44:	20006228 	slti	v0,v1,32
8003ac48:	1c00c28e 	lw	v0,28(s6)
8003ac4c:	1c00c38e 	lw	v1,28(s6)
8003ac50:	2000428c 	lw	v0,32(v0)
8003ac54:	00000000 	nop
8003ac58:	2000c2ae 	sw	v0,32(s6)
8003ac5c:	2400628c 	lw	v0,36(v1)
8003ac60:	5555043c 	lui	a0,0x5555
8003ac64:	2400c2ae 	sw	v0,36(s6)
8003ac68:	2800628c 	lw	v0,40(v1)
8003ac6c:	1000c396 	lhu	v1,16(s6)
8003ac70:	56558434 	ori	a0,a0,0x5556
8003ac74:	001c0300 	sll	v1,v1,0x10
8003ac78:	032c0300 	sra	a1,v1,0x10
8003ac7c:	1800a400 	mult	a1,a0
8003ac80:	2800c2ae 	sw	v0,40(s6)
8003ac84:	1c00c28e 	lw	v0,28(s6)
8003ac88:	1c00c48e 	lw	a0,28(s6)
8003ac8c:	38004294 	lhu	v0,56(v0)
8003ac90:	00000000 	nop
8003ac94:	3800c2a6 	sh	v0,56(s6)
8003ac98:	3a008294 	lhu	v0,58(a0)
8003ac9c:	00000000 	nop
8003aca0:	3a00c2a6 	sh	v0,58(s6)
8003aca4:	3c008294 	lhu	v0,60(a0)
8003aca8:	c31f0300 	sra	v1,v1,0x1f
8003acac:	3c00c2a6 	sh	v0,60(s6)
8003acb0:	10480000 	mfhi	t1
8003acb4:	23182301 	subu	v1,t1,v1
8003acb8:	40100300 	sll	v0,v1,0x1
8003acbc:	21104300 	addu	v0,v0,v1
8003acc0:	2328a200 	subu	a1,a1,v0
8003acc4:	1000c386 	lh	v1,16(s6)
8003acc8:	8000a534 	ori	a1,a1,0x80
8003accc:	20006228 	slti	v0,v1,32
8003acd0:	03004010 	beqz	v0,0x8003ace0
8003acd4:	0200c5a2 	sb	a1,2(s6)
8003acd8:	c0110300 	sll	v0,v1,0x7
8003acdc:	1200c2a6 	sh	v0,18(s6)
8003ace0:	1c00c28e 	lw	v0,28(s6)
8003ace4:	00000000 	nop
8003ace8:	00004390 	lbu	v1,0(v0)
8003acec:	ff000224 	li	v0,255
8003acf0:	ba016214 	bne	v1,v0,0x8003b3dc
8003acf4:	00000000 	nop
8003acf8:	f7ee0008 	j	0x8003bbdc
8003acfc:	0000c3a2 	sb	v1,0(s6)
8003ad00:	0c00c496 	lhu	a0,12(s6)
8003ad04:	1800c58e 	lw	a1,24(s6)
8003ad08:	5000c682 	lb	a2,80(s6)
8003ad0c:	3800c296 	lhu	v0,56(s6)
8003ad10:	3a00c396 	lhu	v1,58(s6)
8003ad14:	60004224 	addiu	v0,v0,96
8003ad18:	60006324 	addiu	v1,v1,96
8003ad1c:	3800c2a6 	sh	v0,56(s6)
8003ad20:	6ae0000c 	jal	0x800381a8
8003ad24:	3a00c3a6 	sh	v1,58(s6)
8003ad28:	1000c286 	lh	v0,16(s6)
8003ad2c:	4200c396 	lhu	v1,66(s6)
8003ad30:	00120200 	sll	v0,v0,0x8
8003ad34:	e4ed0008 	j	0x8003b790
8003ad38:	02006324 	addiu	v1,v1,2
8003ad3c:	3800c296 	lhu	v0,56(s6)
8003ad40:	00000000 	nop
8003ad44:	60004224 	addiu	v0,v0,96
8003ad48:	3800c2a6 	sh	v0,56(s6)
8003ad4c:	3a00c296 	lhu	v0,58(s6)
8003ad50:	3800c386 	lh	v1,56(s6)
8003ad54:	60004224 	addiu	v0,v0,96
8003ad58:	3a00c2a6 	sh	v0,58(s6)
8003ad5c:	c0100300 	sll	v0,v1,0x3
8003ad60:	23104300 	subu	v0,v0,v1
8003ad64:	c0110200 	sll	v0,v0,0x7
8003ad68:	02004104 	bgez	v0,0x8003ad74
8003ad6c:	00000000 	nop
8003ad70:	ff0f4224 	addiu	v0,v0,4095
8003ad74:	3800c386 	lh	v1,56(s6)
8003ad78:	03130200 	sra	v0,v0,0xc
8003ad7c:	0c00c2a6 	sh	v0,12(s6)
8003ad80:	c0100300 	sll	v0,v1,0x3
8003ad84:	23104300 	subu	v0,v0,v1
8003ad88:	c0110200 	sll	v0,v0,0x7
8003ad8c:	03004104 	bgez	v0,0x8003ad9c
8003ad90:	032b0200 	sra	a1,v0,0xc
8003ad94:	ff0f4224 	addiu	v0,v0,4095
8003ad98:	032b0200 	sra	a1,v0,0xc
8003ad9c:	0080023c 	lui	v0,0x8000
8003ada0:	0c00c496 	lhu	a0,12(s6)
8003ada4:	5000c682 	lb	a2,80(s6)
8003ada8:	2528a200 	or	a1,a1,v0
8003adac:	c0e0000c 	jal	0x80038300
8003adb0:	1800c5ae 	sw	a1,24(s6)
8003adb4:	21804000 	move	s0,v0
8003adb8:	09000012 	beqz	s0,0x8003ade0
8003adbc:	80000232 	andi	v0,s0,0x80
8003adc0:	06004010 	beqz	v0,0x8003addc
8003adc4:	ff000224 	li	v0,255
8003adc8:	63d8000c 	jal	0x8003618c
8003adcc:	21200002 	move	a0,s0
8003add0:	03000224 	li	v0,3
8003add4:	0800c2a2 	sb	v0,8(s6)
8003add8:	ff000224 	li	v0,255
8003addc:	0000c2a2 	sb	v0,0(s6)
8003ade0:	6666033c 	lui	v1,0x6666
8003ade4:	1000c296 	lhu	v0,16(s6)
8003ade8:	67666334 	ori	v1,v1,0x6667
8003adec:	00140200 	sll	v0,v0,0x10
8003adf0:	03240200 	sra	a0,v0,0x10
8003adf4:	18008300 	mult	a0,v1
8003adf8:	c3170200 	sra	v0,v0,0x1f
8003adfc:	10480000 	mfhi	t1
8003ae00:	43180900 	sra	v1,t1,0x1
8003ae04:	23186200 	subu	v1,v1,v0
8003ae08:	80100300 	sll	v0,v1,0x2
8003ae0c:	21104300 	addu	v0,v0,v1
8003ae10:	23208200 	subu	a0,a0,v0
8003ae14:	00240400 	sll	a0,a0,0x10
8003ae18:	44008014 	bnez	a0,0x8003af2c
8003ae1c:	00000000 	nop
8003ae20:	21800000 	move	s0,zero
8003ae24:	b1e2010c 	jal	0x80078ac4
8003ae28:	00000000 	nop
8003ae2c:	4000c386 	lh	v1,64(s6)
8003ae30:	00000000 	nop
8003ae34:	02006104 	bgez	v1,0x8003ae40
8003ae38:	00000000 	nop
8003ae3c:	03006324 	addiu	v1,v1,3
8003ae40:	02004104 	bgez	v0,0x8003ae4c
8003ae44:	83180300 	sra	v1,v1,0x2
8003ae48:	ff034224 	addiu	v0,v0,1023
8003ae4c:	83120200 	sra	v0,v0,0xa
8003ae50:	f0ff4224 	addiu	v0,v0,-16
8003ae54:	23106200 	subu	v0,v1,v0
8003ae58:	b1e2010c 	jal	0x80078ac4
8003ae5c:	3801a2a7 	sh	v0,312(sp)
8003ae60:	4200c386 	lh	v1,66(s6)
8003ae64:	00000000 	nop
8003ae68:	02006104 	bgez	v1,0x8003ae74
8003ae6c:	00000000 	nop
8003ae70:	03006324 	addiu	v1,v1,3
8003ae74:	02004104 	bgez	v0,0x8003ae80
8003ae78:	83180300 	sra	v1,v1,0x2
8003ae7c:	ff034224 	addiu	v0,v0,1023
8003ae80:	83120200 	sra	v0,v0,0xa
8003ae84:	30004224 	addiu	v0,v0,48
8003ae88:	23106200 	subu	v0,v1,v0
8003ae8c:	b1e2010c 	jal	0x80078ac4
8003ae90:	3a01a2a7 	sh	v0,314(sp)
8003ae94:	4400c386 	lh	v1,68(s6)
8003ae98:	00000000 	nop
8003ae9c:	02006104 	bgez	v1,0x8003aea8
8003aea0:	00000000 	nop
8003aea4:	03006324 	addiu	v1,v1,3
8003aea8:	02004104 	bgez	v0,0x8003aeb4
8003aeac:	83280300 	sra	a1,v1,0x2
8003aeb0:	ff034224 	addiu	v0,v0,1023
8003aeb4:	0a000424 	li	a0,10
8003aeb8:	831a0200 	sra	v1,v0,0xa
8003aebc:	f0ff6324 	addiu	v1,v1,-16
8003aec0:	2318a300 	subu	v1,a1,v1
8003aec4:	3801a587 	lh	a1,312(sp)
8003aec8:	d5000624 	li	a2,213
8003aecc:	3c01a3a7 	sh	v1,316(sp)
8003aed0:	2000c28e 	lw	v0,32(s6)
8003aed4:	4001a727 	addiu	a3,sp,320
8003aed8:	23104500 	subu	v0,v0,a1
8003aedc:	4001a2af 	sw	v0,320(sp)
8003aee0:	2400c28e 	lw	v0,36(s6)
8003aee4:	001c0300 	sll	v1,v1,0x10
8003aee8:	4401a2af 	sw	v0,324(sp)
8003aeec:	2800c28e 	lw	v0,40(s6)
8003aef0:	031c0300 	sra	v1,v1,0x10
8003aef4:	23104300 	subu	v0,v0,v1
8003aef8:	4801a2af 	sw	v0,328(sp)
8003aefc:	0000c592 	lbu	a1,0(s6)
8003af00:	3801a227 	addiu	v0,sp,312
8003af04:	1000a2af 	sw	v0,16(sp)
8003af08:	00100224 	li	v0,4096
8003af0c:	1400a2af 	sw	v0,20(sp)
8003af10:	0a00c286 	lh	v0,10(s6)
8003af14:	01001026 	addiu	s0,s0,1
8003af18:	f0ff4224 	addiu	v0,v0,-16
8003af1c:	21d9000c 	jal	0x80036484
8003af20:	1800a2af 	sw	v0,24(sp)
8003af24:	bfff001a 	blez	s0,0x8003ae24
8003af28:	00000000 	nop
8003af2c:	1000c386 	lh	v1,16(s6)
8003af30:	00000000 	nop
8003af34:	20006228 	slti	v0,v1,32
8003af38:	02004010 	beqz	v0,0x8003af44
8003af3c:	c0110300 	sll	v0,v1,0x7
8003af40:	1200c2a6 	sh	v0,18(s6)
8003af44:	4200c296 	lhu	v0,66(s6)
8003af48:	00000000 	nop
8003af4c:	02004224 	addiu	v0,v0,2
8003af50:	f7ee0008 	j	0x8003bbdc
8003af54:	4200c2a6 	sh	v0,66(s6)
8003af58:	0c00c496 	lhu	a0,12(s6)
8003af5c:	1800c58e 	lw	a1,24(s6)
8003af60:	5000c682 	lb	a2,80(s6)
8003af64:	3800c296 	lhu	v0,56(s6)
8003af68:	3a00c396 	lhu	v1,58(s6)
8003af6c:	60004224 	addiu	v0,v0,96
8003af70:	60006324 	addiu	v1,v1,96
8003af74:	3800c2a6 	sh	v0,56(s6)
8003af78:	6ae0000c 	jal	0x800381a8
8003af7c:	3a00c3a6 	sh	v1,58(s6)
8003af80:	1000c286 	lh	v0,16(s6)
8003af84:	4200c396 	lhu	v1,66(s6)
8003af88:	00120200 	sll	v0,v0,0x8
8003af8c:	f0ff6324 	addiu	v1,v1,-16
8003af90:	1200c2a6 	sh	v0,18(s6)
8003af94:	f7ee0008 	j	0x8003bbdc
8003af98:	4200c3a6 	sh	v1,66(s6)
8003af9c:	1000c286 	lh	v0,16(s6)
8003afa0:	20000424 	li	a0,32
8003afa4:	23208200 	subu	a0,a0,v0
8003afa8:	31d1010c 	jal	0x800744c4
8003afac:	80210400 	sll	a0,a0,0x6
8003afb0:	3800c396 	lhu	v1,56(s6)
8003afb4:	3a00c2a6 	sh	v0,58(s6)
8003afb8:	3c00c296 	lhu	v0,60(s6)
8003afbc:	c0006324 	addiu	v1,v1,192
8003afc0:	3800c3a6 	sh	v1,56(s6)
8003afc4:	3800c386 	lh	v1,56(s6)
8003afc8:	c0004224 	addiu	v0,v0,192
8003afcc:	3c00c2a6 	sh	v0,60(s6)
8003afd0:	40100300 	sll	v0,v1,0x1
8003afd4:	21104300 	addu	v0,v0,v1
8003afd8:	40120200 	sll	v0,v0,0x9
8003afdc:	02004104 	bgez	v0,0x8003afe8
8003afe0:	00000000 	nop
8003afe4:	ff0f4224 	addiu	v0,v0,4095
8003afe8:	3800c386 	lh	v1,56(s6)
8003afec:	03130200 	sra	v0,v0,0xc
8003aff0:	0c00c2a6 	sh	v0,12(s6)
8003aff4:	40100300 	sll	v0,v1,0x1
8003aff8:	21104300 	addu	v0,v0,v1
8003affc:	40120200 	sll	v0,v0,0x9
8003b000:	02004104 	bgez	v0,0x8003b00c
8003b004:	21300000 	move	a2,zero
8003b008:	ff0f4224 	addiu	v0,v0,4095
8003b00c:	03130200 	sra	v0,v0,0xc
8003b010:	0080033c 	lui	v1,0x8000
8003b014:	0c00c496 	lhu	a0,12(s6)
8003b018:	25104300 	or	v0,v0,v1
8003b01c:	1800c2ae 	sw	v0,24(s6)
8003b020:	3200c296 	lhu	v0,50(s6)
8003b024:	1800c58e 	lw	a1,24(s6)
8003b028:	80004224 	addiu	v0,v0,128
8003b02c:	6ae0000c 	jal	0x800381a8
8003b030:	3200c2a6 	sh	v0,50(s6)
8003b034:	21804000 	move	s0,v0
8003b038:	09000012 	beqz	s0,0x8003b060
8003b03c:	80000232 	andi	v0,s0,0x80
8003b040:	06004010 	beqz	v0,0x8003b05c
8003b044:	ff000224 	li	v0,255
8003b048:	63d8000c 	jal	0x8003618c
8003b04c:	21200002 	move	a0,s0
8003b050:	03000224 	li	v0,3
8003b054:	0800c2a2 	sb	v0,8(s6)
8003b058:	ff000224 	li	v0,255
8003b05c:	0000c2a2 	sb	v0,0(s6)
8003b060:	1000c386 	lh	v1,16(s6)
8003b064:	c3ee0008 	j	0x8003bb0c
8003b068:	20006228 	slti	v0,v1,32
8003b06c:	0c00c496 	lhu	a0,12(s6)
8003b070:	1800c58e 	lw	a1,24(s6)
8003b074:	c0e0000c 	jal	0x80038300
8003b078:	00ff0624 	li	a2,-256
8003b07c:	21804000 	move	s0,v0
8003b080:	07000012 	beqz	s0,0x8003b0a0
8003b084:	80000232 	andi	v0,s0,0x80
8003b088:	04004010 	beqz	v0,0x8003b09c
8003b08c:	ff000224 	li	v0,255
8003b090:	63d8000c 	jal	0x8003618c
8003b094:	21200002 	move	a0,s0
8003b098:	ff000224 	li	v0,255
8003b09c:	0000c2a2 	sb	v0,0(s6)
8003b0a0:	1000c386 	lh	v1,16(s6)
8003b0a4:	c3ee0008 	j	0x8003bb0c
8003b0a8:	20006228 	slti	v0,v1,32
8003b0ac:	5555023c 	lui	v0,0x5555
8003b0b0:	1000c396 	lhu	v1,16(s6)
8003b0b4:	56554234 	ori	v0,v0,0x5556
8003b0b8:	001c0300 	sll	v1,v1,0x10
8003b0bc:	033c0300 	sra	a3,v1,0x10
8003b0c0:	1800e200 	mult	a3,v0
8003b0c4:	00ff0624 	li	a2,-256
8003b0c8:	0c00c496 	lhu	a0,12(s6)
8003b0cc:	1800c58e 	lw	a1,24(s6)
8003b0d0:	c31f0300 	sra	v1,v1,0x1f
8003b0d4:	10480000 	mfhi	t1
8003b0d8:	23182301 	subu	v1,t1,v1
8003b0dc:	40100300 	sll	v0,v1,0x1
8003b0e0:	21104300 	addu	v0,v0,v1
8003b0e4:	2338e200 	subu	a3,a3,v0
8003b0e8:	8000e734 	ori	a3,a3,0x80
8003b0ec:	c0e0000c 	jal	0x80038300
8003b0f0:	0200c7a2 	sb	a3,2(s6)
8003b0f4:	21804000 	move	s0,v0
8003b0f8:	07000012 	beqz	s0,0x8003b118
8003b0fc:	80000232 	andi	v0,s0,0x80
8003b100:	04004010 	beqz	v0,0x8003b114
8003b104:	ff000224 	li	v0,255
8003b108:	63d8000c 	jal	0x8003618c
8003b10c:	21200002 	move	a0,s0
8003b110:	ff000224 	li	v0,255
8003b114:	0000c2a2 	sb	v0,0(s6)
8003b118:	1000c386 	lh	v1,16(s6)
8003b11c:	c3ee0008 	j	0x8003bb0c
8003b120:	20006228 	slti	v0,v1,32
8003b124:	1c00c48e 	lw	a0,28(s6)
8003b128:	00000000 	nop
8003b12c:	00008390 	lbu	v1,0(a0)
8003b130:	ff000224 	li	v0,255
8003b134:	f0fe6210 	beq	v1,v0,0x8003acf8
8003b138:	00000000 	nop
8003b13c:	34008484 	lh	a0,52(a0)
8003b140:	31d1010c 	jal	0x800744c4
8003b144:	00000000 	nop
8003b148:	1c00c48e 	lw	a0,28(s6)
8003b14c:	00000000 	nop
8003b150:	38008384 	lh	v1,56(a0)
8003b154:	00000000 	nop
8003b158:	18006200 	mult	v1,v0
8003b15c:	12180000 	mflo	v1
8003b160:	02006104 	bgez	v1,0x8003b16c
8003b164:	00000000 	nop
8003b168:	ff0f6324 	addiu	v1,v1,4095
8003b16c:	32008484 	lh	a0,50(a0)
8003b170:	31d1010c 	jal	0x800744c4
8003b174:	03830300 	sra	s0,v1,0xc
8003b178:	18000202 	mult	s0,v0
8003b17c:	12180000 	mflo	v1
8003b180:	02006104 	bgez	v1,0x8003b18c
8003b184:	00000000 	nop
8003b188:	ff0f6324 	addiu	v1,v1,4095
8003b18c:	1c00c28e 	lw	v0,28(s6)
8003b190:	00000000 	nop
8003b194:	32004484 	lh	a0,50(v0)
8003b198:	fdd0010c 	jal	0x800743f4
8003b19c:	038b0300 	sra	s1,v1,0xc
8003b1a0:	18000202 	mult	s0,v0
8003b1a4:	12180000 	mflo	v1
8003b1a8:	02006104 	bgez	v1,0x8003b1b4
8003b1ac:	00000000 	nop
8003b1b0:	ff0f6324 	addiu	v1,v1,4095
8003b1b4:	1c00c28e 	lw	v0,28(s6)
8003b1b8:	00000000 	nop
8003b1bc:	34004484 	lh	a0,52(v0)
8003b1c0:	fdd0010c 	jal	0x800743f4
8003b1c4:	03830300 	sra	s0,v1,0xc
8003b1c8:	1c00c28e 	lw	v0,28(s6)
8003b1cc:	00000000 	nop
8003b1d0:	2000428c 	lw	v0,32(v0)
8003b1d4:	1c00c38e 	lw	v1,28(s6)
8003b1d8:	21105100 	addu	v0,v0,s1
8003b1dc:	2000c2ae 	sw	v0,32(s6)
8003b1e0:	34006484 	lh	a0,52(v1)
8003b1e4:	aeee0008 	j	0x8003bab8
8003b1e8:	00000000 	nop
8003b1ec:	1c00c48e 	lw	a0,28(s6)
8003b1f0:	00000000 	nop
8003b1f4:	00008390 	lbu	v1,0(a0)
8003b1f8:	ff000224 	li	v0,255
8003b1fc:	befe6210 	beq	v1,v0,0x8003acf8
8003b200:	00000000 	nop
8003b204:	34008484 	lh	a0,52(a0)
8003b208:	31d1010c 	jal	0x800744c4
8003b20c:	00088424 	addiu	a0,a0,2048
8003b210:	1c00c48e 	lw	a0,28(s6)
8003b214:	00000000 	nop
8003b218:	38008384 	lh	v1,56(a0)
8003b21c:	00000000 	nop
8003b220:	18006200 	mult	v1,v0
8003b224:	12180000 	mflo	v1
8003b228:	02006104 	bgez	v1,0x8003b234
8003b22c:	00000000 	nop
8003b230:	ff0f6324 	addiu	v1,v1,4095
8003b234:	32008484 	lh	a0,50(a0)
8003b238:	31d1010c 	jal	0x800744c4
8003b23c:	03830300 	sra	s0,v1,0xc
8003b240:	18000202 	mult	s0,v0
8003b244:	12180000 	mflo	v1
8003b248:	02006104 	bgez	v1,0x8003b254
8003b24c:	00000000 	nop
8003b250:	ff0f6324 	addiu	v1,v1,4095
8003b254:	1c00c28e 	lw	v0,28(s6)
8003b258:	00000000 	nop
8003b25c:	32004484 	lh	a0,50(v0)
8003b260:	fdd0010c 	jal	0x800743f4
8003b264:	038b0300 	sra	s1,v1,0xc
8003b268:	18000202 	mult	s0,v0
8003b26c:	12180000 	mflo	v1
8003b270:	02006104 	bgez	v1,0x8003b27c
8003b274:	00000000 	nop
8003b278:	ff0f6324 	addiu	v1,v1,4095
8003b27c:	1c00c28e 	lw	v0,28(s6)
8003b280:	00000000 	nop
8003b284:	34004484 	lh	a0,52(v0)
8003b288:	03830300 	sra	s0,v1,0xc
8003b28c:	fdd0010c 	jal	0x800743f4
8003b290:	00088424 	addiu	a0,a0,2048
8003b294:	1c00c28e 	lw	v0,28(s6)
8003b298:	00000000 	nop
8003b29c:	2000428c 	lw	v0,32(v0)
8003b2a0:	1c00c38e 	lw	v1,28(s6)
8003b2a4:	21105100 	addu	v0,v0,s1
8003b2a8:	2000c2ae 	sw	v0,32(s6)
8003b2ac:	34006484 	lh	a0,52(v1)
8003b2b0:	00000000 	nop
8003b2b4:	00088424 	addiu	a0,a0,2048
8003b2b8:	fdd0010c 	jal	0x800743f4
8003b2bc:	00000000 	nop
8003b2c0:	1c00c48e 	lw	a0,28(s6)
8003b2c4:	00000000 	nop
8003b2c8:	38008384 	lh	v1,56(a0)
8003b2cc:	00000000 	nop
8003b2d0:	18006200 	mult	v1,v0
8003b2d4:	12180000 	mflo	v1
8003b2d8:	02006104 	bgez	v1,0x8003b2e4
8003b2dc:	00000000 	nop
8003b2e0:	ff0f6324 	addiu	v1,v1,4095
8003b2e4:	031b0300 	sra	v1,v1,0xc
8003b2e8:	2400828c 	lw	v0,36(a0)
8003b2ec:	1c00c48e 	lw	a0,28(s6)
8003b2f0:	21104300 	addu	v0,v0,v1
8003b2f4:	2400c2ae 	sw	v0,36(s6)
8003b2f8:	2800828c 	lw	v0,40(a0)
8003b2fc:	1000c386 	lh	v1,16(s6)
8003b300:	21105000 	addu	v0,v0,s0
8003b304:	2800c2ae 	sw	v0,40(s6)
8003b308:	20006228 	slti	v0,v1,32
8003b30c:	33004010 	beqz	v0,0x8003b3dc
8003b310:	c0110300 	sll	v0,v1,0x7
8003b314:	f7ee0008 	j	0x8003bbdc
8003b318:	1200c2a6 	sh	v0,18(s6)
8003b31c:	5e000224 	li	v0,94
8003b320:	08002212 	beq	s1,v0,0x8003b344
8003b324:	40000424 	li	a0,64
8003b328:	1000c286 	lh	v0,16(s6)
8003b32c:	fdd0010c 	jal	0x800743f4
8003b330:	23208200 	subu	a0,a0,v0
8003b334:	3200c396 	lhu	v1,50(s6)
8003b338:	00000000 	nop
8003b33c:	21186200 	addu	v1,v1,v0
8003b340:	3200c3a6 	sh	v1,50(s6)
8003b344:	0080053c 	lui	a1,0x8000
8003b348:	3800c296 	lhu	v0,56(s6)
8003b34c:	3a00c396 	lhu	v1,58(s6)
8003b350:	80004224 	addiu	v0,v0,128
8003b354:	80006324 	addiu	v1,v1,128
8003b358:	3a00c3a6 	sh	v1,58(s6)
8003b35c:	001c0300 	sll	v1,v1,0x10
8003b360:	03340300 	sra	a2,v1,0x10
8003b364:	c21f0300 	srl	v1,v1,0x1f
8003b368:	2130c300 	addu	a2,a2,v1
8003b36c:	43380600 	sra	a3,a2,0x1
8003b370:	2528e500 	or	a1,a3,a1
8003b374:	c2370600 	srl	a2,a2,0x1f
8003b378:	2130e600 	addu	a2,a3,a2
8003b37c:	3800c2a6 	sh	v0,56(s6)
8003b380:	3c00c296 	lhu	v0,60(s6)
8003b384:	3800c396 	lhu	v1,56(s6)
8003b388:	80004224 	addiu	v0,v0,128
8003b38c:	001c0300 	sll	v1,v1,0x10
8003b390:	3c00c2a6 	sh	v0,60(s6)
8003b394:	03140300 	sra	v0,v1,0x10
8003b398:	c21f0300 	srl	v1,v1,0x1f
8003b39c:	21104300 	addu	v0,v0,v1
8003b3a0:	43100200 	sra	v0,v0,0x1
8003b3a4:	0c00c2a6 	sh	v0,12(s6)
8003b3a8:	0c00c496 	lhu	a0,12(s6)
8003b3ac:	43300600 	sra	a2,a2,0x1
8003b3b0:	41d7000c 	jal	0x80035d04
8003b3b4:	1800c7ae 	sw	a3,24(s6)
8003b3b8:	21804000 	move	s0,v0
8003b3bc:	07000012 	beqz	s0,0x8003b3dc
8003b3c0:	80000232 	andi	v0,s0,0x80
8003b3c4:	05004010 	beqz	v0,0x8003b3dc
8003b3c8:	00000000 	nop
8003b3cc:	63d8000c 	jal	0x8003618c
8003b3d0:	21200002 	move	a0,s0
8003b3d4:	03000224 	li	v0,3
8003b3d8:	0800c2a2 	sb	v0,8(s6)
8003b3dc:	8c01bf8f 	lw	ra,396(sp)
8003b3e0:	8801be8f 	lw	s8,392(sp)
8003b3e4:	8401b78f 	lw	s7,388(sp)
8003b3e8:	8001b68f 	lw	s6,384(sp)
8003b3ec:	7c01b58f 	lw	s5,380(sp)
8003b3f0:	7801b48f 	lw	s4,376(sp)
8003b3f4:	7401b38f 	lw	s3,372(sp)
8003b3f8:	7001b28f 	lw	s2,368(sp)
8003b3fc:	6c01b18f 	lw	s1,364(sp)
8003b400:	6801b08f 	lw	s0,360(sp)
8003b404:	9001bd27 	addiu	sp,sp,400
8003b408:	0800e003 	jr	ra
8003b40c:	00000000 	nop
8003b410:	1980023c 	lui	v0,0x8019
8003b414:	18e34424 	addiu	a0,v0,-7400
8003b418:	21180000 	move	v1,zero
8003b41c:	ff000524 	li	a1,255
8003b420:	000085a0 	sb	a1,0(a0)
8003b424:	01006324 	addiu	v1,v1,1
8003b428:	ffff6230 	andi	v0,v1,0xffff
8003b42c:	8000422c 	sltiu	v0,v0,128
8003b430:	fbff4014 	bnez	v0,0x8003b420
8003b434:	58008424 	addiu	a0,a0,88
8003b438:	0800e003 	jr	ra
8003b43c:	00000000 	nop
8003b440:	d8ffbd27 	addiu	sp,sp,-40
8003b444:	1980023c 	lui	v0,0x8019
8003b448:	1400b1af 	sw	s1,20(sp)
8003b44c:	18e35124 	addiu	s1,v0,-7400
8003b450:	80ef2226 	addiu	v0,s1,-4224
8003b454:	1c00b3af 	sw	s3,28(sp)
8003b458:	ff001324 	li	s3,255
8003b45c:	1800b2af 	sw	s2,24(sp)
8003b460:	21904000 	move	s2,v0
8003b464:	1000b0af 	sw	s0,16(sp)
8003b468:	10003026 	addiu	s0,s1,16
8003b46c:	2000bfaf 	sw	ra,32(sp)
8003b470:	883c40ac 	sw	zero,15496(v0)
8003b474:	00002292 	lbu	v0,0(s1)
8003b478:	00000000 	nop
8003b47c:	15005310 	beq	v0,s3,0x8003b4d4
8003b480:	00000000 	nop
8003b484:	843c51ae 	sw	s1,15492(s2)
8003b488:	f1ff0392 	lbu	v1,-15(s0)
8003b48c:	00000000 	nop
8003b490:	40100300 	sll	v0,v1,0x1
8003b494:	21104300 	addu	v0,v0,v1
8003b498:	c0100200 	sll	v0,v0,0x3
8003b49c:	21105200 	addu	v0,v0,s2
8003b4a0:	803c42ae 	sw	v0,15488(s2)
8003b4a4:	00000296 	lhu	v0,0(s0)
8003b4a8:	ffff0324 	li	v1,-1
8003b4ac:	ffff4224 	addiu	v0,v0,-1
8003b4b0:	000002a6 	sh	v0,0(s0)
8003b4b4:	00140200 	sll	v0,v0,0x10
8003b4b8:	03140200 	sra	v0,v0,0x10
8003b4bc:	03004314 	bne	v0,v1,0x8003b4cc
8003b4c0:	00000000 	nop
8003b4c4:	35ef0008 	j	0x8003bcd4
8003b4c8:	000033a2 	sb	s3,0(s1)
8003b4cc:	6ce1000c 	jal	0x800385b0
8003b4d0:	00000000 	nop
8003b4d4:	58001026 	addiu	s0,s0,88
8003b4d8:	883c428e 	lw	v0,15496(s2)
8003b4dc:	00000000 	nop
8003b4e0:	01004224 	addiu	v0,v0,1
8003b4e4:	883c42ae 	sw	v0,15496(s2)
8003b4e8:	80004228 	slti	v0,v0,128
8003b4ec:	e1ff4014 	bnez	v0,0x8003b474
8003b4f0:	58003126 	addiu	s1,s1,88
8003b4f4:	2000bf8f 	lw	ra,32(sp)
8003b4f8:	1c00b38f 	lw	s3,28(sp)
8003b4fc:	1800b28f 	lw	s2,24(sp)
8003b500:	1400b18f 	lw	s1,20(sp)
8003b504:	1000b08f 	lw	s0,16(sp)
8003b508:	2800bd27 	addiu	sp,sp,40
8003b50c:	0800e003 	jr	ra
8003b510:	00000000 	nop
8003b514:	e8ffbd27 	addiu	sp,sp,-24
8003b518:	1a80023c 	lui	v0,0x801a
8003b51c:	1000b0af 	sw	s0,16(sp)
8003b520:	288f5024 	addiu	s0,v0,-28888
8003b524:	1400bfaf 	sw	ra,20(sp)
8003b528:	18020292 	lbu	v0,536(s0)
8003b52c:	04000324 	li	v1,4
8003b530:	1a004310 	beq	v0,v1,0x8003b59c
8003b534:	00000000 	nop
8003b538:	180203a2 	sb	v1,536(s0)
8003b53c:	035f010c 	jal	0x80057c0c
8003b540:	020000a6 	sh	zero,2(s0)
8003b544:	aa2a033c 	lui	v1,0x2aaa
8003b548:	abaa6334 	ori	v1,v1,0xaaab
8003b54c:	68020296 	lhu	v0,616(s0)
8003b550:	00fc0424 	li	a0,-1024
8003b554:	ff074230 	andi	v0,v0,0x7ff
8003b558:	23208200 	subu	a0,a0,v0
8003b55c:	18008300 	mult	a0,v1
8003b560:	0100033c 	lui	v1,0x1
8003b564:	00806334 	ori	v1,v1,0x8000
8003b568:	1680023c 	lui	v0,0x8016
8003b56c:	90d04224 	addiu	v0,v0,-12144
8003b570:	21104300 	addu	v0,v0,v1
8003b574:	01000324 	li	v1,1
8003b578:	156e43a0 	sb	v1,28181(v0)
8003b57c:	aa000224 	li	v0,170
8003b580:	c3270400 	sra	a0,a0,0x1f
8003b584:	860200a6 	sh	zero,646(s0)
8003b588:	7c0102a6 	sh	v0,380(s0)
8003b58c:	10280000 	mfhi	a1
8003b590:	83100500 	sra	v0,a1,0x2
8003b594:	23104400 	subu	v0,v0,a0
8003b598:	7a0102a6 	sh	v0,378(s0)
8003b59c:	1400bf8f 	lw	ra,20(sp)
8003b5a0:	1000b08f 	lw	s0,16(sp)
8003b5a4:	1800bd27 	addiu	sp,sp,24
8003b5a8:	0800e003 	jr	ra
8003b5ac:	00000000 	nop
8003b5b0:	e8ffbd27 	addiu	sp,sp,-24
8003b5b4:	1a80023c 	lui	v0,0x801a
8003b5b8:	1000b0af 	sw	s0,16(sp)
8003b5bc:	288f5024 	addiu	s0,v0,-28888
8003b5c0:	1400bfaf 	sw	ra,20(sp)
8003b5c4:	d4020286 	lh	v0,724(s0)
8003b5c8:	00000000 	nop
8003b5cc:	80044228 	slti	v0,v0,1152
8003b5d0:	0a004014 	bnez	v0,0x8003b5fc
8003b5d4:	1b80023c 	lui	v0,0x801b
8003b5d8:	7859428c 	lw	v0,22904(v0)
8003b5dc:	00000000 	nop
8003b5e0:	40064228 	slti	v0,v0,1600
8003b5e4:	05004014 	bnez	v0,0x8003b5fc
8003b5e8:	00000000 	nop
8003b5ec:	45ef000c 	jal	0x8003bd14
8003b5f0:	21200000 	move	a0,zero
8003b5f4:	01000224 	li	v0,1
8003b5f8:	380202a2 	sb	v0,568(s0)
8003b5fc:	1400bf8f 	lw	ra,20(sp)
8003b600:	1000b08f 	lw	s0,16(sp)
8003b604:	1800bd27 	addiu	sp,sp,24
8003b608:	0800e003 	jr	ra
8003b60c:	00000000 	nop
8003b610:	1b80023c 	lui	v0,0x801b
8003b614:	9459448c 	lw	a0,22932(v0)
8003b618:	0800023c 	lui	v0,0x8
8003b61c:	0a008210 	beq	a0,v0,0x8003b648
8003b620:	1a80023c 	lui	v0,0x801a
8003b624:	288f4324 	addiu	v1,v0,-28888
8003b628:	4c02628c 	lw	v0,588(v1)
8003b62c:	00000000 	nop
8003b630:	2a108200 	slt	v0,a0,v0
8003b634:	03004010 	beqz	v0,0x8003b644
8003b638:	01000224 	li	v0,1
8003b63c:	92ef0008 	j	0x8003be48
8003b640:	ec0262ac 	sw	v0,748(v1)
8003b644:	ec0260ac 	sw	zero,748(v1)
8003b648:	1b80023c 	lui	v0,0x801b
8003b64c:	a059448c 	lw	a0,22944(v0)
8003b650:	0800023c 	lui	v0,0x8
8003b654:	0a008210 	beq	a0,v0,0x8003b680
8003b658:	1a80023c 	lui	v0,0x801a
8003b65c:	288f4324 	addiu	v1,v0,-28888
8003b660:	4c02628c 	lw	v0,588(v1)
8003b664:	00000000 	nop
8003b668:	2a108200 	slt	v0,a0,v0
8003b66c:	03004010 	beqz	v0,0x8003b67c
8003b670:	01000224 	li	v0,1
8003b674:	a0ef0008 	j	0x8003be80
8003b678:	f00262ac 	sw	v0,752(v1)
8003b67c:	f00260ac 	sw	zero,752(v1)
8003b680:	1b80023c 	lui	v0,0x801b
8003b684:	24594390 	lbu	v1,22820(v0)
8003b688:	0a000224 	li	v0,10
8003b68c:	07006214 	bne	v1,v0,0x8003b6ac
8003b690:	1a80023c 	lui	v0,0x801a
8003b694:	288f4424 	addiu	a0,v0,-28888
8003b698:	78018384 	lh	v1,376(a0)
8003b69c:	47010224 	li	v0,327
8003b6a0:	02006214 	bne	v1,v0,0x8003b6ac
8003b6a4:	00000000 	nop
8003b6a8:	f00280ac 	sw	zero,752(a0)
8003b6ac:	0800e003 	jr	ra
8003b6b0:	00000000 	nop
8003b6b4:	d8ffbd27 	addiu	sp,sp,-40
8003b6b8:	1800b2af 	sw	s2,24(sp)
8003b6bc:	21908000 	move	s2,a0
8003b6c0:	1a80023c 	lui	v0,0x801a
8003b6c4:	1c00b3af 	sw	s3,28(sp)
8003b6c8:	288f5324 	addiu	s3,v0,-28888
8003b6cc:	2000bfaf 	sw	ra,32(sp)
8003b6d0:	1400b1af 	sw	s1,20(sp)
8003b6d4:	1000b0af 	sw	s0,16(sp)
8003b6d8:	4802638e 	lw	v1,584(s3)
8003b6dc:	0400428e 	lw	v0,4(s2)
8003b6e0:	00000000 	nop
8003b6e4:	23886200 	subu	s1,v1,v0
8003b6e8:	00282226 	addiu	v0,s1,10240
8003b6ec:	0150422c 	sltiu	v0,v0,20481
8003b6f0:	3b004010 	beqz	v0,0x8003b7e0
8003b6f4:	ffff0224 	li	v0,-1
8003b6f8:	5002638e 	lw	v1,592(s3)
8003b6fc:	0c00428e 	lw	v0,12(s2)
8003b700:	00000000 	nop
8003b704:	23806200 	subu	s0,v1,v0
8003b708:	00280226 	addiu	v0,s0,10240
8003b70c:	0150422c 	sltiu	v0,v0,20481
8003b710:	32004010 	beqz	v0,0x8003b7dc
8003b714:	18003102 	mult	s1,s1
8003b718:	12100000 	mflo	v0
	...
8003b724:	18001002 	mult	s0,s0
8003b728:	12180000 	mflo	v1
8003b72c:	b1d1010c 	jal	0x800746c4
8003b730:	21204300 	addu	a0,v0,v1
8003b734:	21200002 	move	a0,s0
8003b738:	21804000 	move	s0,v0
8003b73c:	a9db010c 	jal	0x80076ea4
8003b740:	21282002 	move	a1,s1
8003b744:	00140200 	sll	v0,v0,0x10
8003b748:	20004486 	lh	a0,32(s2)
8003b74c:	03140200 	sra	v0,v0,0x10
8003b750:	31d1010c 	jal	0x800744c4
8003b754:	23208200 	subu	a0,a0,v0
8003b758:	22004386 	lh	v1,34(s2)
8003b75c:	00000000 	nop
8003b760:	18006200 	mult	v1,v0
8003b764:	12180000 	mflo	v1
8003b768:	02006104 	bgez	v1,0x8003b774
8003b76c:	00000000 	nop
8003b770:	ff0f6324 	addiu	v1,v1,4095
8003b774:	031b0300 	sra	v1,v1,0xc
8003b778:	1c004296 	lhu	v0,28(s2)
8003b77c:	23180302 	subu	v1,s0,v1
8003b780:	00014224 	addiu	v0,v0,256
8003b784:	2a186200 	slt	v1,v1,v0
8003b788:	15006010 	beqz	v1,0x8003b7e0
8003b78c:	ffff0224 	li	v0,-1
8003b790:	4c02658e 	lw	a1,588(s3)
8003b794:	0800438e 	lw	v1,8(s2)
8003b798:	4006a424 	addiu	a0,a1,1600
8003b79c:	2a108300 	slt	v0,a0,v1
8003b7a0:	09004010 	beqz	v0,0x8003b7c8
8003b7a4:	00000000 	nop
8003b7a8:	1e004296 	lhu	v0,30(s2)
8003b7ac:	00000000 	nop
8003b7b0:	23106200 	subu	v0,v1,v0
8003b7b4:	2a108200 	slt	v0,a0,v0
8003b7b8:	06004010 	beqz	v0,0x8003b7d4
8003b7bc:	ffff0224 	li	v0,-1
8003b7c0:	f8ef0008 	j	0x8003bfe0
8003b7c4:	00000000 	nop
8003b7c8:	2a186500 	slt	v1,v1,a1
8003b7cc:	04006014 	bnez	v1,0x8003b7e0
8003b7d0:	ffff0224 	li	v0,-1
8003b7d4:	f8ef0008 	j	0x8003bfe0
8003b7d8:	21100002 	move	v0,s0
8003b7dc:	ffff0224 	li	v0,-1
8003b7e0:	2000bf8f 	lw	ra,32(sp)
8003b7e4:	1c00b38f 	lw	s3,28(sp)
8003b7e8:	1800b28f 	lw	s2,24(sp)
8003b7ec:	1400b18f 	lw	s1,20(sp)
8003b7f0:	1000b08f 	lw	s0,16(sp)
8003b7f4:	2800bd27 	addiu	sp,sp,40
8003b7f8:	0800e003 	jr	ra
8003b7fc:	00000000 	nop
8003b800:	d8ffbd27 	addiu	sp,sp,-40
8003b804:	21408000 	move	t0,a0
8003b808:	2148a000 	move	t1,a1
8003b80c:	2150c000 	move	t2,a2
8003b810:	0001e724 	addiu	a3,a3,256
8003b814:	e8030224 	li	v0,1000
8003b818:	1a80043c 	lui	a0,0x801a
8003b81c:	70918424 	addiu	a0,a0,-28304
8003b820:	21280001 	move	a1,t0
8003b824:	3800a38f 	lw	v1,56(sp)
8003b828:	21302001 	move	a2,t1
8003b82c:	1000a7af 	sw	a3,16(sp)
8003b830:	21384001 	move	a3,t2
8003b834:	2000bfaf 	sw	ra,32(sp)
8003b838:	1400a2af 	sw	v0,20(sp)
8003b83c:	6029010c 	jal	0x8004a580
8003b840:	1800a3af 	sw	v1,24(sp)
8003b844:	2000bf8f 	lw	ra,32(sp)
8003b848:	2800bd27 	addiu	sp,sp,40
8003b84c:	0800e003 	jr	ra
8003b850:	00000000 	nop
8003b854:	1a80023c 	lui	v0,0x801a
8003b858:	288f4224 	addiu	v0,v0,-28888
8003b85c:	ce0240a4 	sh	zero,718(v0)
8003b860:	d00240a4 	sh	zero,720(v0)
8003b864:	d20240a4 	sh	zero,722(v0)
8003b868:	390240a0 	sb	zero,569(v0)
8003b86c:	d40240a4 	sh	zero,724(v0)
8003b870:	180240a0 	sb	zero,536(v0)
8003b874:	940240a4 	sh	zero,660(v0)
8003b878:	920240a4 	sh	zero,658(v0)
8003b87c:	900240a4 	sh	zero,656(v0)
8003b880:	8c0240a4 	sh	zero,652(v0)
8003b884:	8a0240a4 	sh	zero,650(v0)
8003b888:	880240a4 	sh	zero,648(v0)
8003b88c:	840240a4 	sh	zero,644(v0)
8003b890:	820240a4 	sh	zero,642(v0)
8003b894:	800240a4 	sh	zero,640(v0)
8003b898:	7b024388 	lwl	v1,635(v0)
8003b89c:	78024398 	lwr	v1,632(v0)
8003b8a0:	7f024488 	lwl	a0,639(v0)
8003b8a4:	7c024498 	lwr	a0,636(v0)
8003b8a8:	6b0243a8 	swl	v1,619(v0)
8003b8ac:	680243b8 	swr	v1,616(v0)
8003b8b0:	6f0244a8 	swl	a0,623(v0)
8003b8b4:	6c0244b8 	swr	a0,620(v0)
8003b8b8:	ff000324 	li	v1,255
8003b8bc:	550143a0 	sb	v1,341(v0)
8003b8c0:	560143a0 	sb	v1,342(v0)
8003b8c4:	1c80033c 	lui	v1,0x801c
8003b8c8:	f00240ac 	sw	zero,752(v0)
8003b8cc:	ec0240ac 	sw	zero,748(v0)
8003b8d0:	24a160ac 	sw	zero,-24284(v1)
8003b8d4:	ffff0324 	li	v1,-1
8003b8d8:	0800e003 	jr	ra
8003b8dc:	f40243ac 	sw	v1,756(v0)
8003b8e0:	e8ffbd27 	addiu	sp,sp,-24
8003b8e4:	21280000 	move	a1,zero
8003b8e8:	1000b0af 	sw	s0,16(sp)
8003b8ec:	1a80103c 	lui	s0,0x801a
8003b8f0:	288f1026 	addiu	s0,s0,-28888
8003b8f4:	1400bfaf 	sw	ra,20(sp)
8003b8f8:	3e000496 	lhu	a0,62(s0)
8003b8fc:	4bfc000c 	jal	0x8003f12c
8003b900:	2130a000 	move	a2,a1
8003b904:	01000524 	li	a1,1
8003b908:	58000496 	lhu	a0,88(s0)
8003b90c:	4bfc000c 	jal	0x8003f12c
8003b910:	21300000 	move	a2,zero
8003b914:	02000524 	li	a1,2
8003b918:	40000496 	lhu	a0,64(s0)
8003b91c:	4bfc000c 	jal	0x8003f12c
8003b920:	21300000 	move	a2,zero
8003b924:	03000524 	li	a1,3
8003b928:	5a000496 	lhu	a0,90(s0)
8003b92c:	4bfc000c 	jal	0x8003f12c
8003b930:	21300000 	move	a2,zero
8003b934:	44000496 	lhu	a0,68(s0)
8003b938:	8efb000c 	jal	0x8003ee38
8003b93c:	21280000 	move	a1,zero
8003b940:	50000496 	lhu	a0,80(s0)
8003b944:	8efb000c 	jal	0x8003ee38
8003b948:	01000524 	li	a1,1
8003b94c:	15f0000c 	jal	0x8003c054
8003b950:	00000000 	nop
8003b954:	b7f3000c 	jal	0x8003cedc
8003b958:	00000000 	nop
8003b95c:	1980033c 	lui	v1,0x8019
8003b960:	ff000224 	li	v0,255
8003b964:	d7b662a0 	sb	v0,-18729(v1)
8003b968:	1400bf8f 	lw	ra,20(sp)
8003b96c:	1000b08f 	lw	s0,16(sp)
8003b970:	1800bd27 	addiu	sp,sp,24
8003b974:	0800e003 	jr	ra
8003b978:	00000000 	nop
8003b97c:	00008894 	lhu	t0,0(a0)
8003b980:	1000ab8f 	lw	t3,16(sp)
8003b984:	0200a010 	beqz	a1,0x8003b990
8003b988:	21500000 	move	t2,zero
8003b98c:	0000aa94 	lhu	t2,0(a1)
8003b990:	00140800 	sll	v0,t0,0x10
8003b994:	034c0200 	sra	t1,v0,0x10
8003b998:	03002015 	bnez	t1,0x8003b9a8
8003b99c:	00140a00 	sll	v0,t2,0x10
8003b9a0:	27004011 	beqz	t2,0x8003ba40
8003b9a4:	00000000 	nop
8003b9a8:	03140200 	sra	v0,v0,0x10
8003b9ac:	2a102201 	slt	v0,t1,v0
8003b9b0:	03004010 	beqz	v0,0x8003b9c0
8003b9b4:	00000000 	nop
8003b9b8:	72f00008 	j	0x8003c1c8
8003b9bc:	01000825 	addiu	t0,t0,1
8003b9c0:	21500000 	move	t2,zero
8003b9c4:	ffff0825 	addiu	t0,t0,-1
8003b9c8:	00140800 	sll	v0,t0,0x10
8003b9cc:	031c0200 	sra	v1,v0,0x10
8003b9d0:	2a106600 	slt	v0,v1,a2
8003b9d4:	11004010 	beqz	v0,0x8003ba1c
8003b9d8:	18006700 	mult	v1,a3
8003b9dc:	12100000 	mflo	v0
	...
8003b9e8:	1a004600 	div	zero,v0,a2
8003b9ec:	0200c014 	bnez	a2,0x8003b9f8
8003b9f0:	00000000 	nop
8003b9f4:	0d000700 	break	0x7
8003b9f8:	ffff0124 	li	at,-1
8003b9fc:	0400c114 	bne	a2,at,0x8003ba10
8003ba00:	0080013c 	lui	at,0x8000
8003ba04:	02004114 	bne	v0,at,0x8003ba10
8003ba08:	00000000 	nop
8003ba0c:	0d000600 	break	0x6
8003ba10:	12100000 	mflo	v0
8003ba14:	88f00008 	j	0x8003c220
8003ba18:	00000000 	nop
8003ba1c:	2110e000 	move	v0,a3
8003ba20:	04006011 	beqz	t3,0x8003ba34
8003ba24:	00000000 	nop
8003ba28:	0200a010 	beqz	a1,0x8003ba34
8003ba2c:	000088a4 	sh	t0,0(a0)
8003ba30:	0000aaa4 	sh	t2,0(a1)
8003ba34:	00140200 	sll	v0,v0,0x10
8003ba38:	91f00008 	j	0x8003c244
8003ba3c:	03140200 	sra	v0,v0,0x10
8003ba40:	ffff0224 	li	v0,-1
8003ba44:	0800e003 	jr	ra
8003ba48:	00000000 	nop
8003ba4c:	d8ffbd27 	addiu	sp,sp,-40
8003ba50:	2000b2af 	sw	s2,32(sp)
8003ba54:	1a80023c 	lui	v0,0x801a
8003ba58:	288f4724 	addiu	a3,v0,-28888
8003ba5c:	2400bfaf 	sw	ra,36(sp)
8003ba60:	1c00b1af 	sw	s1,28(sp)
8003ba64:	1800b0af 	sw	s0,24(sp)
8003ba68:	d602e284 	lh	v0,726(a3)
8003ba6c:	d602e394 	lhu	v1,726(a3)
8003ba70:	16004010 	beqz	v0,0x8003bacc
8003ba74:	21908000 	move	s2,a0
8003ba78:	d802e294 	lhu	v0,728(a3)
8003ba7c:	00000000 	nop
8003ba80:	23106200 	subu	v0,v1,v0
8003ba84:	d602e2a4 	sh	v0,726(a3)
8003ba88:	00140200 	sll	v0,v0,0x10
8003ba8c:	02004104 	bgez	v0,0x8003ba98
8003ba90:	00000000 	nop
8003ba94:	d602e0a4 	sh	zero,726(a3)
8003ba98:	d602e284 	lh	v0,726(a3)
8003ba9c:	d602e794 	lhu	a3,726(a3)
8003baa0:	00104228 	slti	v0,v0,4096
8003baa4:	02004014 	bnez	v0,0x8003bab0
8003baa8:	01000224 	li	v0,1
8003baac:	00100724 	li	a3,4096
8003bab0:	1000a2af 	sw	v0,16(sp)
8003bab4:	3c000424 	li	a0,60
8003bab8:	21280000 	move	a1,zero
8003babc:	2130a000 	move	a2,a1
8003bac0:	003c0700 	sll	a3,a3,0x10
8003bac4:	6586000c 	jal	0x80021994
8003bac8:	033c0700 	sra	a3,a3,0x10
8003bacc:	1a80023c 	lui	v0,0x801a
8003bad0:	288f4724 	addiu	a3,v0,-28888
8003bad4:	da02e284 	lh	v0,730(a3)
8003bad8:	da02e394 	lhu	v1,730(a3)
8003badc:	16004010 	beqz	v0,0x8003bb38
8003bae0:	00000000 	nop
8003bae4:	dc02e294 	lhu	v0,732(a3)
8003bae8:	00000000 	nop
8003baec:	23106200 	subu	v0,v1,v0
8003baf0:	da02e2a4 	sh	v0,730(a3)
8003baf4:	00140200 	sll	v0,v0,0x10
8003baf8:	02004104 	bgez	v0,0x8003bb04
8003bafc:	00000000 	nop
8003bb00:	da02e0a4 	sh	zero,730(a3)
8003bb04:	da02e284 	lh	v0,730(a3)
8003bb08:	da02e794 	lhu	a3,730(a3)
8003bb0c:	00104228 	slti	v0,v0,4096
8003bb10:	02004014 	bnez	v0,0x8003bb1c
8003bb14:	01000224 	li	v0,1
8003bb18:	00100724 	li	a3,4096
8003bb1c:	1000a2af 	sw	v0,16(sp)
8003bb20:	3c000424 	li	a0,60
8003bb24:	21288000 	move	a1,a0
8003bb28:	21300000 	move	a2,zero
8003bb2c:	003c0700 	sll	a3,a3,0x10
8003bb30:	6586000c 	jal	0x80021994
8003bb34:	033c0700 	sra	a3,a3,0x10
8003bb38:	1000b2af 	sw	s2,16(sp)
8003bb3c:	1a80023c 	lui	v0,0x801a
8003bb40:	b8905024 	addiu	s0,v0,-28488
8003bb44:	21200002 	move	a0,s0
8003bb48:	02000526 	addiu	a1,s0,2
8003bb4c:	14000624 	li	a2,20
8003bb50:	5ff0000c 	jal	0x8003c17c
8003bb54:	00100724 	li	a3,4096
8003bb58:	00140200 	sll	v0,v0,0x10
8003bb5c:	033c0200 	sra	a3,v0,0x10
8003bb60:	ffff0224 	li	v0,-1
8003bb64:	0f00e210 	beq	a3,v0,0x8003bba4
8003bb68:	21200000 	move	a0,zero
8003bb6c:	28000524 	li	a1,40
8003bb70:	21308000 	move	a2,a0
8003bb74:	01000224 	li	v0,1
8003bb78:	6586000c 	jal	0x80021994
8003bb7c:	1000a2af 	sw	v0,16(sp)
8003bb80:	70fe0426 	addiu	a0,s0,-400
8003bb84:	9001828c 	lw	v0,400(a0)
8003bb88:	00000000 	nop
8003bb8c:	05004014 	bnez	v0,0x8003bba4
8003bb90:	f8ff0324 	li	v1,-8
8003bb94:	2c00828c 	lw	v0,44(a0)
8003bb98:	00000000 	nop
8003bb9c:	24104300 	and	v0,v0,v1
8003bba0:	2c0082ac 	sw	v0,44(a0)
8003bba4:	1000b2af 	sw	s2,16(sp)
8003bba8:	1a80023c 	lui	v0,0x801a
8003bbac:	bc905024 	addiu	s0,v0,-28484
8003bbb0:	21200002 	move	a0,s0
8003bbb4:	02000526 	addiu	a1,s0,2
8003bbb8:	14000624 	li	a2,20
8003bbbc:	5ff0000c 	jal	0x8003c17c
8003bbc0:	00100724 	li	a3,4096
8003bbc4:	21384000 	move	a3,v0
8003bbc8:	00140700 	sll	v0,a3,0x10
8003bbcc:	03140200 	sra	v0,v0,0x10
8003bbd0:	ffff0324 	li	v1,-1
8003bbd4:	2b004310 	beq	v0,v1,0x8003bc84
8003bbd8:	03000324 	li	v1,3
8003bbdc:	00000296 	lhu	v0,0(s0)
8003bbe0:	00000000 	nop
8003bbe4:	03004230 	andi	v0,v0,0x3
8003bbe8:	02004314 	bne	v0,v1,0x8003bbf4
8003bbec:	00fee724 	addiu	a3,a3,-512
8003bbf0:	00100724 	li	a3,4096
8003bbf4:	28000424 	li	a0,40
8003bbf8:	21288000 	move	a1,a0
8003bbfc:	21300000 	move	a2,zero
8003bc00:	003c0700 	sll	a3,a3,0x10
8003bc04:	033c0700 	sra	a3,a3,0x10
8003bc08:	01000224 	li	v0,1
8003bc0c:	6586000c 	jal	0x80021994
8003bc10:	1000a2af 	sw	v0,16(sp)
8003bc14:	b4fa000c 	jal	0x8003ead0
8003bc18:	00000000 	nop
8003bc1c:	1c80023c 	lui	v0,0x801c
8003bc20:	10034224 	addiu	v0,v0,784
8003bc24:	a87140a4 	sh	zero,29096(v0)
8003bc28:	a67140a4 	sh	zero,29094(v0)
8003bc2c:	a47140a4 	sh	zero,29092(v0)
8003bc30:	1b80023c 	lui	v0,0x801b
8003bc34:	48594224 	addiu	v0,v0,22856
8003bc38:	d24740a4 	sh	zero,18386(v0)
8003bc3c:	d04740a4 	sh	zero,18384(v0)
8003bc40:	ce4740a4 	sh	zero,18382(v0)
8003bc44:	1a80023c 	lui	v0,0x801a
8003bc48:	288f4424 	addiu	a0,v0,-28888
8003bc4c:	1c80023c 	lui	v0,0x801c
8003bc50:	9401838c 	lw	v1,404(a0)
8003bc54:	38a14224 	addiu	v0,v0,-24264
8003bc58:	646140a4 	sh	zero,24932(v0)
8003bc5c:	626140a4 	sh	zero,24930(v0)
8003bc60:	606140a4 	sh	zero,24928(v0)
8003bc64:	d00180a4 	sh	zero,464(a0)
8003bc68:	ce0180a4 	sh	zero,462(a0)
8003bc6c:	05006014 	bnez	v1,0x8003bc84
8003bc70:	cc0180a4 	sh	zero,460(a0)
8003bc74:	2c00828c 	lw	v0,44(a0)
8003bc78:	e7ff0324 	li	v1,-25
8003bc7c:	24104300 	and	v0,v0,v1
8003bc80:	2c0082ac 	sw	v0,44(a0)
8003bc84:	1000b2af 	sw	s2,16(sp)
8003bc88:	1a80023c 	lui	v0,0x801a
8003bc8c:	c0905024 	addiu	s0,v0,-28480
8003bc90:	21200002 	move	a0,s0
8003bc94:	02000526 	addiu	a1,s0,2
8003bc98:	21300000 	move	a2,zero
8003bc9c:	5ff0000c 	jal	0x8003c17c
8003bca0:	00100724 	li	a3,4096
8003bca4:	00140200 	sll	v0,v0,0x10
8003bca8:	033c0200 	sra	a3,v0,0x10
8003bcac:	ffff0224 	li	v0,-1
8003bcb0:	1300e210 	beq	a3,v0,0x8003bd00
8003bcb4:	14000424 	li	a0,20
8003bcb8:	21288000 	move	a1,a0
8003bcbc:	21308000 	move	a2,a0
8003bcc0:	02000224 	li	v0,2
8003bcc4:	6586000c 	jal	0x80021994
8003bcc8:	1000a2af 	sw	v0,16(sp)
8003bccc:	68fe0626 	addiu	a2,s0,-408
8003bcd0:	9801c28c 	lw	v0,408(a2)
8003bcd4:	00000000 	nop
8003bcd8:	09004014 	bnez	v0,0x8003bd00
8003bcdc:	9fff0524 	li	a1,-97
8003bce0:	1980043c 	lui	a0,0x8019
8003bce4:	d0b68424 	addiu	a0,a0,-18736
8003bce8:	2c00c28c 	lw	v0,44(a2)
8003bcec:	04008390 	lbu	v1,4(a0)
8003bcf0:	24104500 	and	v0,v0,a1
8003bcf4:	04006334 	ori	v1,v1,0x4
8003bcf8:	2c00c2ac 	sw	v0,44(a2)
8003bcfc:	040083a0 	sb	v1,4(a0)
8003bd00:	1000b2af 	sw	s2,16(sp)
8003bd04:	1a80023c 	lui	v0,0x801a
8003bd08:	c4905124 	addiu	s1,v0,-28476
8003bd0c:	21202002 	move	a0,s1
8003bd10:	02002526 	addiu	a1,s1,2
8003bd14:	14000624 	li	a2,20
8003bd18:	5ff0000c 	jal	0x8003c17c
8003bd1c:	00100724 	li	a3,4096
8003bd20:	00140200 	sll	v0,v0,0x10
8003bd24:	03140200 	sra	v0,v0,0x10
8003bd28:	ffff0324 	li	v1,-1
8003bd2c:	11004310 	beq	v0,v1,0x8003bd74
8003bd30:	64fe3026 	addiu	s0,s1,-412
8003bd34:	9c01028e 	lw	v0,412(s0)
8003bd38:	00000000 	nop
8003bd3c:	0d004014 	bnez	v0,0x8003bd74
8003bd40:	21200000 	move	a0,zero
8003bd44:	2c00028e 	lw	v0,44(s0)
8003bd48:	7fff0324 	li	v1,-129
8003bd4c:	24104300 	and	v0,v0,v1
8003bd50:	ea68010c 	jal	0x8005a3a8
8003bd54:	2c0002ae 	sw	v0,44(s0)
8003bd58:	64fe2496 	lhu	a0,-412(s1)
8003bd5c:	02000296 	lhu	v0,2(s0)
8003bd60:	00000000 	nop
8003bd64:	2b108200 	sltu	v0,a0,v0
8003bd68:	02004010 	beqz	v0,0x8003bd74
8003bd6c:	00000000 	nop
8003bd70:	020004a6 	sh	a0,2(s0)
8003bd74:	1000b2af 	sw	s2,16(sp)
8003bd78:	1a80023c 	lui	v0,0x801a
8003bd7c:	c8905124 	addiu	s1,v0,-28472
8003bd80:	21202002 	move	a0,s1
8003bd84:	02002526 	addiu	a1,s1,2
8003bd88:	14000624 	li	a2,20
8003bd8c:	5ff0000c 	jal	0x8003c17c
8003bd90:	00100724 	li	a3,4096
8003bd94:	00140200 	sll	v0,v0,0x10
8003bd98:	033c0200 	sra	a3,v0,0x10
8003bd9c:	ffff0224 	li	v0,-1
8003bda0:	1800e210 	beq	a3,v0,0x8003be04
8003bda4:	28000424 	li	a0,40
8003bda8:	21280000 	move	a1,zero
8003bdac:	14000624 	li	a2,20
8003bdb0:	01000224 	li	v0,1
8003bdb4:	6586000c 	jal	0x80021994
8003bdb8:	1000a2af 	sw	v0,16(sp)
8003bdbc:	60fe3026 	addiu	s0,s1,-416
8003bdc0:	a001028e 	lw	v0,416(s0)
8003bdc4:	00000000 	nop
8003bdc8:	0f004014 	bnez	v0,0x8003be08
8003bdcc:	1a80023c 	lui	v0,0x801a
8003bdd0:	21200000 	move	a0,zero
8003bdd4:	2c00028e 	lw	v0,44(s0)
8003bdd8:	fffe0324 	li	v1,-257
8003bddc:	24104300 	and	v0,v0,v1
8003bde0:	ea68010c 	jal	0x8005a3a8
8003bde4:	2c0002ae 	sw	v0,44(s0)
8003bde8:	60fe2496 	lhu	a0,-416(s1)
8003bdec:	02000296 	lhu	v0,2(s0)
8003bdf0:	00000000 	nop
8003bdf4:	2b108200 	sltu	v0,a0,v0
8003bdf8:	03004010 	beqz	v0,0x8003be08
8003bdfc:	1a80023c 	lui	v0,0x801a
8003be00:	020004a6 	sh	a0,2(s0)
8003be04:	1a80023c 	lui	v0,0x801a
8003be08:	288f5024 	addiu	s0,v0,-28888
8003be0c:	ec02028e 	lw	v0,748(s0)
8003be10:	00000000 	nop
8003be14:	07004010 	beqz	v0,0x8003be34
8003be18:	01000224 	li	v0,1
8003be1c:	1000a2af 	sw	v0,16(sp)
8003be20:	21200000 	move	a0,zero
8003be24:	21288000 	move	a1,a0
8003be28:	28000624 	li	a2,40
8003be2c:	6586000c 	jal	0x80021994
8003be30:	00100724 	li	a3,4096
8003be34:	f002028e 	lw	v0,752(s0)
8003be38:	00000000 	nop
8003be3c:	07004010 	beqz	v0,0x8003be5c
8003be40:	01000224 	li	v0,1
8003be44:	1000a2af 	sw	v0,16(sp)
8003be48:	28000424 	li	a0,40
8003be4c:	21288000 	move	a1,a0
8003be50:	21300000 	move	a2,zero
8003be54:	6586000c 	jal	0x80021994
8003be58:	00100724 	li	a3,4096
8003be5c:	1000b2af 	sw	s2,16(sp)
8003be60:	a4010426 	addiu	a0,s0,420
8003be64:	a6010526 	addiu	a1,s0,422
8003be68:	21300000 	move	a2,zero
8003be6c:	5ff0000c 	jal	0x8003c17c
8003be70:	00100724 	li	a3,4096
8003be74:	00140200 	sll	v0,v0,0x10
8003be78:	03140200 	sra	v0,v0,0x10
8003be7c:	ffff0324 	li	v1,-1
8003be80:	13004310 	beq	v0,v1,0x8003bed0
8003be84:	1980033c 	lui	v1,0x8019
8003be88:	d0b66324 	addiu	v1,v1,-18736
8003be8c:	04006290 	lbu	v0,4(v1)
8003be90:	00000000 	nop
8003be94:	10004234 	ori	v0,v0,0x10
8003be98:	040062a0 	sb	v0,4(v1)
8003be9c:	03006290 	lbu	v0,3(v1)
8003bea0:	a401048e 	lw	a0,420(s0)
8003bea4:	02004234 	ori	v0,v0,0x2
8003bea8:	09008014 	bnez	a0,0x8003bed0
8003beac:	030062a0 	sb	v0,3(v1)
8003beb0:	fdff043c 	lui	a0,0xfffd
8003beb4:	ffff8434 	ori	a0,a0,0xffff
8003beb8:	feff033c 	lui	v1,0xfffe
8003bebc:	2c00028e 	lw	v0,44(s0)
8003bec0:	ffff6334 	ori	v1,v1,0xffff
8003bec4:	24104400 	and	v0,v0,a0
8003bec8:	24104300 	and	v0,v0,v1
8003becc:	2c0002ae 	sw	v0,44(s0)
8003bed0:	1000b2af 	sw	s2,16(sp)
8003bed4:	1a80023c 	lui	v0,0x801a
8003bed8:	d0905024 	addiu	s0,v0,-28464
8003bedc:	21200002 	move	a0,s0
8003bee0:	02000526 	addiu	a1,s0,2
8003bee4:	21300000 	move	a2,zero
8003bee8:	5ff0000c 	jal	0x8003c17c
8003beec:	00100724 	li	a3,4096
8003bef0:	00140200 	sll	v0,v0,0x10
8003bef4:	03140200 	sra	v0,v0,0x10
8003bef8:	ffff0324 	li	v1,-1
8003befc:	09004310 	beq	v0,v1,0x8003bf24
8003bf00:	58fe0426 	addiu	a0,s0,-424
8003bf04:	a801828c 	lw	v0,424(a0)
8003bf08:	00000000 	nop
8003bf0c:	05004014 	bnez	v0,0x8003bf24
8003bf10:	fbff033c 	lui	v1,0xfffb
8003bf14:	2c00828c 	lw	v0,44(a0)
8003bf18:	ffff6334 	ori	v1,v1,0xffff
8003bf1c:	24104300 	and	v0,v0,v1
8003bf20:	2c0082ac 	sw	v0,44(a0)
8003bf24:	1000b2af 	sw	s2,16(sp)
8003bf28:	1a80023c 	lui	v0,0x801a
8003bf2c:	d4905024 	addiu	s0,v0,-28460
8003bf30:	21200002 	move	a0,s0
8003bf34:	02000526 	addiu	a1,s0,2
8003bf38:	21300000 	move	a2,zero
8003bf3c:	5ff0000c 	jal	0x8003c17c
8003bf40:	00100724 	li	a3,4096
8003bf44:	00140200 	sll	v0,v0,0x10
8003bf48:	03140200 	sra	v0,v0,0x10
8003bf4c:	ffff0324 	li	v1,-1
8003bf50:	09004310 	beq	v0,v1,0x8003bf78
8003bf54:	54fe0426 	addiu	a0,s0,-428
8003bf58:	ac01828c 	lw	v0,428(a0)
8003bf5c:	00000000 	nop
8003bf60:	05004014 	bnez	v0,0x8003bf78
8003bf64:	f7ff033c 	lui	v1,0xfff7
8003bf68:	2c00828c 	lw	v0,44(a0)
8003bf6c:	ffff6334 	ori	v1,v1,0xffff
8003bf70:	24104300 	and	v0,v0,v1
8003bf74:	2c0082ac 	sw	v0,44(a0)
8003bf78:	1000b2af 	sw	s2,16(sp)
8003bf7c:	1a80023c 	lui	v0,0x801a
8003bf80:	d8905024 	addiu	s0,v0,-28456
8003bf84:	21200002 	move	a0,s0
8003bf88:	02000526 	addiu	a1,s0,2
8003bf8c:	21300000 	move	a2,zero
8003bf90:	5ff0000c 	jal	0x8003c17c
8003bf94:	00100724 	li	a3,4096
8003bf98:	00140200 	sll	v0,v0,0x10
8003bf9c:	03140200 	sra	v0,v0,0x10
8003bfa0:	ffff0324 	li	v1,-1
8003bfa4:	09004310 	beq	v0,v1,0x8003bfcc
8003bfa8:	50fe0426 	addiu	a0,s0,-432
8003bfac:	b001828c 	lw	v0,432(a0)
8003bfb0:	00000000 	nop
8003bfb4:	05004014 	bnez	v0,0x8003bfcc
8003bfb8:	efff033c 	lui	v1,0xffef
8003bfbc:	2c00828c 	lw	v0,44(a0)
8003bfc0:	ffff6334 	ori	v1,v1,0xffff
8003bfc4:	24104300 	and	v0,v0,v1
8003bfc8:	2c0082ac 	sw	v0,44(a0)
8003bfcc:	1000b2af 	sw	s2,16(sp)
8003bfd0:	1a80023c 	lui	v0,0x801a
8003bfd4:	dc905024 	addiu	s0,v0,-28452
8003bfd8:	21200002 	move	a0,s0
8003bfdc:	02000526 	addiu	a1,s0,2
8003bfe0:	21300000 	move	a2,zero
8003bfe4:	5ff0000c 	jal	0x8003c17c
8003bfe8:	00100724 	li	a3,4096
8003bfec:	00140200 	sll	v0,v0,0x10
8003bff0:	03140200 	sra	v0,v0,0x10
8003bff4:	ffff0324 	li	v1,-1
8003bff8:	09004310 	beq	v0,v1,0x8003c020
8003bffc:	4cfe0426 	addiu	a0,s0,-436
8003c000:	b401828c 	lw	v0,436(a0)
8003c004:	00000000 	nop
8003c008:	05004014 	bnez	v0,0x8003c020
8003c00c:	dfff033c 	lui	v1,0xffdf
8003c010:	2c00828c 	lw	v0,44(a0)
8003c014:	ffff6334 	ori	v1,v1,0xffff
8003c018:	24104300 	and	v0,v0,v1
8003c01c:	2c0082ac 	sw	v0,44(a0)
8003c020:	1000b2af 	sw	s2,16(sp)
8003c024:	1a80023c 	lui	v0,0x801a
8003c028:	e0905024 	addiu	s0,v0,-28448
8003c02c:	21200002 	move	a0,s0
8003c030:	02000526 	addiu	a1,s0,2
8003c034:	21300000 	move	a2,zero
8003c038:	5ff0000c 	jal	0x8003c17c
8003c03c:	00100724 	li	a3,4096
8003c040:	00140200 	sll	v0,v0,0x10
8003c044:	03140200 	sra	v0,v0,0x10
8003c048:	ffff0324 	li	v1,-1
8003c04c:	12004310 	beq	v0,v1,0x8003c098
8003c050:	1980033c 	lui	v1,0x8019
8003c054:	d0b66324 	addiu	v1,v1,-18736
8003c058:	01000424 	li	a0,1
8003c05c:	04006290 	lbu	v0,4(v1)
8003c060:	48fe0526 	addiu	a1,s0,-440
8003c064:	090064a0 	sb	a0,9(v1)
8003c068:	20004234 	ori	v0,v0,0x20
8003c06c:	040062a0 	sb	v0,4(v1)
8003c070:	03006290 	lbu	v0,3(v1)
8003c074:	b801a48c 	lw	a0,440(a1)
8003c078:	01004234 	ori	v0,v0,0x1
8003c07c:	06008014 	bnez	a0,0x8003c098
8003c080:	030062a0 	sb	v0,3(v1)
8003c084:	bfff033c 	lui	v1,0xffbf
8003c088:	2c00a28c 	lw	v0,44(a1)
8003c08c:	ffff6334 	ori	v1,v1,0xffff
8003c090:	24104300 	and	v0,v0,v1
8003c094:	2c00a2ac 	sw	v0,44(a1)
8003c098:	1000b2af 	sw	s2,16(sp)
8003c09c:	1a80023c 	lui	v0,0x801a
8003c0a0:	e4905024 	addiu	s0,v0,-28444
8003c0a4:	21200002 	move	a0,s0
8003c0a8:	02000526 	addiu	a1,s0,2
8003c0ac:	21300000 	move	a2,zero
8003c0b0:	5ff0000c 	jal	0x8003c17c
8003c0b4:	00100724 	li	a3,4096
8003c0b8:	00140200 	sll	v0,v0,0x10
8003c0bc:	03140200 	sra	v0,v0,0x10
8003c0c0:	ffff0324 	li	v1,-1
8003c0c4:	09004310 	beq	v0,v1,0x8003c0ec
8003c0c8:	44fe0426 	addiu	a0,s0,-444
8003c0cc:	bc01828c 	lw	v0,444(a0)
8003c0d0:	00000000 	nop
8003c0d4:	05004014 	bnez	v0,0x8003c0ec
8003c0d8:	7fff033c 	lui	v1,0xff7f
8003c0dc:	2c00828c 	lw	v0,44(a0)
8003c0e0:	ffff6334 	ori	v1,v1,0xffff
8003c0e4:	24104300 	and	v0,v0,v1
8003c0e8:	2c0082ac 	sw	v0,44(a0)
8003c0ec:	1000b2af 	sw	s2,16(sp)
8003c0f0:	1a80023c 	lui	v0,0x801a
8003c0f4:	e8905024 	addiu	s0,v0,-28440
8003c0f8:	21200002 	move	a0,s0
8003c0fc:	02000526 	addiu	a1,s0,2
8003c100:	21300000 	move	a2,zero
8003c104:	5ff0000c 	jal	0x8003c17c
8003c108:	00100724 	li	a3,4096
8003c10c:	00140200 	sll	v0,v0,0x10
8003c110:	03140200 	sra	v0,v0,0x10
8003c114:	ffff0324 	li	v1,-1
8003c118:	09004310 	beq	v0,v1,0x8003c140
8003c11c:	40fe0426 	addiu	a0,s0,-448
8003c120:	c001828c 	lw	v0,448(a0)
8003c124:	00000000 	nop
8003c128:	05004014 	bnez	v0,0x8003c140
8003c12c:	fff70324 	li	v1,-2049
8003c130:	2c00828c 	lw	v0,44(a0)
8003c134:	00000000 	nop
8003c138:	24104300 	and	v0,v0,v1
8003c13c:	2c0082ac 	sw	v0,44(a0)
8003c140:	2400bf8f 	lw	ra,36(sp)
8003c144:	2000b28f 	lw	s2,32(sp)
8003c148:	1c00b18f 	lw	s1,28(sp)
8003c14c:	1800b08f 	lw	s0,24(sp)
8003c150:	2800bd27 	addiu	sp,sp,40
8003c154:	0800e003 	jr	ra
8003c158:	00000000 	nop
8003c15c:	b8ffbd27 	addiu	sp,sp,-72
8003c160:	3400b1af 	sw	s1,52(sp)
8003c164:	21888000 	move	s1,a0
8003c168:	3800b2af 	sw	s2,56(sp)
8003c16c:	2190a000 	move	s2,a1
8003c170:	3c00b3af 	sw	s3,60(sp)
8003c174:	2198c000 	move	s3,a2
8003c178:	4000b4af 	sw	s4,64(sp)
8003c17c:	21a0e000 	move	s4,a3
8003c180:	4400bfaf 	sw	ra,68(sp)
8003c184:	b556000c 	jal	0x80015ad4
8003c188:	3000b0af 	sw	s0,48(sp)
8003c18c:	1b80103c 	lui	s0,0x801b
8003c190:	c754000c 	jal	0x8001531c
8003c194:	00000000 	nop
8003c198:	be15010c 	jal	0x800456f8
8003c19c:	00000000 	nop
8003c1a0:	20590286 	lh	v0,22816(s0)
8003c1a4:	00000000 	nop
8003c1a8:	f9ff4014 	bnez	v0,0x8003c190
8003c1ac:	ff002432 	andi	a0,s1,0xff
8003c1b0:	ff004532 	andi	a1,s2,0xff
8003c1b4:	ff006632 	andi	a2,s3,0xff
8003c1b8:	ff000724 	li	a3,255
8003c1bc:	1b80103c 	lui	s0,0x801b
8003c1c0:	20590326 	addiu	v1,s0,22816
8003c1c4:	63000224 	li	v0,99
8003c1c8:	040062a0 	sb	v0,4(v1)
8003c1cc:	050062a0 	sb	v0,5(v1)
8003c1d0:	060062a0 	sb	v0,6(v1)
8003c1d4:	070062a0 	sb	v0,7(v1)
8003c1d8:	080062a0 	sb	v0,8(v1)
8003c1dc:	2110e000 	move	v0,a3
8003c1e0:	1000a2af 	sw	v0,16(sp)
8003c1e4:	7f000224 	li	v0,127
8003c1e8:	1400a2af 	sw	v0,20(sp)
8003c1ec:	1800a2af 	sw	v0,24(sp)
8003c1f0:	1c00a2af 	sw	v0,28(sp)
8003c1f4:	2000a0af 	sw	zero,32(sp)
8003c1f8:	2400a0af 	sw	zero,36(sp)
8003c1fc:	1114010c 	jal	0x80045044
8003c200:	2800a0af 	sw	zero,40(sp)
8003c204:	c754000c 	jal	0x8001531c
8003c208:	00000000 	nop
8003c20c:	be15010c 	jal	0x800456f8
8003c210:	00000000 	nop
8003c214:	20590286 	lh	v0,22816(s0)
8003c218:	00000000 	nop
8003c21c:	f9ff4014 	bnez	v0,0x8003c204
8003c220:	00000000 	nop
8003c224:	b556000c 	jal	0x80015ad4
8003c228:	00000000 	nop
8003c22c:	41dc010c 	jal	0x80077104
8003c230:	02000424 	li	a0,2
8003c234:	befa000c 	jal	0x8003eaf8
8003c238:	00000000 	nop
8003c23c:	16c8000c 	jal	0x80032058
8003c240:	00000000 	nop
8003c244:	4259000c 	jal	0x80016508
8003c248:	00000000 	nop
8003c24c:	5bc8000c 	jal	0x8003216c
8003c250:	00000000 	nop
8003c254:	82000424 	li	a0,130
8003c258:	00100524 	li	a1,4096
8003c25c:	2130a000 	move	a2,a1
8003c260:	2b40010c 	jal	0x800500ac
8003c264:	21380000 	move	a3,zero
8003c268:	b556000c 	jal	0x80015ad4
8003c26c:	00000000 	nop
8003c270:	ff000424 	li	a0,255
8003c274:	21288000 	move	a1,a0
8003c278:	21308000 	move	a2,a0
8003c27c:	5800a293 	lbu	v0,88(sp)
8003c280:	ff008732 	andi	a3,s4,0xff
8003c284:	2000a0af 	sw	zero,32(sp)
8003c288:	2400a0af 	sw	zero,36(sp)
8003c28c:	2800a0af 	sw	zero,40(sp)
8003c290:	1000a2af 	sw	v0,16(sp)
8003c294:	7f000224 	li	v0,127
8003c298:	1400a2af 	sw	v0,20(sp)
8003c29c:	1800a2af 	sw	v0,24(sp)
8003c2a0:	1c00a2af 	sw	v0,28(sp)
8003c2a4:	0980023c 	lui	v0,0x8009
8003c2a8:	0482438c 	lw	v1,-32252(v0)
8003c2ac:	1b80023c 	lui	v0,0x801b
8003c2b0:	1114010c 	jal	0x80045044
8003c2b4:	385943ac 	sw	v1,22840(v0)
8003c2b8:	3ccc000c 	jal	0x800330f0
8003c2bc:	00000000 	nop
8003c2c0:	4400bf8f 	lw	ra,68(sp)
8003c2c4:	4000b48f 	lw	s4,64(sp)
8003c2c8:	3c00b38f 	lw	s3,60(sp)
8003c2cc:	3800b28f 	lw	s2,56(sp)
8003c2d0:	3400b18f 	lw	s1,52(sp)
8003c2d4:	3000b08f 	lw	s0,48(sp)
8003c2d8:	4800bd27 	addiu	sp,sp,72
8003c2dc:	0800e003 	jr	ra
8003c2e0:	00000000 	nop
8003c2e4:	1a80023c 	lui	v0,0x801a
8003c2e8:	288f4224 	addiu	v0,v0,-28888
8003c2ec:	080040a4 	sh	zero,8(v0)
8003c2f0:	0d000324 	li	v1,13
8003c2f4:	32000424 	li	a0,50
8003c2f8:	ffff0524 	li	a1,-1
8003c2fc:	1a004224 	addiu	v0,v0,26
8003c300:	9a0044a4 	sh	a0,154(v0)
8003c304:	620044a4 	sh	a0,98(v0)
8003c308:	7e0040a4 	sh	zero,126(v0)
8003c30c:	ffff6324 	addiu	v1,v1,-1
8003c310:	fbff6514 	bne	v1,a1,0x8003c300
8003c314:	feff4224 	addiu	v0,v0,-2
8003c318:	1a80023c 	lui	v0,0x801a
8003c31c:	288f4324 	addiu	v1,v0,-28888
8003c320:	260060a0 	sb	zero,38(v1)
8003c324:	040060a4 	sh	zero,4(v1)
8003c328:	288f40a4 	sh	zero,-28888(v0)
8003c32c:	ffff0234 	li	v0,0xffff
8003c330:	600062a4 	sh	v0,96(v1)
8003c334:	5e0062a4 	sh	v0,94(v1)
8003c338:	5c0062a4 	sh	v0,92(v1)
8003c33c:	400062a4 	sh	v0,64(v1)
8003c340:	3e0062a4 	sh	v0,62(v1)
8003c344:	3c0062a4 	sh	v0,60(v1)
8003c348:	3a0062a4 	sh	v0,58(v1)
8003c34c:	380062a4 	sh	v0,56(v1)
8003c350:	440062a4 	sh	v0,68(v1)
8003c354:	4e0062a4 	sh	v0,78(v1)
8003c358:	4c0062a4 	sh	v0,76(v1)
8003c35c:	4a0062a4 	sh	v0,74(v1)
8003c360:	480062a4 	sh	v0,72(v1)
8003c364:	460062a4 	sh	v0,70(v1)
8003c368:	500062a4 	sh	v0,80(v1)
8003c36c:	420062a4 	sh	v0,66(v1)
8003c370:	5a0062a4 	sh	v0,90(v1)
8003c374:	580062a4 	sh	v0,88(v1)
8003c378:	560062a4 	sh	v0,86(v1)
8003c37c:	540062a4 	sh	v0,84(v1)
8003c380:	0800e003 	jr	ra
8003c384:	520062a4 	sh	v0,82(v1)
8003c388:	e0ffbd27 	addiu	sp,sp,-32
8003c38c:	1a80023c 	lui	v0,0x801a
8003c390:	608f4d24 	addiu	t5,v0,-28832
8003c394:	21280000 	move	a1,zero
8003c398:	2130a000 	move	a2,a1
8003c39c:	2140a000 	move	t0,a1
8003c3a0:	2160a000 	move	t4,a1
8003c3a4:	2148a000 	move	t1,a1
8003c3a8:	2150a000 	move	t2,a1
8003c3ac:	2158a000 	move	t3,a1
8003c3b0:	2170a000 	move	t6,a1
8003c3b4:	2138a000 	move	a3,a1
8003c3b8:	1c80023c 	lui	v0,0x801c
8003c3bc:	10785824 	addiu	t8,v0,30736
8003c3c0:	0180023c 	lui	v0,0x8001
8003c3c4:	fc1c4f24 	addiu	t7,v0,7420
8003c3c8:	fcffe224 	addiu	v0,a3,-4
8003c3cc:	0300422c 	sltiu	v0,v0,3
8003c3d0:	77004014 	bnez	v0,0x8003c5b0
8003c3d4:	0b000224 	li	v0,11
8003c3d8:	7500e210 	beq	a3,v0,0x8003c5b0
8003c3dc:	0c000224 	li	v0,12
8003c3e0:	7300e210 	beq	a3,v0,0x8003c5b0
8003c3e4:	0f000224 	li	v0,15
8003c3e8:	7100e210 	beq	a3,v0,0x8003c5b0
8003c3ec:	ffff0234 	li	v0,0xffff
8003c3f0:	0000a395 	lhu	v1,0(t5)
8003c3f4:	00000000 	nop
8003c3f8:	6d006210 	beq	v1,v0,0x8003c5b0
8003c3fc:	21106000 	move	v0,v1
8003c400:	40180200 	sll	v1,v0,0x1
8003c404:	21186200 	addu	v1,v1,v0
8003c408:	80180300 	sll	v1,v1,0x2
8003c40c:	23186200 	subu	v1,v1,v0
8003c410:	80180300 	sll	v1,v1,0x2
8003c414:	21187800 	addu	v1,v1,t8
8003c418:	2000628c 	lw	v0,32(v1)
8003c41c:	00000000 	nop
8003c420:	0f004230 	andi	v0,v0,0xf
8003c424:	0000a2af 	sw	v0,0(sp)
8003c428:	2000628c 	lw	v0,32(v1)
8003c42c:	00000000 	nop
8003c430:	02120200 	srl	v0,v0,0x8
8003c434:	0f004230 	andi	v0,v0,0xf
8003c438:	0400a2af 	sw	v0,4(sp)
8003c43c:	22006290 	lbu	v0,34(v1)
8003c440:	00000000 	nop
8003c444:	0800a2af 	sw	v0,8(sp)
8003c448:	20006290 	lbu	v0,32(v1)
8003c44c:	00000000 	nop
8003c450:	02110200 	srl	v0,v0,0x4
8003c454:	1000a2af 	sw	v0,16(sp)
8003c458:	2000628c 	lw	v0,32(v1)
8003c45c:	00000000 	nop
8003c460:	02130200 	srl	v0,v0,0xc
8003c464:	0f004230 	andi	v0,v0,0xf
8003c468:	1400a2af 	sw	v0,20(sp)
8003c46c:	23006290 	lbu	v0,35(v1)
8003c470:	2120a003 	move	a0,sp
8003c474:	1800a2af 	sw	v0,24(sp)
8003c478:	0000828c 	lw	v0,0(a0)
8003c47c:	00000000 	nop
8003c480:	ffff4324 	addiu	v1,v0,-1
8003c484:	0800622c 	sltiu	v0,v1,8
8003c488:	44004010 	beqz	v0,0x8003c59c
8003c48c:	80100300 	sll	v0,v1,0x2
8003c490:	21104f00 	addu	v0,v0,t7
8003c494:	0000428c 	lw	v0,0(v0)
8003c498:	00000000 	nop
8003c49c:	08004000 	jr	v0
8003c4a0:	00000000 	nop
8003c4a4:	1000828c 	lw	v0,16(a0)
8003c4a8:	00000000 	nop
8003c4ac:	2128a200 	addu	a1,a1,v0
8003c4b0:	6500a228 	slti	v0,a1,101
8003c4b4:	39004014 	bnez	v0,0x8003c59c
8003c4b8:	00000000 	nop
8003c4bc:	67f30008 	j	0x8003cd9c
8003c4c0:	64000524 	li	a1,100
8003c4c4:	1000828c 	lw	v0,16(a0)
8003c4c8:	00000000 	nop
8003c4cc:	2130c200 	addu	a2,a2,v0
8003c4d0:	6500c228 	slti	v0,a2,101
8003c4d4:	31004014 	bnez	v0,0x8003c59c
8003c4d8:	00000000 	nop
8003c4dc:	67f30008 	j	0x8003cd9c
8003c4e0:	64000624 	li	a2,100
8003c4e4:	1000828c 	lw	v0,16(a0)
8003c4e8:	00000000 	nop
8003c4ec:	21400201 	addu	t0,t0,v0
8003c4f0:	15000229 	slti	v0,t0,21
8003c4f4:	29004014 	bnez	v0,0x8003c59c
8003c4f8:	00000000 	nop
8003c4fc:	67f30008 	j	0x8003cd9c
8003c500:	14000824 	li	t0,20
8003c504:	25008005 	bltz	t4,0x8003c59c
8003c508:	01000224 	li	v0,1
8003c50c:	1000838c 	lw	v1,16(a0)
8003c510:	00000000 	nop
8003c514:	03006214 	bne	v1,v0,0x8003c524
8003c518:	00000000 	nop
8003c51c:	67f30008 	j	0x8003cd9c
8003c520:	21604000 	move	t4,v0
8003c524:	02000224 	li	v0,2
8003c528:	1c006214 	bne	v1,v0,0x8003c59c
8003c52c:	00000000 	nop
8003c530:	67f30008 	j	0x8003cd9c
8003c534:	ffff0c24 	li	t4,-1
8003c538:	1000828c 	lw	v0,16(a0)
8003c53c:	00000000 	nop
8003c540:	21482201 	addu	t1,t1,v0
8003c544:	65002229 	slti	v0,t1,101
8003c548:	14004014 	bnez	v0,0x8003c59c
8003c54c:	00000000 	nop
8003c550:	67f30008 	j	0x8003cd9c
8003c554:	64000924 	li	t1,100
8003c558:	1000828c 	lw	v0,16(a0)
8003c55c:	00000000 	nop
8003c560:	21504201 	addu	t2,t2,v0
8003c564:	65004229 	slti	v0,t2,101
8003c568:	0c004014 	bnez	v0,0x8003c59c
8003c56c:	00000000 	nop
8003c570:	67f30008 	j	0x8003cd9c
8003c574:	64000a24 	li	t2,100
8003c578:	1000828c 	lw	v0,16(a0)
8003c57c:	00000000 	nop
8003c580:	21586201 	addu	t3,t3,v0
8003c584:	65006229 	slti	v0,t3,101
8003c588:	04004014 	bnez	v0,0x8003c59c
8003c58c:	00000000 	nop
8003c590:	67f30008 	j	0x8003cd9c
8003c594:	64000b24 	li	t3,100
8003c598:	01000e24 	li	t6,1
8003c59c:	04008424 	addiu	a0,a0,4
8003c5a0:	0c00a227 	addiu	v0,sp,12
8003c5a4:	2a108200 	slt	v0,a0,v0
8003c5a8:	b3ff4014 	bnez	v0,0x8003c478
8003c5ac:	00000000 	nop
8003c5b0:	0100e724 	addiu	a3,a3,1
8003c5b4:	1100e228 	slti	v0,a3,17
8003c5b8:	83ff4014 	bnez	v0,0x8003c3c8
8003c5bc:	0200ad25 	addiu	t5,t5,2
8003c5c0:	0f00a010 	beqz	a1,0x8003c600
8003c5c4:	64000224 	li	v0,100
8003c5c8:	1a004500 	div	zero,v0,a1
8003c5cc:	0200a014 	bnez	a1,0x8003c5d8
8003c5d0:	00000000 	nop
8003c5d4:	0d000700 	break	0x7
8003c5d8:	ffff0124 	li	at,-1
8003c5dc:	0400a114 	bne	a1,at,0x8003c5f0
8003c5e0:	0080013c 	lui	at,0x8000
8003c5e4:	02004114 	bne	v0,at,0x8003c5f0
8003c5e8:	00000000 	nop
8003c5ec:	0d000600 	break	0x6
8003c5f0:	12100000 	mflo	v0
8003c5f4:	1a80033c 	lui	v1,0x801a
8003c5f8:	82f30008 	j	0x8003ce08
8003c5fc:	ec9062a0 	sb	v0,-28436(v1)
8003c600:	1a80023c 	lui	v0,0x801a
8003c604:	ec9040a0 	sb	zero,-28436(v0)
8003c608:	0f00c010 	beqz	a2,0x8003c648
8003c60c:	64000224 	li	v0,100
8003c610:	1a004600 	div	zero,v0,a2
8003c614:	0200c014 	bnez	a2,0x8003c620
8003c618:	00000000 	nop
8003c61c:	0d000700 	break	0x7
8003c620:	ffff0124 	li	at,-1
8003c624:	0400c114 	bne	a2,at,0x8003c638
8003c628:	0080013c 	lui	at,0x8000
8003c62c:	02004114 	bne	v0,at,0x8003c638
8003c630:	00000000 	nop
8003c634:	0d000600 	break	0x6
8003c638:	12100000 	mflo	v0
8003c63c:	1a80033c 	lui	v1,0x801a
8003c640:	94f30008 	j	0x8003ce50
8003c644:	ed9062a0 	sb	v0,-28435(v1)
8003c648:	1a80023c 	lui	v0,0x801a
8003c64c:	ed9040a0 	sb	zero,-28435(v0)
8003c650:	1a80023c 	lui	v0,0x801a
8003c654:	288f4324 	addiu	v1,v0,-28888
8003c658:	80100800 	sll	v0,t0,0x2
8003c65c:	21104800 	addu	v0,v0,t0
8003c660:	04008105 	bgez	t4,0x8003c674
8003c664:	c60162a0 	sb	v0,454(v1)
8003c668:	ffff0224 	li	v0,-1
8003c66c:	a2f30008 	j	0x8003ce88
8003c670:	c70162a0 	sb	v0,455(v1)
8003c674:	03008019 	blez	t4,0x8003c684
8003c678:	01000224 	li	v0,1
8003c67c:	a2f30008 	j	0x8003ce88
8003c680:	c70162a0 	sb	v0,455(v1)
8003c684:	c70160a0 	sb	zero,455(v1)
8003c688:	eb51033c 	lui	v1,0x51eb
8003c68c:	1f856334 	ori	v1,v1,0x851f
8003c690:	80100900 	sll	v0,t1,0x2
8003c694:	21104900 	addu	v0,v0,t1
8003c698:	00110200 	sll	v0,v0,0x4
8003c69c:	18004300 	mult	v0,v1
8003c6a0:	1a80043c 	lui	a0,0x801a
8003c6a4:	288f8424 	addiu	a0,a0,-28888
8003c6a8:	c3170200 	sra	v0,v0,0x1f
8003c6ac:	c9018aa0 	sb	t2,457(a0)
8003c6b0:	ca018ba0 	sb	t3,458(a0)
8003c6b4:	cb018ea0 	sb	t6,459(a0)
8003c6b8:	10c80000 	mfhi	t9
8003c6bc:	43191900 	sra	v1,t9,0x5
8003c6c0:	23186200 	subu	v1,v1,v0
8003c6c4:	64000224 	li	v0,100
8003c6c8:	23104300 	subu	v0,v0,v1
8003c6cc:	c80182a0 	sb	v0,456(a0)
8003c6d0:	2000bd27 	addiu	sp,sp,32
8003c6d4:	0800e003 	jr	ra
8003c6d8:	00000000 	nop
8003c6dc:	e8ffbd27 	addiu	sp,sp,-24
8003c6e0:	1000bfaf 	sw	ra,16(sp)
8003c6e4:	e2f2000c 	jal	0x8003cb88
8003c6e8:	00000000 	nop
8003c6ec:	ea68010c 	jal	0x8005a3a8
8003c6f0:	21200000 	move	a0,zero
8003c6f4:	1a80023c 	lui	v0,0x801a
8003c6f8:	288f4424 	addiu	a0,v0,-28888
8003c6fc:	288f4394 	lhu	v1,-28888(v0)
8003c700:	02008294 	lhu	v0,2(a0)
8003c704:	00000000 	nop
8003c708:	2b106200 	sltu	v0,v1,v0
8003c70c:	02004010 	beqz	v0,0x8003c718
8003c710:	00000000 	nop
8003c714:	020083a4 	sh	v1,2(a0)
8003c718:	1000bf8f 	lw	ra,16(sp)
8003c71c:	1800bd27 	addiu	sp,sp,24
8003c720:	0800e003 	jr	ra
8003c724:	00000000 	nop
8003c728:	e8ffbd27 	addiu	sp,sp,-24
8003c72c:	1a80033c 	lui	v1,0x801a
8003c730:	288f6224 	addiu	v0,v1,-28888
8003c734:	1400bfaf 	sw	ra,20(sp)
8003c738:	1000b0af 	sw	s0,16(sp)
8003c73c:	02004294 	lhu	v0,2(v0)
8003c740:	00000000 	nop
8003c744:	21804400 	addu	s0,v0,a0
8003c748:	0600001e 	bgtz	s0,0x8003c764
8003c74c:	00000000 	nop
8003c750:	21800000 	move	s0,zero
8003c754:	45ef000c 	jal	0x8003bd14
8003c758:	21200002 	move	a0,s0
8003c75c:	dff30008 	j	0x8003cf7c
8003c760:	1a80023c 	lui	v0,0x801a
8003c764:	288f6394 	lhu	v1,-28888(v1)
8003c768:	00000000 	nop
8003c76c:	2a107000 	slt	v0,v1,s0
8003c770:	02004010 	beqz	v0,0x8003c77c
8003c774:	1a80023c 	lui	v0,0x801a
8003c778:	21806000 	move	s0,v1
8003c77c:	2a8f50a4 	sh	s0,-28886(v0)
8003c780:	1400bf8f 	lw	ra,20(sp)
8003c784:	1000b08f 	lw	s0,16(sp)
8003c788:	1800bd27 	addiu	sp,sp,24
8003c78c:	0800e003 	jr	ra
8003c790:	00000000 	nop
8003c794:	1a80023c 	lui	v0,0x801a
8003c798:	288f4524 	addiu	a1,v0,-28888
8003c79c:	0600a294 	lhu	v0,6(a1)
8003c7a0:	00000000 	nop
8003c7a4:	21184400 	addu	v1,v0,a0
8003c7a8:	0300601c 	bgtz	v1,0x8003c7b8
8003c7ac:	00000000 	nop
8003c7b0:	f4f30008 	j	0x8003cfd0
8003c7b4:	21180000 	move	v1,zero
8003c7b8:	0400a494 	lhu	a0,4(a1)
8003c7bc:	00000000 	nop
8003c7c0:	2a108300 	slt	v0,a0,v1
8003c7c4:	03004010 	beqz	v0,0x8003c7d4
8003c7c8:	1a80023c 	lui	v0,0x801a
8003c7cc:	21188000 	move	v1,a0
8003c7d0:	1a80023c 	lui	v0,0x801a
8003c7d4:	0800e003 	jr	ra
8003c7d8:	2e8f43a4 	sh	v1,-28882(v0)
8003c7dc:	1c80033c 	lui	v1,0x801c
8003c7e0:	f8766324 	addiu	v1,v1,30456
8003c7e4:	40100400 	sll	v0,a0,0x1
8003c7e8:	21104400 	addu	v0,v0,a0
8003c7ec:	80100200 	sll	v0,v0,0x2
8003c7f0:	23104400 	subu	v0,v0,a0
8003c7f4:	80100200 	sll	v0,v0,0x2
8003c7f8:	21104300 	addu	v0,v0,v1
8003c7fc:	40014290 	lbu	v0,320(v0)
8003c800:	00000000 	nop
8003c804:	08004010 	beqz	v0,0x8003c828
8003c808:	04004228 	slti	v0,v0,4
8003c80c:	06004010 	beqz	v0,0x8003c828
8003c810:	1a80023c 	lui	v0,0x801a
8003c814:	288f4224 	addiu	v0,v0,-28888
8003c818:	2c00438c 	lw	v1,44(v0)
8003c81c:	0001043c 	lui	a0,0x100
8003c820:	25186400 	or	v1,v1,a0
8003c824:	2c0043ac 	sw	v1,44(v0)
8003c828:	0800e003 	jr	ra
8003c82c:	00000000 	nop
8003c830:	b8ffbd27 	addiu	sp,sp,-72
8003c834:	1000a727 	addiu	a3,sp,16
8003c838:	0180023c 	lui	v0,0x8001
8003c83c:	7c1c4624 	addiu	a2,v0,7292
8003c840:	2000c824 	addiu	t0,a2,32
8003c844:	4000bfaf 	sw	ra,64(sp)
8003c848:	3c00b1af 	sw	s1,60(sp)
8003c84c:	3800b0af 	sw	s0,56(sp)
8003c850:	0000c28c 	lw	v0,0(a2)
8003c854:	0400c38c 	lw	v1,4(a2)
8003c858:	0800c48c 	lw	a0,8(a2)
8003c85c:	0c00c58c 	lw	a1,12(a2)
8003c860:	0000e2ac 	sw	v0,0(a3)
8003c864:	0400e3ac 	sw	v1,4(a3)
8003c868:	0800e4ac 	sw	a0,8(a3)
8003c86c:	0c00e5ac 	sw	a1,12(a3)
8003c870:	1000c624 	addiu	a2,a2,16
8003c874:	f6ffc814 	bne	a2,t0,0x8003c850
8003c878:	1000e724 	addiu	a3,a3,16
8003c87c:	0000c28c 	lw	v0,0(a2)
8003c880:	0400c38c 	lw	v1,4(a2)
8003c884:	0000e2ac 	sw	v0,0(a3)
8003c888:	0400e3ac 	sw	v1,4(a3)
8003c88c:	1000b027 	addiu	s0,sp,16
8003c890:	fffe053c 	lui	a1,0xfeff
8003c894:	ffffa534 	ori	a1,a1,0xffff
8003c898:	1a80033c 	lui	v1,0x801a
8003c89c:	288f6324 	addiu	v1,v1,-28888
8003c8a0:	2c00628c 	lw	v0,44(v1)
8003c8a4:	1000a48f 	lw	a0,16(sp)
8003c8a8:	24104500 	and	v0,v0,a1
8003c8ac:	0f008010 	beqz	a0,0x8003c8ec
8003c8b0:	2c0062ac 	sw	v0,44(v1)
8003c8b4:	ffff1134 	li	s1,0xffff
8003c8b8:	0000038e 	lw	v1,0(s0)
8003c8bc:	00000000 	nop
8003c8c0:	00006294 	lhu	v0,0(v1)
8003c8c4:	00000000 	nop
8003c8c8:	03005110 	beq	v0,s1,0x8003c8d8
8003c8cc:	00000000 	nop
8003c8d0:	f7f3000c 	jal	0x8003cfdc
8003c8d4:	21204000 	move	a0,v0
8003c8d8:	04001026 	addiu	s0,s0,4
8003c8dc:	0000028e 	lw	v0,0(s0)
8003c8e0:	00000000 	nop
8003c8e4:	f4ff4014 	bnez	v0,0x8003c8b8
8003c8e8:	00000000 	nop
8003c8ec:	4000bf8f 	lw	ra,64(sp)
8003c8f0:	3c00b18f 	lw	s1,60(sp)
8003c8f4:	3800b08f 	lw	s0,56(sp)
8003c8f8:	4800bd27 	addiu	sp,sp,72
8003c8fc:	0800e003 	jr	ra
8003c900:	00000000 	nop
8003c904:	e0ffbd27 	addiu	sp,sp,-32
8003c908:	1000b0af 	sw	s0,16(sp)
8003c90c:	2180a000 	move	s0,a1
8003c910:	1c00bfaf 	sw	ra,28(sp)
8003c914:	1800b2af 	sw	s2,24(sp)
8003c918:	1400b1af 	sw	s1,20(sp)
8003c91c:	00000296 	lhu	v0,0(s0)
8003c920:	ffff1234 	li	s2,0xffff
8003c924:	51005210 	beq	v0,s2,0x8003ca6c
8003c928:	1c80023c 	lui	v0,0x801c
8003c92c:	00000396 	lhu	v1,0(s0)
8003c930:	f8765124 	addiu	s1,v0,30456
8003c934:	40100300 	sll	v0,v1,0x1
8003c938:	21104300 	addu	v0,v0,v1
8003c93c:	80100200 	sll	v0,v0,0x2
8003c940:	23104300 	subu	v0,v0,v1
8003c944:	80100200 	sll	v0,v0,0x2
8003c948:	21105100 	addu	v0,v0,s1
8003c94c:	40014390 	lbu	v1,320(v0)
8003c950:	00000000 	nop
8003c954:	45006010 	beqz	v1,0x8003ca6c
8003c958:	23186400 	subu	v1,v1,a0
8003c95c:	4000601c 	bgtz	v1,0x8003ca60
8003c960:	04000424 	li	a0,4
8003c964:	bc60010c 	jal	0x800582f0
8003c968:	80000524 	li	a1,128
8003c96c:	00000296 	lhu	v0,0(s0)
8003c970:	00000000 	nop
8003c974:	40180200 	sll	v1,v0,0x1
8003c978:	21186200 	addu	v1,v1,v0
8003c97c:	80180300 	sll	v1,v1,0x2
8003c980:	23186200 	subu	v1,v1,v0
8003c984:	80180300 	sll	v1,v1,0x2
8003c988:	21187100 	addu	v1,v1,s1
8003c98c:	1a80023c 	lui	v0,0x801a
8003c990:	608f4224 	addiu	v0,v0,-28832
8003c994:	05000212 	beq	s0,v0,0x8003c9ac
8003c998:	400160a0 	sb	zero,320(v1)
8003c99c:	1a004224 	addiu	v0,v0,26
8003c9a0:	03000212 	beq	s0,v0,0x8003c9b0
8003c9a4:	1a80023c 	lui	v0,0x801a
8003c9a8:	000012a6 	sh	s2,0(s0)
8003c9ac:	1a80023c 	lui	v0,0x801a
8003c9b0:	668f4324 	addiu	v1,v0,-28826
8003c9b4:	0d000316 	bne	s0,v1,0x8003c9ec
8003c9b8:	1a006224 	addiu	v0,v1,26
8003c9bc:	0a010292 	lbu	v0,266(s0)
8003c9c0:	00000000 	nop
8003c9c4:	e1ff4224 	addiu	v0,v0,-31
8003c9c8:	0400422c 	sltiu	v0,v0,4
8003c9cc:	04004010 	beqz	v0,0x8003c9e0
8003c9d0:	01000524 	li	a1,1
8003c9d4:	ffff0434 	li	a0,0xffff
8003c9d8:	4bfc000c 	jal	0x8003f12c
8003c9dc:	21300000 	move	a2,zero
8003c9e0:	ffff0434 	li	a0,0xffff
8003c9e4:	88f40008 	j	0x8003d220
8003c9e8:	21280000 	move	a1,zero
8003c9ec:	04000216 	bne	s0,v0,0x8003ca00
8003c9f0:	02006224 	addiu	v0,v1,2
8003c9f4:	ffff0434 	li	a0,0xffff
8003c9f8:	88f40008 	j	0x8003d220
8003c9fc:	01000524 	li	a1,1
8003ca00:	04000216 	bne	s0,v0,0x8003ca14
8003ca04:	1c006224 	addiu	v0,v1,28
8003ca08:	ffff0434 	li	a0,0xffff
8003ca0c:	88f40008 	j	0x8003d220
8003ca10:	02000524 	li	a1,2
8003ca14:	04000216 	bne	s0,v0,0x8003ca28
8003ca18:	ffff0434 	li	a0,0xffff
8003ca1c:	03000524 	li	a1,3
8003ca20:	4bfc000c 	jal	0x8003f12c
8003ca24:	21300000 	move	a2,zero
8003ca28:	e2f2000c 	jal	0x8003cb88
8003ca2c:	00000000 	nop
8003ca30:	ea68010c 	jal	0x8005a3a8
8003ca34:	21200000 	move	a0,zero
8003ca38:	1a80023c 	lui	v0,0x801a
8003ca3c:	288f4424 	addiu	a0,v0,-28888
8003ca40:	288f4394 	lhu	v1,-28888(v0)
8003ca44:	02008294 	lhu	v0,2(a0)
8003ca48:	00000000 	nop
8003ca4c:	2b106200 	sltu	v0,v1,v0
8003ca50:	04004010 	beqz	v0,0x8003ca64
8003ca54:	00000000 	nop
8003ca58:	99f40008 	j	0x8003d264
8003ca5c:	020083a4 	sh	v1,2(a0)
8003ca60:	400143a0 	sb	v1,320(v0)
8003ca64:	0cf4000c 	jal	0x8003d030
8003ca68:	00000000 	nop
8003ca6c:	1c00bf8f 	lw	ra,28(sp)
8003ca70:	1800b28f 	lw	s2,24(sp)
8003ca74:	1400b18f 	lw	s1,20(sp)
8003ca78:	1000b08f 	lw	s0,16(sp)
8003ca7c:	2000bd27 	addiu	sp,sp,32
8003ca80:	0800e003 	jr	ra
8003ca84:	00000000 	nop
8003ca88:	c0ffbd27 	addiu	sp,sp,-64
8003ca8c:	21408000 	move	t0,a0
8003ca90:	0180023c 	lui	v0,0x8001
8003ca94:	3800bfaf 	sw	ra,56(sp)
8003ca98:	3400b5af 	sw	s5,52(sp)
8003ca9c:	3000b4af 	sw	s4,48(sp)
8003caa0:	2c00b3af 	sw	s3,44(sp)
8003caa4:	2800b2af 	sw	s2,40(sp)
8003caa8:	2400b1af 	sw	s1,36(sp)
8003caac:	2000b0af 	sw	s0,32(sp)
8003cab0:	a41c4724 	addiu	a3,v0,7332
8003cab4:	0000e38c 	lw	v1,0(a3)
8003cab8:	0400e48c 	lw	a0,4(a3)
8003cabc:	0800e68c 	lw	a2,8(a3)
8003cac0:	1000a3af 	sw	v1,16(sp)
8003cac4:	1400a4af 	sw	a0,20(sp)
8003cac8:	1800a6af 	sw	a2,24(sp)
8003cacc:	0c00e38c 	lw	v1,12(a3)
8003cad0:	00000000 	nop
8003cad4:	1c00a3af 	sw	v1,28(sp)
8003cad8:	1a80063c 	lui	a2,0x801a
8003cadc:	288fc724 	addiu	a3,a2,-28888
8003cae0:	8901e290 	lbu	v0,393(a3)
8003cae4:	00000000 	nop
8003cae8:	51004010 	beqz	v0,0x8003cc30
8003caec:	ffff0234 	li	v0,0xffff
8003caf0:	5800e394 	lhu	v1,88(a3)
8003caf4:	00000000 	nop
8003caf8:	4d006210 	beq	v1,v0,0x8003cc30
8003cafc:	80100800 	sll	v0,t0,0x2
8003cb00:	21204800 	addu	a0,v0,t0
8003cb04:	288fc394 	lhu	v1,-28888(a2)
8003cb08:	80100400 	sll	v0,a0,0x2
8003cb0c:	2a104300 	slt	v0,v0,v1
8003cb10:	06004010 	beqz	v0,0x8003cb2c
8003cb14:	40100400 	sll	v0,a0,0x1
8003cb18:	1902e290 	lbu	v0,537(a3)
8003cb1c:	00000000 	nop
8003cb20:	01004224 	addiu	v0,v0,1
8003cb24:	e0f40008 	j	0x8003d380
8003cb28:	1902e2a0 	sb	v0,537(a3)
8003cb2c:	1a004300 	div	zero,v0,v1
8003cb30:	02006014 	bnez	v1,0x8003cb3c
8003cb34:	00000000 	nop
8003cb38:	0d000700 	break	0x7
8003cb3c:	ffff0124 	li	at,-1
8003cb40:	04006114 	bne	v1,at,0x8003cb54
8003cb44:	0080013c 	lui	at,0x8000
8003cb48:	02004114 	bne	v0,at,0x8003cb54
8003cb4c:	00000000 	nop
8003cb50:	0d000600 	break	0x6
8003cb54:	12100000 	mflo	v0
8003cb58:	00000000 	nop
8003cb5c:	01004624 	addiu	a2,v0,1
8003cb60:	8200c018 	blez	a2,0x8003cd6c
8003cb64:	40100600 	sll	v0,a2,0x1
8003cb68:	1902e390 	lbu	v1,537(a3)
8003cb6c:	1a02e490 	lbu	a0,538(a3)
8003cb70:	21186200 	addu	v1,v1,v0
8003cb74:	21208600 	addu	a0,a0,a2
8003cb78:	1902e3a0 	sb	v1,537(a3)
8003cb7c:	1a02e4a0 	sb	a0,538(a3)
8003cb80:	1a80023c 	lui	v0,0x801a
8003cb84:	288f4824 	addiu	t0,v0,-28888
8003cb88:	19020391 	lbu	v1,537(t0)
8003cb8c:	cccc023c 	lui	v0,0xcccc
8003cb90:	cdcc4234 	ori	v0,v0,0xcccd
8003cb94:	19006200 	multu	v1,v0
8003cb98:	10300000 	mfhi	a2
8003cb9c:	1a020491 	lbu	a0,538(t0)
8003cba0:	00000000 	nop
8003cba4:	19008200 	multu	a0,v0
8003cba8:	82100600 	srl	v0,a2,0x2
8003cbac:	ff004630 	andi	a2,v0,0xff
8003cbb0:	10380000 	mfhi	a3
8003cbb4:	82100700 	srl	v0,a3,0x2
8003cbb8:	ff005130 	andi	s1,v0,0xff
8003cbbc:	80100600 	sll	v0,a2,0x2
8003cbc0:	21104600 	addu	v0,v0,a2
8003cbc4:	23186200 	subu	v1,v1,v0
8003cbc8:	80101100 	sll	v0,s1,0x2
8003cbcc:	21105100 	addu	v0,v0,s1
8003cbd0:	23208200 	subu	a0,a0,v0
8003cbd4:	0004a230 	andi	v0,a1,0x400
8003cbd8:	190203a1 	sb	v1,537(t0)
8003cbdc:	08004010 	beqz	v0,0x8003cc00
8003cbe0:	1a0204a1 	sb	a0,538(t0)
8003cbe4:	2c00028d 	lw	v0,44(t0)
8003cbe8:	8000033c 	lui	v1,0x80
8003cbec:	24104300 	and	v0,v0,v1
8003cbf0:	04004014 	bnez	v0,0x8003cc04
8003cbf4:	0010a230 	andi	v0,a1,0x1000
8003cbf8:	40300600 	sll	a2,a2,0x1
8003cbfc:	40881100 	sll	s1,s1,0x1
8003cc00:	0010a230 	andi	v0,a1,0x1000
8003cc04:	04004010 	beqz	v0,0x8003cc18
8003cc08:	80100600 	sll	v0,a2,0x2
8003cc0c:	2130c200 	addu	a2,a2,v0
8003cc10:	80101100 	sll	v0,s1,0x2
8003cc14:	21882202 	addu	s1,s1,v0
8003cc18:	2120c000 	move	a0,a2
8003cc1c:	1a80053c 	lui	a1,0x801a
8003cc20:	41f4000c 	jal	0x8003d104
8003cc24:	808fa524 	addiu	a1,a1,-28800
8003cc28:	49f50008 	j	0x8003d524
8003cc2c:	ffff1324 	li	s3,-1
8003cc30:	80100800 	sll	v0,t0,0x2
8003cc34:	21204800 	addu	a0,v0,t0
8003cc38:	80100400 	sll	v0,a0,0x2
8003cc3c:	1a80033c 	lui	v1,0x801a
8003cc40:	288f6694 	lhu	a2,-28888(v1)
8003cc44:	00000000 	nop
8003cc48:	2a104600 	slt	v0,v0,a2
8003cc4c:	47004014 	bnez	v0,0x8003cd6c
8003cc50:	288f6724 	addiu	a3,v1,-28888
8003cc54:	40100400 	sll	v0,a0,0x1
8003cc58:	1a004600 	div	zero,v0,a2
8003cc5c:	0200c014 	bnez	a2,0x8003cc68
8003cc60:	00000000 	nop
8003cc64:	0d000700 	break	0x7
8003cc68:	ffff0124 	li	at,-1
8003cc6c:	0400c114 	bne	a2,at,0x8003cc80
8003cc70:	0080013c 	lui	at,0x8000
8003cc74:	02004114 	bne	v0,at,0x8003cc80
8003cc78:	00000000 	nop
8003cc7c:	0d000600 	break	0x6
8003cc80:	12100000 	mflo	v0
8003cc84:	00000000 	nop
8003cc88:	01004624 	addiu	a2,v0,1
8003cc8c:	3700c018 	blez	a2,0x8003cd6c
8003cc90:	40180600 	sll	v1,a2,0x1
8003cc94:	1a02e290 	lbu	v0,538(a3)
8003cc98:	00000000 	nop
8003cc9c:	21104300 	addu	v0,v0,v1
8003cca0:	1a02e2a0 	sb	v0,538(a3)
8003cca4:	1a02e390 	lbu	v1,538(a3)
8003cca8:	cccc023c 	lui	v0,0xcccc
8003ccac:	cdcc4234 	ori	v0,v0,0xcccd
8003ccb0:	19006200 	multu	v1,v0
8003ccb4:	10480000 	mfhi	t1
8003ccb8:	82100900 	srl	v0,t1,0x2
8003ccbc:	ff005130 	andi	s1,v0,0xff
8003ccc0:	80101100 	sll	v0,s1,0x2
8003ccc4:	21105100 	addu	v0,v0,s1
8003ccc8:	23186200 	subu	v1,v1,v0
8003cccc:	0004a230 	andi	v0,a1,0x400
8003ccd0:	07004010 	beqz	v0,0x8003ccf0
8003ccd4:	1a02e3a0 	sb	v1,538(a3)
8003ccd8:	2c00e28c 	lw	v0,44(a3)
8003ccdc:	8000033c 	lui	v1,0x80
8003cce0:	24104300 	and	v0,v0,v1
8003cce4:	03004014 	bnez	v0,0x8003ccf4
8003cce8:	0010a230 	andi	v0,a1,0x1000
8003ccec:	40881100 	sll	s1,s1,0x1
8003ccf0:	0010a230 	andi	v0,a1,0x1000
8003ccf4:	02004010 	beqz	v0,0x8003cd00
8003ccf8:	80101100 	sll	v0,s1,0x2
8003ccfc:	21882202 	addu	s1,s1,v0
8003cd00:	b1e2010c 	jal	0x80078ac4
8003cd04:	00000000 	nop
8003cd08:	80180200 	sll	v1,v0,0x2
8003cd0c:	21186200 	addu	v1,v1,v0
8003cd10:	c39b0300 	sra	s3,v1,0xf
8003cd14:	0500622a 	slti	v0,s3,5
8003cd18:	03004014 	bnez	v0,0x8003cd28
8003cd1c:	03001024 	li	s0,3
8003cd20:	04001324 	li	s3,4
8003cd24:	03001024 	li	s0,3
8003cd28:	ffff1534 	li	s5,0xffff
8003cd2c:	ffff1424 	li	s4,-1
8003cd30:	1c00b227 	addiu	s2,sp,28
8003cd34:	0000458e 	lw	a1,0(s2)
8003cd38:	00000000 	nop
8003cd3c:	0000a294 	lhu	v0,0(a1)
8003cd40:	00000000 	nop
8003cd44:	06005510 	beq	v0,s5,0x8003cd60
8003cd48:	00000000 	nop
8003cd4c:	02001316 	bne	s0,s3,0x8003cd58
8003cd50:	21202002 	move	a0,s1
8003cd54:	40201100 	sll	a0,s1,0x1
8003cd58:	41f4000c 	jal	0x8003d104
8003cd5c:	00000000 	nop
8003cd60:	ffff1026 	addiu	s0,s0,-1
8003cd64:	f3ff1416 	bne	s0,s4,0x8003cd34
8003cd68:	fcff5226 	addiu	s2,s2,-4
8003cd6c:	3800bf8f 	lw	ra,56(sp)
8003cd70:	3400b58f 	lw	s5,52(sp)
8003cd74:	3000b48f 	lw	s4,48(sp)
8003cd78:	2c00b38f 	lw	s3,44(sp)
8003cd7c:	2800b28f 	lw	s2,40(sp)
8003cd80:	2400b18f 	lw	s1,36(sp)
8003cd84:	2000b08f 	lw	s0,32(sp)
8003cd88:	4000bd27 	addiu	sp,sp,64
8003cd8c:	0800e003 	jr	ra
8003cd90:	00000000 	nop
8003cd94:	e0ffbd27 	addiu	sp,sp,-32
8003cd98:	1a80023c 	lui	v0,0x801a
8003cd9c:	1800b2af 	sw	s2,24(sp)
8003cda0:	288f5224 	addiu	s2,v0,-28888
8003cda4:	1c00bfaf 	sw	ra,28(sp)
8003cda8:	1400b1af 	sw	s1,20(sp)
8003cdac:	1000b0af 	sw	s0,16(sp)
8003cdb0:	f402448e 	lw	a0,756(s2)
8003cdb4:	00000000 	nop
8003cdb8:	6c008004 	bltz	a0,0x8003cf6c
8003cdbc:	5555023c 	lui	v0,0x5555
8003cdc0:	56554234 	ori	v0,v0,0x5556
8003cdc4:	18008200 	mult	a0,v0
8003cdc8:	c31f0400 	sra	v1,a0,0x1f
8003cdcc:	10280000 	mfhi	a1
8003cdd0:	2318a300 	subu	v1,a1,v1
8003cdd4:	40100300 	sll	v0,v1,0x1
8003cdd8:	21104300 	addu	v0,v0,v1
8003cddc:	20008214 	bne	a0,v0,0x8003ce60
8003cde0:	00000000 	nop
8003cde4:	b1e2010c 	jal	0x80078ac4
8003cde8:	6666113c 	lui	s1,0x6666
8003cdec:	67663136 	ori	s1,s1,0x6667
8003cdf0:	f402448e 	lw	a0,756(s2)
8003cdf4:	1e001024 	li	s0,30
8003cdf8:	23200402 	subu	a0,s0,a0
8003cdfc:	18009100 	mult	a0,s1
8003ce00:	00c04224 	addiu	v0,v0,-16384
8003ce04:	c3270400 	sra	a0,a0,0x1f
8003ce08:	10280000 	mfhi	a1
8003ce0c:	43180500 	sra	v1,a1,0x1
8003ce10:	23186400 	subu	v1,v1,a0
8003ce14:	05006324 	addiu	v1,v1,5
8003ce18:	07106200 	srav	v0,v0,v1
8003ce1c:	100382a7 	sh	v0,784(gp)
8003ce20:	b1e2010c 	jal	0x80078ac4
8003ce24:	00000000 	nop
8003ce28:	f402438e 	lw	v1,756(s2)
8003ce2c:	00000000 	nop
8003ce30:	23800302 	subu	s0,s0,v1
8003ce34:	18001102 	mult	s0,s1
8003ce38:	00c04224 	addiu	v0,v0,-16384
8003ce3c:	c3871000 	sra	s0,s0,0x1f
8003ce40:	10280000 	mfhi	a1
8003ce44:	43180500 	sra	v1,a1,0x1
8003ce48:	23187000 	subu	v1,v1,s0
8003ce4c:	05006324 	addiu	v1,v1,5
8003ce50:	07106200 	srav	v0,v0,v1
8003ce54:	120382a7 	sh	v0,786(gp)
8003ce58:	a0f50008 	j	0x8003d680
8003ce5c:	00000000 	nop
8003ce60:	10038297 	lhu	v0,784(gp)
8003ce64:	12038397 	lhu	v1,786(gp)
8003ce68:	00140200 	sll	v0,v0,0x10
8003ce6c:	43140200 	sra	v0,v0,0x11
8003ce70:	001c0300 	sll	v1,v1,0x10
8003ce74:	431c0300 	sra	v1,v1,0x11
8003ce78:	100382a7 	sh	v0,784(gp)
8003ce7c:	120383a7 	sh	v1,786(gp)
8003ce80:	10038497 	lhu	a0,784(gp)
8003ce84:	00000000 	nop
8003ce88:	02008224 	addiu	v0,a0,2
8003ce8c:	ffff4230 	andi	v0,v0,0xffff
8003ce90:	0500422c 	sltiu	v0,v0,5
8003ce94:	06004014 	bnez	v0,0x8003ceb0
8003ce98:	1a80033c 	lui	v1,0x801a
8003ce9c:	288f6324 	addiu	v1,v1,-28888
8003cea0:	88026294 	lhu	v0,648(v1)
8003cea4:	00000000 	nop
8003cea8:	21104400 	addu	v0,v0,a0
8003ceac:	880262a4 	sh	v0,648(v1)
8003ceb0:	12038497 	lhu	a0,786(gp)
8003ceb4:	00000000 	nop
8003ceb8:	02008224 	addiu	v0,a0,2
8003cebc:	ffff4230 	andi	v0,v0,0xffff
8003cec0:	0500422c 	sltiu	v0,v0,5
8003cec4:	08004014 	bnez	v0,0x8003cee8
8003cec8:	1a80023c 	lui	v0,0x801a
8003cecc:	1a80033c 	lui	v1,0x801a
8003ced0:	288f6324 	addiu	v1,v1,-28888
8003ced4:	8c026294 	lhu	v0,652(v1)
8003ced8:	00000000 	nop
8003cedc:	21104400 	addu	v0,v0,a0
8003cee0:	8c0262a4 	sh	v0,652(v1)
8003cee4:	1a80023c 	lui	v0,0x801a
8003cee8:	288f4324 	addiu	v1,v0,-28888
8003ceec:	88026294 	lhu	v0,648(v1)
8003cef0:	00000000 	nop
8003cef4:	fff74224 	addiu	v0,v0,-2049
8003cef8:	bf07422c 	sltiu	v0,v0,1983
8003cefc:	02004010 	beqz	v0,0x8003cf08
8003cf00:	c00f0224 	li	v0,4032
8003cf04:	880262a4 	sh	v0,648(v1)
8003cf08:	88026294 	lhu	v0,648(v1)
8003cf0c:	00000000 	nop
8003cf10:	bfff4224 	addiu	v0,v0,-65
8003cf14:	bf07422c 	sltiu	v0,v0,1983
8003cf18:	02004010 	beqz	v0,0x8003cf24
8003cf1c:	40000224 	li	v0,64
8003cf20:	880262a4 	sh	v0,648(v1)
8003cf24:	8c026294 	lhu	v0,652(v1)
8003cf28:	00000000 	nop
8003cf2c:	fff74224 	addiu	v0,v0,-2049
8003cf30:	bf07422c 	sltiu	v0,v0,1983
8003cf34:	02004010 	beqz	v0,0x8003cf40
8003cf38:	c00f0224 	li	v0,4032
8003cf3c:	8c0262a4 	sh	v0,652(v1)
8003cf40:	8c026294 	lhu	v0,652(v1)
8003cf44:	00000000 	nop
8003cf48:	bfff4224 	addiu	v0,v0,-65
8003cf4c:	bf07422c 	sltiu	v0,v0,1983
8003cf50:	02004010 	beqz	v0,0x8003cf5c
8003cf54:	40000224 	li	v0,64
8003cf58:	8c0262a4 	sh	v0,652(v1)
8003cf5c:	f402628c 	lw	v0,756(v1)
8003cf60:	00000000 	nop
8003cf64:	ffff4224 	addiu	v0,v0,-1
8003cf68:	f40262ac 	sw	v0,756(v1)
8003cf6c:	1c00bf8f 	lw	ra,28(sp)
8003cf70:	1800b28f 	lw	s2,24(sp)
8003cf74:	1400b18f 	lw	s1,20(sp)
8003cf78:	1000b08f 	lw	s0,16(sp)
8003cf7c:	2000bd27 	addiu	sp,sp,32
8003cf80:	0800e003 	jr	ra
8003cf84:	00000000 	nop
8003cf88:	b8ffbd27 	addiu	sp,sp,-72
8003cf8c:	3400b5af 	sw	s5,52(sp)
8003cf90:	21a88000 	move	s5,a0
8003cf94:	3c00b7af 	sw	s7,60(sp)
8003cf98:	2400b1af 	sw	s1,36(sp)
8003cf9c:	1a80113c 	lui	s1,0x801a
8003cfa0:	2000b0af 	sw	s0,32(sp)
8003cfa4:	288f3026 	addiu	s0,s1,-28888
8003cfa8:	4000bfaf 	sw	ra,64(sp)
8003cfac:	3800b6af 	sw	s6,56(sp)
8003cfb0:	3000b4af 	sw	s4,48(sp)
8003cfb4:	2c00b3af 	sw	s3,44(sp)
8003cfb8:	2800b2af 	sw	s2,40(sp)
8003cfbc:	18020392 	lbu	v1,536(s0)
8003cfc0:	04000224 	li	v0,4
8003cfc4:	fa006210 	beq	v1,v0,0x8003d3b0
8003cfc8:	21b8c000 	move	s7,a2
8003cfcc:	f800a012 	beqz	s5,0x8003d3b0
8003cfd0:	00000000 	nop
8003cfd4:	a2f4000c 	jal	0x8003d288
8003cfd8:	ffffa530 	andi	a1,a1,0xffff
8003cfdc:	02000296 	lhu	v0,2(s0)
8003cfe0:	00000000 	nop
8003cfe4:	23a05500 	subu	s4,v0,s5
8003cfe8:	0200801e 	bgtz	s4,0x8003cff4
8003cfec:	00000000 	nop
8003cff0:	21a00000 	move	s4,zero
8003cff4:	020014a6 	sh	s4,2(s0)
8003cff8:	288f2396 	lhu	v1,-28888(s1)
8003cffc:	ffff8232 	andi	v0,s4,0xffff
8003d000:	2b106200 	sltu	v0,v1,v0
8003d004:	02004010 	beqz	v0,0x8003d010
8003d008:	00000000 	nop
8003d00c:	020003a6 	sh	v1,2(s0)
8003d010:	288f2396 	lhu	v1,-28888(s1)
8003d014:	00131500 	sll	v0,s5,0xc
8003d018:	1a004300 	div	zero,v0,v1
8003d01c:	02006014 	bnez	v1,0x8003d028
8003d020:	00000000 	nop
8003d024:	0d000700 	break	0x7
8003d028:	ffff0124 	li	at,-1
8003d02c:	04006114 	bne	v1,at,0x8003d040
8003d030:	0080013c 	lui	at,0x8000
8003d034:	02004114 	bne	v0,at,0x8003d040
8003d038:	00000000 	nop
8003d03c:	0d000600 	break	0x6
8003d040:	12900000 	mflo	s2
8003d044:	00000000 	nop
8003d048:	b703422a 	slti	v0,s2,951
8003d04c:	02004014 	bnez	v0,0x8003d058
8003d050:	00000000 	nop
8003d054:	b6031224 	li	s2,950
8003d058:	2600e012 	beqz	s7,0x8003d0f4
8003d05c:	83881200 	sra	s1,s2,0x2
8003d060:	1000a727 	addiu	a3,sp,16
8003d064:	4802028e 	lw	v0,584(s0)
8003d068:	0000e48e 	lw	a0,0(s7)
8003d06c:	4c02038e 	lw	v1,588(s0)
8003d070:	0400e58e 	lw	a1,4(s7)
8003d074:	0800e68e 	lw	a2,8(s7)
8003d078:	23204400 	subu	a0,v0,a0
8003d07c:	5002028e 	lw	v0,592(s0)
8003d080:	23286500 	subu	a1,v1,a1
8003d084:	e428010c 	jal	0x8004a390
8003d088:	23304600 	subu	a2,v0,a2
8003d08c:	5000222a 	slti	v0,s1,80
8003d090:	03004010 	beqz	v0,0x8003d0a0
8003d094:	c301222a 	slti	v0,s1,451
8003d098:	50001124 	li	s1,80
8003d09c:	c301222a 	slti	v0,s1,451
8003d0a0:	02004014 	bnez	v0,0x8003d0ac
8003d0a4:	1000a427 	addiu	a0,sp,16
8003d0a8:	c2011124 	li	s1,450
8003d0ac:	1800b027 	addiu	s0,sp,24
8003d0b0:	c227010c 	jal	0x80049f08
8003d0b4:	21280002 	move	a1,s0
8003d0b8:	21202002 	move	a0,s1
8003d0bc:	3e28010c 	jal	0x8004a0f8
8003d0c0:	21280002 	move	a1,s0
8003d0c4:	1a00a387 	lh	v1,26(sp)
8003d0c8:	00000000 	nop
8003d0cc:	c9006228 	slti	v0,v1,201
8003d0d0:	04004014 	bnez	v0,0x8003d0e4
8003d0d4:	38ff6228 	slti	v0,v1,-200
8003d0d8:	c8000224 	li	v0,200
8003d0dc:	40f60008 	j	0x8003d900
8003d0e0:	1a00a2a7 	sh	v0,26(sp)
8003d0e4:	06004010 	beqz	v0,0x8003d100
8003d0e8:	38ff0224 	li	v0,-200
8003d0ec:	40f60008 	j	0x8003d900
8003d0f0:	1a00a2a7 	sh	v0,26(sp)
8003d0f4:	1c00a0a7 	sh	zero,28(sp)
8003d0f8:	1a00a0a7 	sh	zero,26(sp)
8003d0fc:	1800a0a7 	sh	zero,24(sp)
8003d100:	43181200 	sra	v1,s2,0x1
8003d104:	14050224 	li	v0,1300
8003d108:	23104300 	subu	v0,v0,v1
8003d10c:	83100200 	sra	v0,v0,0x2
8003d110:	21b04000 	move	s6,v0
8003d114:	00140200 	sll	v0,v0,0x10
8003d118:	03140200 	sra	v0,v0,0x10
8003d11c:	47004228 	slti	v0,v0,71
8003d120:	02004010 	beqz	v0,0x8003d12c
8003d124:	1a80033c 	lui	v1,0x801a
8003d128:	46001624 	li	s6,70
8003d12c:	288f6424 	addiu	a0,v1,-28888
8003d130:	1e008294 	lhu	v0,30(a0)
8003d134:	00000000 	nop
8003d138:	22004010 	beqz	v0,0x8003d1c4
8003d13c:	80101500 	sll	v0,s5,0x2
8003d140:	21105500 	addu	v0,v0,s5
8003d144:	c0100200 	sll	v0,v0,0x3
8003d148:	23105500 	subu	v0,v0,s5
8003d14c:	00110200 	sll	v0,v0,0x4
8003d150:	21105500 	addu	v0,v0,s5
8003d154:	288f6394 	lhu	v1,-28888(v1)
8003d158:	c0100200 	sll	v0,v0,0x3
8003d15c:	1a004300 	div	zero,v0,v1
8003d160:	02006014 	bnez	v1,0x8003d16c
8003d164:	00000000 	nop
8003d168:	0d000700 	break	0x7
8003d16c:	ffff0124 	li	at,-1
8003d170:	04006114 	bne	v1,at,0x8003d184
8003d174:	0080013c 	lui	at,0x8000
8003d178:	02004114 	bne	v0,at,0x8003d184
8003d17c:	00000000 	nop
8003d180:	0d000600 	break	0x6
8003d184:	12100000 	mflo	v0
8003d188:	1e008394 	lhu	v1,30(a0)
8003d18c:	f4014224 	addiu	v0,v0,500
8003d190:	1a004300 	div	zero,v0,v1
8003d194:	02006014 	bnez	v1,0x8003d1a0
8003d198:	00000000 	nop
8003d19c:	0d000700 	break	0x7
8003d1a0:	ffff0124 	li	at,-1
8003d1a4:	04006114 	bne	v1,at,0x8003d1b8
8003d1a8:	0080013c 	lui	at,0x8000
8003d1ac:	02004114 	bne	v0,at,0x8003d1b8
8003d1b0:	00000000 	nop
8003d1b4:	0d000600 	break	0x6
8003d1b8:	12100000 	mflo	v0
8003d1bc:	73f60008 	j	0x8003d9cc
8003d1c0:	f40282ac 	sw	v0,756(a0)
8003d1c4:	1e000224 	li	v0,30
8003d1c8:	f40282ac 	sw	v0,756(a0)
8003d1cc:	1a80133c 	lui	s3,0x801a
8003d1d0:	288f7126 	addiu	s1,s3,-28888
8003d1d4:	f402228e 	lw	v0,756(s1)
8003d1d8:	00000000 	nop
8003d1dc:	06004104 	bgez	v0,0x8003d1f8
8003d1e0:	1f004228 	slti	v0,v0,31
8003d1e4:	ffff0224 	li	v0,-1
8003d1e8:	f40222ae 	sw	v0,756(s1)
8003d1ec:	f402228e 	lw	v0,756(s1)
8003d1f0:	00000000 	nop
8003d1f4:	1f004228 	slti	v0,v0,31
8003d1f8:	03004014 	bnez	v0,0x8003d208
8003d1fc:	00821500 	sll	s0,s5,0x8
8003d200:	1e000224 	li	v0,30
8003d204:	f40222ae 	sw	v0,756(s1)
8003d208:	288f6496 	lhu	a0,-28888(s3)
8003d20c:	23801502 	subu	s0,s0,s5
8003d210:	1a000402 	div	zero,s0,a0
8003d214:	02008014 	bnez	a0,0x8003d220
8003d218:	00000000 	nop
8003d21c:	0d000700 	break	0x7
8003d220:	ffff0124 	li	at,-1
8003d224:	04008114 	bne	a0,at,0x8003d238
8003d228:	0080013c 	lui	at,0x8000
8003d22c:	02000116 	bne	s0,at,0x8003d238
8003d230:	00000000 	nop
8003d234:	0d000600 	break	0x6
8003d238:	12200000 	mflo	a0
8003d23c:	9a5e010c 	jal	0x80057a68
8003d240:	00000000 	nop
8003d244:	288f6296 	lhu	v0,-28888(s3)
8003d248:	00000000 	nop
8003d24c:	1a000202 	div	zero,s0,v0
8003d250:	02004014 	bnez	v0,0x8003d25c
8003d254:	00000000 	nop
8003d258:	0d000700 	break	0x7
8003d25c:	ffff0124 	li	at,-1
8003d260:	04004114 	bne	v0,at,0x8003d274
8003d264:	0080013c 	lui	at,0x8000
8003d268:	02000116 	bne	s0,at,0x8003d274
8003d26c:	00000000 	nop
8003d270:	0d000600 	break	0x6
8003d274:	12800000 	mflo	s0
8003d278:	00000000 	nop
8003d27c:	20001026 	addiu	s0,s0,32
8003d280:	8100022a 	slti	v0,s0,129
8003d284:	02004014 	bnez	v0,0x8003d290
8003d288:	00000000 	nop
8003d28c:	80001024 	li	s0,128
8003d290:	b1e2010c 	jal	0x80078ac4
8003d294:	00000000 	nop
8003d298:	00c00326 	addiu	v1,s0,-16384
8003d29c:	21186200 	addu	v1,v1,v0
8003d2a0:	431a0300 	sra	v1,v1,0x9
8003d2a4:	b1e2010c 	jal	0x80078ac4
8003d2a8:	e20223a6 	sh	v1,738(s1)
8003d2ac:	43120200 	sra	v0,v0,0x9
8003d2b0:	de022396 	lhu	v1,734(s1)
8003d2b4:	21100202 	addu	v0,s0,v0
8003d2b8:	21186200 	addu	v1,v1,v0
8003d2bc:	05008016 	bnez	s4,0x8003d2d4
8003d2c0:	de0223a6 	sh	v1,734(s1)
8003d2c4:	45ef000c 	jal	0x8003bd14
8003d2c8:	1800a427 	addiu	a0,sp,24
8003d2cc:	b7f60008 	j	0x8003dadc
8003d2d0:	ac0d0224 	li	v0,3500
8003d2d4:	0400e016 	bnez	s7,0x8003d2e8
8003d2d8:	ac0d0224 	li	v0,3500
8003d2dc:	d60222a6 	sh	v0,726(s1)
8003d2e0:	ecf60008 	j	0x8003dbb0
8003d2e4:	d80236a6 	sh	s6,728(s1)
8003d2e8:	1200a287 	lh	v0,18(sp)
8003d2ec:	6a022386 	lh	v1,618(s1)
8003d2f0:	00000000 	nop
8003d2f4:	23104300 	subu	v0,v0,v1
8003d2f8:	00014224 	addiu	v0,v0,256
8003d2fc:	43120200 	sra	v0,v0,0x9
8003d300:	07004330 	andi	v1,v0,0x7
8003d304:	0800622c 	sltiu	v0,v1,8
8003d308:	22004010 	beqz	v0,0x8003d394
8003d30c:	0180023c 	lui	v0,0x8001
8003d310:	1c1d4224 	addiu	v0,v0,7452
8003d314:	80180300 	sll	v1,v1,0x2
8003d318:	21186200 	addu	v1,v1,v0
8003d31c:	0000628c 	lw	v0,0(v1)
8003d320:	00000000 	nop
8003d324:	08004000 	jr	v0
8003d328:	00000000 	nop
8003d32c:	23101200 	negu	v0,s2
8003d330:	1000a2a7 	sh	v0,16(sp)
8003d334:	e5f60008 	j	0x8003db94
8003d338:	1400a0a7 	sh	zero,20(sp)
8003d33c:	23101200 	negu	v0,s2
8003d340:	1000a2a7 	sh	v0,16(sp)
8003d344:	e5f60008 	j	0x8003db94
8003d348:	1400b2a7 	sh	s2,20(sp)
8003d34c:	1000a0a7 	sh	zero,16(sp)
8003d350:	e5f60008 	j	0x8003db94
8003d354:	1400b2a7 	sh	s2,20(sp)
8003d358:	1000b2a7 	sh	s2,16(sp)
8003d35c:	e5f60008 	j	0x8003db94
8003d360:	1400b2a7 	sh	s2,20(sp)
8003d364:	1000b2a7 	sh	s2,16(sp)
8003d368:	e5f60008 	j	0x8003db94
8003d36c:	1400a0a7 	sh	zero,20(sp)
8003d370:	23101200 	negu	v0,s2
8003d374:	e4f60008 	j	0x8003db90
8003d378:	1000b2a7 	sh	s2,16(sp)
8003d37c:	23101200 	negu	v0,s2
8003d380:	e4f60008 	j	0x8003db90
8003d384:	1000a0a7 	sh	zero,16(sp)
8003d388:	23101200 	negu	v0,s2
8003d38c:	1000a2a7 	sh	v0,16(sp)
8003d390:	1400a2a7 	sh	v0,20(sp)
8003d394:	1200a0a7 	sh	zero,18(sp)
8003d398:	1800a427 	addiu	a0,sp,24
8003d39c:	1000a527 	addiu	a1,sp,16
8003d3a0:	00341600 	sll	a2,s6,0x10
8003d3a4:	03340600 	sra	a2,a2,0x10
8003d3a8:	110b010c 	jal	0x80042c44
8003d3ac:	2138a002 	move	a3,s5
8003d3b0:	4000bf8f 	lw	ra,64(sp)
8003d3b4:	3c00b78f 	lw	s7,60(sp)
8003d3b8:	3800b68f 	lw	s6,56(sp)
8003d3bc:	3400b58f 	lw	s5,52(sp)
8003d3c0:	3000b48f 	lw	s4,48(sp)
8003d3c4:	2c00b38f 	lw	s3,44(sp)
8003d3c8:	2800b28f 	lw	s2,40(sp)
8003d3cc:	2400b18f 	lw	s1,36(sp)
8003d3d0:	2000b08f 	lw	s0,32(sp)
8003d3d4:	4800bd27 	addiu	sp,sp,72
8003d3d8:	0800e003 	jr	ra
8003d3dc:	00000000 	nop
8003d3e0:	b8ffbd27 	addiu	sp,sp,-72
8003d3e4:	2400b1af 	sw	s1,36(sp)
8003d3e8:	21888000 	move	s1,a0
8003d3ec:	3800b6af 	sw	s6,56(sp)
8003d3f0:	21b00000 	move	s6,zero
8003d3f4:	3400b5af 	sw	s5,52(sp)
8003d3f8:	21a8c002 	move	s5,s6
8003d3fc:	1a80023c 	lui	v0,0x801a
8003d400:	2c00b3af 	sw	s3,44(sp)
8003d404:	00905324 	addiu	s3,v0,-28672
8003d408:	1000a427 	addiu	a0,sp,16
8003d40c:	4000beaf 	sw	s8,64(sp)
8003d410:	21f0a000 	move	s8,a1
8003d414:	2128a002 	move	a1,s5
8003d418:	3c00b7af 	sw	s7,60(sp)
8003d41c:	21b8c000 	move	s7,a2
8003d420:	0c000624 	li	a2,12
8003d424:	4400bfaf 	sw	ra,68(sp)
8003d428:	3000b4af 	sw	s4,48(sp)
8003d42c:	2800b2af 	sw	s2,40(sp)
8003d430:	2000b0af 	sw	s0,32(sp)
8003d434:	ade2010c 	jal	0x80078ab4
8003d438:	5400a7af 	sw	a3,84(sp)
8003d43c:	ffffe332 	andi	v1,s7,0xffff
8003d440:	bf016010 	beqz	v1,0x8003db40
8003d444:	1000b427 	addiu	s4,sp,16
8003d448:	20000224 	li	v0,32
8003d44c:	25006210 	beq	v1,v0,0x8003d4e4
8003d450:	00000000 	nop
8003d454:	21006228 	slti	v0,v1,33
8003d458:	12004010 	beqz	v0,0x8003d4a4
8003d45c:	08000224 	li	v0,8
8003d460:	20006210 	beq	v1,v0,0x8003d4e4
8003d464:	00000000 	nop
8003d468:	09006228 	slti	v0,v1,9
8003d46c:	05004010 	beqz	v0,0x8003d484
8003d470:	07000224 	li	v0,7
8003d474:	3a006210 	beq	v1,v0,0x8003d560
8003d478:	20000224 	li	v0,32
8003d47c:	89f70008 	j	0x8003de24
8003d480:	00000000 	nop
8003d484:	10000224 	li	v0,16
8003d488:	16006210 	beq	v1,v0,0x8003d4e4
8003d48c:	00000000 	nop
8003d490:	18000224 	li	v0,24
8003d494:	13006210 	beq	v1,v0,0x8003d4e4
8003d498:	ffffe332 	andi	v1,s7,0xffff
8003d49c:	89f70008 	j	0x8003de24
8003d4a0:	20000224 	li	v0,32
8003d4a4:	60000224 	li	v0,96
8003d4a8:	0e006210 	beq	v1,v0,0x8003d4e4
8003d4ac:	00000000 	nop
8003d4b0:	61006228 	slti	v0,v1,97
8003d4b4:	05004010 	beqz	v0,0x8003d4cc
8003d4b8:	40000224 	li	v0,64
8003d4bc:	09006210 	beq	v1,v0,0x8003d4e4
8003d4c0:	ffffe332 	andi	v1,s7,0xffff
8003d4c4:	89f70008 	j	0x8003de24
8003d4c8:	20000224 	li	v0,32
8003d4cc:	80000224 	li	v0,128
8003d4d0:	04006210 	beq	v1,v0,0x8003d4e4
8003d4d4:	00000000 	nop
8003d4d8:	00010224 	li	v0,256
8003d4dc:	50006214 	bne	v1,v0,0x8003d620
8003d4e0:	ffffe332 	andi	v1,s7,0xffff
8003d4e4:	1a80033c 	lui	v1,0x801a
8003d4e8:	288f6324 	addiu	v1,v1,-28888
8003d4ec:	b6006494 	lhu	a0,182(v1)
8003d4f0:	cccc023c 	lui	v0,0xcccc
8003d4f4:	cdcc4234 	ori	v0,v0,0xcccd
8003d4f8:	19008200 	multu	a0,v0
8003d4fc:	6666043c 	lui	a0,0x6666
8003d500:	67668434 	ori	a0,a0,0x6667
8003d504:	7c006284 	lh	v0,124(v1)
8003d508:	10380000 	mfhi	a3
8003d50c:	40280200 	sll	a1,v0,0x1
8003d510:	2128a200 	addu	a1,a1,v0
8003d514:	1800a400 	mult	a1,a0
8003d518:	e2006294 	lhu	v0,226(v1)
8003d51c:	00000000 	nop
8003d520:	00190200 	sll	v1,v0,0x4
8003d524:	23186200 	subu	v1,v1,v0
8003d528:	80180300 	sll	v1,v1,0x2
8003d52c:	10300000 	mfhi	a2
8003d530:	8080043c 	lui	a0,0x8080
8003d534:	81808434 	ori	a0,a0,0x8081
8003d538:	18006400 	mult	v1,a0
8003d53c:	c32f0500 	sra	a1,a1,0x1f
8003d540:	02210700 	srl	a0,a3,0x4
8003d544:	ffff8430 	andi	a0,a0,0xffff
8003d548:	43110600 	sra	v0,a2,0x5
8003d54c:	23104500 	subu	v0,v0,a1
8003d550:	21208200 	addu	a0,a0,v0
8003d554:	10400000 	mfhi	t0
8003d558:	74f70008 	j	0x8003ddd0
8003d55c:	21100301 	addu	v0,t0,v1
8003d560:	28ff6426 	addiu	a0,s3,-216
8003d564:	b6008394 	lhu	v1,182(a0)
8003d568:	cccc023c 	lui	v0,0xcccc
8003d56c:	cdcc4234 	ori	v0,v0,0xcccd
8003d570:	19006200 	multu	v1,v0
8003d574:	6666033c 	lui	v1,0x6666
8003d578:	67666334 	ori	v1,v1,0x6667
8003d57c:	7a008284 	lh	v0,122(a0)
8003d580:	10400000 	mfhi	t0
8003d584:	40280200 	sll	a1,v0,0x1
8003d588:	2128a200 	addu	a1,a1,v0
8003d58c:	1800a300 	mult	a1,v1
8003d590:	8080063c 	lui	a2,0x8080
8003d594:	dc008294 	lhu	v0,220(a0)
8003d598:	8180c634 	ori	a2,a2,0x8081
8003d59c:	00190200 	sll	v1,v0,0x4
8003d5a0:	10380000 	mfhi	a3
8003d5a4:	23186200 	subu	v1,v1,v0
8003d5a8:	80180300 	sll	v1,v1,0x2
8003d5ac:	18006600 	mult	v1,a2
8003d5b0:	02210800 	srl	a0,t0,0x4
8003d5b4:	ffff8430 	andi	a0,a0,0xffff
8003d5b8:	c32f0500 	sra	a1,a1,0x1f
8003d5bc:	43110700 	sra	v0,a3,0x5
8003d5c0:	23104500 	subu	v0,v0,a1
8003d5c4:	21208200 	addu	a0,a0,v0
8003d5c8:	10480000 	mfhi	t1
8003d5cc:	21102301 	addu	v0,t1,v1
8003d5d0:	c3110200 	sra	v0,v0,0x7
8003d5d4:	c31f0300 	sra	v1,v1,0x1f
8003d5d8:	23104300 	subu	v0,v0,v1
8003d5dc:	21208200 	addu	a0,a0,v0
8003d5e0:	65000224 	li	v0,101
8003d5e4:	b1e2010c 	jal	0x80078ac4
8003d5e8:	23804400 	subu	s0,v0,a0
8003d5ec:	40180200 	sll	v1,v0,0x1
8003d5f0:	21186200 	addu	v1,v1,v0
8003d5f4:	c0180300 	sll	v1,v1,0x3
8003d5f8:	21186200 	addu	v1,v1,v0
8003d5fc:	80100300 	sll	v0,v1,0x2
8003d600:	02004104 	bgez	v0,0x8003d60c
8003d604:	00000000 	nop
8003d608:	ff7f4224 	addiu	v0,v0,32767
8003d60c:	c3130200 	sra	v0,v0,0xf
8003d610:	2a100202 	slt	v0,s0,v0
8003d614:	e5004014 	bnez	v0,0x8003d9ac
8003d618:	b622043c 	lui	a0,0x22b6
8003d61c:	ffffe332 	andi	v1,s7,0xffff
8003d620:	20000224 	li	v0,32
8003d624:	65006210 	beq	v1,v0,0x8003d7bc
8003d628:	21006228 	slti	v0,v1,33
8003d62c:	1b004010 	beqz	v0,0x8003d69c
8003d630:	07000224 	li	v0,7
8003d634:	99006210 	beq	v1,v0,0x8003d89c
8003d638:	08006228 	slti	v0,v1,8
8003d63c:	0a004010 	beqz	v0,0x8003d668
8003d640:	10000224 	li	v0,16
8003d644:	d8006010 	beqz	v1,0x8003d9a8
8003d648:	03006228 	slti	v0,v1,3
8003d64c:	94004014 	bnez	v0,0x8003d8a0
8003d650:	1a80023c 	lui	v0,0x801a
8003d654:	04000224 	li	v0,4
8003d658:	90006210 	beq	v1,v0,0x8003d89c
8003d65c:	b622043c 	lui	a0,0x22b6
8003d660:	6cf80008 	j	0x8003e1b0
8003d664:	bf3c8434 	ori	a0,a0,0x3cbf
8003d668:	3d006210 	beq	v1,v0,0x8003d760
8003d66c:	11006228 	slti	v0,v1,17
8003d670:	05004010 	beqz	v0,0x8003d688
8003d674:	08000224 	li	v0,8
8003d678:	39006210 	beq	v1,v0,0x8003d760
8003d67c:	b622043c 	lui	a0,0x22b6
8003d680:	6cf80008 	j	0x8003e1b0
8003d684:	bf3c8434 	ori	a0,a0,0x3cbf
8003d688:	18000224 	li	v0,24
8003d68c:	34006210 	beq	v1,v0,0x8003d760
8003d690:	b622043c 	lui	a0,0x22b6
8003d694:	6cf80008 	j	0x8003e1b0
8003d698:	bf3c8434 	ori	a0,a0,0x3cbf
8003d69c:	00010224 	li	v0,256
8003d6a0:	64006210 	beq	v1,v0,0x8003d834
8003d6a4:	01016228 	slti	v0,v1,257
8003d6a8:	0e004010 	beqz	v0,0x8003d6e4
8003d6ac:	60000224 	li	v0,96
8003d6b0:	42006210 	beq	v1,v0,0x8003d7bc
8003d6b4:	61006228 	slti	v0,v1,97
8003d6b8:	05004010 	beqz	v0,0x8003d6d0
8003d6bc:	40000224 	li	v0,64
8003d6c0:	3e006210 	beq	v1,v0,0x8003d7bc
8003d6c4:	b622043c 	lui	a0,0x22b6
8003d6c8:	6cf80008 	j	0x8003e1b0
8003d6cc:	bf3c8434 	ori	a0,a0,0x3cbf
8003d6d0:	80000224 	li	v0,128
8003d6d4:	11006210 	beq	v1,v0,0x8003d71c
8003d6d8:	b622043c 	lui	a0,0x22b6
8003d6dc:	6cf80008 	j	0x8003e1b0
8003d6e0:	bf3c8434 	ori	a0,a0,0x3cbf
8003d6e4:	00040224 	li	v0,1024
8003d6e8:	91006210 	beq	v1,v0,0x8003d930
8003d6ec:	01046228 	slti	v0,v1,1025
8003d6f0:	05004010 	beqz	v0,0x8003d708
8003d6f4:	00020224 	li	v0,512
8003d6f8:	41006210 	beq	v1,v0,0x8003d800
8003d6fc:	b622043c 	lui	a0,0x22b6
8003d700:	6cf80008 	j	0x8003e1b0
8003d704:	bf3c8434 	ori	a0,a0,0x3cbf
8003d708:	00400224 	li	v0,16384
8003d70c:	a1006210 	beq	v1,v0,0x8003d994
8003d710:	b622043c 	lui	a0,0x22b6
8003d714:	6cf80008 	j	0x8003e1b0
8003d718:	bf3c8434 	ori	a0,a0,0x3cbf
8003d71c:	1a80123c 	lui	s2,0x801a
8003d720:	288f5026 	addiu	s0,s2,-28888
8003d724:	2c00038e 	lw	v1,44(s0)
8003d728:	00000000 	nop
8003d72c:	80006230 	andi	v0,v1,0x80
8003d730:	07004014 	bnez	v0,0x8003d750
8003d734:	14000224 	li	v0,20
8003d738:	21200000 	move	a0,zero
8003d73c:	2c010224 	li	v0,300
8003d740:	9e0102a6 	sh	v0,414(s0)
8003d744:	80006234 	ori	v0,v1,0x80
8003d748:	19f80008 	j	0x8003e064
8003d74c:	9c0100a6 	sh	zero,412(s0)
8003d750:	9c0102a6 	sh	v0,412(s0)
8003d754:	2c010224 	li	v0,300
8003d758:	6af80008 	j	0x8003e1a8
8003d75c:	9e0102a6 	sh	v0,414(s0)
8003d760:	1a80023c 	lui	v0,0x801a
8003d764:	288f4424 	addiu	a0,v0,-28888
8003d768:	2c00838c 	lw	v1,44(a0)
8003d76c:	00000000 	nop
8003d770:	18006230 	andi	v0,v1,0x18
8003d774:	04004014 	bnez	v0,0x8003d788
8003d778:	4b000224 	li	v0,75
8003d77c:	960182a4 	sh	v0,406(a0)
8003d780:	e7f70008 	j	0x8003df9c
8003d784:	08006234 	ori	v0,v1,0x8
8003d788:	08006230 	andi	v0,v1,0x8
8003d78c:	06004010 	beqz	v0,0x8003d7a8
8003d790:	4b000224 	li	v0,75
8003d794:	960182a4 	sh	v0,406(a0)
8003d798:	10006234 	ori	v0,v1,0x10
8003d79c:	940180a4 	sh	zero,404(a0)
8003d7a0:	6af80008 	j	0x8003e1a8
8003d7a4:	2c0082ac 	sw	v0,44(a0)
8003d7a8:	14000224 	li	v0,20
8003d7ac:	940182a4 	sh	v0,404(a0)
8003d7b0:	4b000224 	li	v0,75
8003d7b4:	6af80008 	j	0x8003e1a8
8003d7b8:	960182a4 	sh	v0,406(a0)
8003d7bc:	1a80023c 	lui	v0,0x801a
8003d7c0:	288f4324 	addiu	v1,v0,-28888
8003d7c4:	2c00648c 	lw	a0,44(v1)
8003d7c8:	00000000 	nop
8003d7cc:	60008230 	andi	v0,a0,0x60
8003d7d0:	07004014 	bnez	v0,0x8003d7f0
8003d7d4:	14000224 	li	v0,20
8003d7d8:	58020224 	li	v0,600
8003d7dc:	9a0162a4 	sh	v0,410(v1)
8003d7e0:	60008234 	ori	v0,a0,0x60
8003d7e4:	980160a4 	sh	zero,408(v1)
8003d7e8:	6af80008 	j	0x8003e1a8
8003d7ec:	2c0062ac 	sw	v0,44(v1)
8003d7f0:	980162a4 	sh	v0,408(v1)
8003d7f4:	58020224 	li	v0,600
8003d7f8:	6af80008 	j	0x8003e1a8
8003d7fc:	9a0162a4 	sh	v0,410(v1)
8003d800:	b1e2010c 	jal	0x80078ac4
8003d804:	00000000 	nop
8003d808:	02004104 	bgez	v0,0x8003d814
8003d80c:	00000000 	nop
8003d810:	ff004224 	addiu	v0,v0,255
8003d814:	03220200 	sra	a0,v0,0x8
8003d818:	caf3000c 	jal	0x8003cf28
8003d81c:	23200400 	negu	a0,a0
8003d820:	09000424 	li	a0,9
8003d824:	bc60010c 	jal	0x800582f0
8003d828:	80000524 	li	a1,128
8003d82c:	6bf80008 	j	0x8003e1ac
8003d830:	b622043c 	lui	a0,0x22b6
8003d834:	1a80123c 	lui	s2,0x801a
8003d838:	288f5026 	addiu	s0,s2,-28888
8003d83c:	2c00038e 	lw	v1,44(s0)
8003d840:	00000000 	nop
8003d844:	00016230 	andi	v0,v1,0x100
8003d848:	10004014 	bnez	v0,0x8003d88c
8003d84c:	14000224 	li	v0,20
8003d850:	21200000 	move	a0,zero
8003d854:	70170224 	li	v0,6000
8003d858:	a20102a6 	sh	v0,418(s0)
8003d85c:	00016234 	ori	v0,v1,0x100
8003d860:	a00100a6 	sh	zero,416(s0)
8003d864:	ea68010c 	jal	0x8005a3a8
8003d868:	2c0002ae 	sw	v0,44(s0)
8003d86c:	288f4396 	lhu	v1,-28888(s2)
8003d870:	02000296 	lhu	v0,2(s0)
8003d874:	00000000 	nop
8003d878:	2b106200 	sltu	v0,v1,v0
8003d87c:	4b004010 	beqz	v0,0x8003d9ac
8003d880:	b622043c 	lui	a0,0x22b6
8003d884:	6bf80008 	j	0x8003e1ac
8003d888:	020003a6 	sh	v1,2(s0)
8003d88c:	a00102a6 	sh	v0,416(s0)
8003d890:	70170224 	li	v0,6000
8003d894:	6af80008 	j	0x8003e1a8
8003d898:	a20102a6 	sh	v0,418(s0)
8003d89c:	1a80023c 	lui	v0,0x801a
8003d8a0:	288f4424 	addiu	a0,v0,-28888
8003d8a4:	2c00838c 	lw	v1,44(a0)
8003d8a8:	1000023c 	lui	v0,0x10
8003d8ac:	24106200 	and	v0,v1,v0
8003d8b0:	3d004014 	bnez	v0,0x8003d9a8
8003d8b4:	07006230 	andi	v0,v1,0x7
8003d8b8:	18004010 	beqz	v0,0x8003d91c
8003d8bc:	58020224 	li	v0,600
8003d8c0:	90018284 	lh	v0,400(a0)
8003d8c4:	00000000 	nop
8003d8c8:	dc004228 	slti	v0,v0,220
8003d8cc:	36004014 	bnez	v0,0x8003d9a8
8003d8d0:	00000000 	nop
8003d8d4:	92018284 	lh	v0,402(a0)
8003d8d8:	00000000 	nop
8003d8dc:	32004010 	beqz	v0,0x8003d9a8
8003d8e0:	14000224 	li	v0,20
8003d8e4:	900182a4 	sh	v0,400(a0)
8003d8e8:	58020224 	li	v0,600
8003d8ec:	920182a4 	sh	v0,402(a0)
8003d8f0:	02006230 	andi	v0,v1,0x2
8003d8f4:	02004010 	beqz	v0,0x8003d900
8003d8f8:	04006234 	ori	v0,v1,0x4
8003d8fc:	2c0082ac 	sw	v0,44(a0)
8003d900:	2c00838c 	lw	v1,44(a0)
8003d904:	00000000 	nop
8003d908:	01006230 	andi	v0,v1,0x1
8003d90c:	26004010 	beqz	v0,0x8003d9a8
8003d910:	02006234 	ori	v0,v1,0x2
8003d914:	6af80008 	j	0x8003e1a8
8003d918:	2c0082ac 	sw	v0,44(a0)
8003d91c:	920182a4 	sh	v0,402(a0)
8003d920:	01006234 	ori	v0,v1,0x1
8003d924:	900180a4 	sh	zero,400(a0)
8003d928:	6af80008 	j	0x8003e1a8
8003d92c:	2c0082ac 	sw	v0,44(a0)
8003d930:	1a80023c 	lui	v0,0x801a
8003d934:	288f5024 	addiu	s0,v0,-28888
8003d938:	3c02048e 	lw	a0,572(s0)
8003d93c:	cccc023c 	lui	v0,0xcccc
8003d940:	cdcc4234 	ori	v0,v0,0xcccd
8003d944:	19008200 	multu	a0,v0
8003d948:	2c00028e 	lw	v0,44(s0)
8003d94c:	00000000 	nop
8003d950:	00044234 	ori	v0,v0,0x400
8003d954:	2c0002ae 	sw	v0,44(s0)
8003d958:	10680000 	mfhi	t5
8003d95c:	42190d00 	srl	v1,t5,0x5
8003d960:	80100300 	sll	v0,v1,0x2
8003d964:	21104300 	addu	v0,v0,v1
8003d968:	c0100200 	sll	v0,v0,0x3
8003d96c:	05008214 	bne	a0,v0,0x8003d984
8003d970:	ac0d0224 	li	v0,3500
8003d974:	07000424 	li	a0,7
8003d978:	bc60010c 	jal	0x800582f0
8003d97c:	80000524 	li	a1,128
8003d980:	ac0d0224 	li	v0,3500
8003d984:	da0202a6 	sh	v0,730(s0)
8003d988:	80000224 	li	v0,128
8003d98c:	6af80008 	j	0x8003e1a8
8003d990:	dc0202a6 	sh	v0,732(s0)
8003d994:	1a80023c 	lui	v0,0x801a
8003d998:	288f4224 	addiu	v0,v0,-28888
8003d99c:	01000324 	li	v1,1
8003d9a0:	890140a0 	sb	zero,393(v0)
8003d9a4:	4f0143a0 	sb	v1,335(v0)
8003d9a8:	b622043c 	lui	a0,0x22b6
8003d9ac:	bf3c8434 	ori	a0,a0,0x3cbf
8003d9b0:	1a80023c 	lui	v0,0x801a
8003d9b4:	288f4a24 	addiu	t2,v0,-28888
8003d9b8:	20004295 	lhu	v0,32(t2)
8003d9bc:	70000324 	li	v1,112
8003d9c0:	23186200 	subu	v1,v1,v0
8003d9c4:	40100300 	sll	v0,v1,0x1
8003d9c8:	21104300 	addu	v0,v0,v1
8003d9cc:	c0100200 	sll	v0,v0,0x3
8003d9d0:	21104300 	addu	v0,v0,v1
8003d9d4:	40100200 	sll	v0,v0,0x1
8003d9d8:	18004400 	mult	v0,a0
8003d9dc:	2c010624 	li	a2,300
8003d9e0:	c3170200 	sra	v0,v0,0x1f
8003d9e4:	10180000 	mfhi	v1
8003d9e8:	c3180300 	sra	v1,v1,0x3
8003d9ec:	23186200 	subu	v1,v1,v0
8003d9f0:	32006324 	addiu	v1,v1,50
8003d9f4:	18006600 	mult	v1,a2
8003d9f8:	12200000 	mflo	a0
8003d9fc:	4b000524 	li	a1,75
8003da00:	00000000 	nop
8003da04:	18006500 	mult	v1,a1
8003da08:	12400000 	mflo	t0
8003da0c:	eb51073c 	lui	a3,0x51eb
8003da10:	1f85e734 	ori	a3,a3,0x851f
8003da14:	18008700 	mult	a0,a3
8003da18:	10100000 	mfhi	v0
	...
8003da24:	18000701 	mult	t0,a3
8003da28:	10580000 	mfhi	t3
8003da2c:	58020924 	li	t1,600
8003da30:	00000000 	nop
8003da34:	18006900 	mult	v1,t1
8003da38:	c3270400 	sra	a0,a0,0x1f
8003da3c:	43290200 	sra	a1,v0,0x5
8003da40:	12180000 	mflo	v1
8003da44:	c8014291 	lbu	v0,456(t2)
8003da48:	2330a400 	subu	a2,a1,a0
8003da4c:	1800c200 	mult	a2,v0
8003da50:	12300000 	mflo	a2
	...
8003da5c:	18006700 	mult	v1,a3
8003da60:	10480000 	mfhi	t1
	...
8003da6c:	1800c700 	mult	a2,a3
8003da70:	c3470800 	sra	t0,t0,0x1f
8003da74:	10600000 	mfhi	t4
8003da78:	43210b00 	sra	a0,t3,0x5
8003da7c:	23288800 	subu	a1,a0,t0
8003da80:	1800a200 	mult	a1,v0
8003da84:	c31f0300 	sra	v1,v1,0x1f
8003da88:	12280000 	mflo	a1
8003da8c:	43210900 	sra	a0,t1,0x5
8003da90:	23488300 	subu	t1,a0,v1
8003da94:	18002201 	mult	t1,v0
8003da98:	12100000 	mflo	v0
	...
8003daa4:	1800a700 	mult	a1,a3
8003daa8:	10400000 	mfhi	t0
	...
8003dab4:	18004700 	mult	v0,a3
8003dab8:	c3370600 	sra	a2,a2,0x1f
8003dabc:	43190c00 	sra	v1,t4,0x5
8003dac0:	23306600 	subu	a2,v1,a2
8003dac4:	c32f0500 	sra	a1,a1,0x1f
8003dac8:	43190800 	sra	v1,t0,0x5
8003dacc:	23286500 	subu	a1,v1,a1
8003dad0:	c3170200 	sra	v0,v0,0x1f
8003dad4:	10200000 	mfhi	a0
8003dad8:	43190400 	sra	v1,a0,0x5
8003dadc:	23486200 	subu	t1,v1,v0
8003dae0:	9e014285 	lh	v0,414(t2)
8003dae4:	00000000 	nop
8003dae8:	2a10c200 	slt	v0,a2,v0
8003daec:	02004010 	beqz	v0,0x8003daf8
8003daf0:	21182001 	move	v1,t1
8003daf4:	9e0146a5 	sh	a2,414(t2)
8003daf8:	96014285 	lh	v0,406(t2)
8003dafc:	00000000 	nop
8003db00:	2a10a200 	slt	v0,a1,v0
8003db04:	02004010 	beqz	v0,0x8003db10
8003db08:	00000000 	nop
8003db0c:	960145a5 	sh	a1,406(t2)
8003db10:	9a014285 	lh	v0,410(t2)
8003db14:	00000000 	nop
8003db18:	2a102201 	slt	v0,t1,v0
8003db1c:	02004010 	beqz	v0,0x8003db28
8003db20:	00000000 	nop
8003db24:	9a0149a5 	sh	t1,410(t2)
8003db28:	92014285 	lh	v0,402(t2)
8003db2c:	00000000 	nop
8003db30:	2a106200 	slt	v0,v1,v0
8003db34:	03004010 	beqz	v0,0x8003db44
8003db38:	1a80023c 	lui	v0,0x801a
8003db3c:	920143a5 	sh	v1,402(t2)
8003db40:	1a80023c 	lui	v0,0x801a
8003db44:	288f4624 	addiu	a2,v0,-28888
8003db48:	8901c290 	lbu	v0,393(a2)
8003db4c:	00000000 	nop
8003db50:	1f004010 	beqz	v0,0x8003dbd0
8003db54:	ffff0234 	li	v0,0xffff
8003db58:	5800c394 	lhu	v1,88(a2)
8003db5c:	00000000 	nop
8003db60:	1c006210 	beq	v1,v0,0x8003dbd4
8003db64:	1a80023c 	lui	v0,0x801a
8003db68:	1200c494 	lhu	a0,18(a2)
8003db6c:	1600c294 	lhu	v0,22(a2)
8003db70:	00000000 	nop
8003db74:	21408200 	addu	t0,a0,v0
8003db78:	40100300 	sll	v0,v1,0x1
8003db7c:	21104300 	addu	v0,v0,v1
8003db80:	80100200 	sll	v0,v0,0x2
8003db84:	23104300 	subu	v0,v0,v1
8003db88:	80100200 	sll	v0,v0,0x2
8003db8c:	1c80033c 	lui	v1,0x801c
8003db90:	10786324 	addiu	v1,v1,30736
8003db94:	21284300 	addu	a1,v0,v1
8003db98:	1400c494 	lhu	a0,20(a2)
8003db9c:	1800c394 	lhu	v1,24(a2)
8003dba0:	2200a290 	lbu	v0,34(a1)
8003dba4:	00000000 	nop
8003dba8:	0900422c 	sltiu	v0,v0,9
8003dbac:	0c004014 	bnez	v0,0x8003dbe0
8003dbb0:	21508300 	addu	t2,a0,v1
8003dbb4:	2300a290 	lbu	v0,35(a1)
8003dbb8:	2200a390 	lbu	v1,34(a1)
8003dbbc:	42100200 	srl	v0,v0,0x1
8003dbc0:	40180300 	sll	v1,v1,0x1
8003dbc4:	2118a303 	addu	v1,sp,v1
8003dbc8:	f8f80008 	j	0x8003e3e0
8003dbcc:	feff62a4 	sh	v0,-2(v1)
8003dbd0:	1a80023c 	lui	v0,0x801a
8003dbd4:	288f4224 	addiu	v0,v0,-28888
8003dbd8:	12004894 	lhu	t0,18(v0)
8003dbdc:	14004a94 	lhu	t2,20(v0)
8003dbe0:	ffff0431 	andi	a0,t0,0xffff
8003dbe4:	02008010 	beqz	a0,0x8003dbf0
8003dbe8:	01000724 	li	a3,1
8003dbec:	21388000 	move	a3,a0
8003dbf0:	21300000 	move	a2,zero
8003dbf4:	8a020824 	li	t0,650
8003dbf8:	00002296 	lhu	v0,0(s1)
8003dbfc:	00000000 	nop
8003dc00:	18004010 	beqz	v0,0x8003dc64
8003dc04:	21284000 	move	a1,v0
8003dc08:	23100501 	subu	v0,t0,a1
8003dc0c:	1800e200 	mult	a3,v0
8003dc10:	c0110500 	sll	v0,a1,0x7
8003dc14:	23104500 	subu	v0,v0,a1
8003dc18:	00110200 	sll	v0,v0,0x4
8003dc1c:	23104500 	subu	v0,v0,a1
8003dc20:	80100200 	sll	v0,v0,0x2
8003dc24:	12180000 	mflo	v1
8003dc28:	21104500 	addu	v0,v0,a1
8003dc2c:	80100200 	sll	v0,v0,0x2
8003dc30:	1a004300 	div	zero,v0,v1
8003dc34:	02006014 	bnez	v1,0x8003dc40
8003dc38:	00000000 	nop
8003dc3c:	0d000700 	break	0x7
8003dc40:	ffff0124 	li	at,-1
8003dc44:	04006114 	bne	v1,at,0x8003dc58
8003dc48:	0080013c 	lui	at,0x8000
8003dc4c:	02004114 	bne	v0,at,0x8003dc58
8003dc50:	00000000 	nop
8003dc54:	0d000600 	break	0x6
8003dc58:	12100000 	mflo	v0
8003dc5c:	00000000 	nop
8003dc60:	21b0c202 	addu	s6,s6,v0
8003dc64:	0100c624 	addiu	a2,a2,1
8003dc68:	0300c228 	slti	v0,a2,3
8003dc6c:	e2ff4014 	bnez	v0,0x8003dbf8
8003dc70:	02003126 	addiu	s1,s1,2
8003dc74:	21300000 	move	a2,zero
8003dc78:	1a80023c 	lui	v0,0x801a
8003dc7c:	288f4824 	addiu	t0,v0,-28888
8003dc80:	02000924 	li	t1,2
8003dc84:	ffff4431 	andi	a0,t2,0xffff
8003dc88:	00002296 	lhu	v0,0(s1)
8003dc8c:	00000000 	nop
8003dc90:	3a004010 	beqz	v0,0x8003dd7c
8003dc94:	21284000 	move	a1,v0
8003dc98:	2c00028d 	lw	v0,44(t0)
8003dc9c:	0800033c 	lui	v1,0x8
8003dca0:	24104300 	and	v0,v0,v1
8003dca4:	04004010 	beqz	v0,0x8003dcb8
8003dca8:	00000000 	nop
8003dcac:	0200c014 	bnez	a2,0x8003dcb8
8003dcb0:	00000000 	nop
8003dcb4:	83280500 	sra	a1,a1,0x2
8003dcb8:	2c00028d 	lw	v0,44(t0)
8003dcbc:	8000033c 	lui	v1,0x80
8003dcc0:	24104300 	and	v0,v0,v1
8003dcc4:	04004010 	beqz	v0,0x8003dcd8
8003dcc8:	03000224 	li	v0,3
8003dccc:	0200c214 	bne	a2,v0,0x8003dcd8
8003dcd0:	00000000 	nop
8003dcd4:	83280500 	sra	a1,a1,0x2
8003dcd8:	2c00028d 	lw	v0,44(t0)
8003dcdc:	1000033c 	lui	v1,0x10
8003dce0:	24104300 	and	v0,v0,v1
8003dce4:	03004010 	beqz	v0,0x8003dcf4
8003dce8:	00000000 	nop
8003dcec:	2300c910 	beq	a2,t1,0x8003dd7c
8003dcf0:	00000000 	nop
8003dcf4:	00006296 	lhu	v0,0(s3)
8003dcf8:	00008396 	lhu	v1,0(s4)
8003dcfc:	21108200 	addu	v0,a0,v0
8003dd00:	21384300 	addu	a3,v0,v1
8003dd04:	0200e014 	bnez	a3,0x8003dd10
8003dd08:	8a020224 	li	v0,650
8003dd0c:	01000724 	li	a3,1
8003dd10:	23104500 	subu	v0,v0,a1
8003dd14:	1800e200 	mult	a3,v0
8003dd18:	c0110500 	sll	v0,a1,0x7
8003dd1c:	23104500 	subu	v0,v0,a1
8003dd20:	00110200 	sll	v0,v0,0x4
8003dd24:	23104500 	subu	v0,v0,a1
8003dd28:	80100200 	sll	v0,v0,0x2
8003dd2c:	12180000 	mflo	v1
8003dd30:	21104500 	addu	v0,v0,a1
8003dd34:	80100200 	sll	v0,v0,0x2
8003dd38:	1a004300 	div	zero,v0,v1
8003dd3c:	02006014 	bnez	v1,0x8003dd48
8003dd40:	00000000 	nop
8003dd44:	0d000700 	break	0x7
8003dd48:	ffff0124 	li	at,-1
8003dd4c:	04006114 	bne	v1,at,0x8003dd60
8003dd50:	0080013c 	lui	at,0x8000
8003dd54:	02004114 	bne	v0,at,0x8003dd60
8003dd58:	00000000 	nop
8003dd5c:	0d000600 	break	0x6
8003dd60:	12180000 	mflo	v1
8003dd64:	0400c910 	beq	a2,t1,0x8003dd78
8003dd68:	00000000 	nop
8003dd6c:	02006014 	bnez	v1,0x8003dd78
8003dd70:	00000000 	nop
8003dd74:	01000324 	li	v1,1
8003dd78:	21a8a302 	addu	s5,s5,v1
8003dd7c:	0100c624 	addiu	a2,a2,1
8003dd80:	02003126 	addiu	s1,s1,2
8003dd84:	02007326 	addiu	s3,s3,2
8003dd88:	0600c228 	slti	v0,a2,6
8003dd8c:	beff4014 	bnez	v0,0x8003dc88
8003dd90:	02009426 	addiu	s4,s4,2
8003dd94:	2118d502 	addu	v1,s6,s5
8003dd98:	ffffc233 	andi	v0,s8,0xffff
8003dd9c:	18006200 	mult	v1,v0
8003dda0:	ffffe532 	andi	a1,s7,0xffff
8003dda4:	5400a68f 	lw	a2,84(sp)
8003dda8:	12680000 	mflo	t5
8003ddac:	e2f5000c 	jal	0x8003d788
8003ddb0:	03230d00 	sra	a0,t5,0xc
8003ddb4:	4400bf8f 	lw	ra,68(sp)
8003ddb8:	4000be8f 	lw	s8,64(sp)
8003ddbc:	3c00b78f 	lw	s7,60(sp)
8003ddc0:	3800b68f 	lw	s6,56(sp)
8003ddc4:	3400b58f 	lw	s5,52(sp)
8003ddc8:	3000b48f 	lw	s4,48(sp)
8003ddcc:	2c00b38f 	lw	s3,44(sp)
8003ddd0:	2800b28f 	lw	s2,40(sp)
8003ddd4:	2400b18f 	lw	s1,36(sp)
8003ddd8:	2000b08f 	lw	s0,32(sp)
8003dddc:	4800bd27 	addiu	sp,sp,72
8003dde0:	0800e003 	jr	ra
8003dde4:	00000000 	nop
8003dde8:	d0ffbd27 	addiu	sp,sp,-48
8003ddec:	4400a38f 	lw	v1,68(sp)
8003ddf0:	2800b4af 	sw	s4,40(sp)
8003ddf4:	21a08000 	move	s4,a0
8003ddf8:	1800b0af 	sw	s0,24(sp)
8003ddfc:	2180c000 	move	s0,a2
8003de00:	2400b3af 	sw	s3,36(sp)
8003de04:	2198e000 	move	s3,a3
8003de08:	2000b2af 	sw	s2,32(sp)
8003de0c:	2190a000 	move	s2,a1
8003de10:	1c00b1af 	sw	s1,28(sp)
8003de14:	4000b18f 	lw	s1,64(sp)
8003de18:	00800234 	li	v0,0x8000
8003de1c:	08006214 	bne	v1,v0,0x8003de40
8003de20:	2c00bfaf 	sw	ra,44(sp)
8003de24:	e8030224 	li	v0,1000
8003de28:	1000a2af 	sw	v0,16(sp)
8003de2c:	21200002 	move	a0,s0
8003de30:	21282002 	move	a1,s1
8003de34:	1a80063c 	lui	a2,0x801a
8003de38:	9ff90008 	j	0x8003e67c
8003de3c:	7091c624 	addiu	a2,a2,-28304
8003de40:	01800234 	li	v0,0x8001
8003de44:	11006214 	bne	v1,v0,0x8003de8c
8003de48:	1a80023c 	lui	v0,0x801a
8003de4c:	288f4624 	addiu	a2,v0,-28888
8003de50:	4c02c38c 	lw	v1,588(a2)
8003de54:	0400028e 	lw	v0,4(s0)
8003de58:	00000000 	nop
8003de5c:	2a104300 	slt	v0,v0,v1
8003de60:	15004014 	bnez	v0,0x8003deb8
8003de64:	67ff033c 	lui	v1,0xff67
8003de68:	e8030224 	li	v0,1000
8003de6c:	1000a2af 	sw	v0,16(sp)
8003de70:	21200002 	move	a0,s0
8003de74:	21282002 	move	a1,s1
8003de78:	4802c624 	addiu	a2,a2,584
8003de7c:	9f29010c 	jal	0x8004a67c
8003de80:	00010724 	li	a3,256
8003de84:	aff90008 	j	0x8003e6bc
8003de88:	21184000 	move	v1,v0
8003de8c:	1000a3af 	sw	v1,16(sp)
8003de90:	0000048e 	lw	a0,0(s0)
8003de94:	0400058e 	lw	a1,4(s0)
8003de98:	0800068e 	lw	a2,8(s0)
8003de9c:	fffa000c 	jal	0x8003ebfc
8003dea0:	21382002 	move	a3,s1
8003dea4:	21184000 	move	v1,v0
8003dea8:	ffff0224 	li	v0,-1
8003deac:	04006214 	bne	v1,v0,0x8003dec0
8003deb0:	2a107300 	slt	v0,v1,s3
8003deb4:	67ff033c 	lui	v1,0xff67
8003deb8:	81696334 	ori	v1,v1,0x6981
8003debc:	2a107300 	slt	v0,v1,s3
8003dec0:	13004014 	bnez	v0,0x8003df10
8003dec4:	00130300 	sll	v0,v1,0xc
8003dec8:	1a005100 	div	zero,v0,s1
8003decc:	02002016 	bnez	s1,0x8003ded8
8003ded0:	00000000 	nop
8003ded4:	0d000700 	break	0x7
8003ded8:	ffff0124 	li	at,-1
8003dedc:	04002116 	bne	s1,at,0x8003def0
8003dee0:	0080013c 	lui	at,0x8000
8003dee4:	02004114 	bne	v0,at,0x8003def0
8003dee8:	00000000 	nop
8003deec:	0d000600 	break	0x6
8003def0:	12100000 	mflo	v0
8003def4:	21208002 	move	a0,s4
8003def8:	ffff4632 	andi	a2,s2,0xffff
8003defc:	21380002 	move	a3,s0
8003df00:	00100524 	li	a1,4096
8003df04:	2328a200 	subu	a1,a1,v0
8003df08:	f8f6000c 	jal	0x8003dbe0
8003df0c:	ffffa530 	andi	a1,a1,0xffff
8003df10:	2c00bf8f 	lw	ra,44(sp)
8003df14:	2800b48f 	lw	s4,40(sp)
8003df18:	2400b38f 	lw	s3,36(sp)
8003df1c:	2000b28f 	lw	s2,32(sp)
8003df20:	1c00b18f 	lw	s1,28(sp)
8003df24:	1800b08f 	lw	s0,24(sp)
8003df28:	3000bd27 	addiu	sp,sp,48
8003df2c:	0800e003 	jr	ra
8003df30:	00000000 	nop
8003df34:	1a80033c 	lui	v1,0x801a
8003df38:	288f6324 	addiu	v1,v1,-28888
8003df3c:	4802628c 	lw	v0,584(v1)
8003df40:	00000000 	nop
8003df44:	000082ac 	sw	v0,0(a0)
8003df48:	5002628c 	lw	v0,592(v1)
8003df4c:	00000000 	nop
8003df50:	080082ac 	sw	v0,8(a0)
8003df54:	ce026784 	lh	a3,718(v1)
8003df58:	4c02628c 	lw	v0,588(v1)
8003df5c:	d2026684 	lh	a2,722(v1)
8003df60:	21104700 	addu	v0,v0,a3
8003df64:	21104600 	addu	v0,v0,a2
8003df68:	c0f94224 	addiu	v0,v0,-1600
8003df6c:	040082ac 	sw	v0,4(a0)
8003df70:	68026294 	lhu	v0,616(v1)
8003df74:	00000000 	nop
8003df78:	0000a2a4 	sh	v0,0(a1)
8003df7c:	6a026294 	lhu	v0,618(v1)
8003df80:	00000000 	nop
8003df84:	0200a2a4 	sh	v0,2(a1)
8003df88:	6c026294 	lhu	v0,620(v1)
8003df8c:	0800e003 	jr	ra
8003df90:	0400a2a4 	sh	v0,4(a1)
8003df94:	1a80033c 	lui	v1,0x801a
8003df98:	288f6224 	addiu	v0,v1,-28888
8003df9c:	288f6394 	lhu	v1,-28888(v1)
8003dfa0:	e8ffbd27 	addiu	sp,sp,-24
8003dfa4:	1000bfaf 	sw	ra,16(sp)
8003dfa8:	04004494 	lhu	a0,4(v0)
8003dfac:	c20140a4 	sh	zero,450(v0)
8003dfb0:	c00140a4 	sh	zero,448(v0)
8003dfb4:	be0140a4 	sh	zero,446(v0)
8003dfb8:	bc0140a4 	sh	zero,444(v0)
8003dfbc:	ba0140a4 	sh	zero,442(v0)
8003dfc0:	b80140a4 	sh	zero,440(v0)
8003dfc4:	b60140a4 	sh	zero,438(v0)
8003dfc8:	b40140a4 	sh	zero,436(v0)
8003dfcc:	b20140a4 	sh	zero,434(v0)
8003dfd0:	b00140a4 	sh	zero,432(v0)
8003dfd4:	ae0140a4 	sh	zero,430(v0)
8003dfd8:	ac0140a4 	sh	zero,428(v0)
8003dfdc:	aa0140a4 	sh	zero,426(v0)
8003dfe0:	a80140a4 	sh	zero,424(v0)
8003dfe4:	a60140a4 	sh	zero,422(v0)
8003dfe8:	a40140a4 	sh	zero,420(v0)
8003dfec:	a20140a4 	sh	zero,418(v0)
8003dff0:	a00140a4 	sh	zero,416(v0)
8003dff4:	9e0140a4 	sh	zero,414(v0)
8003dff8:	9c0140a4 	sh	zero,412(v0)
8003dffc:	9a0140a4 	sh	zero,410(v0)
8003e000:	980140a4 	sh	zero,408(v0)
8003e004:	960140a4 	sh	zero,406(v0)
8003e008:	940140a4 	sh	zero,404(v0)
8003e00c:	920140a4 	sh	zero,402(v0)
8003e010:	900140a4 	sh	zero,400(v0)
8003e014:	380240a0 	sb	zero,568(v0)
8003e018:	8a0143a4 	sh	v1,394(v0)
8003e01c:	020043a4 	sh	v1,2(v0)
8003e020:	8c0144a4 	sh	a0,396(v0)
8003e024:	060044a4 	sh	a0,6(v0)
8003e028:	15f0000c 	jal	0x8003c054
8003e02c:	2c0040ac 	sw	zero,44(v0)
8003e030:	1000bf8f 	lw	ra,16(sp)
8003e034:	1800bd27 	addiu	sp,sp,24
8003e038:	0800e003 	jr	ra
8003e03c:	00000000 	nop
8003e040:	21280000 	move	a1,zero
8003e044:	1a80023c 	lui	v0,0x801a
8003e048:	288f4324 	addiu	v1,v0,-28888
8003e04c:	21206000 	move	a0,v1
8003e050:	ec0180ac 	sw	zero,492(a0)
8003e054:	0c0260a4 	sh	zero,524(v1)
8003e058:	02006324 	addiu	v1,v1,2
8003e05c:	0100a524 	addiu	a1,a1,1
8003e060:	0500a228 	slti	v0,a1,5
8003e064:	faff4014 	bnez	v0,0x8003e050
8003e068:	04008424 	addiu	a0,a0,4
8003e06c:	0800e003 	jr	ra
8003e070:	00000000 	nop
8003e074:	e0ffbd27 	addiu	sp,sp,-32
8003e078:	1800bfaf 	sw	ra,24(sp)
8003e07c:	1400b1af 	sw	s1,20(sp)
8003e080:	b9f2000c 	jal	0x8003cae4
8003e084:	1000b0af 	sw	s0,16(sp)
8003e088:	ffff0434 	li	a0,0xffff
8003e08c:	21280000 	move	a1,zero
8003e090:	1a80103c 	lui	s0,0x801a
8003e094:	288f1026 	addiu	s0,s0,-28888
8003e098:	00080224 	li	v0,2048
8003e09c:	440202ae 	sw	v0,580(s0)
8003e0a0:	02000224 	li	v0,2
8003e0a4:	340000ae 	sw	zero,52(s0)
8003e0a8:	dc0200a6 	sh	zero,732(s0)
8003e0ac:	da0200a6 	sh	zero,730(s0)
8003e0b0:	d80200a6 	sh	zero,728(s0)
8003e0b4:	d60200a6 	sh	zero,726(s0)
8003e0b8:	860102a2 	sb	v0,390(s0)
8003e0bc:	5e0100a2 	sb	zero,350(s0)
8003e0c0:	e40100a2 	sb	zero,484(s0)
8003e0c4:	1e0200a2 	sb	zero,542(s0)
8003e0c8:	1b0200a2 	sb	zero,539(s0)
8003e0cc:	1a0200a2 	sb	zero,538(s0)
8003e0d0:	190200a2 	sb	zero,537(s0)
8003e0d4:	1c0100ae 	sw	zero,284(s0)
8003e0d8:	8efb000c 	jal	0x8003ee38
8003e0dc:	180100ae 	sw	zero,280(s0)
8003e0e0:	ffff0434 	li	a0,0xffff
8003e0e4:	8efb000c 	jal	0x8003ee38
8003e0e8:	01000524 	li	a1,1
8003e0ec:	ffff0434 	li	a0,0xffff
8003e0f0:	21280000 	move	a1,zero
8003e0f4:	2130a000 	move	a2,a1
8003e0f8:	f40000ae 	sw	zero,244(s0)
8003e0fc:	f00000ae 	sw	zero,240(s0)
8003e100:	ec0000ae 	sw	zero,236(s0)
8003e104:	4bfc000c 	jal	0x8003f12c
8003e108:	e80000ae 	sw	zero,232(s0)
8003e10c:	ffff0434 	li	a0,0xffff
8003e110:	01000524 	li	a1,1
8003e114:	4bfc000c 	jal	0x8003f12c
8003e118:	21300000 	move	a2,zero
8003e11c:	ffff0434 	li	a0,0xffff
8003e120:	02000524 	li	a1,2
8003e124:	4bfc000c 	jal	0x8003f12c
8003e128:	21300000 	move	a2,zero
8003e12c:	ffff0434 	li	a0,0xffff
8003e130:	03000524 	li	a1,3
8003e134:	4bfc000c 	jal	0x8003f12c
8003e138:	21300000 	move	a2,zero
8003e13c:	21200000 	move	a0,zero
8003e140:	21288000 	move	a1,a0
8003e144:	21308000 	move	a2,a0
8003e148:	18000224 	li	v0,24
8003e14c:	d40102a2 	sb	v0,468(s0)
8003e150:	19000224 	li	v0,25
8003e154:	d50102a2 	sb	v0,469(s0)
8003e158:	1a000224 	li	v0,26
8003e15c:	d60102a2 	sb	v0,470(s0)
8003e160:	1b000224 	li	v0,27
8003e164:	d70102a2 	sb	v0,471(s0)
8003e168:	4bfc000c 	jal	0x8003f12c
8003e16c:	3e0000a6 	sh	zero,62(s0)
8003e170:	6456010c 	jal	0x80055990
8003e174:	000c1124 	li	s1,3072
8003e178:	280000a6 	sh	zero,40(s0)
8003e17c:	330000a2 	sb	zero,51(s0)
8003e180:	340000ae 	sw	zero,52(s0)
8003e184:	b7f3000c 	jal	0x8003cedc
8003e188:	300000a6 	sh	zero,48(s0)
8003e18c:	0300043c 	lui	a0,0x3
8003e190:	00d08434 	ori	a0,a0,0xd000
8003e194:	0400033c 	lui	v1,0x4
8003e198:	c0056334 	ori	v1,v1,0x5c0
8003e19c:	0300023c 	lui	v0,0x3
8003e1a0:	00f04234 	ori	v0,v0,0xf000
8003e1a4:	780200a6 	sh	zero,632(s0)
8003e1a8:	7a0211a6 	sh	s1,634(s0)
8003e1ac:	7c0200a6 	sh	zero,636(s0)
8003e1b0:	480204ae 	sw	a0,584(s0)
8003e1b4:	4c0203ae 	sw	v1,588(s0)
8003e1b8:	500202ae 	sw	v0,592(s0)
8003e1bc:	d00100a6 	sh	zero,464(s0)
8003e1c0:	ce0100a6 	sh	zero,462(s0)
8003e1c4:	e5f9000c 	jal	0x8003e794
8003e1c8:	cc0100a6 	sh	zero,460(s0)
8003e1cc:	7565010c 	jal	0x800595d4
8003e1d0:	00000000 	nop
8003e1d4:	3d000224 	li	v0,61
8003e1d8:	2d0202a2 	sb	v0,557(s0)
8003e1dc:	40000224 	li	v0,64
8003e1e0:	2e0202a2 	sb	v0,558(s0)
8003e1e4:	3f000224 	li	v0,63
8003e1e8:	2f0202a2 	sb	v0,559(s0)
8003e1ec:	c0050224 	li	v0,1472
8003e1f0:	2c0200a2 	sb	zero,556(s0)
8003e1f4:	300200a6 	sh	zero,560(s0)
8003e1f8:	320202a6 	sh	v0,562(s0)
8003e1fc:	340200a6 	sh	zero,564(s0)
8003e200:	10fa000c 	jal	0x8003e840
8003e204:	360211a6 	sh	s1,566(s0)
8003e208:	1800bf8f 	lw	ra,24(sp)
8003e20c:	1400b18f 	lw	s1,20(sp)
8003e210:	1000b08f 	lw	s0,16(sp)
8003e214:	2000bd27 	addiu	sp,sp,32
8003e218:	0800e003 	jr	ra
8003e21c:	00000000 	nop
8003e220:	e8ffbd27 	addiu	sp,sp,-24
8003e224:	1000b0af 	sw	s0,16(sp)
8003e228:	1a80103c 	lui	s0,0x801a
8003e22c:	288f1026 	addiu	s0,s0,-28888
8003e230:	1980023c 	lui	v0,0x8019
8003e234:	280f4224 	addiu	v0,v0,3880
8003e238:	1400bfaf 	sw	ra,20(sp)
8003e23c:	200102ae 	sw	v0,288(s0)
8003e240:	00404224 	addiu	v0,v0,16384
8003e244:	240102ae 	sw	v0,292(s0)
8003e248:	1a80023c 	lui	v0,0x801a
8003e24c:	20924224 	addiu	v0,v0,-28128
8003e250:	f80002ae 	sw	v0,248(s0)
8003e254:	00704224 	addiu	v0,v0,28672
8003e258:	fc0002ae 	sw	v0,252(s0)
8003e25c:	1a80023c 	lui	v0,0x801a
8003e260:	20724224 	addiu	v0,v0,29216
8003e264:	000102ae 	sw	v0,256(s0)
8003e268:	1b80023c 	lui	v0,0x801b
8003e26c:	20e24224 	addiu	v0,v0,-7648
8003e270:	1dfa000c 	jal	0x8003e874
8003e274:	040102ae 	sw	v0,260(s0)
8003e278:	1d80043c 	lui	a0,0x801d
8003e27c:	20d18324 	addiu	v1,a0,-12000
8003e280:	3f000224 	li	v0,63
8003e284:	010062a0 	sb	v0,1(v1)
8003e288:	20d182a0 	sb	v0,-12000(a0)
8003e28c:	01000224 	li	v0,1
8003e290:	030062a0 	sb	v0,3(v1)
8003e294:	020062a0 	sb	v0,2(v1)
8003e298:	040062a0 	sb	v0,4(v1)
8003e29c:	050062a0 	sb	v0,5(v1)
8003e2a0:	05000224 	li	v0,5
8003e2a4:	060062a0 	sb	v0,6(v1)
8003e2a8:	1e000224 	li	v0,30
8003e2ac:	070062a0 	sb	v0,7(v1)
8003e2b0:	14000224 	li	v0,20
8003e2b4:	080062a0 	sb	v0,8(v1)
8003e2b8:	1c0200a2 	sb	zero,540(s0)
8003e2bc:	1400bf8f 	lw	ra,20(sp)
8003e2c0:	1000b08f 	lw	s0,16(sp)
8003e2c4:	1800bd27 	addiu	sp,sp,24
8003e2c8:	0800e003 	jr	ra
8003e2cc:	00000000 	nop
8003e2d0:	1a80023c 	lui	v0,0x801a
8003e2d4:	288f4224 	addiu	v0,v0,-28888
8003e2d8:	01000324 	li	v1,1
8003e2dc:	e40240ac 	sw	zero,740(v0)
8003e2e0:	e80240ac 	sw	zero,744(v0)
8003e2e4:	ca0240a4 	sh	zero,714(v0)
8003e2e8:	cc0240a4 	sh	zero,716(v0)
8003e2ec:	c80240a4 	sh	zero,712(v0)
8003e2f0:	0800e003 	jr	ra
8003e2f4:	1e0243a0 	sb	v1,542(v0)
8003e2f8:	e8ffbd27 	addiu	sp,sp,-24
8003e2fc:	1a80023c 	lui	v0,0x801a
8003e300:	288f4224 	addiu	v0,v0,-28888
8003e304:	01000324 	li	v1,1
8003e308:	1000bfaf 	sw	ra,16(sp)
8003e30c:	3c0240ac 	sw	zero,572(v0)
8003e310:	1c0243a0 	sb	v1,540(v0)
8003e314:	390240a0 	sb	zero,569(v0)
8003e318:	d40240a4 	sh	zero,724(v0)
8003e31c:	b4fa000c 	jal	0x8003ead0
8003e320:	180240a0 	sb	zero,536(v0)
8003e324:	1000bf8f 	lw	ra,16(sp)
8003e328:	1800bd27 	addiu	sp,sp,24
8003e32c:	0800e003 	jr	ra
8003e330:	00000000 	nop
8003e334:	d0ffbd27 	addiu	sp,sp,-48
8003e338:	1800b0af 	sw	s0,24(sp)
8003e33c:	21808000 	move	s0,a0
8003e340:	2000b2af 	sw	s2,32(sp)
8003e344:	2190a000 	move	s2,a1
8003e348:	2110c000 	move	v0,a2
8003e34c:	2400b3af 	sw	s3,36(sp)
8003e350:	2198e000 	move	s3,a3
8003e354:	ffff0534 	li	a1,0xffff
8003e358:	2800bfaf 	sw	ra,40(sp)
8003e35c:	1c00b1af 	sw	s1,28(sp)
8003e360:	1000a0af 	sw	zero,16(sp)
8003e364:	0000048e 	lw	a0,0(s0)
8003e368:	0800068e 	lw	a2,8(s0)
8003e36c:	fffa000c 	jal	0x8003ebfc
8003e370:	21384000 	move	a3,v0
8003e374:	21884000 	move	s1,v0
8003e378:	ffff0224 	li	v0,-1
8003e37c:	16002212 	beq	s1,v0,0x8003e3d8
8003e380:	1a80023c 	lui	v0,0x801a
8003e384:	288f4224 	addiu	v0,v0,-28888
8003e388:	4802438c 	lw	v1,584(v0)
8003e38c:	0000048e 	lw	a0,0(s0)
8003e390:	5002428c 	lw	v0,592(v0)
8003e394:	0800058e 	lw	a1,8(s0)
8003e398:	23206400 	subu	a0,v1,a0
8003e39c:	6d28010c 	jal	0x8004a1b4
8003e3a0:	23284500 	subu	a1,v0,a1
8003e3a4:	23105200 	subu	v0,v0,s2
8003e3a8:	ff0f4330 	andi	v1,v0,0xfff
8003e3ac:	01086228 	slti	v0,v1,2049
8003e3b0:	03004014 	bnez	v0,0x8003e3c0
8003e3b4:	21206000 	move	a0,v1
8003e3b8:	00100224 	li	v0,4096
8003e3bc:	23204300 	subu	a0,v0,v1
8003e3c0:	00140400 	sll	v0,a0,0x10
8003e3c4:	03140200 	sra	v0,v0,0x10
8003e3c8:	2a106202 	slt	v0,s3,v0
8003e3cc:	03004010 	beqz	v0,0x8003e3dc
8003e3d0:	21102002 	move	v0,s1
8003e3d4:	ffff1124 	li	s1,-1
8003e3d8:	21102002 	move	v0,s1
8003e3dc:	2800bf8f 	lw	ra,40(sp)
8003e3e0:	2400b38f 	lw	s3,36(sp)
8003e3e4:	2000b28f 	lw	s2,32(sp)
8003e3e8:	1c00b18f 	lw	s1,28(sp)
8003e3ec:	1800b08f 	lw	s0,24(sp)
8003e3f0:	3000bd27 	addiu	sp,sp,48
8003e3f4:	0800e003 	jr	ra
8003e3f8:	00000000 	nop
8003e3fc:	d8ffbd27 	addiu	sp,sp,-40
8003e400:	21408000 	move	t0,a0
8003e404:	2148a000 	move	t1,a1
8003e408:	2150c000 	move	t2,a2
8003e40c:	e8030224 	li	v0,1000
8003e410:	1a80043c 	lui	a0,0x801a
8003e414:	70918424 	addiu	a0,a0,-28304
8003e418:	21280001 	move	a1,t0
8003e41c:	3800a38f 	lw	v1,56(sp)
8003e420:	21302001 	move	a2,t1
8003e424:	1000a7af 	sw	a3,16(sp)
8003e428:	21384001 	move	a3,t2
8003e42c:	2000bfaf 	sw	ra,32(sp)
8003e430:	1400a2af 	sw	v0,20(sp)
8003e434:	6029010c 	jal	0x8004a580
8003e438:	1800a3af 	sw	v1,24(sp)
8003e43c:	2000bf8f 	lw	ra,32(sp)
8003e440:	2800bd27 	addiu	sp,sp,40
8003e444:	0800e003 	jr	ra
8003e448:	00000000 	nop
8003e44c:	01000224 	li	v0,1
8003e450:	100082a0 	sb	v0,16(a0)
8003e454:	0800e003 	jr	ra
8003e458:	00000000 	nop
8003e45c:	a8ffbd27 	addiu	sp,sp,-88
8003e460:	4c00b5af 	sw	s5,76(sp)
8003e464:	21a88000 	move	s5,a0
8003e468:	4800b4af 	sw	s4,72(sp)
8003e46c:	21a0a000 	move	s4,a1
8003e470:	4400b3af 	sw	s3,68(sp)
8003e474:	2198c000 	move	s3,a2
8003e478:	5000b6af 	sw	s6,80(sp)
8003e47c:	21b0e000 	move	s6,a3
8003e480:	3c00b1af 	sw	s1,60(sp)
8003e484:	2800b127 	addiu	s1,sp,40
8003e488:	21202002 	move	a0,s1
8003e48c:	21280000 	move	a1,zero
8003e490:	04000624 	li	a2,4
8003e494:	5400bfaf 	sw	ra,84(sp)
8003e498:	4000b2af 	sw	s2,64(sp)
8003e49c:	ade2010c 	jal	0x80078ab4
8003e4a0:	3800b0af 	sw	s0,56(sp)
8003e4a4:	3000b027 	addiu	s0,sp,48
8003e4a8:	21200002 	move	a0,s0
8003e4ac:	21280000 	move	a1,zero
8003e4b0:	ade2010c 	jal	0x80078ab4
8003e4b4:	04000624 	li	a2,4
8003e4b8:	21902002 	move	s2,s1
8003e4bc:	02006012 	beqz	s3,0x8003e4c8
8003e4c0:	21880002 	move	s1,s0
8003e4c4:	21906002 	move	s2,s3
8003e4c8:	02008012 	beqz	s4,0x8003e4d4
8003e4cc:	2180a002 	move	s0,s5
8003e4d0:	21888002 	move	s1,s4
8003e4d4:	0000038e 	lw	v1,0(s0)
8003e4d8:	10000224 	li	v0,16
8003e4dc:	4b006214 	bne	v1,v0,0x8003e60c
8003e4e0:	04001026 	addiu	s0,s0,4
8003e4e4:	0000028e 	lw	v0,0(s0)
8003e4e8:	00000000 	nop
8003e4ec:	08004230 	andi	v0,v0,0x8
8003e4f0:	23004010 	beqz	v0,0x8003e580
8003e4f4:	04001026 	addiu	s0,s0,4
8003e4f8:	0400028e 	lw	v0,4(s0)
8003e4fc:	0000038e 	lw	v1,0(s0)
8003e500:	1400a2af 	sw	v0,20(sp)
8003e504:	0800028e 	lw	v0,8(s0)
8003e508:	0c001026 	addiu	s0,s0,12
8003e50c:	1000a3af 	sw	v1,16(sp)
8003e510:	0a00c016 	bnez	s6,0x8003e53c
8003e514:	1800a2af 	sw	v0,24(sp)
8003e518:	1400a297 	lhu	v0,20(sp)
8003e51c:	00004396 	lhu	v1,0(s2)
8003e520:	00000000 	nop
8003e524:	21104300 	addu	v0,v0,v1
8003e528:	2000a2a7 	sh	v0,32(sp)
8003e52c:	1600a297 	lhu	v0,22(sp)
8003e530:	02004396 	lhu	v1,2(s2)
8003e534:	53fb0008 	j	0x8003ed4c
8003e538:	21104300 	addu	v0,v0,v1
8003e53c:	00004296 	lhu	v0,0(s2)
8003e540:	00000000 	nop
8003e544:	2000a2a7 	sh	v0,32(sp)
8003e548:	02004296 	lhu	v0,2(s2)
8003e54c:	00000000 	nop
8003e550:	2200a2a7 	sh	v0,34(sp)
8003e554:	2000a427 	addiu	a0,sp,32
8003e558:	1800a297 	lhu	v0,24(sp)
8003e55c:	1a00a397 	lhu	v1,26(sp)
8003e560:	21280002 	move	a1,s0
8003e564:	2400a2a7 	sh	v0,36(sp)
8003e568:	43e7010c 	jal	0x80079d0c
8003e56c:	2600a3a7 	sh	v1,38(sp)
8003e570:	1000a28f 	lw	v0,16(sp)
8003e574:	00000000 	nop
8003e578:	f4ff4224 	addiu	v0,v0,-12
8003e57c:	21800202 	addu	s0,s0,v0
8003e580:	0400028e 	lw	v0,4(s0)
8003e584:	0000038e 	lw	v1,0(s0)
8003e588:	1400a2af 	sw	v0,20(sp)
8003e58c:	0800028e 	lw	v0,8(s0)
8003e590:	0c001026 	addiu	s0,s0,12
8003e594:	1000a3af 	sw	v1,16(sp)
8003e598:	0a00c016 	bnez	s6,0x8003e5c4
8003e59c:	1800a2af 	sw	v0,24(sp)
8003e5a0:	1400a297 	lhu	v0,20(sp)
8003e5a4:	00002396 	lhu	v1,0(s1)
8003e5a8:	00000000 	nop
8003e5ac:	21104300 	addu	v0,v0,v1
8003e5b0:	2000a2a7 	sh	v0,32(sp)
8003e5b4:	1600a297 	lhu	v0,22(sp)
8003e5b8:	02002396 	lhu	v1,2(s1)
8003e5bc:	75fb0008 	j	0x8003edd4
8003e5c0:	21104300 	addu	v0,v0,v1
8003e5c4:	00002296 	lhu	v0,0(s1)
8003e5c8:	00000000 	nop
8003e5cc:	2000a2a7 	sh	v0,32(sp)
8003e5d0:	02002296 	lhu	v0,2(s1)
8003e5d4:	00000000 	nop
8003e5d8:	2200a2a7 	sh	v0,34(sp)
8003e5dc:	2000a427 	addiu	a0,sp,32
8003e5e0:	1800a297 	lhu	v0,24(sp)
8003e5e4:	1a00a397 	lhu	v1,26(sp)
8003e5e8:	21280002 	move	a1,s0
8003e5ec:	2400a2a7 	sh	v0,36(sp)
8003e5f0:	43e7010c 	jal	0x80079d0c
8003e5f4:	2600a3a7 	sh	v1,38(sp)
8003e5f8:	1000a28f 	lw	v0,16(sp)
8003e5fc:	00000000 	nop
8003e600:	f4ff4224 	addiu	v0,v0,-12
8003e604:	35fb0008 	j	0x8003ecd4
8003e608:	21800202 	addu	s0,s0,v0
8003e60c:	5400bf8f 	lw	ra,84(sp)
8003e610:	5000b68f 	lw	s6,80(sp)
8003e614:	4c00b58f 	lw	s5,76(sp)
8003e618:	4800b48f 	lw	s4,72(sp)
8003e61c:	4400b38f 	lw	s3,68(sp)
8003e620:	4000b28f 	lw	s2,64(sp)
8003e624:	3c00b18f 	lw	s1,60(sp)
8003e628:	3800b08f 	lw	s0,56(sp)
8003e62c:	5800bd27 	addiu	sp,sp,88
8003e630:	0800e003 	jr	ra
8003e634:	00000000 	nop
8003e638:	b8ffbd27 	addiu	sp,sp,-72
8003e63c:	21388000 	move	a3,a0
8003e640:	3800b6af 	sw	s6,56(sp)
8003e644:	21b0a000 	move	s6,a1
8003e648:	3400b5af 	sw	s5,52(sp)
8003e64c:	0980023c 	lui	v0,0x8009
8003e650:	4000bfaf 	sw	ra,64(sp)
8003e654:	3c00b7af 	sw	s7,60(sp)
8003e658:	3000b4af 	sw	s4,48(sp)
8003e65c:	2c00b3af 	sw	s3,44(sp)
8003e660:	2800b2af 	sw	s2,40(sp)
8003e664:	2400b1af 	sw	s1,36(sp)
8003e668:	2000b0af 	sw	s0,32(sp)
8003e66c:	2c804624 	addiu	a2,v0,-32724
8003e670:	0300c388 	lwl	v1,3(a2)
8003e674:	0000c398 	lwr	v1,0(a2)
8003e678:	0700c488 	lwl	a0,7(a2)
8003e67c:	0400c498 	lwr	a0,4(a2)
8003e680:	1300a3ab 	swl	v1,19(sp)
8003e684:	1000a3bb 	swr	v1,16(sp)
8003e688:	1700a4ab 	swl	a0,23(sp)
8003e68c:	1400a4bb 	swr	a0,20(sp)
8003e690:	0980023c 	lui	v0,0x8009
8003e694:	34804624 	addiu	a2,v0,-32716
8003e698:	0300c388 	lwl	v1,3(a2)
8003e69c:	0000c398 	lwr	v1,0(a2)
8003e6a0:	0700c488 	lwl	a0,7(a2)
8003e6a4:	0400c498 	lwr	a0,4(a2)
8003e6a8:	1b00a3ab 	swl	v1,27(sp)
8003e6ac:	1800a3bb 	swr	v1,24(sp)
8003e6b0:	1f00a4ab 	swl	a0,31(sp)
8003e6b4:	1c00a4bb 	swr	a0,28(sp)
8003e6b8:	ffffe330 	andi	v1,a3,0xffff
8003e6bc:	ffff0234 	li	v0,0xffff
8003e6c0:	02006210 	beq	v1,v0,0x8003e6cc
8003e6c4:	ff001524 	li	s5,255
8003e6c8:	21a8e000 	move	s5,a3
8003e6cc:	1a80023c 	lui	v0,0x801a
8003e6d0:	288f4224 	addiu	v0,v0,-28888
8003e6d4:	ff00c432 	andi	a0,s6,0xff
8003e6d8:	21108200 	addu	v0,a0,v0
8003e6dc:	4c014390 	lbu	v1,332(v0)
8003e6e0:	ff000224 	li	v0,255
8003e6e4:	20006210 	beq	v1,v0,0x8003e768
8003e6e8:	1980023c 	lui	v0,0x8019
8003e6ec:	18e34324 	addiu	v1,v0,-7400
8003e6f0:	7f000524 	li	a1,127
8003e6f4:	ff000624 	li	a2,255
8003e6f8:	21388000 	move	a3,a0
8003e6fc:	ffff0824 	li	t0,-1
8003e700:	01006424 	addiu	a0,v1,1
8003e704:	00006290 	lbu	v0,0(v1)
8003e708:	00000000 	nop
8003e70c:	12004610 	beq	v0,a2,0x8003e758
8003e710:	20004230 	andi	v0,v0,0x20
8003e714:	2b100200 	sltu	v0,zero,v0
8003e718:	0f004714 	bne	v0,a3,0x8003e758
8003e71c:	00000000 	nop
8003e720:	00008290 	lbu	v0,0(a0)
8003e724:	00000000 	nop
8003e728:	2c00422c 	sltiu	v0,v0,44
8003e72c:	02004010 	beqz	v0,0x8003e738
8003e730:	00000000 	nop
8003e734:	000066a0 	sb	a2,0(v1)
8003e738:	00008290 	lbu	v0,0(a0)
8003e73c:	00000000 	nop
8003e740:	56004224 	addiu	v0,v0,86
8003e744:	ff004230 	andi	v0,v0,0xff
8003e748:	0a00422c 	sltiu	v0,v0,10
8003e74c:	02004010 	beqz	v0,0x8003e758
8003e750:	00000000 	nop
8003e754:	000066a0 	sb	a2,0(v1)
8003e758:	58008424 	addiu	a0,a0,88
8003e75c:	ffffa524 	addiu	a1,a1,-1
8003e760:	e8ffa814 	bne	a1,t0,0x8003e704
8003e764:	58006324 	addiu	v1,v1,88
8003e768:	1a80023c 	lui	v0,0x801a
8003e76c:	288f4624 	addiu	a2,v0,-28888
8003e770:	ff00d232 	andi	s2,s6,0xff
8003e774:	21104602 	addu	v0,s2,a2
8003e778:	4c0155a0 	sb	s5,332(v0)
8003e77c:	ff00a332 	andi	v1,s5,0xff
8003e780:	ff000224 	li	v0,255
8003e784:	4b006210 	beq	v1,v0,0x8003e8b4
8003e788:	01000424 	li	a0,1
8003e78c:	80280300 	sll	a1,v1,0x2
8003e790:	e402a524 	addiu	a1,a1,740
8003e794:	80a01200 	sll	s4,s2,0x2
8003e798:	21808602 	addu	s0,s4,a2
8003e79c:	40100300 	sll	v0,v1,0x1
8003e7a0:	21104300 	addu	v0,v0,v1
8003e7a4:	c0100200 	sll	v0,v0,0x3
8003e7a8:	1980033c 	lui	v1,0x8019
8003e7ac:	98d26324 	addiu	v1,v1,-11624
8003e7b0:	2001068e 	lw	a2,288(s0)
8003e7b4:	21104300 	addu	v0,v0,v1
8003e7b8:	0c58000c 	jal	0x80016030
8003e7bc:	180102ae 	sw	v0,280(s0)
8003e7c0:	c0101200 	sll	v0,s2,0x3
8003e7c4:	60005324 	addiu	s3,v0,96
8003e7c8:	2001108e 	lw	s0,288(s0)
8003e7cc:	ffff0334 	li	v1,0xffff
8003e7d0:	00001296 	lhu	s2,0(s0)
8003e7d4:	00000000 	nop
8003e7d8:	ffff4226 	addiu	v0,s2,-1
8003e7dc:	21904000 	move	s2,v0
8003e7e0:	ffff4230 	andi	v0,v0,0xffff
8003e7e4:	1c004310 	beq	v0,v1,0x8003e858
8003e7e8:	04001026 	addiu	s0,s0,4
8003e7ec:	1680023c 	lui	v0,0x8016
8003e7f0:	90d05724 	addiu	s7,v0,-12144
8003e7f4:	0000118e 	lw	s1,0(s0)
8003e7f8:	00000000 	nop
8003e7fc:	0500222e 	sltiu	v0,s1,5
8003e800:	0e004014 	bnez	v0,0x8003e83c
8003e804:	1000a527 	addiu	a1,sp,16
8003e808:	2128b400 	addu	a1,a1,s4
8003e80c:	1800a627 	addiu	a2,sp,24
8003e810:	2130d400 	addu	a2,a2,s4
8003e814:	ffff6232 	andi	v0,s3,0xffff
8003e818:	80100200 	sll	v0,v0,0x2
8003e81c:	21105700 	addu	v0,v0,s7
8003e820:	4c830334 	li	v1,0x834c
8003e824:	21104300 	addu	v0,v0,v1
8003e828:	000050ac 	sw	s0,0(v0)
8003e82c:	0800048e 	lw	a0,8(s0)
8003e830:	21380000 	move	a3,zero
8003e834:	e85d000c 	jal	0x800177a0
8003e838:	21200402 	addu	a0,s0,a0
8003e83c:	21801102 	addu	s0,s0,s1
8003e840:	ffff4326 	addiu	v1,s2,-1
8003e844:	21906000 	move	s2,v1
8003e848:	ffff6330 	andi	v1,v1,0xffff
8003e84c:	ffff0234 	li	v0,0xffff
8003e850:	e8ff6214 	bne	v1,v0,0x8003e7f4
8003e854:	01007326 	addiu	s3,s3,1
8003e858:	01000424 	li	a0,1
8003e85c:	ff00b132 	andi	s1,s5,0xff
8003e860:	80881100 	sll	s1,s1,0x2
8003e864:	e5022526 	addiu	a1,s1,741
8003e868:	0980103c 	lui	s0,0x8009
8003e86c:	888c1026 	addiu	s0,s0,-29560
8003e870:	0c58000c 	jal	0x80016030
8003e874:	21300002 	move	a2,s0
8003e878:	21200002 	move	a0,s0
8003e87c:	ff00d032 	andi	s0,s6,0xff
8003e880:	80101000 	sll	v0,s0,0x2
8003e884:	1000a527 	addiu	a1,sp,16
8003e888:	2128a200 	addu	a1,a1,v0
8003e88c:	1800a627 	addiu	a2,sp,24
8003e890:	2130c200 	addu	a2,a2,v0
8003e894:	17fb000c 	jal	0x8003ec5c
8003e898:	21380000 	move	a3,zero
8003e89c:	98e6010c 	jal	0x80079a60
8003e8a0:	21200000 	move	a0,zero
8003e8a4:	01000424 	li	a0,1
8003e8a8:	e6022526 	addiu	a1,s1,742
8003e8ac:	8362010c 	jal	0x80058a0c
8003e8b0:	06000626 	addiu	a2,s0,6
8003e8b4:	1a80043c 	lui	a0,0x801a
8003e8b8:	288f8424 	addiu	a0,a0,-28888
8003e8bc:	1e000224 	li	v0,30
8003e8c0:	ff00c532 	andi	a1,s6,0xff
8003e8c4:	880182a0 	sb	v0,392(a0)
8003e8c8:	40100500 	sll	v0,a1,0x1
8003e8cc:	21104400 	addu	v0,v0,a0
8003e8d0:	ffff0324 	li	v1,-1
8003e8d4:	820180a4 	sh	zero,386(a0)
8003e8d8:	840180a4 	sh	zero,388(a0)
8003e8dc:	3c0143a4 	sh	v1,316(v0)
8003e8e0:	80100500 	sll	v0,a1,0x2
8003e8e4:	21104400 	addu	v0,v0,a0
8003e8e8:	2128a400 	addu	a1,a1,a0
8003e8ec:	280140ac 	sw	zero,296(v0)
8003e8f0:	ff000224 	li	v0,255
8003e8f4:	b556000c 	jal	0x80015ad4
8003e8f8:	5501a2a0 	sb	v0,341(a1)
8003e8fc:	4000bf8f 	lw	ra,64(sp)
8003e900:	3c00b78f 	lw	s7,60(sp)
8003e904:	3800b68f 	lw	s6,56(sp)
8003e908:	3400b58f 	lw	s5,52(sp)
8003e90c:	3000b48f 	lw	s4,48(sp)
8003e910:	2c00b38f 	lw	s3,44(sp)
8003e914:	2800b28f 	lw	s2,40(sp)
8003e918:	2400b18f 	lw	s1,36(sp)
8003e91c:	2000b08f 	lw	s0,32(sp)
8003e920:	4800bd27 	addiu	sp,sp,72
8003e924:	0800e003 	jr	ra
8003e928:	00000000 	nop
8003e92c:	a8ffbd27 	addiu	sp,sp,-88
8003e930:	4800b6af 	sw	s6,72(sp)
8003e934:	21b0a000 	move	s6,a1
8003e938:	2140c000 	move	t0,a2
8003e93c:	0180023c 	lui	v0,0x8001
8003e940:	5400bfaf 	sw	ra,84(sp)
8003e944:	5000beaf 	sw	s8,80(sp)
8003e948:	4c00b7af 	sw	s7,76(sp)
8003e94c:	4400b5af 	sw	s5,68(sp)
8003e950:	4000b4af 	sw	s4,64(sp)
8003e954:	3c00b3af 	sw	s3,60(sp)
8003e958:	3800b2af 	sw	s2,56(sp)
8003e95c:	3400b1af 	sw	s1,52(sp)
8003e960:	3000b0af 	sw	s0,48(sp)
8003e964:	b41c4724 	addiu	a3,v0,7348
8003e968:	0300e388 	lwl	v1,3(a3)
8003e96c:	0000e398 	lwr	v1,0(a3)
8003e970:	0700e588 	lwl	a1,7(a3)
8003e974:	0400e598 	lwr	a1,4(a3)
8003e978:	0b00e688 	lwl	a2,11(a3)
8003e97c:	0800e698 	lwr	a2,8(a3)
8003e980:	1300a3ab 	swl	v1,19(sp)
8003e984:	1000a3bb 	swr	v1,16(sp)
8003e988:	1700a5ab 	swl	a1,23(sp)
8003e98c:	1400a5bb 	swr	a1,20(sp)
8003e990:	1b00a6ab 	swl	a2,27(sp)
8003e994:	1800a6bb 	swr	a2,24(sp)
8003e998:	0f00e388 	lwl	v1,15(a3)
8003e99c:	0c00e398 	lwr	v1,12(a3)
8003e9a0:	00000000 	nop
8003e9a4:	1f00a3ab 	swl	v1,31(sp)
8003e9a8:	1c00a3bb 	swr	v1,28(sp)
8003e9ac:	0180023c 	lui	v0,0x8001
8003e9b0:	c41c4724 	addiu	a3,v0,7364
8003e9b4:	0300e388 	lwl	v1,3(a3)
8003e9b8:	0000e398 	lwr	v1,0(a3)
8003e9bc:	0700e588 	lwl	a1,7(a3)
8003e9c0:	0400e598 	lwr	a1,4(a3)
8003e9c4:	0b00e688 	lwl	a2,11(a3)
8003e9c8:	0800e698 	lwr	a2,8(a3)
8003e9cc:	2300a3ab 	swl	v1,35(sp)
8003e9d0:	2000a3bb 	swr	v1,32(sp)
8003e9d4:	2700a5ab 	swl	a1,39(sp)
8003e9d8:	2400a5bb 	swr	a1,36(sp)
8003e9dc:	2b00a6ab 	swl	a2,43(sp)
8003e9e0:	2800a6bb 	swr	a2,40(sp)
8003e9e4:	0f00e388 	lwl	v1,15(a3)
8003e9e8:	0c00e398 	lwr	v1,12(a3)
8003e9ec:	00000000 	nop
8003e9f0:	2f00a3ab 	swl	v1,47(sp)
8003e9f4:	2c00a3bb 	swr	v1,44(sp)
8003e9f8:	21900000 	move	s2,zero
8003e9fc:	21b84002 	move	s7,s2
8003ea00:	ffff8430 	andi	a0,a0,0xffff
8003ea04:	ffff0234 	li	v0,0xffff
8003ea08:	0c008210 	beq	a0,v0,0x8003ea3c
8003ea0c:	801f1e3c 	lui	s8,0x1f80
8003ea10:	40100400 	sll	v0,a0,0x1
8003ea14:	21104400 	addu	v0,v0,a0
8003ea18:	80100200 	sll	v0,v0,0x2
8003ea1c:	23104400 	subu	v0,v0,a0
8003ea20:	80100200 	sll	v0,v0,0x2
8003ea24:	1c80033c 	lui	v1,0x801c
8003ea28:	10786324 	addiu	v1,v1,30736
8003ea2c:	21104300 	addu	v0,v0,v1
8003ea30:	04005590 	lbu	s5,4(v0)
8003ea34:	91fc0008 	j	0x8003f244
8003ea38:	1a80023c 	lui	v0,0x801a
8003ea3c:	ff001524 	li	s5,255
8003ea40:	1a80023c 	lui	v0,0x801a
8003ea44:	288f4324 	addiu	v1,v0,-28888
8003ea48:	0f000224 	li	v0,15
8003ea4c:	ff00a432 	andi	a0,s5,0xff
8003ea50:	870162a0 	sb	v0,391(v1)
8003ea54:	ff000224 	li	v0,255
8003ea58:	7e0160a4 	sh	zero,382(v1)
8003ea5c:	1a008210 	beq	a0,v0,0x8003eac8
8003ea60:	800160a4 	sh	zero,384(v1)
8003ea64:	ff00d132 	andi	s1,s6,0xff
8003ea68:	21102302 	addu	v0,s1,v1
8003ea6c:	48014590 	lbu	a1,328(v0)
8003ea70:	00000000 	nop
8003ea74:	1500a414 	bne	a1,a0,0x8003eacc
8003ea78:	1a80023c 	lui	v0,0x801a
8003ea7c:	ff000231 	andi	v0,t0,0xff
8003ea80:	11004010 	beqz	v0,0x8003eac8
8003ea84:	80280500 	sll	a1,a1,0x2
8003ea88:	01000424 	li	a0,1
8003ea8c:	e501a524 	addiu	a1,a1,485
8003ea90:	0980103c 	lui	s0,0x8009
8003ea94:	888c1026 	addiu	s0,s0,-29560
8003ea98:	0c58000c 	jal	0x80016030
8003ea9c:	21300002 	move	a2,s0
8003eaa0:	21200002 	move	a0,s0
8003eaa4:	80101100 	sll	v0,s1,0x2
8003eaa8:	1000a527 	addiu	a1,sp,16
8003eaac:	2128a200 	addu	a1,a1,v0
8003eab0:	2000a627 	addiu	a2,sp,32
8003eab4:	2130c200 	addu	a2,a2,v0
8003eab8:	17fb000c 	jal	0x8003ec5c
8003eabc:	21380000 	move	a3,zero
8003eac0:	98e6010c 	jal	0x80079a60
8003eac4:	21200000 	move	a0,zero
8003eac8:	1a80023c 	lui	v0,0x801a
8003eacc:	288f4624 	addiu	a2,v0,-28888
8003ead0:	ff00c332 	andi	v1,s6,0xff
8003ead4:	21106600 	addu	v0,v1,a2
8003ead8:	480155a0 	sb	s5,328(v0)
8003eadc:	e1ffa226 	addiu	v0,s5,-31
8003eae0:	0400422c 	sltiu	v0,v0,4
8003eae4:	03004010 	beqz	v0,0x8003eaf4
8003eae8:	ff00a532 	andi	a1,s5,0xff
8003eaec:	01001224 	li	s2,1
8003eaf0:	1d00b726 	addiu	s7,s5,29
8003eaf4:	ff000224 	li	v0,255
8003eaf8:	5a00a210 	beq	a1,v0,0x8003ec64
8003eafc:	80a00300 	sll	s4,v1,0x2
8003eb00:	21988602 	addu	s3,s4,a2
8003eb04:	c0100500 	sll	v0,a1,0x3
8003eb08:	23104500 	subu	v0,v0,a1
8003eb0c:	80100200 	sll	v0,v0,0x2
8003eb10:	1b80033c 	lui	v1,0x801b
8003eb14:	20526324 	addiu	v1,v1,21024
8003eb18:	21104300 	addu	v0,v0,v1
8003eb1c:	e80062ae 	sw	v0,232(s3)
8003eb20:	ff004232 	andi	v0,s2,0xff
8003eb24:	25004010 	beqz	v0,0x8003ebbc
8003eb28:	0100d23a 	xori	s2,s6,0x1
8003eb2c:	01000424 	li	a0,1
8003eb30:	ff005132 	andi	s1,s2,0xff
8003eb34:	80881100 	sll	s1,s1,0x2
8003eb38:	21882602 	addu	s1,s1,a2
8003eb3c:	ff00f032 	andi	s0,s7,0xff
8003eb40:	c0101000 	sll	v0,s0,0x3
8003eb44:	23105000 	subu	v0,v0,s0
8003eb48:	80100200 	sll	v0,v0,0x2
8003eb4c:	21104300 	addu	v0,v0,v1
8003eb50:	80280500 	sll	a1,a1,0x2
8003eb54:	e80022ae 	sw	v0,232(s1)
8003eb58:	f800668e 	lw	a2,248(s3)
8003eb5c:	0c58000c 	jal	0x80016030
8003eb60:	e401a524 	addiu	a1,a1,484
8003eb64:	01000424 	li	a0,1
8003eb68:	80801000 	sll	s0,s0,0x2
8003eb6c:	f800268e 	lw	a2,248(s1)
8003eb70:	0c58000c 	jal	0x80016030
8003eb74:	e4010526 	addiu	a1,s0,484
8003eb78:	ff00c432 	andi	a0,s6,0xff
8003eb7c:	f800658e 	lw	a1,248(s3)
8003eb80:	92ce000c 	jal	0x80033a48
8003eb84:	20008424 	addiu	a0,a0,32
8003eb88:	1000a527 	addiu	a1,sp,16
8003eb8c:	2128b400 	addu	a1,a1,s4
8003eb90:	2000a627 	addiu	a2,sp,32
8003eb94:	2130d400 	addu	a2,a2,s4
8003eb98:	0c00c48f 	lw	a0,12(s8)
8003eb9c:	e85d000c 	jal	0x800177a0
8003eba0:	21380000 	move	a3,zero
8003eba4:	ff005232 	andi	s2,s2,0xff
8003eba8:	f800258e 	lw	a1,248(s1)
8003ebac:	92ce000c 	jal	0x80033a48
8003ebb0:	20004426 	addiu	a0,s2,32
8003ebb4:	00fd0008 	j	0x8003f400
8003ebb8:	01000424 	li	a0,1
8003ebbc:	01000424 	li	a0,1
8003ebc0:	80280500 	sll	a1,a1,0x2
8003ebc4:	f800668e 	lw	a2,248(s3)
8003ebc8:	0c58000c 	jal	0x80016030
8003ebcc:	e401a524 	addiu	a1,a1,484
8003ebd0:	ff00c432 	andi	a0,s6,0xff
8003ebd4:	f800658e 	lw	a1,248(s3)
8003ebd8:	92ce000c 	jal	0x80033a48
8003ebdc:	20008424 	addiu	a0,a0,32
8003ebe0:	1000a527 	addiu	a1,sp,16
8003ebe4:	2128b400 	addu	a1,a1,s4
8003ebe8:	2000a627 	addiu	a2,sp,32
8003ebec:	2130d400 	addu	a2,a2,s4
8003ebf0:	0c00c48f 	lw	a0,12(s8)
8003ebf4:	e85d000c 	jal	0x800177a0
8003ebf8:	01000724 	li	a3,1
8003ebfc:	01000424 	li	a0,1
8003ec00:	80881500 	sll	s1,s5,0x2
8003ec04:	e5012526 	addiu	a1,s1,485
8003ec08:	0980103c 	lui	s0,0x8009
8003ec0c:	888c1026 	addiu	s0,s0,-29560
8003ec10:	0c58000c 	jal	0x80016030
8003ec14:	21300002 	move	a2,s0
8003ec18:	21200002 	move	a0,s0
8003ec1c:	ff00d032 	andi	s0,s6,0xff
8003ec20:	80101000 	sll	v0,s0,0x2
8003ec24:	1000a527 	addiu	a1,sp,16
8003ec28:	2128a200 	addu	a1,a1,v0
8003ec2c:	2000a627 	addiu	a2,sp,32
8003ec30:	2130c200 	addu	a2,a2,v0
8003ec34:	17fb000c 	jal	0x8003ec5c
8003ec38:	21380000 	move	a3,zero
8003ec3c:	98e6010c 	jal	0x80079a60
8003ec40:	21200000 	move	a0,zero
8003ec44:	01000424 	li	a0,1
8003ec48:	1a80023c 	lui	v0,0x801a
8003ec4c:	288f4224 	addiu	v0,v0,-28888
8003ec50:	21800202 	addu	s0,s0,v0
8003ec54:	d4010692 	lbu	a2,468(s0)
8003ec58:	e6012526 	addiu	a1,s1,486
8003ec5c:	8362010c 	jal	0x80058a0c
8003ec60:	eaffc624 	addiu	a2,a2,-22
8003ec64:	ff00c432 	andi	a0,s6,0xff
8003ec68:	0200822c 	sltiu	v0,a0,2
8003ec6c:	06004010 	beqz	v0,0x8003ec88
8003ec70:	1a80023c 	lui	v0,0x801a
8003ec74:	288f4224 	addiu	v0,v0,-28888
8003ec78:	40180400 	sll	v1,a0,0x1
8003ec7c:	21186200 	addu	v1,v1,v0
8003ec80:	ffff0224 	li	v0,-1
8003ec84:	300162a4 	sh	v0,304(v1)
8003ec88:	1a80033c 	lui	v1,0x801a
8003ec8c:	288f6324 	addiu	v1,v1,-28888
8003ec90:	80100400 	sll	v0,a0,0x2
8003ec94:	21104300 	addu	v0,v0,v1
8003ec98:	080140ac 	sw	zero,264(v0)
8003ec9c:	4e0160a0 	sb	zero,334(v1)
8003eca0:	4f0160a0 	sb	zero,335(v1)
8003eca4:	de0260a4 	sh	zero,734(v1)
8003eca8:	e00260a4 	sh	zero,736(v1)
8003ecac:	e20260a4 	sh	zero,738(v1)
8003ecb0:	b556000c 	jal	0x80015ad4
8003ecb4:	890160a0 	sb	zero,393(v1)
8003ecb8:	5400bf8f 	lw	ra,84(sp)
8003ecbc:	5000be8f 	lw	s8,80(sp)
8003ecc0:	4c00b78f 	lw	s7,76(sp)
8003ecc4:	4800b68f 	lw	s6,72(sp)
8003ecc8:	4400b58f 	lw	s5,68(sp)
8003eccc:	4000b48f 	lw	s4,64(sp)
8003ecd0:	3c00b38f 	lw	s3,60(sp)
8003ecd4:	3800b28f 	lw	s2,56(sp)
8003ecd8:	3400b18f 	lw	s1,52(sp)
8003ecdc:	3000b08f 	lw	s0,48(sp)
8003ece0:	5800bd27 	addiu	sp,sp,88
8003ece4:	0800e003 	jr	ra
8003ece8:	00000000 	nop
8003ecec:	ff00a530 	andi	a1,a1,0xff
8003ecf0:	2b00a014 	bnez	a1,0x8003eda0
8003ecf4:	21488000 	move	t1,a0
8003ecf8:	1a80023c 	lui	v0,0x801a
8003ecfc:	288f4624 	addiu	a2,v0,-28888
8003ed00:	3001c384 	lh	v1,304(a2)
8003ed04:	ffff0224 	li	v0,-1
8003ed08:	57006214 	bne	v1,v0,0x8003ee68
8003ed0c:	00000000 	nop
8003ed10:	3201c284 	lh	v0,306(a2)
8003ed14:	00000000 	nop
8003ed18:	00084228 	slti	v0,v0,2048
8003ed1c:	05004014 	bnez	v0,0x8003ed34
8003ed20:	00000000 	nop
8003ed24:	4f01c290 	lbu	v0,335(a2)
8003ed28:	00000000 	nop
8003ed2c:	4e004010 	beqz	v0,0x8003ee68
8003ed30:	00000000 	nop
8003ed34:	4801c390 	lbu	v1,328(a2)
8003ed38:	ff000224 	li	v0,255
8003ed3c:	4a006210 	beq	v1,v0,0x8003ee68
8003ed40:	00000000 	nop
8003ed44:	9401c284 	lh	v0,404(a2)
8003ed48:	00000000 	nop
8003ed4c:	46004014 	bnez	v0,0x8003ee68
8003ed50:	1d80033c 	lui	v1,0x801d
8003ed54:	80d16324 	addiu	v1,v1,-11904
8003ed58:	5001c9a0 	sb	t1,336(a2)
8003ed5c:	3001c0a4 	sh	zero,304(a2)
8003ed60:	32006494 	lhu	a0,50(v1)
8003ed64:	01000224 	li	v0,1
8003ed68:	5401c2a0 	sb	v0,340(a2)
8003ed6c:	04006294 	lhu	v0,4(v1)
8003ed70:	e800c58c 	lw	a1,232(a2)
8003ed74:	27200400 	nor	a0,zero,a0
8003ed78:	24104400 	and	v0,v0,a0
8003ed7c:	040062a4 	sh	v0,4(v1)
8003ed80:	0600a294 	lhu	v0,6(a1)
8003ed84:	00000000 	nop
8003ed88:	3401c2a4 	sh	v0,308(a2)
8003ed8c:	0800a394 	lhu	v1,8(a1)
8003ed90:	0f000224 	li	v0,15
8003ed94:	8701c2a0 	sb	v0,391(a2)
8003ed98:	9afd0008 	j	0x8003f668
8003ed9c:	3801c3a4 	sh	v1,312(a2)
8003eda0:	1a80023c 	lui	v0,0x801a
8003eda4:	288f4624 	addiu	a2,v0,-28888
8003eda8:	40100500 	sll	v0,a1,0x1
8003edac:	21384600 	addu	a3,v0,a2
8003edb0:	3001e384 	lh	v1,304(a3)
8003edb4:	ffff0224 	li	v0,-1
8003edb8:	2b006214 	bne	v1,v0,0x8003ee68
8003edbc:	00000000 	nop
8003edc0:	3001c284 	lh	v0,304(a2)
8003edc4:	00000000 	nop
8003edc8:	27004314 	bne	v0,v1,0x8003ee68
8003edcc:	00000000 	nop
8003edd0:	3c01e384 	lh	v1,316(a3)
8003edd4:	00000000 	nop
8003edd8:	23006214 	bne	v1,v0,0x8003ee68
8003eddc:	00000000 	nop
8003ede0:	3c01c284 	lh	v0,316(a2)
8003ede4:	00000000 	nop
8003ede8:	1f004314 	bne	v0,v1,0x8003ee68
8003edec:	2140a600 	addu	t0,a1,a2
8003edf0:	48010391 	lbu	v1,328(t0)
8003edf4:	ff000224 	li	v0,255
8003edf8:	1b006210 	beq	v1,v0,0x8003ee68
8003edfc:	00000000 	nop
8003ee00:	9401c284 	lh	v0,404(a2)
8003ee04:	00000000 	nop
8003ee08:	17004014 	bnez	v0,0x8003ee68
8003ee0c:	1d80043c 	lui	a0,0x801d
8003ee10:	80d18424 	addiu	a0,a0,-11904
8003ee14:	34008294 	lhu	v0,52(a0)
8003ee18:	04008394 	lhu	v1,4(a0)
8003ee1c:	27100200 	nor	v0,zero,v0
8003ee20:	24186200 	and	v1,v1,v0
8003ee24:	01000224 	li	v0,1
8003ee28:	040083a4 	sh	v1,4(a0)
8003ee2c:	500109a1 	sb	t1,336(t0)
8003ee30:	3001e0a4 	sh	zero,304(a3)
8003ee34:	5401c2a0 	sb	v0,340(a2)
8003ee38:	80100500 	sll	v0,a1,0x2
8003ee3c:	21104600 	addu	v0,v0,a2
8003ee40:	e800438c 	lw	v1,232(v0)
8003ee44:	00000000 	nop
8003ee48:	06006394 	lhu	v1,6(v1)
8003ee4c:	00000000 	nop
8003ee50:	3401e3a4 	sh	v1,308(a3)
8003ee54:	e800428c 	lw	v0,232(v0)
8003ee58:	00000000 	nop
8003ee5c:	08004294 	lhu	v0,8(v0)
8003ee60:	00000000 	nop
8003ee64:	3801e2a4 	sh	v0,312(a3)
8003ee68:	0800e003 	jr	ra
8003ee6c:	00000000 	nop
8003ee70:	1a80023c 	lui	v0,0x801a
8003ee74:	288f4424 	addiu	a0,v0,-28888
8003ee78:	3c01838c 	lw	v1,316(a0)
8003ee7c:	ffff0224 	li	v0,-1
8003ee80:	1e006214 	bne	v1,v0,0x8003eefc
8003ee84:	00000000 	nop
8003ee88:	3001828c 	lw	v0,304(a0)
8003ee8c:	00000000 	nop
8003ee90:	1a004314 	bne	v0,v1,0x8003eefc
8003ee94:	ff00a530 	andi	a1,a1,0xff
8003ee98:	2110a400 	addu	v0,a1,a0
8003ee9c:	4c014390 	lbu	v1,332(v0)
8003eea0:	ff000224 	li	v0,255
8003eea4:	15006210 	beq	v1,v0,0x8003eefc
8003eea8:	00000000 	nop
8003eeac:	2c00828c 	lw	v0,44(a0)
8003eeb0:	00000000 	nop
8003eeb4:	10004230 	andi	v0,v0,0x10
8003eeb8:	10004014 	bnez	v0,0x8003eefc
8003eebc:	00000000 	nop
8003eec0:	cb018290 	lbu	v0,459(a0)
8003eec4:	00000000 	nop
8003eec8:	05004010 	beqz	v0,0x8003eee0
8003eecc:	40100500 	sll	v0,a1,0x1
8003eed0:	c0018284 	lh	v0,448(a0)
8003eed4:	00000000 	nop
8003eed8:	08004010 	beqz	v0,0x8003eefc
8003eedc:	40100500 	sll	v0,a1,0x1
8003eee0:	21104400 	addu	v0,v0,a0
8003eee4:	3c0140a4 	sh	zero,316(v0)
8003eee8:	82018394 	lhu	v1,386(a0)
8003eeec:	1e000224 	li	v0,30
8003eef0:	820180a4 	sh	zero,386(a0)
8003eef4:	880182a0 	sb	v0,392(a0)
8003eef8:	840183a4 	sh	v1,388(a0)
8003eefc:	0800e003 	jr	ra
8003ef00:	00000000 	nop
8003ef04:	b0ffbd27 	addiu	sp,sp,-80
8003ef08:	4400b3af 	sw	s3,68(sp)
8003ef0c:	21988000 	move	s3,a0
8003ef10:	3c00b1af 	sw	s1,60(sp)
8003ef14:	2188c000 	move	s1,a2
8003ef18:	4000b2af 	sw	s2,64(sp)
8003ef1c:	2190e000 	move	s2,a3
8003ef20:	4800bfaf 	sw	ra,72(sp)
8003ef24:	2a00a010 	beqz	a1,0x8003efd0
8003ef28:	3800b0af 	sw	s0,56(sp)
8003ef2c:	1a80083c 	lui	t0,0x801a
8003ef30:	c0910825 	addiu	t0,t0,-28224
8003ef34:	00000c8d 	lw	t4,0(t0)
8003ef38:	04000d8d 	lw	t5,4(t0)
8003ef3c:	0000cc48 	ctc2	t4,$0
8003ef40:	0008cd48 	ctc2	t5,$1
8003ef44:	08000c8d 	lw	t4,8(t0)
8003ef48:	0c000d8d 	lw	t5,12(t0)
8003ef4c:	10000e8d 	lw	t6,16(t0)
8003ef50:	0010cc48 	ctc2	t4,$2
8003ef54:	0018cd48 	ctc2	t5,$3
8003ef58:	0020ce48 	ctc2	t6,$4
8003ef5c:	1a80043c 	lui	a0,0x801a
8003ef60:	6000a28f 	lw	v0,96(sp)
8003ef64:	88908424 	addiu	a0,a0,-28536
8003ef68:	c0100200 	sll	v0,v0,0x3
8003ef6c:	21104400 	addu	v0,v0,a0
8003ef70:	000040c8 	lwc2	$0,0(v0)
8003ef74:	040041c8 	lwc2	$1,4(v0)
	...
8003ef80:	1260484a 	c2	0x486012
8003ef84:	0000b9e8 	swc2	$25,0(a1)
8003ef88:	0400bae8 	swc2	$26,4(a1)
8003ef8c:	0800bbe8 	swc2	$27,8(a1)
8003ef90:	a0fe8424 	addiu	a0,a0,-352
8003ef94:	0000a28c 	lw	v0,0(a1)
8003ef98:	4802838c 	lw	v1,584(a0)
8003ef9c:	00000000 	nop
8003efa0:	21104300 	addu	v0,v0,v1
8003efa4:	0000a2ac 	sw	v0,0(a1)
8003efa8:	0400a28c 	lw	v0,4(a1)
8003efac:	4c02838c 	lw	v1,588(a0)
8003efb0:	00000000 	nop
8003efb4:	21104300 	addu	v0,v0,v1
8003efb8:	0400a2ac 	sw	v0,4(a1)
8003efbc:	0800a28c 	lw	v0,8(a1)
8003efc0:	5002838c 	lw	v1,592(a0)
8003efc4:	00000000 	nop
8003efc8:	21104300 	addu	v0,v0,v1
8003efcc:	0800a2ac 	sw	v0,8(a1)
8003efd0:	24004012 	beqz	s2,0x8003f064
8003efd4:	00000000 	nop
8003efd8:	44002012 	beqz	s1,0x8003f0ec
8003efdc:	3000b027 	addiu	s0,sp,48
8003efe0:	21200002 	move	a0,s0
8003efe4:	21280000 	move	a1,zero
8003efe8:	ade2010c 	jal	0x80078ab4
8003efec:	08000624 	li	a2,8
8003eff0:	00100224 	li	v0,4096
8003eff4:	3400a2a7 	sh	v0,52(sp)
8003eff8:	21204002 	move	a0,s2
8003effc:	55d4010c 	jal	0x80075154
8003f000:	1000a527 	addiu	a1,sp,16
8003f004:	1000a227 	addiu	v0,sp,16
8003f008:	00004c8c 	lw	t4,0(v0)
8003f00c:	04004d8c 	lw	t5,4(v0)
8003f010:	0000cc48 	ctc2	t4,$0
8003f014:	0008cd48 	ctc2	t5,$1
8003f018:	08004c8c 	lw	t4,8(v0)
8003f01c:	0c004d8c 	lw	t5,12(v0)
8003f020:	10004e8c 	lw	t6,16(v0)
8003f024:	0010cc48 	ctc2	t4,$2
8003f028:	0018cd48 	ctc2	t5,$3
8003f02c:	0020ce48 	ctc2	t6,$4
8003f030:	000000ca 	lwc2	$0,0(s0)
8003f034:	040001ca 	lwc2	$1,4(s0)
	...
8003f040:	1260484a 	c2	0x486012
8003f044:	00480c48 	mfc2	t4,$9
8003f048:	00500d48 	mfc2	t5,$10
8003f04c:	00580e48 	mfc2	t6,$11
8003f050:	00002ca6 	sh	t4,0(s1)
8003f054:	02002da6 	sh	t5,2(s1)
8003f058:	04002ea6 	sh	t6,4(s1)
8003f05c:	39fe0008 	j	0x8003f8e4
8003f060:	21206002 	move	a0,s3
8003f064:	21002012 	beqz	s1,0x8003f0ec
8003f068:	1000a427 	addiu	a0,sp,16
8003f06c:	21280000 	move	a1,zero
8003f070:	ade2010c 	jal	0x80078ab4
8003f074:	08000624 	li	a2,8
8003f078:	00100224 	li	v0,4096
8003f07c:	1400a2a7 	sh	v0,20(sp)
8003f080:	1a80083c 	lui	t0,0x801a
8003f084:	c0910825 	addiu	t0,t0,-28224
8003f088:	00000c8d 	lw	t4,0(t0)
8003f08c:	04000d8d 	lw	t5,4(t0)
8003f090:	0000cc48 	ctc2	t4,$0
8003f094:	0008cd48 	ctc2	t5,$1
8003f098:	08000c8d 	lw	t4,8(t0)
8003f09c:	0c000d8d 	lw	t5,12(t0)
8003f0a0:	10000e8d 	lw	t6,16(t0)
8003f0a4:	0010cc48 	ctc2	t4,$2
8003f0a8:	0018cd48 	ctc2	t5,$3
8003f0ac:	0020ce48 	ctc2	t6,$4
8003f0b0:	1000a227 	addiu	v0,sp,16
8003f0b4:	000040c8 	lwc2	$0,0(v0)
8003f0b8:	040041c8 	lwc2	$1,4(v0)
	...
8003f0c4:	1260484a 	c2	0x486012
8003f0c8:	00480c48 	mfc2	t4,$9
8003f0cc:	00500d48 	mfc2	t5,$10
8003f0d0:	00580e48 	mfc2	t6,$11
8003f0d4:	00002ca6 	sh	t4,0(s1)
8003f0d8:	02002da6 	sh	t5,2(s1)
8003f0dc:	04002ea6 	sh	t6,4(s1)
8003f0e0:	21206002 	move	a0,s3
8003f0e4:	3e28010c 	jal	0x8004a0f8
8003f0e8:	21282002 	move	a1,s1
8003f0ec:	21100000 	move	v0,zero
8003f0f0:	4800bf8f 	lw	ra,72(sp)
8003f0f4:	4400b38f 	lw	s3,68(sp)
8003f0f8:	4000b28f 	lw	s2,64(sp)
8003f0fc:	3c00b18f 	lw	s1,60(sp)
8003f100:	3800b08f 	lw	s0,56(sp)
8003f104:	5000bd27 	addiu	sp,sp,80
8003f108:	0800e003 	jr	ra
8003f10c:	00000000 	nop
8003f110:	0400a5af 	sw	a1,4(sp)
8003f114:	0800a6af 	sw	a2,8(sp)
8003f118:	0c00a7af 	sw	a3,12(sp)
8003f11c:	80ffbd27 	addiu	sp,sp,-128
8003f120:	7400b7af 	sw	s7,116(sp)
8003f124:	21b8a000 	move	s7,a1
8003f128:	7800beaf 	sw	s8,120(sp)
8003f12c:	40f11700 	sll	s8,s7,0x5
8003f130:	1a80023c 	lui	v0,0x801a
8003f134:	288f4224 	addiu	v0,v0,-28888
8003f138:	2110e202 	addu	v0,s7,v0
8003f13c:	7c00bfaf 	sw	ra,124(sp)
8003f140:	7000b6af 	sw	s6,112(sp)
8003f144:	6c00b5af 	sw	s5,108(sp)
8003f148:	6800b4af 	sw	s4,104(sp)
8003f14c:	6400b3af 	sw	s3,100(sp)
8003f150:	6000b2af 	sw	s2,96(sp)
8003f154:	5c00b1af 	sw	s1,92(sp)
8003f158:	5800b0af 	sw	s0,88(sp)
8003f15c:	8000a4af 	sw	a0,128(sp)
8003f160:	57014290 	lbu	v0,343(v0)
8003f164:	00000000 	nop
8003f168:	ffff5424 	addiu	s4,v0,-1
8003f16c:	3000822c 	sltiu	v0,a0,48
8003f170:	9f014010 	beqz	v0,0x8003f7f0
8003f174:	801f163c 	lui	s6,0x1f80
8003f178:	0180023c 	lui	v0,0x8001
8003f17c:	3c1d4224 	addiu	v0,v0,7484
8003f180:	80180400 	sll	v1,a0,0x2
8003f184:	21186200 	addu	v1,v1,v0
8003f188:	0000628c 	lw	v0,0(v1)
8003f18c:	00000000 	nop
8003f190:	08004000 	jr	v0
8003f194:	00000000 	nop
8003f198:	69fe0008 	j	0x8003f9a4
8003f19c:	00101324 	li	s3,4096
8003f1a0:	00081324 	li	s3,2048
8003f1a4:	bc020424 	li	a0,700
8003f1a8:	2000a527 	addiu	a1,sp,32
8003f1ac:	4800b127 	addiu	s1,sp,72
8003f1b0:	21302002 	move	a2,s1
8003f1b4:	1a80103c 	lui	s0,0x801a
8003f1b8:	288f1026 	addiu	s0,s0,-28888
8003f1bc:	70020296 	lhu	v0,624(s0)
8003f1c0:	72020396 	lhu	v1,626(s0)
8003f1c4:	74020896 	lhu	t0,628(s0)
8003f1c8:	4000a727 	addiu	a3,sp,64
8003f1cc:	4000a2a7 	sh	v0,64(sp)
8003f1d0:	4200a3a7 	sh	v1,66(sp)
8003f1d4:	4400a8a7 	sh	t0,68(sp)
8003f1d8:	c1fd000c 	jal	0x8003f704
8003f1dc:	1000b7af 	sw	s7,16(sp)
8003f1e0:	0a000424 	li	a0,10
8003f1e4:	4200c537 	ori	a1,s8,0x42
8003f1e8:	e200a530 	andi	a1,a1,0xe2
8003f1ec:	2000a727 	addiu	a3,sp,32
8003f1f0:	8000a693 	lbu	a2,128(sp)
8003f1f4:	68021026 	addiu	s0,s0,616
8003f1f8:	1000b1af 	sw	s1,16(sp)
8003f1fc:	1400b3af 	sw	s3,20(sp)
8003f200:	faff0008 	j	0x8003ffe8
8003f204:	1800b0af 	sw	s0,24(sp)
8003f208:	01001224 	li	s2,1
8003f20c:	4800b427 	addiu	s4,sp,72
8003f210:	1a80023c 	lui	v0,0x801a
8003f214:	288f5124 	addiu	s1,v0,-28888
8003f218:	c0101700 	sll	v0,s7,0x3
8003f21c:	21985100 	addu	s3,v0,s1
8003f220:	10001024 	li	s0,16
8003f224:	bc020424 	li	a0,700
8003f228:	2000a527 	addiu	a1,sp,32
8003f22c:	21308002 	move	a2,s4
8003f230:	5000a727 	addiu	a3,sp,80
8003f234:	70022296 	lhu	v0,624(s1)
8003f238:	ffff5226 	addiu	s2,s2,-1
8003f23c:	00fe4224 	addiu	v0,v0,-512
8003f240:	5000a2a7 	sh	v0,80(sp)
8003f244:	72022296 	lhu	v0,626(s1)
8003f248:	74022396 	lhu	v1,628(s1)
8003f24c:	21105000 	addu	v0,v0,s0
8003f250:	5200a2a7 	sh	v0,82(sp)
8003f254:	5400a3a7 	sh	v1,84(sp)
8003f258:	c1fd000c 	jal	0x8003f704
8003f25c:	1000b7af 	sw	s7,16(sp)
8003f260:	0a000424 	li	a0,10
8003f264:	4200c537 	ori	a1,s8,0x42
8003f268:	ff00a530 	andi	a1,a1,0xff
8003f26c:	2000a727 	addiu	a3,sp,32
8003f270:	8000a693 	lbu	a2,128(sp)
8003f274:	00040224 	li	v0,1024
8003f278:	1400a2af 	sw	v0,20(sp)
8003f27c:	68022226 	addiu	v0,s1,616
8003f280:	1000b4af 	sw	s4,16(sp)
8003f284:	21d9000c 	jal	0x80036484
8003f288:	1800a2af 	sw	v0,24(sp)
8003f28c:	60016296 	lhu	v0,352(s3)
8003f290:	00000000 	nop
8003f294:	00044224 	addiu	v0,v0,1024
8003f298:	600162a6 	sh	v0,352(s3)
8003f29c:	ffff0224 	li	v0,-1
8003f2a0:	e0ff4216 	bne	s2,v0,0x8003f224
8003f2a4:	e0ff1026 	addiu	s0,s0,-32
8003f2a8:	fcff0008 	j	0x8003fff0
8003f2ac:	00000000 	nop
8003f2b0:	cefe0008 	j	0x8003fb38
8003f2b4:	00011024 	li	s0,256
8003f2b8:	80011024 	li	s0,384
8003f2bc:	40111400 	sll	v0,s4,0x5
8003f2c0:	b0ff4824 	addiu	t0,v0,-80
8003f2c4:	d0fe0008 	j	0x8003fb40
8003f2c8:	00021324 	li	s3,512
8003f2cc:	b1e2010c 	jal	0x80078ac4
8003f2d0:	00011024 	li	s0,256
8003f2d4:	03004104 	bgez	v0,0x8003f2e4
8003f2d8:	c3190200 	sra	v1,v0,0x7
8003f2dc:	7f004224 	addiu	v0,v0,127
8003f2e0:	c3190200 	sra	v1,v0,0x7
8003f2e4:	80000224 	li	v0,128
8003f2e8:	23404300 	subu	t0,v0,v1
8003f2ec:	d0fe0008 	j	0x8003fb40
8003f2f0:	00031324 	li	s3,768
8003f2f4:	00021024 	li	s0,512
8003f2f8:	21400000 	move	t0,zero
8003f2fc:	d0fe0008 	j	0x8003fb40
8003f300:	000c1324 	li	s3,3072
8003f304:	c8fe0008 	j	0x8003fb20
8003f308:	80011024 	li	s0,384
8003f30c:	80011024 	li	s0,384
8003f310:	21400000 	move	t0,zero
8003f314:	d0fe0008 	j	0x8003fb40
8003f318:	00081324 	li	s3,2048
8003f31c:	40011024 	li	s0,320
8003f320:	21400000 	move	t0,zero
8003f324:	d0fe0008 	j	0x8003fb40
8003f328:	00201324 	li	s3,8192
8003f32c:	cefe0008 	j	0x8003fb38
8003f330:	00031024 	li	s0,768
8003f334:	40011024 	li	s0,320
8003f338:	21400000 	move	t0,zero
8003f33c:	00041324 	li	s3,1024
8003f340:	21200002 	move	a0,s0
8003f344:	2000a527 	addiu	a1,sp,32
8003f348:	4800b227 	addiu	s2,sp,72
8003f34c:	21304002 	move	a2,s2
8003f350:	1a80103c 	lui	s0,0x801a
8003f354:	288f1026 	addiu	s0,s0,-28888
8003f358:	4000b127 	addiu	s1,sp,64
8003f35c:	70020296 	lhu	v0,624(s0)
8003f360:	21382002 	move	a3,s1
8003f364:	4000a2a7 	sh	v0,64(sp)
8003f368:	72020296 	lhu	v0,626(s0)
8003f36c:	74020396 	lhu	v1,628(s0)
8003f370:	21104800 	addu	v0,v0,t0
8003f374:	4200a2a7 	sh	v0,66(sp)
8003f378:	4400a3a7 	sh	v1,68(sp)
8003f37c:	c1fd000c 	jal	0x8003f704
8003f380:	1000b7af 	sw	s7,16(sp)
8003f384:	0a000424 	li	a0,10
8003f388:	4200c537 	ori	a1,s8,0x42
8003f38c:	70020296 	lhu	v0,624(s0)
8003f390:	e200a530 	andi	a1,a1,0xe2
8003f394:	4000a2a7 	sh	v0,64(sp)
8003f398:	72020296 	lhu	v0,626(s0)
8003f39c:	74020396 	lhu	v1,628(s0)
8003f3a0:	23100200 	negu	v0,v0
8003f3a4:	23180300 	negu	v1,v1
8003f3a8:	4200a2a7 	sh	v0,66(sp)
8003f3ac:	4400a3a7 	sh	v1,68(sp)
8003f3b0:	8000a693 	lbu	a2,128(sp)
8003f3b4:	2000a727 	addiu	a3,sp,32
8003f3b8:	1000b2af 	sw	s2,16(sp)
8003f3bc:	1400b3af 	sw	s3,20(sp)
8003f3c0:	1800b1af 	sw	s1,24(sp)
8003f3c4:	faff0008 	j	0x8003ffe8
8003f3c8:	1c00b4af 	sw	s4,28(sp)
8003f3cc:	20000424 	li	a0,32
8003f3d0:	1a80023c 	lui	v0,0x801a
8003f3d4:	288f5424 	addiu	s4,v0,-28888
8003f3d8:	e800828e 	lw	v0,232(s4)
8003f3dc:	50018592 	lbu	a1,336(s4)
8003f3e0:	06004694 	lhu	a2,6(v0)
8003f3e4:	12004784 	lh	a3,18(v0)
8003f3e8:	4800b527 	addiu	s5,sp,72
8003f3ec:	8ccf000c 	jal	0x80033e30
8003f3f0:	1000b5af 	sw	s5,16(sp)
8003f3f4:	80801700 	sll	s0,s7,0x2
8003f3f8:	21801402 	addu	s0,s0,s4
8003f3fc:	e800028e 	lw	v0,232(s0)
8003f400:	00000000 	nop
8003f404:	0c004284 	lh	v0,12(v0)
8003f408:	00000000 	nop
8003f40c:	bc00c2ae 	sw	v0,188(s6)
8003f410:	e800028e 	lw	v0,232(s0)
8003f414:	00000000 	nop
8003f418:	0e004284 	lh	v0,14(v0)
8003f41c:	00000000 	nop
8003f420:	c000c2ae 	sw	v0,192(s6)
8003f424:	e800028e 	lw	v0,232(s0)
8003f428:	00000000 	nop
8003f42c:	10004284 	lh	v0,16(v0)
8003f430:	a800d126 	addiu	s1,s6,168
8003f434:	c400c2ae 	sw	v0,196(s6)
8003f438:	e800048e 	lw	a0,232(s0)
8003f43c:	21282002 	move	a1,s1
8003f440:	b1d3010c 	jal	0x80074ec4
8003f444:	14008424 	addiu	a0,a0,20
8003f448:	00002c8e 	lw	t4,0(s1)
8003f44c:	04002d8e 	lw	t5,4(s1)
8003f450:	0000cc48 	ctc2	t4,$0
8003f454:	0008cd48 	ctc2	t5,$1
8003f458:	08002c8e 	lw	t4,8(s1)
8003f45c:	0c002d8e 	lw	t5,12(s1)
8003f460:	10002e8e 	lw	t6,16(s1)
8003f464:	0010cc48 	ctc2	t4,$2
8003f468:	0018cd48 	ctc2	t5,$3
8003f46c:	0020ce48 	ctc2	t6,$4
8003f470:	14002c8e 	lw	t4,20(s1)
8003f474:	18002d8e 	lw	t5,24(s1)
8003f478:	0028cc48 	ctc2	t4,$5
8003f47c:	1c002e8e 	lw	t6,28(s1)
8003f480:	0030cd48 	ctc2	t5,$6
8003f484:	0038ce48 	ctc2	t6,$7
8003f488:	0000a0ca 	lwc2	$0,0(s5)
8003f48c:	0400a1ca 	lwc2	$1,4(s5)
	...
8003f498:	1200484a 	c2	0x480012
8003f49c:	2000b227 	addiu	s2,sp,32
8003f4a0:	000059ea 	swc2	$25,0(s2)
8003f4a4:	04005aea 	swc2	$26,4(s2)
8003f4a8:	08005bea 	swc2	$27,8(s2)
8003f4ac:	4000b327 	addiu	s3,sp,64
8003f4b0:	21206002 	move	a0,s3
8003f4b4:	2000a297 	lhu	v0,32(sp)
8003f4b8:	2400a397 	lhu	v1,36(sp)
8003f4bc:	2800a697 	lhu	a2,40(sp)
8003f4c0:	21282002 	move	a1,s1
8003f4c4:	4800a2a7 	sh	v0,72(sp)
8003f4c8:	4a00a3a7 	sh	v1,74(sp)
8003f4cc:	4c00a6a7 	sh	a2,76(sp)
8003f4d0:	4802828e 	lw	v0,584(s4)
8003f4d4:	4c02838e 	lw	v1,588(s4)
8003f4d8:	5002868e 	lw	a2,592(s4)
8003f4dc:	7302878a 	lwl	a3,627(s4)
8003f4e0:	7002879a 	lwr	a3,624(s4)
8003f4e4:	7702888a 	lwl	t0,631(s4)
8003f4e8:	7402889a 	lwr	t0,628(s4)
8003f4ec:	4300a7ab 	swl	a3,67(sp)
8003f4f0:	4000a7bb 	swr	a3,64(sp)
8003f4f4:	4700a8ab 	swl	t0,71(sp)
8003f4f8:	4400a8bb 	swr	t0,68(sp)
8003f4fc:	bc00c2ae 	sw	v0,188(s6)
8003f500:	c000c3ae 	sw	v1,192(s6)
8003f504:	55d4010c 	jal	0x80075154
8003f508:	c400c6ae 	sw	a2,196(s6)
8003f50c:	00002c8e 	lw	t4,0(s1)
8003f510:	04002d8e 	lw	t5,4(s1)
8003f514:	0000cc48 	ctc2	t4,$0
8003f518:	0008cd48 	ctc2	t5,$1
8003f51c:	08002c8e 	lw	t4,8(s1)
8003f520:	0c002d8e 	lw	t5,12(s1)
8003f524:	10002e8e 	lw	t6,16(s1)
8003f528:	0010cc48 	ctc2	t4,$2
8003f52c:	0018cd48 	ctc2	t5,$3
8003f530:	0020ce48 	ctc2	t6,$4
8003f534:	14002c8e 	lw	t4,20(s1)
8003f538:	18002d8e 	lw	t5,24(s1)
8003f53c:	0028cc48 	ctc2	t4,$5
8003f540:	1c002e8e 	lw	t6,28(s1)
8003f544:	0030cd48 	ctc2	t5,$6
8003f548:	0038ce48 	ctc2	t6,$7
8003f54c:	0000a0ca 	lwc2	$0,0(s5)
8003f550:	0400a1ca 	lwc2	$1,4(s5)
	...
8003f55c:	1200484a 	c2	0x480012
8003f560:	000059ea 	swc2	$25,0(s2)
8003f564:	04005aea 	swc2	$26,4(s2)
8003f568:	08005bea 	swc2	$27,8(s2)
8003f56c:	e800828e 	lw	v0,232(s4)
8003f570:	50018592 	lbu	a1,336(s4)
8003f574:	06004694 	lhu	a2,6(v0)
8003f578:	1a004784 	lh	a3,26(v0)
8003f57c:	20000424 	li	a0,32
8003f580:	8ccf000c 	jal	0x80033e30
8003f584:	1000b5af 	sw	s5,16(sp)
8003f588:	e800028e 	lw	v0,232(s0)
8003f58c:	00000000 	nop
8003f590:	0c004284 	lh	v0,12(v0)
8003f594:	00000000 	nop
8003f598:	bc00c2ae 	sw	v0,188(s6)
8003f59c:	e800028e 	lw	v0,232(s0)
8003f5a0:	00000000 	nop
8003f5a4:	0e004284 	lh	v0,14(v0)
8003f5a8:	00000000 	nop
8003f5ac:	c000c2ae 	sw	v0,192(s6)
8003f5b0:	e800028e 	lw	v0,232(s0)
8003f5b4:	00000000 	nop
8003f5b8:	10004284 	lh	v0,16(v0)
8003f5bc:	00000000 	nop
8003f5c0:	c400c2ae 	sw	v0,196(s6)
8003f5c4:	e800048e 	lw	a0,232(s0)
8003f5c8:	21282002 	move	a1,s1
8003f5cc:	b1d3010c 	jal	0x80074ec4
8003f5d0:	14008424 	addiu	a0,a0,20
8003f5d4:	00002c8e 	lw	t4,0(s1)
8003f5d8:	04002d8e 	lw	t5,4(s1)
8003f5dc:	0000cc48 	ctc2	t4,$0
8003f5e0:	0008cd48 	ctc2	t5,$1
8003f5e4:	08002c8e 	lw	t4,8(s1)
8003f5e8:	0c002d8e 	lw	t5,12(s1)
8003f5ec:	10002e8e 	lw	t6,16(s1)
8003f5f0:	0010cc48 	ctc2	t4,$2
8003f5f4:	0018cd48 	ctc2	t5,$3
8003f5f8:	0020ce48 	ctc2	t6,$4
8003f5fc:	14002c8e 	lw	t4,20(s1)
8003f600:	18002d8e 	lw	t5,24(s1)
8003f604:	0028cc48 	ctc2	t4,$5
8003f608:	1c002e8e 	lw	t6,28(s1)
8003f60c:	0030cd48 	ctc2	t5,$6
8003f610:	0038ce48 	ctc2	t6,$7
8003f614:	0000a0ca 	lwc2	$0,0(s5)
8003f618:	0400a1ca 	lwc2	$1,4(s5)
	...
8003f624:	1200484a 	c2	0x480012
8003f628:	3000b027 	addiu	s0,sp,48
8003f62c:	000019ea 	swc2	$25,0(s0)
8003f630:	04001aea 	swc2	$26,4(s0)
8003f634:	08001bea 	swc2	$27,8(s0)
8003f638:	21206002 	move	a0,s3
8003f63c:	3000a297 	lhu	v0,48(sp)
8003f640:	3400a397 	lhu	v1,52(sp)
8003f644:	3800a697 	lhu	a2,56(sp)
8003f648:	21282002 	move	a1,s1
8003f64c:	4800a2a7 	sh	v0,72(sp)
8003f650:	4a00a3a7 	sh	v1,74(sp)
8003f654:	4c00a6a7 	sh	a2,76(sp)
8003f658:	4802828e 	lw	v0,584(s4)
8003f65c:	4c02838e 	lw	v1,588(s4)
8003f660:	5002868e 	lw	a2,592(s4)
8003f664:	7302878a 	lwl	a3,627(s4)
8003f668:	7002879a 	lwr	a3,624(s4)
8003f66c:	7702888a 	lwl	t0,631(s4)
8003f670:	7402889a 	lwr	t0,628(s4)
8003f674:	4300a7ab 	swl	a3,67(sp)
8003f678:	4000a7bb 	swr	a3,64(sp)
8003f67c:	4700a8ab 	swl	t0,71(sp)
8003f680:	4400a8bb 	swr	t0,68(sp)
8003f684:	bc00c2ae 	sw	v0,188(s6)
8003f688:	c000c3ae 	sw	v1,192(s6)
8003f68c:	55d4010c 	jal	0x80075154
8003f690:	c400c6ae 	sw	a2,196(s6)
8003f694:	00002c8e 	lw	t4,0(s1)
8003f698:	04002d8e 	lw	t5,4(s1)
8003f69c:	0000cc48 	ctc2	t4,$0
8003f6a0:	0008cd48 	ctc2	t5,$1
8003f6a4:	08002c8e 	lw	t4,8(s1)
8003f6a8:	0c002d8e 	lw	t5,12(s1)
8003f6ac:	10002e8e 	lw	t6,16(s1)
8003f6b0:	0010cc48 	ctc2	t4,$2
8003f6b4:	0018cd48 	ctc2	t5,$3
8003f6b8:	0020ce48 	ctc2	t6,$4
8003f6bc:	14002c8e 	lw	t4,20(s1)
8003f6c0:	18002d8e 	lw	t5,24(s1)
8003f6c4:	0028cc48 	ctc2	t4,$5
8003f6c8:	1c002e8e 	lw	t6,28(s1)
8003f6cc:	0030cd48 	ctc2	t5,$6
8003f6d0:	0038ce48 	ctc2	t6,$7
8003f6d4:	0000a0ca 	lwc2	$0,0(s5)
8003f6d8:	0400a1ca 	lwc2	$1,4(s5)
	...
8003f6e4:	1200484a 	c2	0x480012
8003f6e8:	000019ea 	swc2	$25,0(s0)
8003f6ec:	04001aea 	swc2	$26,4(s0)
8003f6f0:	08001bea 	swc2	$27,8(s0)
8003f6f4:	21386002 	move	a3,s3
8003f6f8:	2000a28f 	lw	v0,32(sp)
8003f6fc:	3000a48f 	lw	a0,48(sp)
8003f700:	2400a38f 	lw	v1,36(sp)
8003f704:	3400a58f 	lw	a1,52(sp)
8003f708:	3800a68f 	lw	a2,56(sp)
8003f70c:	23204400 	subu	a0,v0,a0
8003f710:	2800a28f 	lw	v0,40(sp)
8003f714:	23286500 	subu	a1,v1,a1
8003f718:	0329010c 	jal	0x8004a40c
8003f71c:	23304600 	subu	a2,v0,a2
8003f720:	21206002 	move	a0,s3
8003f724:	f927010c 	jal	0x80049fe4
8003f728:	2128a002 	move	a1,s5
8003f72c:	8000a38f 	lw	v1,128(sp)
8003f730:	2c000224 	li	v0,44
8003f734:	0c006214 	bne	v1,v0,0x8003f768
8003f738:	2128a002 	move	a1,s5
8003f73c:	6666033c 	lui	v1,0x6666
8003f740:	80018296 	lhu	v0,384(s4)
8003f744:	67666334 	ori	v1,v1,0x6667
8003f748:	40200200 	sll	a0,v0,0x1
8003f74c:	21208200 	addu	a0,a0,v0
8003f750:	00220400 	sll	a0,a0,0x8
8003f754:	18008300 	mult	a0,v1
8003f758:	c3270400 	sra	a0,a0,0x1f
8003f75c:	10480000 	mfhi	t1
8003f760:	e1ff0008 	j	0x8003ff84
8003f764:	c3120900 	sra	v0,t1,0xb
8003f768:	6666023c 	lui	v0,0x6666
8003f76c:	80018496 	lhu	a0,384(s4)
8003f770:	67664234 	ori	v0,v0,0x6667
8003f774:	18008200 	mult	a0,v0
8003f778:	c3270400 	sra	a0,a0,0x1f
8003f77c:	10480000 	mfhi	t1
8003f780:	43100900 	sra	v0,t1,0x1
8003f784:	3e28010c 	jal	0x8004a0f8
8003f788:	23204400 	subu	a0,v0,a0
8003f78c:	0a000424 	li	a0,10
8003f790:	4200c537 	ori	a1,s8,0x42
8003f794:	e200a530 	andi	a1,a1,0xe2
8003f798:	1a80083c 	lui	t0,0x801a
8003f79c:	288f0825 	addiu	t0,t0,-28888
8003f7a0:	2000a727 	addiu	a3,sp,32
8003f7a4:	ce020685 	lh	a2,718(t0)
8003f7a8:	3400a28f 	lw	v0,52(sp)
8003f7ac:	3000a38f 	lw	v1,48(sp)
8003f7b0:	21104600 	addu	v0,v0,a2
8003f7b4:	2000a3af 	sw	v1,32(sp)
8003f7b8:	d2020385 	lh	v1,722(t0)
8003f7bc:	3800a68f 	lw	a2,56(sp)
8003f7c0:	21104300 	addu	v0,v0,v1
8003f7c4:	2400a2af 	sw	v0,36(sp)
8003f7c8:	2800a6af 	sw	a2,40(sp)
8003f7cc:	8000a693 	lbu	a2,128(sp)
8003f7d0:	4800a227 	addiu	v0,sp,72
8003f7d4:	1000a2af 	sw	v0,16(sp)
8003f7d8:	80010395 	lhu	v1,384(t0)
8003f7dc:	4000a227 	addiu	v0,sp,64
8003f7e0:	1400a2af 	sw	v0,20(sp)
8003f7e4:	1800a3af 	sw	v1,24(sp)
8003f7e8:	21d9000c 	jal	0x80036484
8003f7ec:	00000000 	nop
8003f7f0:	7c00bf8f 	lw	ra,124(sp)
8003f7f4:	7800be8f 	lw	s8,120(sp)
8003f7f8:	7400b78f 	lw	s7,116(sp)
8003f7fc:	7000b68f 	lw	s6,112(sp)
8003f800:	6c00b58f 	lw	s5,108(sp)
8003f804:	6800b48f 	lw	s4,104(sp)
8003f808:	6400b38f 	lw	s3,100(sp)
8003f80c:	6000b28f 	lw	s2,96(sp)
8003f810:	5c00b18f 	lw	s1,92(sp)
8003f814:	5800b08f 	lw	s0,88(sp)
8003f818:	8000bd27 	addiu	sp,sp,128
8003f81c:	0800e003 	jr	ra
8003f820:	00000000 	nop
8003f824:	e8ffbd27 	addiu	sp,sp,-24
8003f828:	1000b0af 	sw	s0,16(sp)
8003f82c:	21808000 	move	s0,a0
8003f830:	1a80023c 	lui	v0,0x801a
8003f834:	288f4424 	addiu	a0,v0,-28888
8003f838:	ff000532 	andi	a1,s0,0xff
8003f83c:	40100500 	sll	v0,a1,0x1
8003f840:	21104400 	addu	v0,v0,a0
8003f844:	1400bfaf 	sw	ra,20(sp)
8003f848:	3c014384 	lh	v1,316(v0)
8003f84c:	ffff0224 	li	v0,-1
8003f850:	2f006210 	beq	v1,v0,0x8003f910
8003f854:	ffff0234 	li	v0,0xffff
8003f858:	1300a010 	beqz	a1,0x8003f8a8
8003f85c:	00000000 	nop
8003f860:	52008394 	lhu	v1,82(a0)
8003f864:	00000000 	nop
8003f868:	21006210 	beq	v1,v0,0x8003f8f0
8003f86c:	40100300 	sll	v0,v1,0x1
8003f870:	21104300 	addu	v0,v0,v1
8003f874:	80100200 	sll	v0,v0,0x2
8003f878:	23104300 	subu	v0,v0,v1
8003f87c:	80100200 	sll	v0,v0,0x2
8003f880:	1c80033c 	lui	v1,0x801c
8003f884:	10786324 	addiu	v1,v1,30736
8003f888:	21104300 	addu	v0,v0,v1
8003f88c:	28004290 	lbu	v0,40(v0)
8003f890:	00000000 	nop
8003f894:	16004010 	beqz	v0,0x8003f8f0
8003f898:	2110a400 	addu	v0,a1,a0
8003f89c:	4c014490 	lbu	a0,332(v0)
8003f8a0:	3a000108 	j	0x800400e8
8003f8a4:	00000000 	nop
8003f8a8:	38008394 	lhu	v1,56(a0)
8003f8ac:	00000000 	nop
8003f8b0:	0f006210 	beq	v1,v0,0x8003f8f0
8003f8b4:	40100300 	sll	v0,v1,0x1
8003f8b8:	21104300 	addu	v0,v0,v1
8003f8bc:	80100200 	sll	v0,v0,0x2
8003f8c0:	23104300 	subu	v0,v0,v1
8003f8c4:	80100200 	sll	v0,v0,0x2
8003f8c8:	1c80033c 	lui	v1,0x801c
8003f8cc:	10786324 	addiu	v1,v1,30736
8003f8d0:	21104300 	addu	v0,v0,v1
8003f8d4:	28004290 	lbu	v0,40(v0)
8003f8d8:	00000000 	nop
8003f8dc:	04004010 	beqz	v0,0x8003f8f0
8003f8e0:	21280000 	move	a1,zero
8003f8e4:	4c018490 	lbu	a0,332(a0)
8003f8e8:	c103010c 	jal	0x80040f04
8003f8ec:	00000000 	nop
8003f8f0:	1a80023c 	lui	v0,0x801a
8003f8f4:	288f4224 	addiu	v0,v0,-28888
8003f8f8:	ff000332 	andi	v1,s0,0xff
8003f8fc:	40180300 	sll	v1,v1,0x1
8003f900:	21186200 	addu	v1,v1,v0
8003f904:	ffff0224 	li	v0,-1
8003f908:	a6000108 	j	0x80040298
8003f90c:	3c0162a4 	sh	v0,316(v1)
8003f910:	38008394 	lhu	v1,56(a0)
8003f914:	00000000 	nop
8003f918:	11006210 	beq	v1,v0,0x8003f960
8003f91c:	21280000 	move	a1,zero
8003f920:	40100300 	sll	v0,v1,0x1
8003f924:	21104300 	addu	v0,v0,v1
8003f928:	80100200 	sll	v0,v0,0x2
8003f92c:	23104300 	subu	v0,v0,v1
8003f930:	80100200 	sll	v0,v0,0x2
8003f934:	1c80033c 	lui	v1,0x801c
8003f938:	10786324 	addiu	v1,v1,30736
8003f93c:	21104300 	addu	v0,v0,v1
8003f940:	28004290 	lbu	v0,40(v0)
8003f944:	00000000 	nop
8003f948:	06004010 	beqz	v0,0x8003f964
8003f94c:	1a80023c 	lui	v0,0x801a
8003f950:	44008294 	lhu	v0,68(a0)
8003f954:	00000000 	nop
8003f958:	ffff4238 	xori	v0,v0,0xffff
8003f95c:	2b280200 	sltu	a1,zero,v0
8003f960:	1a80023c 	lui	v0,0x801a
8003f964:	288f4424 	addiu	a0,v0,-28888
8003f968:	52008294 	lhu	v0,82(a0)
8003f96c:	ffff0634 	li	a2,0xffff
8003f970:	12004610 	beq	v0,a2,0x8003f9bc
8003f974:	21184000 	move	v1,v0
8003f978:	40100300 	sll	v0,v1,0x1
8003f97c:	21104300 	addu	v0,v0,v1
8003f980:	80100200 	sll	v0,v0,0x2
8003f984:	23104300 	subu	v0,v0,v1
8003f988:	80100200 	sll	v0,v0,0x2
8003f98c:	1c80033c 	lui	v1,0x801c
8003f990:	10786324 	addiu	v1,v1,30736
8003f994:	21104300 	addu	v0,v0,v1
8003f998:	28004290 	lbu	v0,40(v0)
8003f99c:	00000000 	nop
8003f9a0:	07004010 	beqz	v0,0x8003f9c0
8003f9a4:	1a80023c 	lui	v0,0x801a
8003f9a8:	50008294 	lhu	v0,80(a0)
8003f9ac:	00000000 	nop
8003f9b0:	03004610 	beq	v0,a2,0x8003f9c0
8003f9b4:	1a80023c 	lui	v0,0x801a
8003f9b8:	01000524 	li	a1,1
8003f9bc:	1a80023c 	lui	v0,0x801a
8003f9c0:	288f4424 	addiu	a0,v0,-28888
8003f9c4:	cb018290 	lbu	v0,459(a0)
8003f9c8:	00000000 	nop
8003f9cc:	05004010 	beqz	v0,0x8003f9e4
8003f9d0:	00000000 	nop
8003f9d4:	c0018284 	lh	v0,448(a0)
8003f9d8:	00000000 	nop
8003f9dc:	26004010 	beqz	v0,0x8003fa78
8003f9e0:	00000000 	nop
8003f9e4:	2c00a010 	beqz	a1,0x8003fa98
8003f9e8:	00000000 	nop
8003f9ec:	88018290 	lbu	v0,392(a0)
8003f9f0:	00000000 	nop
8003f9f4:	1e004014 	bnez	v0,0x8003fa70
8003f9f8:	ffff4224 	addiu	v0,v0,-1
8003f9fc:	72008284 	lh	v0,114(a0)
8003fa00:	00000000 	nop
8003fa04:	e8034324 	addiu	v1,v0,1000
8003fa08:	1a004300 	div	zero,v0,v1
8003fa0c:	02006014 	bnez	v1,0x8003fa18
8003fa10:	00000000 	nop
8003fa14:	0d000700 	break	0x7
8003fa18:	ffff0124 	li	at,-1
8003fa1c:	04006114 	bne	v1,at,0x8003fa30
8003fa20:	0080013c 	lui	at,0x8000
8003fa24:	02004114 	bne	v0,at,0x8003fa30
8003fa28:	00000000 	nop
8003fa2c:	0d000600 	break	0x6
8003fa30:	12100000 	mflo	v0
8003fa34:	24000324 	li	v1,36
8003fa38:	00000000 	nop
8003fa3c:	18004300 	mult	v0,v1
8003fa40:	82018294 	lhu	v0,386(a0)
8003fa44:	12380000 	mflo	a3
8003fa48:	2400e324 	addiu	v1,a3,36
8003fa4c:	40180300 	sll	v1,v1,0x1
8003fa50:	21104300 	addu	v0,v0,v1
8003fa54:	820182a4 	sh	v0,386(a0)
8003fa58:	ffff4230 	andi	v0,v0,0xffff
8003fa5c:	0114422c 	sltiu	v0,v0,5121
8003fa60:	0d004014 	bnez	v0,0x8003fa98
8003fa64:	00140224 	li	v0,5120
8003fa68:	a6000108 	j	0x80040298
8003fa6c:	820182a4 	sh	v0,386(a0)
8003fa70:	a6000108 	j	0x80040298
8003fa74:	880182a0 	sb	v0,392(a0)
8003fa78:	82018294 	lhu	v0,386(a0)
8003fa7c:	00000000 	nop
8003fa80:	80ff4224 	addiu	v0,v0,-128
8003fa84:	03004018 	blez	v0,0x8003fa94
8003fa88:	00000000 	nop
8003fa8c:	a6000108 	j	0x80040298
8003fa90:	820182a4 	sh	v0,386(a0)
8003fa94:	820180a4 	sh	zero,386(a0)
8003fa98:	1400bf8f 	lw	ra,20(sp)
8003fa9c:	1000b08f 	lw	s0,16(sp)
8003faa0:	1800bd27 	addiu	sp,sp,24
8003faa4:	0800e003 	jr	ra
8003faa8:	00000000 	nop
8003faac:	30ffbd27 	addiu	sp,sp,-208
8003fab0:	c000b6af 	sw	s6,192(sp)
8003fab4:	21b08000 	move	s6,a0
8003fab8:	1a80023c 	lui	v0,0x801a
8003fabc:	288f4624 	addiu	a2,v0,-28888
8003fac0:	b400b3af 	sw	s3,180(sp)
8003fac4:	ff00d332 	andi	s3,s6,0xff
8003fac8:	80101300 	sll	v0,s3,0x2
8003facc:	21386602 	addu	a3,s3,a2
8003fad0:	21104600 	addu	v0,v0,a2
8003fad4:	cc00bfaf 	sw	ra,204(sp)
8003fad8:	c800beaf 	sw	s8,200(sp)
8003fadc:	c400b7af 	sw	s7,196(sp)
8003fae0:	bc00b5af 	sw	s5,188(sp)
8003fae4:	b800b4af 	sw	s4,184(sp)
8003fae8:	b000b2af 	sw	s2,176(sp)
8003faec:	ac00b1af 	sw	s1,172(sp)
8003faf0:	a800b0af 	sw	s0,168(sp)
8003faf4:	4801e590 	lbu	a1,328(a3)
8003faf8:	e800508c 	lw	s0,232(v0)
8003fafc:	2300a328 	slti	v1,a1,35
8003fb00:	07006010 	beqz	v1,0x8003fb20
8003fb04:	1f00a228 	slti	v0,a1,31
8003fb08:	04014010 	beqz	v0,0x8003ff1c
8003fb0c:	00000000 	nop
8003fb10:	ef02a004 	bltz	a1,0x800406d0
8003fb14:	1a80023c 	lui	v0,0x801a
8003fb18:	93020108 	j	0x80040a4c
8003fb1c:	288f4624 	addiu	a2,v0,-28888
8003fb20:	2400a228 	slti	v0,a1,36
8003fb24:	ea024014 	bnez	v0,0x800406d0
8003fb28:	3700a228 	slti	v0,a1,55
8003fb2c:	e8024010 	beqz	v0,0x800406d0
8003fb30:	00000000 	nop
8003fb34:	de02c294 	lhu	v0,734(a2)
8003fb38:	00000000 	nop
8003fb3c:	00140200 	sll	v0,v0,0x10
8003fb40:	02004010 	beqz	v0,0x8003fb4c
8003fb44:	43140200 	sra	v0,v0,0x11
8003fb48:	de02c2a4 	sh	v0,734(a2)
8003fb4c:	e202c294 	lhu	v0,738(a2)
8003fb50:	00000000 	nop
8003fb54:	00140200 	sll	v0,v0,0x10
8003fb58:	02004010 	beqz	v0,0x8003fb64
8003fb5c:	43140200 	sra	v0,v0,0x11
8003fb60:	e202c2a4 	sh	v0,738(a2)
8003fb64:	e002c794 	lhu	a3,736(a2)
8003fb68:	00000000 	nop
8003fb6c:	001c0700 	sll	v1,a3,0x10
8003fb70:	032c0300 	sra	a1,v1,0x10
8003fb74:	0900a010 	beqz	a1,0x8003fb9c
8003fb78:	6666023c 	lui	v0,0x6666
8003fb7c:	67664234 	ori	v0,v0,0x6667
8003fb80:	1800a200 	mult	a1,v0
8003fb84:	c31f0300 	sra	v1,v1,0x1f
8003fb88:	10480000 	mfhi	t1
8003fb8c:	c3100900 	sra	v0,t1,0x3
8003fb90:	23104300 	subu	v0,v0,v1
8003fb94:	2310e200 	subu	v0,a3,v0
8003fb98:	e002c2a4 	sh	v0,736(a2)
8003fb9c:	40101300 	sll	v0,s3,0x1
8003fba0:	21384600 	addu	a3,v0,a2
8003fba4:	3001e284 	lh	v0,304(a3)
8003fba8:	ffff0824 	li	t0,-1
8003fbac:	c8024810 	beq	v0,t0,0x800406d0
8003fbb0:	eb51033c 	lui	v1,0x51eb
8003fbb4:	04000596 	lhu	a1,4(s0)
8003fbb8:	6400c284 	lh	v0,100(a2)
8003fbbc:	00000000 	nop
8003fbc0:	1800a200 	mult	a1,v0
8003fbc4:	12100000 	mflo	v0
8003fbc8:	1f856334 	ori	v1,v1,0x851f
8003fbcc:	00000000 	nop
8003fbd0:	18004300 	mult	v0,v1
8003fbd4:	c3170200 	sra	v0,v0,0x1f
8003fbd8:	10480000 	mfhi	t1
8003fbdc:	431a0900 	sra	v1,t1,0x9
8003fbe0:	23186200 	subu	v1,v1,v0
8003fbe4:	01008238 	xori	v0,a0,0x1
8003fbe8:	ff004230 	andi	v0,v0,0xff
8003fbec:	40100200 	sll	v0,v0,0x1
8003fbf0:	21104600 	addu	v0,v0,a2
8003fbf4:	30014284 	lh	v0,304(v0)
8003fbf8:	00000000 	nop
8003fbfc:	03004810 	beq	v0,t0,0x8003fc0c
8003fc00:	2128a300 	addu	a1,a1,v1
8003fc04:	01000224 	li	v0,1
8003fc08:	4f01c2a0 	sb	v0,335(a2)
8003fc0c:	4f01c290 	lbu	v0,335(a2)
8003fc10:	00000000 	nop
8003fc14:	06004010 	beqz	v0,0x8003fc30
8003fc18:	1d80023c 	lui	v0,0x801d
8003fc1c:	3001e294 	lhu	v0,304(a3)
8003fc20:	00000000 	nop
8003fc24:	23104500 	subu	v0,v0,a1
8003fc28:	b7010108 	j	0x800406dc
8003fc2c:	3001e2a4 	sh	v0,304(a3)
8003fc30:	80d14324 	addiu	v1,v0,-11904
8003fc34:	02006494 	lhu	a0,2(v1)
8003fc38:	32006294 	lhu	v0,50(v1)
8003fc3c:	00000000 	nop
8003fc40:	24108200 	and	v0,a0,v0
8003fc44:	03004014 	bnez	v0,0x8003fc54
8003fc48:	00000000 	nop
8003fc4c:	08006012 	beqz	s3,0x8003fc70
8003fc50:	00000000 	nop
8003fc54:	34006294 	lhu	v0,52(v1)
8003fc58:	00000000 	nop
8003fc5c:	24108200 	and	v0,a0,v0
8003fc60:	0e004014 	bnez	v0,0x8003fc9c
8003fc64:	1a80023c 	lui	v0,0x801a
8003fc68:	0d006012 	beqz	s3,0x8003fca0
8003fc6c:	288f5224 	addiu	s2,v0,-28888
8003fc70:	1a80043c 	lui	a0,0x801a
8003fc74:	288f8424 	addiu	a0,a0,-28888
8003fc78:	ff00c332 	andi	v1,s6,0xff
8003fc7c:	40180300 	sll	v1,v1,0x1
8003fc80:	21186400 	addu	v1,v1,a0
8003fc84:	30016294 	lhu	v0,304(v1)
8003fc88:	00000000 	nop
8003fc8c:	23104500 	subu	v0,v0,a1
8003fc90:	300162a4 	sh	v0,304(v1)
8003fc94:	b7010108 	j	0x800406dc
8003fc98:	890180a0 	sb	zero,393(a0)
8003fc9c:	288f5224 	addiu	s2,v0,-28888
8003fca0:	ff00c232 	andi	v0,s6,0xff
8003fca4:	40100200 	sll	v0,v0,0x1
8003fca8:	21105200 	addu	v0,v0,s2
8003fcac:	34014484 	lh	a0,308(v0)
8003fcb0:	30014384 	lh	v1,304(v0)
8003fcb4:	23108500 	subu	v0,a0,a1
8003fcb8:	2a104300 	slt	v0,v0,v1
8003fcbc:	79004010 	beqz	v0,0x8003fea4
8003fcc0:	2a108300 	slt	v0,a0,v1
8003fcc4:	78004014 	bnez	v0,0x8003fea8
8003fcc8:	1a80023c 	lui	v0,0x801a
8003fccc:	98024426 	addiu	a0,s2,664
8003fcd0:	1800a527 	addiu	a1,sp,24
8003fcd4:	01000224 	li	v0,1
8003fcd8:	890142a2 	sb	v0,393(s2)
8003fcdc:	1800a0a7 	sh	zero,24(sp)
8003fce0:	1a00a0a7 	sh	zero,26(sp)
8003fce4:	02000296 	lhu	v0,2(s0)
8003fce8:	3800a627 	addiu	a2,sp,56
8003fcec:	40100200 	sll	v0,v0,0x1
8003fcf0:	29d3010c 	jal	0x80074ca4
8003fcf4:	1c00a2a7 	sh	v0,28(sp)
8003fcf8:	100e0224 	li	v0,3600
8003fcfc:	02000496 	lhu	a0,2(s0)
8003fd00:	3c00a38f 	lw	v1,60(sp)
8003fd04:	23104400 	subu	v0,v0,a0
8003fd08:	18006200 	mult	v1,v0
8003fd0c:	12180000 	mflo	v1
8003fd10:	a291023c 	lui	v0,0x91a2
8003fd14:	c5b34234 	ori	v0,v0,0xb3c5
8003fd18:	18006200 	mult	v1,v0
8003fd1c:	3800a48f 	lw	a0,56(sp)
8003fd20:	10480000 	mfhi	t1
8003fd24:	21102301 	addu	v0,t1,v1
8003fd28:	83120200 	sra	v0,v0,0xa
8003fd2c:	c31f0300 	sra	v1,v1,0x1f
8003fd30:	23184300 	subu	v1,v0,v1
8003fd34:	02008104 	bgez	a0,0x8003fd40
8003fd38:	3c00a3af 	sw	v1,60(sp)
8003fd3c:	03008424 	addiu	a0,a0,3
8003fd40:	83100400 	sra	v0,a0,0x2
8003fd44:	3800a2af 	sw	v0,56(sp)
8003fd48:	21106000 	move	v0,v1
8003fd4c:	02004104 	bgez	v0,0x8003fd58
8003fd50:	00000000 	nop
8003fd54:	03004224 	addiu	v0,v0,3
8003fd58:	4000a68f 	lw	a2,64(sp)
8003fd5c:	83100200 	sra	v0,v0,0x2
8003fd60:	0200c104 	bgez	a2,0x8003fd6c
8003fd64:	3c00a2af 	sw	v0,60(sp)
8003fd68:	0300c624 	addiu	a2,a2,3
8003fd6c:	ffff1034 	li	s0,0xffff
8003fd70:	03001124 	li	s1,3
8003fd74:	00041424 	li	s4,1024
8003fd78:	ffff1324 	li	s3,-1
8003fd7c:	1c80023c 	lui	v0,0x801c
8003fd80:	38a15524 	addiu	s5,v0,-24264
8003fd84:	4802438e 	lw	v1,584(s2)
8003fd88:	4c02448e 	lw	a0,588(s2)
8003fd8c:	5002458e 	lw	a1,592(s2)
8003fd90:	83100600 	sra	v0,a2,0x2
8003fd94:	4000a2af 	sw	v0,64(sp)
8003fd98:	9000a3af 	sw	v1,144(sp)
8003fd9c:	9400a4af 	sw	a0,148(sp)
8003fda0:	9800a5af 	sw	a1,152(sp)
8003fda4:	6800a427 	addiu	a0,sp,104
8003fda8:	04000524 	li	a1,4
8003fdac:	9000a28f 	lw	v0,144(sp)
8003fdb0:	3800a38f 	lw	v1,56(sp)
8003fdb4:	3c00a68f 	lw	a2,60(sp)
8003fdb8:	4000a78f 	lw	a3,64(sp)
8003fdbc:	21104300 	addu	v0,v0,v1
8003fdc0:	9000a2af 	sw	v0,144(sp)
8003fdc4:	9400a28f 	lw	v0,148(sp)
8003fdc8:	9800a38f 	lw	v1,152(sp)
8003fdcc:	21104600 	addu	v0,v0,a2
8003fdd0:	21186700 	addu	v1,v1,a3
8003fdd4:	9400a2af 	sw	v0,148(sp)
8003fdd8:	9800a3af 	sw	v1,152(sp)
8003fddc:	9000a28f 	lw	v0,144(sp)
8003fde0:	9400a38f 	lw	v1,148(sp)
8003fde4:	9800a68f 	lw	a2,152(sp)
8003fde8:	9c00a78f 	lw	a3,156(sp)
8003fdec:	6c00a2af 	sw	v0,108(sp)
8003fdf0:	7000a3af 	sw	v1,112(sp)
8003fdf4:	7400a6af 	sw	a2,116(sp)
8003fdf8:	7800a7af 	sw	a3,120(sp)
8003fdfc:	8400b4a7 	sh	s4,132(sp)
8003fe00:	e22e010c 	jal	0x8004bb88
8003fe04:	8600b4a7 	sh	s4,134(sp)
8003fe08:	21184000 	move	v1,v0
8003fe0c:	14007310 	beq	v1,s3,0x8003fe60
8003fe10:	40100300 	sll	v0,v1,0x1
8003fe14:	21104300 	addu	v0,v0,v1
8003fe18:	80100200 	sll	v0,v0,0x2
8003fe1c:	21104300 	addu	v0,v0,v1
8003fe20:	80100200 	sll	v0,v0,0x2
8003fe24:	21104300 	addu	v0,v0,v1
8003fe28:	80100200 	sll	v0,v0,0x2
8003fe2c:	21105500 	addu	v0,v0,s5
8003fe30:	6a024386 	lh	v1,618(s2)
8003fe34:	56004284 	lh	v0,86(v0)
8003fe38:	00000000 	nop
8003fe3c:	23806200 	subu	s0,v1,v0
8003fe40:	0108022a 	slti	v0,s0,2049
8003fe44:	03004014 	bnez	v0,0x8003fe54
8003fe48:	00f8022a 	slti	v0,s0,-2048
8003fe4c:	00f01026 	addiu	s0,s0,-4096
8003fe50:	00f8022a 	slti	v0,s0,-2048
8003fe54:	02004010 	beqz	v0,0x8003fe60
8003fe58:	00000000 	nop
8003fe5c:	00101026 	addiu	s0,s0,4096
8003fe60:	ffff3126 	addiu	s1,s1,-1
8003fe64:	d0ff3316 	bne	s1,s3,0x8003fda8
8003fe68:	6800a427 	addiu	a0,sp,104
8003fe6c:	ffff0234 	li	v0,0xffff
8003fe70:	1a000212 	beq	s0,v0,0x8003fedc
8003fe74:	1a80023c 	lui	v0,0x801a
8003fe78:	288f4424 	addiu	a0,v0,-28888
8003fe7c:	e0028284 	lh	v0,736(a0)
8003fe80:	e0028394 	lhu	v1,736(a0)
8003fe84:	23100202 	subu	v0,s0,v0
8003fe88:	02004104 	bgez	v0,0x8003fe94
8003fe8c:	00000000 	nop
8003fe90:	03004224 	addiu	v0,v0,3
8003fe94:	83100200 	sra	v0,v0,0x2
8003fe98:	21106200 	addu	v0,v1,v0
8003fe9c:	b7010108 	j	0x800406dc
8003fea0:	e00282a4 	sh	v0,736(a0)
8003fea4:	1a80023c 	lui	v0,0x801a
8003fea8:	288f4424 	addiu	a0,v0,-28888
8003feac:	54018290 	lbu	v0,340(a0)
8003feb0:	00000000 	nop
8003feb4:	03004010 	beqz	v0,0x8003fec4
8003feb8:	ff00c332 	andi	v1,s6,0xff
8003febc:	b7010108 	j	0x800406dc
8003fec0:	540180a0 	sb	zero,340(a0)
8003fec4:	40180300 	sll	v1,v1,0x1
8003fec8:	21186400 	addu	v1,v1,a0
8003fecc:	30016294 	lhu	v0,304(v1)
8003fed0:	00000000 	nop
8003fed4:	21104500 	addu	v0,v0,a1
8003fed8:	300162a4 	sh	v0,304(v1)
8003fedc:	1a80023c 	lui	v0,0x801a
8003fee0:	288f4424 	addiu	a0,v0,-28888
8003fee4:	ff00c232 	andi	v0,s6,0xff
8003fee8:	40100200 	sll	v0,v0,0x1
8003feec:	21184400 	addu	v1,v0,a0
8003fef0:	30016294 	lhu	v0,304(v1)
8003fef4:	00000000 	nop
8003fef8:	0010422c 	sltiu	v0,v0,4096
8003fefc:	f4014014 	bnez	v0,0x800406d0
8003ff00:	ffff0224 	li	v0,-1
8003ff04:	300162a4 	sh	v0,304(v1)
8003ff08:	4f0180a0 	sb	zero,335(a0)
8003ff0c:	de0280a4 	sh	zero,734(a0)
8003ff10:	e00280a4 	sh	zero,736(a0)
8003ff14:	b4030108 	j	0x80040ed0
8003ff18:	e20280a4 	sh	zero,738(a0)
8003ff1c:	40101300 	sll	v0,s3,0x1
8003ff20:	21884600 	addu	s1,v0,a2
8003ff24:	ffff0224 	li	v0,-1
8003ff28:	30012586 	lh	a1,304(s1)
8003ff2c:	30012496 	lhu	a0,304(s1)
8003ff30:	c400a210 	beq	a1,v0,0x80040244
8003ff34:	eb51033c 	lui	v1,0x51eb
8003ff38:	04001296 	lhu	s2,4(s0)
8003ff3c:	6400c284 	lh	v0,100(a2)
8003ff40:	00000000 	nop
8003ff44:	18004202 	mult	s2,v0
8003ff48:	12100000 	mflo	v0
8003ff4c:	1f856334 	ori	v1,v1,0x851f
8003ff50:	00000000 	nop
8003ff54:	18004300 	mult	v0,v1
8003ff58:	c3170200 	sra	v0,v0,0x1f
8003ff5c:	10480000 	mfhi	t1
8003ff60:	431a0900 	sra	v1,t1,0x9
8003ff64:	23186200 	subu	v1,v1,v0
8003ff68:	1f02c290 	lbu	v0,543(a2)
8003ff6c:	00000000 	nop
8003ff70:	29004010 	beqz	v0,0x80040018
8003ff74:	21904302 	addu	s2,s2,v1
8003ff78:	38012286 	lh	v0,312(s1)
8003ff7c:	00000000 	nop
8003ff80:	23105200 	subu	v0,v0,s2
8003ff84:	2a104500 	slt	v0,v0,a1
8003ff88:	04004014 	bnez	v0,0x8003ff9c
8003ff8c:	21109200 	addu	v0,a0,s2
8003ff90:	23109200 	subu	v0,a0,s2
8003ff94:	7c020108 	j	0x800409f0
8003ff98:	300122a6 	sh	v0,304(s1)
8003ff9c:	300122a6 	sh	v0,304(s1)
8003ffa0:	00140200 	sll	v0,v0,0x10
8003ffa4:	34012486 	lh	a0,308(s1)
8003ffa8:	031c0200 	sra	v1,v0,0x10
8003ffac:	2a108300 	slt	v0,a0,v1
8003ffb0:	8f004010 	beqz	v0,0x800401f0
8003ffb4:	21109200 	addu	v0,a0,s2
8003ffb8:	2a104300 	slt	v0,v0,v1
8003ffbc:	8d004014 	bnez	v0,0x800401f4
8003ffc0:	1a80023c 	lui	v0,0x801a
8003ffc4:	80000524 	li	a1,128
8003ffc8:	d401e490 	lbu	a0,468(a3)
8003ffcc:	4801f090 	lbu	s0,328(a3)
8003ffd0:	e8ff8424 	addiu	a0,a0,-24
8003ffd4:	c2170400 	srl	v0,a0,0x1f
8003ffd8:	21208200 	addu	a0,a0,v0
8003ffdc:	43200400 	sra	a0,a0,0x1
8003ffe0:	16008424 	addiu	a0,a0,22
8003ffe4:	bc60010c 	jal	0x800582f0
8003ffe8:	0d001026 	addiu	s0,s0,13
8003ffec:	ff000432 	andi	a0,s0,0xff
8003fff0:	30012296 	lhu	v0,304(s1)
8003fff4:	21286002 	move	a1,s3
8003fff8:	23105200 	subu	v0,v0,s2
8003fffc:	c103010c 	jal	0x80040f04
