
decompilation/ST.EXE:     file format binary


Disassembly of section .data:

80030000 <.data+0x10000>:
80030000:	2c004224 	addiu	v0,v0,44
80030004:	00004ce8 	swc2	$12,0(v0)
80030008:	0400c284 	lh	v0,4(a2)
8003000c:	00000000 	nop
80030010:	840002ad 	sw	v0,132(t0)
80030014:	800002ad 	sw	v0,128(t0)
80030018:	0400a384 	lh	v1,4(a1)
8003001c:	00000000 	nop
80030020:	2a104300 	slt	v0,v0,v1
80030024:	03004010 	beqz	v0,0x80030034
80030028:	00000000 	nop
8003002c:	840003ad 	sw	v1,132(t0)
80030030:	0400a384 	lh	v1,4(a1)
80030034:	8000028d 	lw	v0,128(t0)
80030038:	00000000 	nop
8003003c:	2a106200 	slt	v0,v1,v0
80030040:	02004010 	beqz	v0,0x8003004c
80030044:	00000000 	nop
80030048:	800003ad 	sw	v1,128(t0)
8003004c:	04008384 	lh	v1,4(a0)
80030050:	8400028d 	lw	v0,132(t0)
80030054:	00000000 	nop
80030058:	2a104300 	slt	v0,v0,v1
8003005c:	03004010 	beqz	v0,0x8003006c
80030060:	00000000 	nop
80030064:	840003ad 	sw	v1,132(t0)
80030068:	04008384 	lh	v1,4(a0)
8003006c:	8000028d 	lw	v0,128(t0)
80030070:	00000000 	nop
80030074:	2a106200 	slt	v0,v1,v0
80030078:	02004010 	beqz	v0,0x80030084
8003007c:	00000000 	nop
80030080:	800003ad 	sw	v1,128(t0)
80030084:	04004385 	lh	v1,4(t2)
80030088:	8400028d 	lw	v0,132(t0)
8003008c:	00000000 	nop
80030090:	2a104300 	slt	v0,v0,v1
80030094:	03004010 	beqz	v0,0x800300a4
80030098:	00000000 	nop
8003009c:	840003ad 	sw	v1,132(t0)
800300a0:	04004385 	lh	v1,4(t2)
800300a4:	8000028d 	lw	v0,128(t0)
800300a8:	00000000 	nop
800300ac:	2a106200 	slt	v0,v1,v0
800300b0:	02004010 	beqz	v0,0x800300bc
800300b4:	00000000 	nop
800300b8:	800003ad 	sw	v1,128(t0)
800300bc:	8400028d 	lw	v0,132(t0)
800300c0:	feffe380 	lb	v1,-2(a3)
800300c4:	43110200 	sra	v0,v0,0x5
800300c8:	21184300 	addu	v1,v0,v1
800300cc:	00106228 	slti	v0,v1,4096
800300d0:	06004010 	beqz	v0,0x800300ec
800300d4:	880003ad 	sw	v1,136(t0)
800300d8:	8c00028d 	lw	v0,140(t0)
800300dc:	00000000 	nop
800300e0:	2a106200 	slt	v0,v1,v0
800300e4:	04004010 	beqz	v0,0x800300f8
800300e8:	00000000 	nop
800300ec:	2000e724 	addiu	a3,a3,32
800300f0:	8c820008 	j	0x80020a30
800300f4:	20002925 	addiu	t1,t1,32
800300f8:	1000068d 	lw	a2,16(t0)
800300fc:	1400028d 	lw	v0,20(t0)
80030100:	3400c324 	addiu	v1,a2,52
80030104:	2b104300 	sltu	v0,v0,v1
80030108:	57004014 	bnez	v0,0x80030268
8003010c:	00000000 	nop
80030110:	bc01028d 	lw	v0,444(t0)
80030114:	100003ad 	sw	v1,16(t0)
80030118:	01004224 	addiu	v0,v0,1
8003011c:	bc0102ad 	sw	v0,444(t0)
80030120:	f6ffe294 	lhu	v0,-10(a3)
80030124:	00000000 	nop
80030128:	0e00c2a4 	sh	v0,14(a2)
8003012c:	faffe294 	lhu	v0,-6(a3)
80030130:	00000000 	nop
80030134:	1a00c2a4 	sh	v0,26(a2)
80030138:	0400e594 	lhu	a1,4(a3)
8003013c:	2400028d 	lw	v0,36(t0)
80030140:	0800e394 	lhu	v1,8(a3)
80030144:	0c00e494 	lhu	a0,12(a3)
80030148:	21284500 	addu	a1,v0,a1
8003014c:	21184300 	addu	v1,v0,v1
80030150:	21104400 	addu	v0,v0,a0
80030154:	0000a0c8 	lwc2	$0,0(a1)
80030158:	0400a1c8 	lwc2	$1,4(a1)
8003015c:	000062c8 	lwc2	$2,0(v1)
80030160:	040063c8 	lwc2	$3,4(v1)
80030164:	000044c8 	lwc2	$4,0(v0)
80030168:	040045c8 	lwc2	$5,4(v0)
8003016c:	44000225 	addiu	v0,t0,68
80030170:	000046c8 	lwc2	$6,0(v0)
	...
8003017c:	3f04184b 	c2	0x118043f
80030180:	0400c424 	addiu	a0,a2,4
80030184:	1000c324 	addiu	v1,a2,16
80030188:	1c00c224 	addiu	v0,a2,28
8003018c:	000094e8 	swc2	$20,0(a0)
80030190:	000075e8 	swc2	$21,0(v1)
80030194:	000056e8 	swc2	$22,0(v0)
80030198:	1000e394 	lhu	v1,16(a3)
8003019c:	2400028d 	lw	v0,36(t0)
800301a0:	00000000 	nop
800301a4:	21104300 	addu	v0,v0,v1
800301a8:	000040c8 	lwc2	$0,0(v0)
800301ac:	040041c8 	lwc2	$1,4(v0)
	...
800301b8:	1b04084b 	c2	0x108041b
800301bc:	2800c224 	addiu	v0,a2,40
800301c0:	000056e8 	swc2	$22,0(v0)
800301c4:	0000228d 	lw	v0,0(t1)
800301c8:	00000000 	nop
800301cc:	0c00c2ac 	sw	v0,12(a2)
800301d0:	f8ffe28c 	lw	v0,-8(a3)
800301d4:	00000000 	nop
800301d8:	1800c2ac 	sw	v0,24(a2)
800301dc:	fcffe294 	lhu	v0,-4(a3)
800301e0:	20002925 	addiu	t1,t1,32
800301e4:	2400c2a4 	sh	v0,36(a2)
800301e8:	0000e294 	lhu	v0,0(a3)
800301ec:	2000e724 	addiu	a3,a3,32
800301f0:	3000c2a4 	sh	v0,48(a2)
800301f4:	8800028d 	lw	v0,136(t0)
800301f8:	0000038d 	lw	v1,0(t0)
800301fc:	80100200 	sll	v0,v0,0x2
80030200:	21104300 	addu	v0,v0,v1
80030204:	0000428c 	lw	v0,0(v0)
80030208:	000c033c 	lui	v1,0xc00
8003020c:	24104f00 	and	v0,v0,t7
80030210:	25104300 	or	v0,v0,v1
80030214:	0000c2ac 	sw	v0,0(a2)
80030218:	8800028d 	lw	v0,136(t0)
8003021c:	0000038d 	lw	v1,0(t0)
80030220:	80100200 	sll	v0,v0,0x2
80030224:	21104300 	addu	v0,v0,v1
80030228:	2418cf00 	and	v1,a2,t7
8003022c:	000043ac 	sw	v1,0(v0)
80030230:	8401028d 	lw	v0,388(t0)
80030234:	00000000 	nop
80030238:	ffff4224 	addiu	v0,v0,-1
8003023c:	41ff5814 	bne	v0,t8,0x8002ff44
80030240:	840102ad 	sw	v0,388(t0)
80030244:	2000028d 	lw	v0,32(t0)
80030248:	00000000 	nop
8003024c:	0400428c 	lw	v0,4(v0)
80030250:	3400038d 	lw	v1,52(t0)
80030254:	c0100200 	sll	v0,v0,0x3
80030258:	21186200 	addu	v1,v1,v0
8003025c:	ffff6b25 	addiu	t3,t3,-1
80030260:	d8fe7815 	bne	t3,t8,0x8002fdc4
80030264:	340003ad 	sw	v1,52(t0)
80030268:	0800b28f 	lw	s2,8(sp)
8003026c:	0400b18f 	lw	s1,4(sp)
80030270:	0000b08f 	lw	s0,0(sp)
80030274:	1000bd27 	addiu	sp,sp,16
80030278:	0800e003 	jr	ra
8003027c:	00000000 	nop
80030280:	d8efbd27 	addiu	sp,sp,-4136
80030284:	0100023c 	lui	v0,0x1
80030288:	00804234 	ori	v0,v0,0x8000
8003028c:	1680033c 	lui	v1,0x8016
80030290:	90d06324 	addiu	v1,v1,-12144
80030294:	21106200 	addu	v0,v1,v0
80030298:	2010bfaf 	sw	ra,4128(sp)
8003029c:	1c10b3af 	sw	s3,4124(sp)
800302a0:	1810b2af 	sw	s2,4120(sp)
800302a4:	1410b1af 	sw	s1,4116(sp)
800302a8:	1010b0af 	sw	s0,4112(sp)
800302ac:	f46d428c 	lw	v0,28148(v0)
800302b0:	00000000 	nop
800302b4:	06004010 	beqz	v0,0x800302d0
800302b8:	801f123c 	lui	s2,0x1f80
800302bc:	00800234 	li	v0,0x8000
800302c0:	21106200 	addu	v0,v1,v0
800302c4:	0c03428c 	lw	v0,780(v0)
800302c8:	b9820008 	j	0x80020ae4
800302cc:	0c0042ae 	sw	v0,12(s2)
800302d0:	00800234 	li	v0,0x8000
800302d4:	21106200 	addu	v0,v1,v0
800302d8:	0803428c 	lw	v0,776(v0)
800302dc:	00000000 	nop
800302e0:	0c0042ae 	sw	v0,12(s2)
800302e4:	04000224 	li	v0,4
800302e8:	1680103c 	lui	s0,0x8016
800302ec:	90d01026 	addiu	s0,s0,-12144
800302f0:	00800334 	li	v1,0x8000
800302f4:	21180302 	addu	v1,s0,v1
800302f8:	8c0042ae 	sw	v0,140(s2)
800302fc:	e400648c 	lw	a0,228(v1)
80030300:	0403658c 	lw	a1,772(v1)
80030304:	00100224 	li	v0,4096
80030308:	040042ae 	sw	v0,4(s2)
8003030c:	000044ae 	sw	a0,0(s2)
80030310:	0800a28c 	lw	v0,8(a1)
80030314:	0403648c 	lw	a0,772(v1)
80030318:	100042ae 	sw	v0,16(s2)
8003031c:	04008f8c 	lw	t7,4(a0)
80030320:	40010224 	li	v0,320
80030324:	920042a6 	sh	v0,146(s2)
80030328:	1c03648c 	lw	a0,796(v1)
8003032c:	2003658c 	lw	a1,800(v1)
80030330:	2403668c 	lw	a2,804(v1)
80030334:	2803678c 	lw	a3,808(v1)
80030338:	2c03688c 	lw	t0,812(v1)
8003033c:	3003698c 	lw	t1,816(v1)
80030340:	34036a8c 	lw	t2,820(v1)
80030344:	38036b8c 	lw	t3,824(v1)
80030348:	3c036c8c 	lw	t4,828(v1)
8003034c:	40036d8c 	lw	t5,832(v1)
80030350:	44036e8c 	lw	t6,836(v1)
80030354:	f0000224 	li	v0,240
80030358:	900042a6 	sh	v0,144(s2)
8003035c:	b00144ae 	sw	a0,432(s2)
80030360:	b40145ae 	sw	a1,436(s2)
80030364:	b80146ae 	sw	a2,440(s2)
80030368:	bc0147ae 	sw	a3,444(s2)
8003036c:	c00148ae 	sw	t0,448(s2)
80030370:	c40149ae 	sw	t1,452(s2)
80030374:	cc014aae 	sw	t2,460(s2)
80030378:	d0014bae 	sw	t3,464(s2)
8003037c:	d4014cae 	sw	t4,468(s2)
80030380:	d8014dae 	sw	t5,472(s2)
80030384:	14004fae 	sw	t7,20(s2)
80030388:	dc014eae 	sw	t6,476(s2)
8003038c:	4803628c 	lw	v0,840(v1)
80030390:	b1e2010c 	jal	0x80078ac4
80030394:	e00142ae 	sw	v0,480(s2)
80030398:	0100033c 	lui	v1,0x1
8003039c:	00806334 	ori	v1,v1,0x8000
800303a0:	21800302 	addu	s0,s0,v1
800303a4:	fc6d0492 	lbu	a0,28156(s0)
800303a8:	21184000 	move	v1,v0
800303ac:	02008230 	andi	v0,a0,0x2
800303b0:	0c004010 	beqz	v0,0x800303e4
800303b4:	f86d03ae 	sw	v1,28152(s0)
800303b8:	10008230 	andi	v0,a0,0x10
800303bc:	05004010 	beqz	v0,0x800303d4
800303c0:	00000000 	nop
800303c4:	431b0300 	sra	v1,v1,0xd
800303c8:	88ff0224 	li	v0,-120
800303cc:	fa820008 	j	0x80020be8
800303d0:	23104300 	subu	v0,v0,v1
800303d4:	c31a0300 	sra	v1,v1,0xb
800303d8:	a0ff0224 	li	v0,-96
800303dc:	fa820008 	j	0x80020be8
800303e0:	23104300 	subu	v0,v0,v1
800303e4:	80000224 	li	v0,128
800303e8:	460042a2 	sb	v0,70(s2)
800303ec:	450042a2 	sb	v0,69(s2)
800303f0:	440042a2 	sb	v0,68(s2)
800303f4:	0100023c 	lui	v0,0x1
800303f8:	00804234 	ori	v0,v0,0x8000
800303fc:	1680033c 	lui	v1,0x8016
80030400:	90d06324 	addiu	v1,v1,-12144
80030404:	21186200 	addu	v1,v1,v0
80030408:	fc6d6390 	lbu	v1,28156(v1)
8003040c:	00000000 	nop
80030410:	02006230 	andi	v0,v1,0x2
80030414:	0b004010 	beqz	v0,0x80030444
80030418:	06001324 	li	s3,6
8003041c:	04001824 	li	t8,4
80030420:	02001924 	li	t9,2
80030424:	00611300 	sll	t4,s3,0x4
80030428:	00691800 	sll	t5,t8,0x4
8003042c:	00711900 	sll	t6,t9,0x4
80030430:	00a8cc48 	ctc2	t4,$21
80030434:	00b0cd48 	ctc2	t5,$22
80030438:	00b8ce48 	ctc2	t6,$23
8003043c:	28830008 	j	0x80020ca0
80030440:	1a80043c 	lui	a0,0x801a
80030444:	04006230 	andi	v0,v1,0x4
80030448:	0b004010 	beqz	v0,0x80030478
8003044c:	02001324 	li	s3,2
80030450:	06001824 	li	t8,6
80030454:	21c80003 	move	t9,t8
80030458:	00611300 	sll	t4,s3,0x4
8003045c:	00691800 	sll	t5,t8,0x4
80030460:	00711900 	sll	t6,t9,0x4
80030464:	00a8cc48 	ctc2	t4,$21
80030468:	00b0cd48 	ctc2	t5,$22
8003046c:	00b8ce48 	ctc2	t6,$23
80030470:	28830008 	j	0x80020ca0
80030474:	1a80043c 	lui	a0,0x801a
80030478:	05001324 	li	s3,5
8003047c:	21c06002 	move	t8,s3
80030480:	21c86002 	move	t9,s3
80030484:	00611300 	sll	t4,s3,0x4
80030488:	00691800 	sll	t5,t8,0x4
8003048c:	00711900 	sll	t6,t9,0x4
80030490:	00a8cc48 	ctc2	t4,$21
80030494:	00b0cd48 	ctc2	t5,$22
80030498:	00b8ce48 	ctc2	t6,$23
8003049c:	1a80043c 	lui	a0,0x801a
800304a0:	4070000c 	jal	0x8001c100
800304a4:	70918424 	addiu	a0,a0,-28304
800304a8:	9970000c 	jal	0x8001c264
800304ac:	1880133c 	lui	s3,0x8018
800304b0:	8371000c 	jal	0x8001c60c
800304b4:	78bd7326 	addiu	s3,s3,-17032
800304b8:	00006c8e 	lw	t4,0(s3)
800304bc:	04006d8e 	lw	t5,4(s3)
800304c0:	0000cc48 	ctc2	t4,$0
800304c4:	0008cd48 	ctc2	t5,$1
800304c8:	08006c8e 	lw	t4,8(s3)
800304cc:	0c006d8e 	lw	t5,12(s3)
800304d0:	10006e8e 	lw	t6,16(s3)
800304d4:	0010cc48 	ctc2	t4,$2
800304d8:	0018cd48 	ctc2	t5,$3
800304dc:	0020ce48 	ctc2	t6,$4
800304e0:	1880183c 	lui	t8,0x8018
800304e4:	78bd1827 	addiu	t8,t8,-17032
800304e8:	14000c8f 	lw	t4,20(t8)
800304ec:	18000d8f 	lw	t5,24(t8)
800304f0:	0028cc48 	ctc2	t4,$5
800304f4:	1c000e8f 	lw	t6,28(t8)
800304f8:	0030cd48 	ctc2	t5,$6
800304fc:	0038ce48 	ctc2	t6,$7
80030500:	e272000c 	jal	0x8001cb88
80030504:	1000a427 	addiu	a0,sp,16
80030508:	0100023c 	lui	v0,0x1
8003050c:	00804234 	ori	v0,v0,0x8000
80030510:	1680103c 	lui	s0,0x8016
80030514:	90d01026 	addiu	s0,s0,-12144
80030518:	21100202 	addu	v0,s0,v0
8003051c:	086e428c 	lw	v0,28168(v0)
80030520:	00000000 	nop
80030524:	c40342ae 	sw	v0,964(s2)
80030528:	64005990 	lbu	t9,100(v0)
8003052c:	65005390 	lbu	s3,101(v0)
80030530:	66005890 	lbu	t8,102(v0)
80030534:	00611900 	sll	t4,t9,0x4
80030538:	00691300 	sll	t5,s3,0x4
8003053c:	00711800 	sll	t6,t8,0x4
80030540:	0068cc48 	ctc2	t4,$13
80030544:	0070cd48 	ctc2	t5,$14
80030548:	0078ce48 	ctc2	t6,$15
8003054c:	50004324 	addiu	v1,v0,80
80030550:	00006c8c 	lw	t4,0(v1)
80030554:	04006d8c 	lw	t5,4(v1)
80030558:	0080cc48 	ctc2	t4,$16
8003055c:	0088cd48 	ctc2	t5,$17
80030560:	08006c8c 	lw	t4,8(v1)
80030564:	0c006d8c 	lw	t5,12(v1)
80030568:	10006e8c 	lw	t6,16(v1)
8003056c:	0090cc48 	ctc2	t4,$18
80030570:	0098cd48 	ctc2	t5,$19
80030574:	00a0ce48 	ctc2	t6,$20
80030578:	68004284 	lh	v0,104(v0)
8003057c:	1000a427 	addiu	a0,sp,16
80030580:	640042ae 	sw	v0,100(s2)
80030584:	c403428e 	lw	v0,964(s2)
80030588:	1680113c 	lui	s1,0x8016
8003058c:	6a004284 	lh	v0,106(v0)
80030590:	cc7b3126 	addiu	s1,s1,31692
80030594:	340051ae 	sw	s1,52(s2)
80030598:	7e73000c 	jal	0x8001cdf8
8003059c:	680042ae 	sw	v0,104(s2)
800305a0:	1000a427 	addiu	a0,sp,16
800305a4:	557e000c 	jal	0x8001f954
800305a8:	340051ae 	sw	s1,52(s2)
800305ac:	1000a427 	addiu	a0,sp,16
800305b0:	407f000c 	jal	0x8001fd00
800305b4:	340051ae 	sw	s1,52(s2)
800305b8:	1000a427 	addiu	a0,sp,16
800305bc:	5980000c 	jal	0x80020164
800305c0:	340051ae 	sw	s1,52(s2)
800305c4:	1000a427 	addiu	a0,sp,16
800305c8:	6281000c 	jal	0x80020588
800305cc:	340051ae 	sw	s1,52(s2)
800305d0:	1000a427 	addiu	a0,sp,16
800305d4:	aa74000c 	jal	0x8001d2a8
800305d8:	340051ae 	sw	s1,52(s2)
800305dc:	1000a427 	addiu	a0,sp,16
800305e0:	d976000c 	jal	0x8001db64
800305e4:	340051ae 	sw	s1,52(s2)
800305e8:	1000a427 	addiu	a0,sp,16
800305ec:	6879000c 	jal	0x8001e5a0
800305f0:	340051ae 	sw	s1,52(s2)
800305f4:	1000a427 	addiu	a0,sp,16
800305f8:	ab7b000c 	jal	0x8001eeac
800305fc:	340051ae 	sw	s1,52(s2)
80030600:	00800234 	li	v0,0x8000
80030604:	21800202 	addu	s0,s0,v0
80030608:	b001438e 	lw	v1,432(s2)
8003060c:	b401448e 	lw	a0,436(s2)
80030610:	bc01458e 	lw	a1,444(s2)
80030614:	b801468e 	lw	a2,440(s2)
80030618:	c001478e 	lw	a3,448(s2)
8003061c:	c401488e 	lw	t0,452(s2)
80030620:	cc01498e 	lw	t1,460(s2)
80030624:	d0014a8e 	lw	t2,464(s2)
80030628:	d4014b8e 	lw	t3,468(s2)
8003062c:	d8014c8e 	lw	t4,472(s2)
80030630:	dc014d8e 	lw	t5,476(s2)
80030634:	e0014e8e 	lw	t6,480(s2)
80030638:	04030f8e 	lw	t7,772(s0)
8003063c:	1000428e 	lw	v0,16(s2)
80030640:	340051ae 	sw	s1,52(s2)
80030644:	1c0303ae 	sw	v1,796(s0)
80030648:	200304ae 	sw	a0,800(s0)
8003064c:	280305ae 	sw	a1,808(s0)
80030650:	240306ae 	sw	a2,804(s0)
80030654:	2c0307ae 	sw	a3,812(s0)
80030658:	300308ae 	sw	t0,816(s0)
8003065c:	340309ae 	sw	t1,820(s0)
80030660:	38030aae 	sw	t2,824(s0)
80030664:	3c030bae 	sw	t3,828(s0)
80030668:	40030cae 	sw	t4,832(s0)
8003066c:	44030dae 	sw	t5,836(s0)
80030670:	48030eae 	sw	t6,840(s0)
80030674:	0800e2ad 	sw	v0,8(t7)
80030678:	0403038e 	lw	v1,772(s0)
8003067c:	1400428e 	lw	v0,20(s2)
80030680:	00000000 	nop
80030684:	040062ac 	sw	v0,4(v1)
80030688:	2010bf8f 	lw	ra,4128(sp)
8003068c:	1c10b38f 	lw	s3,4124(sp)
80030690:	1810b28f 	lw	s2,4120(sp)
80030694:	1410b18f 	lw	s1,4116(sp)
80030698:	1010b08f 	lw	s0,4112(sp)
8003069c:	2810bd27 	addiu	sp,sp,4136
800306a0:	0800e003 	jr	ra
800306a4:	00000000 	nop
800306a8:	e0ffbd27 	addiu	sp,sp,-32
800306ac:	1000b0af 	sw	s0,16(sp)
800306b0:	1400b1af 	sw	s1,20(sp)
800306b4:	2188a000 	move	s1,a1
800306b8:	0100023c 	lui	v0,0x1
800306bc:	00804234 	ori	v0,v0,0x8000
800306c0:	1680033c 	lui	v1,0x8016
800306c4:	90d06a24 	addiu	t2,v1,-12144
800306c8:	21184201 	addu	v1,t2,v0
800306cc:	1800bfaf 	sw	ra,24(sp)
800306d0:	c26c6290 	lbu	v0,27842(v1)
800306d4:	3000a893 	lbu	t0,48(sp)
800306d8:	3400a993 	lbu	t1,52(sp)
800306dc:	3800b893 	lbu	t8,56(sp)
800306e0:	3c00b993 	lbu	t9,60(sp)
800306e4:	4000a593 	lbu	a1,64(sp)
800306e8:	4400ae97 	lhu	t6,68(sp)
800306ec:	4800af97 	lhu	t7,72(sp)
800306f0:	4c00ab93 	lbu	t3,76(sp)
800306f4:	5000ac93 	lbu	t4,80(sp)
800306f8:	5400ad93 	lbu	t5,84(sp)
800306fc:	0200422c 	sltiu	v0,v0,2
80030700:	04004014 	bnez	v0,0x80030714
80030704:	21808000 	move	s0,a0
80030708:	e000428d 	lw	v0,224(t2)
8003070c:	cc830008 	j	0x80020f30
80030710:	a0004424 	addiu	a0,v0,160
80030714:	c26c6290 	lbu	v0,27842(v1)
80030718:	00000000 	nop
8003071c:	80180200 	sll	v1,v0,0x2
80030720:	21186200 	addu	v1,v1,v0
80030724:	e000428d 	lw	v0,224(t2)
80030728:	40190300 	sll	v1,v1,0x5
8003072c:	21204300 	addu	a0,v0,v1
80030730:	21181801 	addu	v1,t0,t8
80030734:	21103901 	addu	v0,t1,t9
80030738:	1d0082a0 	sb	v0,29(a0)
8003073c:	250082a0 	sb	v0,37(a0)
80030740:	09000224 	li	v0,9
80030744:	030082a0 	sb	v0,3(a0)
80030748:	2c000224 	li	v0,44
8003074c:	070082a0 	sb	v0,7(a0)
80030750:	ff000224 	li	v0,255
80030754:	04008ba0 	sb	t3,4(a0)
80030758:	05008ca0 	sb	t4,5(a0)
8003075c:	06008da0 	sb	t5,6(a0)
80030760:	16008ea4 	sh	t6,22(a0)
80030764:	0e008fa4 	sh	t7,14(a0)
80030768:	0c0088a0 	sb	t0,12(a0)
8003076c:	0d0089a0 	sb	t1,13(a0)
80030770:	140083a0 	sb	v1,20(a0)
80030774:	150089a0 	sb	t1,21(a0)
80030778:	1c0088a0 	sb	t0,28(a0)
8003077c:	240083a0 	sb	v1,36(a0)
80030780:	180090a4 	sh	s0,24(a0)
80030784:	080090a4 	sh	s0,8(a0)
80030788:	200086a4 	sh	a2,32(a0)
8003078c:	100086a4 	sh	a2,16(a0)
80030790:	120091a4 	sh	s1,18(a0)
80030794:	0a0091a4 	sh	s1,10(a0)
80030798:	220087a4 	sh	a3,34(a0)
8003079c:	0300a210 	beq	a1,v0,0x800307ac
800307a0:	1a0087a4 	sh	a3,26(a0)
800307a4:	2e000224 	li	v0,46
800307a8:	070082a0 	sb	v0,7(a0)
800307ac:	fee7010c 	jal	0x80079ff8
800307b0:	00000000 	nop
800307b4:	1800bf8f 	lw	ra,24(sp)
800307b8:	1400b18f 	lw	s1,20(sp)
800307bc:	1000b08f 	lw	s0,16(sp)
800307c0:	2000bd27 	addiu	sp,sp,32
800307c4:	0800e003 	jr	ra
800307c8:	00000000 	nop
800307cc:	f8ffbd27 	addiu	sp,sp,-8
800307d0:	1680023c 	lui	v0,0x8016
800307d4:	90d04224 	addiu	v0,v0,-12144
800307d8:	1800aa8f 	lw	t2,24(sp)
800307dc:	1c00a88f 	lw	t0,28(sp)
800307e0:	2000a98f 	lw	t1,32(sp)
800307e4:	00800334 	li	v1,0x8000
800307e8:	0000b0af 	sw	s0,0(sp)
800307ec:	2400b08f 	lw	s0,36(sp)
800307f0:	2c00ae8f 	lw	t6,44(sp)
800307f4:	3000af8f 	lw	t7,48(sp)
800307f8:	3400ac8f 	lw	t4,52(sp)
800307fc:	3800ad8f 	lw	t5,56(sp)
80030800:	21c84300 	addu	t9,v0,v1
80030804:	0400b1af 	sw	s1,4(sp)
80030808:	0403238f 	lw	v1,772(t9)
8003080c:	3c00ab8f 	lw	t3,60(sp)
80030810:	2800b193 	lbu	s1,40(sp)
80030814:	0800788c 	lw	t8,8(v1)
80030818:	21484901 	addu	t1,t2,t1
8003081c:	28000227 	addiu	v0,t8,40
80030820:	080062ac 	sw	v0,8(v1)
80030824:	0d0008a3 	sb	t0,13(t8)
80030828:	150008a3 	sb	t0,21(t8)
8003082c:	21401001 	addu	t0,t0,s0
80030830:	09000224 	li	v0,9
80030834:	04000ca3 	sb	t4,4(t8)
80030838:	05000da3 	sb	t5,5(t8)
8003083c:	06000ba3 	sb	t3,6(t8)
80030840:	16000ea7 	sh	t6,22(t8)
80030844:	0e000fa7 	sh	t7,14(t8)
80030848:	0c000aa3 	sb	t2,12(t8)
8003084c:	140009a3 	sb	t1,20(t8)
80030850:	1c000aa3 	sb	t2,28(t8)
80030854:	1d0008a3 	sb	t0,29(t8)
80030858:	240009a3 	sb	t1,36(t8)
8003085c:	250008a3 	sb	t0,37(t8)
80030860:	180004a7 	sh	a0,24(t8)
80030864:	080004a7 	sh	a0,8(t8)
80030868:	200006a7 	sh	a2,32(t8)
8003086c:	100006a7 	sh	a2,16(t8)
80030870:	120005a7 	sh	a1,18(t8)
80030874:	0a0005a7 	sh	a1,10(t8)
80030878:	220007a7 	sh	a3,34(t8)
8003087c:	1a0007a7 	sh	a3,26(t8)
80030880:	030002a3 	sb	v0,3(t8)
80030884:	2c000224 	li	v0,44
80030888:	070002a3 	sb	v0,7(t8)
8003088c:	ff000224 	li	v0,255
80030890:	02002212 	beq	s1,v0,0x8003089c
80030894:	2e000224 	li	v0,46
80030898:	070002a3 	sb	v0,7(t8)
8003089c:	ff00043c 	lui	a0,0xff
800308a0:	ffff8434 	ori	a0,a0,0xffff
800308a4:	00ff053c 	lui	a1,0xff00
800308a8:	e400228f 	lw	v0,228(t9)
800308ac:	0000038f 	lw	v1,0(t8)
800308b0:	0000428c 	lw	v0,0(v0)
800308b4:	24186500 	and	v1,v1,a1
800308b8:	24104400 	and	v0,v0,a0
800308bc:	25186200 	or	v1,v1,v0
800308c0:	000003af 	sw	v1,0(t8)
800308c4:	e400238f 	lw	v1,228(t9)
800308c8:	00000000 	nop
800308cc:	0000628c 	lw	v0,0(v1)
800308d0:	24200403 	and	a0,t8,a0
800308d4:	24104500 	and	v0,v0,a1
800308d8:	25104400 	or	v0,v0,a0
800308dc:	000062ac 	sw	v0,0(v1)
800308e0:	0400b18f 	lw	s1,4(sp)
800308e4:	0000b08f 	lw	s0,0(sp)
800308e8:	0800bd27 	addiu	sp,sp,8
800308ec:	0800e003 	jr	ra
800308f0:	00000000 	nop
800308f4:	a8ffbd27 	addiu	sp,sp,-88
800308f8:	0180023c 	lui	v0,0x8001
800308fc:	5400bfaf 	sw	ra,84(sp)
80030900:	5000b0af 	sw	s0,80(sp)
80030904:	00104624 	addiu	a2,v0,4096
80030908:	0000c38c 	lw	v1,0(a2)
8003090c:	0400c48c 	lw	a0,4(a2)
80030910:	0800c58c 	lw	a1,8(a2)
80030914:	1000a3af 	sw	v1,16(sp)
80030918:	1400a4af 	sw	a0,20(sp)
8003091c:	1800a5af 	sw	a1,24(sp)
80030920:	0c00c384 	lh	v1,12(a2)
80030924:	00000000 	nop
80030928:	1c00a3a7 	sh	v1,28(sp)
8003092c:	0980103c 	lui	s0,0x8009
80030930:	6c8c0426 	addiu	a0,s0,-29588
80030934:	89aa010c 	jal	0x8006aa24
80030938:	1000a527 	addiu	a1,sp,16
8003093c:	fdff4010 	beqz	v0,0x80030934
80030940:	6c8c0426 	addiu	a0,s0,-29588
80030944:	5400bf8f 	lw	ra,84(sp)
80030948:	5000b08f 	lw	s0,80(sp)
8003094c:	5800bd27 	addiu	sp,sp,88
80030950:	0800e003 	jr	ra
80030954:	00000000 	nop
80030958:	80ffbd27 	addiu	sp,sp,-128
8003095c:	6400b1af 	sw	s1,100(sp)
80030960:	0100113c 	lui	s1,0x1
80030964:	00803136 	ori	s1,s1,0x8000
80030968:	0880023c 	lui	v0,0x8008
8003096c:	7800bfaf 	sw	ra,120(sp)
80030970:	7400b5af 	sw	s5,116(sp)
80030974:	7000b4af 	sw	s4,112(sp)
80030978:	6c00b3af 	sw	s3,108(sp)
8003097c:	6800b2af 	sw	s2,104(sp)
80030980:	6000b0af 	sw	s0,96(sp)
80030984:	f47e4624 	addiu	a2,v0,32500
80030988:	0300c388 	lwl	v1,3(a2)
8003098c:	0000c398 	lwr	v1,0(a2)
80030990:	0700c488 	lwl	a0,7(a2)
80030994:	0400c498 	lwr	a0,4(a2)
80030998:	4b00a3ab 	swl	v1,75(sp)
8003099c:	4800a3bb 	swr	v1,72(sp)
800309a0:	4f00a4ab 	swl	a0,79(sp)
800309a4:	4c00a4bb 	swr	a0,76(sp)
800309a8:	ff00123c 	lui	s2,0xff
800309ac:	ffff5236 	ori	s2,s2,0xffff
800309b0:	21a00000 	move	s4,zero
800309b4:	1680023c 	lui	v0,0x8016
800309b8:	90d04224 	addiu	v0,v0,-12144
800309bc:	21984000 	move	s3,v0
800309c0:	21887102 	addu	s1,s3,s1
800309c4:	180060a2 	sb	zero,24(s3)
800309c8:	740060a2 	sb	zero,116(s3)
800309cc:	c26c2392 	lbu	v1,27842(s1)
800309d0:	01000224 	li	v0,1
800309d4:	c46c22a2 	sb	v0,27844(s1)
800309d8:	730062a2 	sb	v0,115(s3)
800309dc:	170062a2 	sb	v0,23(s3)
800309e0:	740060a2 	sb	zero,116(s3)
800309e4:	180060a2 	sb	zero,24(s3)
800309e8:	40200300 	sll	a0,v1,0x1
800309ec:	21208300 	addu	a0,a0,v1
800309f0:	c0200400 	sll	a0,a0,0x3
800309f4:	23208300 	subu	a0,a0,v1
800309f8:	80200400 	sll	a0,a0,0x2
800309fc:	31e8010c 	jal	0x8007a0c4
80030a00:	21209300 	addu	a0,a0,s3
80030a04:	c26c2292 	lbu	v0,27842(s1)
80030a08:	01001024 	li	s0,1
80030a0c:	23100202 	subu	v0,s0,v0
80030a10:	40200200 	sll	a0,v0,0x1
80030a14:	21208200 	addu	a0,a0,v0
80030a18:	c0200400 	sll	a0,a0,0x3
80030a1c:	23208200 	subu	a0,a0,v0
80030a20:	80200400 	sll	a0,a0,0x2
80030a24:	31e8010c 	jal	0x8007a0c4
80030a28:	21209300 	addu	a0,a0,s3
80030a2c:	5000a427 	addiu	a0,sp,80
80030a30:	d3e7010c 	jal	0x80079f4c
80030a34:	21280002 	move	a1,s0
80030a38:	21208002 	move	a0,s4
80030a3c:	02000524 	li	a1,2
80030a40:	2a000224 	li	v0,42
80030a44:	2700a2a3 	sb	v0,39(sp)
80030a48:	0005023c 	lui	v0,0x500
80030a4c:	5000a68f 	lw	a2,80(sp)
80030a50:	21388000 	move	a3,a0
80030a54:	2800a0a7 	sh	zero,40(sp)
80030a58:	2a00a0a7 	sh	zero,42(sp)
80030a5c:	c26c2392 	lbu	v1,27842(s1)
80030a60:	2430d200 	and	a2,a2,s2
80030a64:	2530c200 	or	a2,a2,v0
80030a68:	23180302 	subu	v1,s0,v1
80030a6c:	40100300 	sll	v0,v1,0x1
80030a70:	21104300 	addu	v0,v0,v1
80030a74:	c0100200 	sll	v0,v0,0x3
80030a78:	23104300 	subu	v0,v0,v1
80030a7c:	80100200 	sll	v0,v0,0x2
80030a80:	21105300 	addu	v0,v0,s3
80030a84:	2000a6af 	sw	a2,32(sp)
80030a88:	04004294 	lhu	v0,4(v0)
80030a8c:	c26c2392 	lbu	v1,27842(s1)
80030a90:	80020624 	li	a2,640
80030a94:	2e00a0a7 	sh	zero,46(sp)
80030a98:	3000a0a7 	sh	zero,48(sp)
80030a9c:	23180302 	subu	v1,s0,v1
80030aa0:	2c00a2a7 	sh	v0,44(sp)
80030aa4:	40100300 	sll	v0,v1,0x1
80030aa8:	21104300 	addu	v0,v0,v1
80030aac:	c0100200 	sll	v0,v0,0x3
80030ab0:	23104300 	subu	v0,v0,v1
80030ab4:	80100200 	sll	v0,v0,0x2
80030ab8:	21105300 	addu	v0,v0,s3
80030abc:	c26c2392 	lbu	v1,27842(s1)
80030ac0:	06004294 	lhu	v0,6(v0)
80030ac4:	23180302 	subu	v1,s0,v1
80030ac8:	3200a2a7 	sh	v0,50(sp)
80030acc:	40100300 	sll	v0,v1,0x1
80030ad0:	21104300 	addu	v0,v0,v1
80030ad4:	c0100200 	sll	v0,v0,0x3
80030ad8:	23104300 	subu	v0,v0,v1
80030adc:	80100200 	sll	v0,v0,0x2
80030ae0:	21105300 	addu	v0,v0,s3
80030ae4:	2000a327 	addiu	v1,sp,32
80030ae8:	04004294 	lhu	v0,4(v0)
80030aec:	c26c2892 	lbu	t0,27842(s1)
80030af0:	24187200 	and	v1,v1,s2
80030af4:	5000a3af 	sw	v1,80(sp)
80030af8:	23800802 	subu	s0,s0,t0
80030afc:	3400a2a7 	sh	v0,52(sp)
80030b00:	40101000 	sll	v0,s0,0x1
80030b04:	21105000 	addu	v0,v0,s0
80030b08:	c0100200 	sll	v0,v0,0x3
80030b0c:	23105000 	subu	v0,v0,s0
80030b10:	80100200 	sll	v0,v0,0x2
80030b14:	21105300 	addu	v0,v0,s3
80030b18:	06004394 	lhu	v1,6(v0)
80030b1c:	08000224 	li	v0,8
80030b20:	2600a2a3 	sb	v0,38(sp)
80030b24:	2500a2a3 	sb	v0,37(sp)
80030b28:	2400a2a3 	sb	v0,36(sp)
80030b2c:	c1f1010c 	jal	0x8007c704
80030b30:	3600a3a7 	sh	v1,54(sp)
80030b34:	3800b027 	addiu	s0,sp,56
80030b38:	21200002 	move	a0,s0
80030b3c:	21288002 	move	a1,s4
80030b40:	2130a000 	move	a2,a1
80030b44:	ffff4730 	andi	a3,v0,0xffff
80030b48:	4dea010c 	jal	0x8007a934
80030b4c:	1000a0af 	sw	zero,16(sp)
80030b50:	0980023c 	lui	v0,0x8009
80030b54:	6c8c5124 	addiu	s1,v0,-29588
80030b58:	94f53526 	addiu	s5,s1,-2668
80030b5c:	00ff053c 	lui	a1,0xff00
80030b60:	24801202 	and	s0,s0,s2
80030b64:	3800a48f 	lw	a0,56(sp)
80030b68:	5000a38f 	lw	v1,80(sp)
80030b6c:	24208500 	and	a0,a0,a1
80030b70:	24107200 	and	v0,v1,s2
80030b74:	25208200 	or	a0,a0,v0
80030b78:	24186500 	and	v1,v1,a1
80030b7c:	25187000 	or	v1,v1,s0
80030b80:	3800a4af 	sw	a0,56(sp)
80030b84:	5000a3af 	sw	v1,80(sp)
80030b88:	02000424 	li	a0,2
80030b8c:	21282002 	move	a1,s1
80030b90:	38a3010c 	jal	0x80068ce0
80030b94:	21300000 	move	a2,zero
80030b98:	80000624 	li	a2,128
80030b9c:	700aa48e 	lw	a0,2672(s5)
80030ba0:	e000658e 	lw	a1,224(s3)
80030ba4:	ff078424 	addiu	a0,a0,2047
80030ba8:	51ae010c 	jal	0x8006b944
80030bac:	c2220400 	srl	a0,a0,0xb
80030bb0:	01000424 	li	a0,1
80030bb4:	91ae010c 	jal	0x8006ba44
80030bb8:	1800a527 	addiu	a1,sp,24
80030bbc:	07004018 	blez	v0,0x80030bdc
80030bc0:	00000000 	nop
80030bc4:	41dc010c 	jal	0x80077104
80030bc8:	21200000 	move	a0,zero
80030bcc:	15e8010c 	jal	0x8007a054
80030bd0:	5000a427 	addiu	a0,sp,80
80030bd4:	ed840008 	j	0x800213b4
80030bd8:	01000424 	li	a0,1
80030bdc:	05004010 	beqz	v0,0x80030bf4
80030be0:	4800a427 	addiu	a0,sp,72
80030be4:	01009426 	addiu	s4,s4,1
80030be8:	3200822a 	slti	v0,s4,50
80030bec:	e6ff4014 	bnez	v0,0x80030b88
80030bf0:	00000000 	nop
80030bf4:	21280000 	move	a1,zero
80030bf8:	2130a000 	move	a2,a1
80030bfc:	f9e6010c 	jal	0x80079be4
80030c00:	2138a000 	move	a3,a1
80030c04:	98e6010c 	jal	0x80079a60
80030c08:	21200000 	move	a0,zero
80030c0c:	ea5c000c 	jal	0x800173a8
80030c10:	00000000 	nop
80030c14:	1680023c 	lui	v0,0x8016
80030c18:	70d1448c 	lw	a0,-11920(v0)
80030c1c:	0980023c 	lui	v0,0x8009
80030c20:	708c458c 	lw	a1,-29584(v0)
80030c24:	bfc7000c 	jal	0x80031efc
80030c28:	00000000 	nop
80030c2c:	0880023c 	lui	v0,0x8008
80030c30:	fc7e4624 	addiu	a2,v0,32508
80030c34:	0300c388 	lwl	v1,3(a2)
80030c38:	0000c398 	lwr	v1,0(a2)
80030c3c:	0700c488 	lwl	a0,7(a2)
80030c40:	0400c498 	lwr	a0,4(a2)
80030c44:	5b00a3ab 	swl	v1,91(sp)
80030c48:	5800a3bb 	swr	v1,88(sp)
80030c4c:	5f00a4ab 	swl	a0,95(sp)
80030c50:	5c00a4bb 	swr	a0,92(sp)
80030c54:	41dc010c 	jal	0x80077104
80030c58:	21200000 	move	a0,zero
80030c5c:	5800a427 	addiu	a0,sp,88
80030c60:	21280000 	move	a1,zero
80030c64:	73e7010c 	jal	0x80079dcc
80030c68:	2130a000 	move	a2,a1
80030c6c:	98e6010c 	jal	0x80079a60
80030c70:	21200000 	move	a0,zero
80030c74:	72e6010c 	jal	0x800799c8
80030c78:	01000424 	li	a0,1
80030c7c:	7800bf8f 	lw	ra,120(sp)
80030c80:	7400b58f 	lw	s5,116(sp)
80030c84:	7000b48f 	lw	s4,112(sp)
80030c88:	6c00b38f 	lw	s3,108(sp)
80030c8c:	6800b28f 	lw	s2,104(sp)
80030c90:	6400b18f 	lw	s1,100(sp)
80030c94:	6000b08f 	lw	s0,96(sp)
80030c98:	8000bd27 	addiu	sp,sp,128
80030c9c:	0800e003 	jr	ra
80030ca0:	00000000 	nop
80030ca4:	0100023c 	lui	v0,0x1
80030ca8:	00804234 	ori	v0,v0,0x8000
80030cac:	1680033c 	lui	v1,0x8016
80030cb0:	90d06324 	addiu	v1,v1,-12144
80030cb4:	01000424 	li	a0,1
80030cb8:	180064a0 	sb	a0,24(v1)
80030cbc:	740064a0 	sb	a0,116(v1)
80030cc0:	21186200 	addu	v1,v1,v0
80030cc4:	0800e003 	jr	ra
80030cc8:	c46c60a0 	sb	zero,27844(v1)
80030ccc:	e8ffbd27 	addiu	sp,sp,-24
80030cd0:	0100023c 	lui	v0,0x1
80030cd4:	00804234 	ori	v0,v0,0x8000
80030cd8:	1680033c 	lui	v1,0x8016
80030cdc:	90d06324 	addiu	v1,v1,-12144
80030ce0:	21186200 	addu	v1,v1,v0
80030ce4:	1000bfaf 	sw	ra,16(sp)
80030ce8:	c46c6290 	lbu	v0,27844(v1)
80030cec:	00000000 	nop
80030cf0:	05004010 	beqz	v0,0x80030d08
80030cf4:	00000000 	nop
80030cf8:	315d000c 	jal	0x800174c4
80030cfc:	00000000 	nop
80030d00:	a05d000c 	jal	0x80017680
80030d04:	00000000 	nop
80030d08:	1000bf8f 	lw	ra,16(sp)
80030d0c:	1800bd27 	addiu	sp,sp,24
80030d10:	0800e003 	jr	ra
80030d14:	00000000 	nop
80030d18:	e0ffbd27 	addiu	sp,sp,-32
80030d1c:	21c88000 	move	t9,a0
80030d20:	1680023c 	lui	v0,0x8016
80030d24:	90d04224 	addiu	v0,v0,-12144
80030d28:	00800334 	li	v1,0x8000
80030d2c:	1400b1af 	sw	s1,20(sp)
80030d30:	21884300 	addu	s1,v0,v1
80030d34:	1c00bfaf 	sw	ra,28(sp)
80030d38:	1800b2af 	sw	s2,24(sp)
80030d3c:	1000b0af 	sw	s0,16(sp)
80030d40:	0403238e 	lw	v1,772(s1)
80030d44:	3000a88f 	lw	t0,48(sp)
80030d48:	3400a98f 	lw	t1,52(sp)
80030d4c:	3800af8f 	lw	t7,56(sp)
80030d50:	3c00b88f 	lw	t8,60(sp)
80030d54:	4400ad8f 	lw	t5,68(sp)
80030d58:	4800ae8f 	lw	t6,72(sp)
80030d5c:	4c00aa8f 	lw	t2,76(sp)
80030d60:	5000ab8f 	lw	t3,80(sp)
80030d64:	5400ac8f 	lw	t4,84(sp)
80030d68:	4000b293 	lbu	s2,64(sp)
80030d6c:	0800708c 	lw	s0,8(v1)
80030d70:	0400628c 	lw	v0,4(v1)
80030d74:	28000426 	addiu	a0,s0,40
80030d78:	2b104400 	sltu	v0,v0,a0
80030d7c:	2e004014 	bnez	v0,0x80030e38
80030d80:	00000000 	nop
80030d84:	080064ac 	sw	a0,8(v1)
80030d88:	21200002 	move	a0,s0
80030d8c:	2803228e 	lw	v0,808(s1)
80030d90:	21180f01 	addu	v1,t0,t7
80030d94:	01004224 	addiu	v0,v0,1
80030d98:	280322ae 	sw	v0,808(s1)
80030d9c:	21103801 	addu	v0,t1,t8
80030da0:	04000aa2 	sb	t2,4(s0)
80030da4:	05000ba2 	sb	t3,5(s0)
80030da8:	06000ca2 	sb	t4,6(s0)
80030dac:	16000da6 	sh	t5,22(s0)
80030db0:	0e000ea6 	sh	t6,14(s0)
80030db4:	0c0008a2 	sb	t0,12(s0)
80030db8:	0d0009a2 	sb	t1,13(s0)
80030dbc:	140003a2 	sb	v1,20(s0)
80030dc0:	150009a2 	sb	t1,21(s0)
80030dc4:	1c0008a2 	sb	t0,28(s0)
80030dc8:	1d0002a2 	sb	v0,29(s0)
80030dcc:	240003a2 	sb	v1,36(s0)
80030dd0:	250002a2 	sb	v0,37(s0)
80030dd4:	180019a6 	sh	t9,24(s0)
80030dd8:	080019a6 	sh	t9,8(s0)
80030ddc:	200006a6 	sh	a2,32(s0)
80030de0:	100006a6 	sh	a2,16(s0)
80030de4:	120005a6 	sh	a1,18(s0)
80030de8:	0a0005a6 	sh	a1,10(s0)
80030dec:	220007a6 	sh	a3,34(s0)
80030df0:	05f2010c 	jal	0x8007c814
80030df4:	1a0007a6 	sh	a3,26(s0)
80030df8:	ff000224 	li	v0,255
80030dfc:	05004212 	beq	s2,v0,0x80030e14
80030e00:	21280002 	move	a1,s0
80030e04:	21200002 	move	a0,s0
80030e08:	f9f1010c 	jal	0x8007c7e4
80030e0c:	01000524 	li	a1,1
80030e10:	21280002 	move	a1,s0
80030e14:	5800a48f 	lw	a0,88(sp)
80030e18:	e400228e 	lw	v0,228(s1)
80030e1c:	80200400 	sll	a0,a0,0x2
80030e20:	d9f1010c 	jal	0x8007c764
80030e24:	21204400 	addu	a0,v0,a0
80030e28:	2403228e 	lw	v0,804(s1)
80030e2c:	00000000 	nop
80030e30:	01004224 	addiu	v0,v0,1
80030e34:	240322ae 	sw	v0,804(s1)
80030e38:	1c00bf8f 	lw	ra,28(sp)
80030e3c:	1800b28f 	lw	s2,24(sp)
80030e40:	1400b18f 	lw	s1,20(sp)
80030e44:	1000b08f 	lw	s0,16(sp)
80030e48:	2000bd27 	addiu	sp,sp,32
80030e4c:	0800e003 	jr	ra
80030e50:	00000000 	nop
80030e54:	b0ffbd27 	addiu	sp,sp,-80
80030e58:	0980023c 	lui	v0,0x8009
80030e5c:	4800b2af 	sw	s2,72(sp)
80030e60:	00825224 	addiu	s2,v0,-32256
80030e64:	1b80023c 	lui	v0,0x801b
80030e68:	4000b0af 	sw	s0,64(sp)
80030e6c:	20595024 	addiu	s0,v0,22816
80030e70:	4c00bfaf 	sw	ra,76(sp)
80030e74:	4400b1af 	sw	s1,68(sp)
80030e78:	0400458e 	lw	a1,4(s2)
80030e7c:	1800038e 	lw	v1,24(s0)
80030e80:	20594684 	lh	a2,22816(v0)
80030e84:	00000000 	nop
80030e88:	0400c014 	bnez	a2,0x80030e9c
80030e8c:	2320a300 	subu	a0,a1,v1
80030e90:	ffff0224 	li	v0,-1
80030e94:	5a006210 	beq	v1,v0,0x80031000
80030e98:	00000000 	nop
80030e9c:	02000296 	lhu	v0,2(s0)
80030ea0:	00000000 	nop
80030ea4:	00140200 	sll	v0,v0,0x10
80030ea8:	03140200 	sra	v0,v0,0x10
80030eac:	02004228 	slti	v0,v0,2
80030eb0:	03004010 	beqz	v0,0x80030ec0
80030eb4:	78008228 	slti	v0,a0,120
80030eb8:	00860008 	j	0x80021800
80030ebc:	180005ae 	sw	a1,24(s0)
80030ec0:	12004010 	beqz	v0,0x80030f0c
80030ec4:	40180400 	sll	v1,a0,0x1
80030ec8:	21200000 	move	a0,zero
80030ecc:	21288000 	move	a1,a0
80030ed0:	40010624 	li	a2,320
80030ed4:	f0000724 	li	a3,240
80030ed8:	e0000224 	li	v0,224
80030edc:	1400a2af 	sw	v0,20(sp)
80030ee0:	0f000224 	li	v0,15
80030ee4:	1800a2af 	sw	v0,24(sp)
80030ee8:	1c00a2af 	sw	v0,28(sp)
80030eec:	01000224 	li	v0,1
80030ef0:	2000a2af 	sw	v0,32(sp)
80030ef4:	5e000224 	li	v0,94
80030ef8:	2400a2af 	sw	v0,36(sp)
80030efc:	237c0224 	li	v0,31779
80030f00:	ff006330 	andi	v1,v1,0xff
80030f04:	f6850008 	j	0x800217d8
80030f08:	1000a0af 	sw	zero,16(sp)
80030f0c:	f0009128 	slti	s1,a0,240
80030f10:	03002016 	bnez	s1,0x80030f20
80030f14:	88ff8324 	addiu	v1,a0,-120
80030f18:	1c00c010 	beqz	a2,0x80030f8c
80030f1c:	68018228 	slti	v0,a0,360
80030f20:	40180300 	sll	v1,v1,0x1
80030f24:	20000424 	li	a0,32
80030f28:	21280000 	move	a1,zero
80030f2c:	20010624 	li	a2,288
80030f30:	00010724 	li	a3,256
80030f34:	ff000224 	li	v0,255
80030f38:	1800a2af 	sw	v0,24(sp)
80030f3c:	1c00a2af 	sw	v0,28(sp)
80030f40:	01000224 	li	v0,1
80030f44:	2000a2af 	sw	v0,32(sp)
80030f48:	3f000224 	li	v0,63
80030f4c:	2400a2af 	sw	v0,36(sp)
80030f50:	e37b0224 	li	v0,31715
80030f54:	ff006330 	andi	v1,v1,0xff
80030f58:	1000a0af 	sw	zero,16(sp)
80030f5c:	1400a0af 	sw	zero,20(sp)
80030f60:	2800a2af 	sw	v0,40(sp)
80030f64:	2c00a3af 	sw	v1,44(sp)
80030f68:	3000a3af 	sw	v1,48(sp)
80030f6c:	3400a3af 	sw	v1,52(sp)
80030f70:	4685000c 	jal	0x80021518
80030f74:	3800a0af 	sw	zero,56(sp)
80030f78:	21002016 	bnez	s1,0x80031000
80030f7c:	00000000 	nop
80030f80:	0400428e 	lw	v0,4(s2)
80030f84:	ff850008 	j	0x800217fc
80030f88:	10ff4224 	addiu	v0,v0,-240
80030f8c:	1a004010 	beqz	v0,0x80030ff8
80030f90:	68010324 	li	v1,360
80030f94:	23186400 	subu	v1,v1,a0
80030f98:	40180300 	sll	v1,v1,0x1
80030f9c:	20000424 	li	a0,32
80030fa0:	21280000 	move	a1,zero
80030fa4:	20010624 	li	a2,288
80030fa8:	00010724 	li	a3,256
80030fac:	ff000224 	li	v0,255
80030fb0:	1800a2af 	sw	v0,24(sp)
80030fb4:	1c00a2af 	sw	v0,28(sp)
80030fb8:	01000224 	li	v0,1
80030fbc:	2000a2af 	sw	v0,32(sp)
80030fc0:	3f000224 	li	v0,63
80030fc4:	2400a2af 	sw	v0,36(sp)
80030fc8:	e37b0224 	li	v0,31715
80030fcc:	ff006330 	andi	v1,v1,0xff
80030fd0:	1000a0af 	sw	zero,16(sp)
80030fd4:	1400a0af 	sw	zero,20(sp)
80030fd8:	2800a2af 	sw	v0,40(sp)
80030fdc:	2c00a3af 	sw	v1,44(sp)
80030fe0:	3000a3af 	sw	v1,48(sp)
80030fe4:	3400a3af 	sw	v1,52(sp)
80030fe8:	4685000c 	jal	0x80021518
80030fec:	3800a0af 	sw	zero,56(sp)
80030ff0:	00860008 	j	0x80021800
80030ff4:	00000000 	nop
80030ff8:	ffff0224 	li	v0,-1
80030ffc:	180002ae 	sw	v0,24(s0)
80031000:	4c00bf8f 	lw	ra,76(sp)
80031004:	4800b28f 	lw	s2,72(sp)
80031008:	4400b18f 	lw	s1,68(sp)
8003100c:	4000b08f 	lw	s0,64(sp)
80031010:	5000bd27 	addiu	sp,sp,80
80031014:	0800e003 	jr	ra
80031018:	00000000 	nop
8003101c:	b8ffbd27 	addiu	sp,sp,-72
80031020:	0100023c 	lui	v0,0x1
80031024:	00804234 	ori	v0,v0,0x8000
80031028:	1680033c 	lui	v1,0x8016
8003102c:	90d06324 	addiu	v1,v1,-12144
80031030:	4000b0af 	sw	s0,64(sp)
80031034:	21806200 	addu	s0,v1,v0
80031038:	4400bfaf 	sw	ra,68(sp)
8003103c:	d66c0292 	lbu	v0,27862(s0)
80031040:	00000000 	nop
80031044:	1f004010 	beqz	v0,0x800310c4
80031048:	e0000224 	li	v0,224
8003104c:	1400a2af 	sw	v0,20(sp)
80031050:	0f000224 	li	v0,15
80031054:	1800a2af 	sw	v0,24(sp)
80031058:	1c00a2af 	sw	v0,28(sp)
8003105c:	01000224 	li	v0,1
80031060:	237c0324 	li	v1,31779
80031064:	40010624 	li	a2,320
80031068:	1000a0af 	sw	zero,16(sp)
8003106c:	2000a2af 	sw	v0,32(sp)
80031070:	d86c0292 	lbu	v0,27864(s0)
80031074:	f0000724 	li	a3,240
80031078:	2800a3af 	sw	v1,40(sp)
8003107c:	3800a0af 	sw	zero,56(sp)
80031080:	da6c0392 	lbu	v1,27866(s0)
80031084:	de6c0492 	lbu	a0,27870(s0)
80031088:	e26c0592 	lbu	a1,27874(s0)
8003108c:	03004230 	andi	v0,v0,0x3
80031090:	40110200 	sll	v0,v0,0x5
80031094:	1e004234 	ori	v0,v0,0x1e
80031098:	3000a4af 	sw	a0,48(sp)
8003109c:	21200000 	move	a0,zero
800310a0:	3400a5af 	sw	a1,52(sp)
800310a4:	21288000 	move	a1,a0
800310a8:	2400a2af 	sw	v0,36(sp)
800310ac:	4685000c 	jal	0x80021518
800310b0:	2c00a3af 	sw	v1,44(sp)
800310b4:	e26c00a6 	sh	zero,27874(s0)
800310b8:	de6c00a6 	sh	zero,27870(s0)
800310bc:	da6c00a6 	sh	zero,27866(s0)
800310c0:	d66c00a2 	sb	zero,27862(s0)
800310c4:	4400bf8f 	lw	ra,68(sp)
800310c8:	4000b08f 	lw	s0,64(sp)
800310cc:	4800bd27 	addiu	sp,sp,72
800310d0:	0800e003 	jr	ra
800310d4:	00000000 	nop
800310d8:	b8ffbd27 	addiu	sp,sp,-72
800310dc:	0100023c 	lui	v0,0x1
800310e0:	00804234 	ori	v0,v0,0x8000
800310e4:	1680033c 	lui	v1,0x8016
800310e8:	90d06324 	addiu	v1,v1,-12144
800310ec:	4000b0af 	sw	s0,64(sp)
800310f0:	21806200 	addu	s0,v1,v0
800310f4:	4400bfaf 	sw	ra,68(sp)
800310f8:	d76c0292 	lbu	v0,27863(s0)
800310fc:	00000000 	nop
80031100:	1f004010 	beqz	v0,0x80031180
80031104:	e0000224 	li	v0,224
80031108:	1400a2af 	sw	v0,20(sp)
8003110c:	0f000224 	li	v0,15
80031110:	1800a2af 	sw	v0,24(sp)
80031114:	1c00a2af 	sw	v0,28(sp)
80031118:	01000224 	li	v0,1
8003111c:	237c0324 	li	v1,31779
80031120:	40010624 	li	a2,320
80031124:	1000a0af 	sw	zero,16(sp)
80031128:	2000a2af 	sw	v0,32(sp)
8003112c:	d96c0292 	lbu	v0,27865(s0)
80031130:	f0000724 	li	a3,240
80031134:	2800a3af 	sw	v1,40(sp)
80031138:	3800a0af 	sw	zero,56(sp)
8003113c:	dc6c0392 	lbu	v1,27868(s0)
80031140:	e06c0492 	lbu	a0,27872(s0)
80031144:	e46c0592 	lbu	a1,27876(s0)
80031148:	03004230 	andi	v0,v0,0x3
8003114c:	40110200 	sll	v0,v0,0x5
80031150:	1e004234 	ori	v0,v0,0x1e
80031154:	3000a4af 	sw	a0,48(sp)
80031158:	21200000 	move	a0,zero
8003115c:	3400a5af 	sw	a1,52(sp)
80031160:	21288000 	move	a1,a0
80031164:	2400a2af 	sw	v0,36(sp)
80031168:	4685000c 	jal	0x80021518
8003116c:	2c00a3af 	sw	v1,44(sp)
80031170:	e46c00a6 	sh	zero,27876(s0)
80031174:	e06c00a6 	sh	zero,27872(s0)
80031178:	dc6c00a6 	sh	zero,27868(s0)
8003117c:	d76c00a2 	sb	zero,27863(s0)
80031180:	4400bf8f 	lw	ra,68(sp)
80031184:	4000b08f 	lw	s0,64(sp)
80031188:	4800bd27 	addiu	sp,sp,72
8003118c:	0800e003 	jr	ra
80031190:	00000000 	nop
80031194:	1000a88f 	lw	t0,16(sp)
80031198:	02000224 	li	v0,2
8003119c:	29000211 	beq	t0,v0,0x80031244
800311a0:	03000229 	slti	v0,t0,3
800311a4:	05004010 	beqz	v0,0x800311bc
800311a8:	01000224 	li	v0,1
800311ac:	07000211 	beq	t0,v0,0x800311cc
800311b0:	18008700 	mult	a0,a3
800311b4:	af860008 	j	0x80021abc
800311b8:	00000000 	nop
800311bc:	03000224 	li	v0,3
800311c0:	3e000215 	bne	t0,v0,0x800312bc
800311c4:	00000000 	nop
800311c8:	18008700 	mult	a0,a3
800311cc:	12480000 	mflo	t1
	...
800311d8:	1800a700 	mult	a1,a3
800311dc:	0100023c 	lui	v0,0x1
800311e0:	00804234 	ori	v0,v0,0x8000
800311e4:	1680033c 	lui	v1,0x8016
800311e8:	90d06324 	addiu	v1,v1,-12144
800311ec:	21186200 	addu	v1,v1,v0
800311f0:	d66c6290 	lbu	v0,27862(v1)
800311f4:	12280000 	mflo	a1
800311f8:	d86c68a0 	sb	t0,27864(v1)
800311fc:	00000000 	nop
80031200:	1800c700 	mult	a2,a3
80031204:	01004224 	addiu	v0,v0,1
80031208:	d66c62a0 	sb	v0,27862(v1)
8003120c:	da6c6294 	lhu	v0,27866(v1)
80031210:	03230900 	sra	a0,t1,0xc
80031214:	21104400 	addu	v0,v0,a0
80031218:	da6c62a4 	sh	v0,27866(v1)
8003121c:	de6c6294 	lhu	v0,27870(v1)
80031220:	03230500 	sra	a0,a1,0xc
80031224:	21104400 	addu	v0,v0,a0
80031228:	de6c62a4 	sh	v0,27870(v1)
8003122c:	e26c6294 	lhu	v0,27874(v1)
80031230:	12400000 	mflo	t0
80031234:	03230800 	sra	a0,t0,0xc
80031238:	21104400 	addu	v0,v0,a0
8003123c:	af860008 	j	0x80021abc
80031240:	e26c62a4 	sh	v0,27874(v1)
80031244:	18008700 	mult	a0,a3
80031248:	12480000 	mflo	t1
	...
80031254:	1800a700 	mult	a1,a3
80031258:	0100023c 	lui	v0,0x1
8003125c:	00804234 	ori	v0,v0,0x8000
80031260:	1680033c 	lui	v1,0x8016
80031264:	90d06324 	addiu	v1,v1,-12144
80031268:	21186200 	addu	v1,v1,v0
8003126c:	d76c6290 	lbu	v0,27863(v1)
80031270:	12280000 	mflo	a1
80031274:	d96c68a0 	sb	t0,27865(v1)
80031278:	00000000 	nop
8003127c:	1800c700 	mult	a2,a3
80031280:	01004224 	addiu	v0,v0,1
80031284:	d76c62a0 	sb	v0,27863(v1)
80031288:	dc6c6294 	lhu	v0,27868(v1)
8003128c:	03230900 	sra	a0,t1,0xc
80031290:	21104400 	addu	v0,v0,a0
80031294:	dc6c62a4 	sh	v0,27868(v1)
80031298:	e06c6294 	lhu	v0,27872(v1)
8003129c:	03230500 	sra	a0,a1,0xc
800312a0:	21104400 	addu	v0,v0,a0
800312a4:	e06c62a4 	sh	v0,27872(v1)
800312a8:	e46c6294 	lhu	v0,27876(v1)
800312ac:	12400000 	mflo	t0
800312b0:	03230800 	sra	a0,t0,0xc
800312b4:	21104400 	addu	v0,v0,a0
800312b8:	e46c62a4 	sh	v0,27876(v1)
800312bc:	0800e003 	jr	ra
800312c0:	00000000 	nop
800312c4:	b0ffbd27 	addiu	sp,sp,-80
800312c8:	4400b3af 	sw	s3,68(sp)
800312cc:	21988000 	move	s3,a0
800312d0:	1a80023c 	lui	v0,0x801a
800312d4:	4000b2af 	sw	s2,64(sp)
800312d8:	288f5224 	addiu	s2,v0,-28888
800312dc:	3c00b1af 	sw	s1,60(sp)
800312e0:	ff007132 	andi	s1,s3,0xff
800312e4:	40101100 	sll	v0,s1,0x1
800312e8:	21105200 	addu	v0,v0,s2
800312ec:	4800bfaf 	sw	ra,72(sp)
800312f0:	3800b0af 	sw	s0,56(sp)
800312f4:	30014384 	lh	v1,304(v0)
800312f8:	ffff0224 	li	v0,-1
800312fc:	3c016210 	beq	v1,v0,0x800317f0
80031300:	21200000 	move	a0,zero
80031304:	4a5f000c 	jal	0x80017d28
80031308:	21288000 	move	a1,a0
8003130c:	801f103c 	lui	s0,0x1f80
80031310:	9403028e 	lw	v0,916(s0)
80031314:	00000000 	nop
80031318:	3c004224 	addiu	v0,v0,60
8003131c:	00004c8c 	lw	t4,0(v0)
80031320:	04004d8c 	lw	t5,4(v0)
80031324:	0000cc48 	ctc2	t4,$0
80031328:	0008cd48 	ctc2	t5,$1
8003132c:	08004c8c 	lw	t4,8(v0)
80031330:	0c004d8c 	lw	t5,12(v0)
80031334:	10004e8c 	lw	t6,16(v0)
80031338:	0010cc48 	ctc2	t4,$2
8003133c:	0018cd48 	ctc2	t5,$3
80031340:	0020ce48 	ctc2	t6,$4
80031344:	18800b3c 	lui	t3,0x8018
80031348:	78bd6b25 	addiu	t3,t3,-17032
8003134c:	00006c95 	lhu	t4,0(t3)
80031350:	06006d95 	lhu	t5,6(t3)
80031354:	0c006e95 	lhu	t6,12(t3)
80031358:	00488c48 	mtc2	t4,$9
8003135c:	00508d48 	mtc2	t5,$10
80031360:	00588e48 	mtc2	t6,$11
	...
8003136c:	12e0494a 	c2	0x49e012
80031370:	1000a327 	addiu	v1,sp,16
80031374:	00480c48 	mfc2	t4,$9
80031378:	00500d48 	mfc2	t5,$10
8003137c:	00580e48 	mfc2	t6,$11
80031380:	00006ca4 	sh	t4,0(v1)
80031384:	06006da4 	sh	t5,6(v1)
80031388:	0c006ea4 	sh	t6,12(v1)
8003138c:	18800b3c 	lui	t3,0x8018
80031390:	7abd6b25 	addiu	t3,t3,-17030
80031394:	00006c95 	lhu	t4,0(t3)
80031398:	06006d95 	lhu	t5,6(t3)
8003139c:	0c006e95 	lhu	t6,12(t3)
800313a0:	00488c48 	mtc2	t4,$9
800313a4:	00508d48 	mtc2	t5,$10
800313a8:	00588e48 	mtc2	t6,$11
	...
800313b4:	12e0494a 	c2	0x49e012
800313b8:	1200a227 	addiu	v0,sp,18
800313bc:	00480c48 	mfc2	t4,$9
800313c0:	00500d48 	mfc2	t5,$10
800313c4:	00580e48 	mfc2	t6,$11
800313c8:	00004ca4 	sh	t4,0(v0)
800313cc:	06004da4 	sh	t5,6(v0)
800313d0:	0c004ea4 	sh	t6,12(v0)
800313d4:	18800b3c 	lui	t3,0x8018
800313d8:	7cbd6b25 	addiu	t3,t3,-17028
800313dc:	00006c95 	lhu	t4,0(t3)
800313e0:	06006d95 	lhu	t5,6(t3)
800313e4:	0c006e95 	lhu	t6,12(t3)
800313e8:	00488c48 	mtc2	t4,$9
800313ec:	00508d48 	mtc2	t5,$10
800313f0:	00588e48 	mtc2	t6,$11
	...
800313fc:	12e0494a 	c2	0x49e012
80031400:	1400a227 	addiu	v0,sp,20
80031404:	00480c48 	mfc2	t4,$9
80031408:	00500d48 	mfc2	t5,$10
8003140c:	00580e48 	mfc2	t6,$11
80031410:	00004ca4 	sh	t4,0(v0)
80031414:	06004da4 	sh	t5,6(v0)
80031418:	0c004ea4 	sh	t6,12(v0)
8003141c:	00006c8c 	lw	t4,0(v1)
80031420:	04006d8c 	lw	t5,4(v1)
80031424:	0040cc48 	ctc2	t4,$8
80031428:	0048cd48 	ctc2	t5,$9
8003142c:	08006c8c 	lw	t4,8(v1)
80031430:	0c006d8c 	lw	t5,12(v1)
80031434:	10006e8c 	lw	t6,16(v1)
80031438:	0050cc48 	ctc2	t4,$10
8003143c:	0058cd48 	ctc2	t5,$11
80031440:	0060ce48 	ctc2	t6,$12
80031444:	80101100 	sll	v0,s1,0x2
80031448:	21285200 	addu	a1,v0,s2
8003144c:	e800a28c 	lw	v0,232(a1)
80031450:	00000000 	nop
80031454:	0c004284 	lh	v0,12(v0)
80031458:	00000000 	nop
8003145c:	bc0002ae 	sw	v0,188(s0)
80031460:	e800a28c 	lw	v0,232(a1)
80031464:	00000000 	nop
80031468:	0e004284 	lh	v0,14(v0)
8003146c:	00000000 	nop
80031470:	c00002ae 	sw	v0,192(s0)
80031474:	e800a28c 	lw	v0,232(a1)
80031478:	00000000 	nop
8003147c:	10004284 	lh	v0,16(v0)
80031480:	00000000 	nop
80031484:	c40002ae 	sw	v0,196(s0)
80031488:	58004396 	lhu	v1,88(s2)
8003148c:	ffff0234 	li	v0,0xffff
80031490:	17006210 	beq	v1,v0,0x800314f0
80031494:	1a80023c 	lui	v0,0x801a
80031498:	15002012 	beqz	s1,0x800314f0
8003149c:	3000a427 	addiu	a0,sp,48
800314a0:	e800a28c 	lw	v0,232(a1)
800314a4:	de024396 	lhu	v1,734(s2)
800314a8:	14004294 	lhu	v0,20(v0)
800314ac:	00000000 	nop
800314b0:	21104300 	addu	v0,v0,v1
800314b4:	3000a2a7 	sh	v0,48(sp)
800314b8:	e800a28c 	lw	v0,232(a1)
800314bc:	e0024396 	lhu	v1,736(s2)
800314c0:	16004294 	lhu	v0,22(v0)
800314c4:	00000000 	nop
800314c8:	21104300 	addu	v0,v0,v1
800314cc:	3200a2a7 	sh	v0,50(sp)
800314d0:	e800a28c 	lw	v0,232(a1)
800314d4:	21280002 	move	a1,s0
800314d8:	e2024396 	lhu	v1,738(s2)
800314dc:	18004294 	lhu	v0,24(v0)
800314e0:	a800a534 	ori	a1,a1,0xa8
800314e4:	21104300 	addu	v0,v0,v1
800314e8:	43870008 	j	0x80021d0c
800314ec:	3400a2a7 	sh	v0,52(sp)
800314f0:	288f4224 	addiu	v0,v0,-28888
800314f4:	ff006332 	andi	v1,s3,0xff
800314f8:	80180300 	sll	v1,v1,0x2
800314fc:	21186200 	addu	v1,v1,v0
80031500:	e800648c 	lw	a0,232(v1)
80031504:	a8000536 	ori	a1,s0,0xa8
80031508:	14008424 	addiu	a0,a0,20
8003150c:	b1d3010c 	jal	0x80074ec4
80031510:	00000000 	nop
80031514:	40000224 	li	v0,64
80031518:	040002ae 	sw	v0,4(s0)
8003151c:	1680023c 	lui	v0,0x8016
80031520:	90d04a24 	addiu	t2,v0,-12144
80031524:	00800334 	li	v1,0x8000
80031528:	21184301 	addu	v1,t2,v1
8003152c:	e802648c 	lw	a0,744(v1)
80031530:	1c03658c 	lw	a1,796(v1)
80031534:	2003668c 	lw	a2,800(v1)
80031538:	2403678c 	lw	a3,804(v1)
8003153c:	2803688c 	lw	t0,808(v1)
80031540:	0403698c 	lw	t1,772(v1)
80031544:	04000224 	li	v0,4
80031548:	800002ae 	sw	v0,128(s0)
8003154c:	880005ae 	sw	a1,136(s0)
80031550:	ff006532 	andi	a1,s3,0xff
80031554:	000004ae 	sw	a0,0(s0)
80031558:	8c0006ae 	sw	a2,140(s0)
8003155c:	900007ae 	sw	a3,144(s0)
80031560:	940008ae 	sw	t0,148(s0)
80031564:	0800228d 	lw	v0,8(t1)
80031568:	80300500 	sll	a2,a1,0x2
8003156c:	100002ae 	sw	v0,16(s0)
80031570:	0403638c 	lw	v1,772(v1)
80031574:	1680023c 	lui	v0,0x8016
80031578:	0400638c 	lw	v1,4(v1)
8003157c:	cc7b4224 	addiu	v0,v0,31692
80031580:	400002ae 	sw	v0,64(s0)
80031584:	1a80023c 	lui	v0,0x801a
80031588:	288f4724 	addiu	a3,v0,-28888
8003158c:	2110c700 	addu	v0,a2,a3
80031590:	980000a6 	sh	zero,152(s0)
80031594:	140003ae 	sw	v1,20(s0)
80031598:	f800428c 	lw	v0,248(v0)
8003159c:	2800838f 	lw	v1,40(gp)
800315a0:	06004294 	lhu	v0,6(v0)
800315a4:	00000000 	nop
800315a8:	69004014 	bnez	v0,0x80031750
800315ac:	600003ae 	sw	v1,96(s0)
800315b0:	a8000226 	addiu	v0,s0,168
800315b4:	00004c8c 	lw	t4,0(v0)
800315b8:	04004d8c 	lw	t5,4(v0)
800315bc:	0000cc48 	ctc2	t4,$0
800315c0:	0008cd48 	ctc2	t5,$1
800315c4:	08004c8c 	lw	t4,8(v0)
800315c8:	0c004d8c 	lw	t5,12(v0)
800315cc:	10004e8c 	lw	t6,16(v0)
800315d0:	0010cc48 	ctc2	t4,$2
800315d4:	0018cd48 	ctc2	t5,$3
800315d8:	0020ce48 	ctc2	t6,$4
800315dc:	14004c8c 	lw	t4,20(v0)
800315e0:	18004d8c 	lw	t5,24(v0)
800315e4:	0028cc48 	ctc2	t4,$5
800315e8:	1c004e8c 	lw	t6,28(v0)
800315ec:	0030cd48 	ctc2	t5,$6
800315f0:	0038ce48 	ctc2	t6,$7
800315f4:	2110ca00 	addu	v0,a2,t2
800315f8:	cc830334 	li	v1,0x83cc
800315fc:	21104300 	addu	v0,v0,v1
80031600:	0000428c 	lw	v0,0(v0)
80031604:	0801e424 	addiu	a0,a3,264
80031608:	0800438c 	lw	v1,8(v0)
8003160c:	2120c400 	addu	a0,a2,a0
80031610:	21104300 	addu	v0,v0,v1
80031614:	0c0002ae 	sw	v0,12(s0)
80031618:	0c004224 	addiu	v0,v0,12
8003161c:	200002ae 	sw	v0,32(s0)
80031620:	2110a700 	addu	v0,a1,a3
80031624:	50014690 	lbu	a2,336(v0)
80031628:	40100500 	sll	v0,a1,0x1
8003162c:	21104700 	addu	v0,v0,a3
80031630:	30014784 	lh	a3,304(v0)
80031634:	81d1000c 	jal	0x80034604
80031638:	2000a524 	addiu	a1,a1,32
8003163c:	59004010 	beqz	v0,0x800317a4
80031640:	1680033c 	lui	v1,0x8016
80031644:	4000078e 	lw	a3,64(s0)
80031648:	2000038e 	lw	v1,32(s0)
8003164c:	8800028e 	lw	v0,136(s0)
80031650:	2000048e 	lw	a0,32(s0)
80031654:	0400638c 	lw	v1,4(v1)
80031658:	4800088e 	lw	t0,72(s0)
8003165c:	21104300 	addu	v0,v0,v1
80031660:	880002ae 	sw	v0,136(s0)
80031664:	0400868c 	lw	a2,4(a0)
80031668:	ffff0224 	li	v0,-1
8003166c:	ffffc624 	addiu	a2,a2,-1
80031670:	3200c210 	beq	a2,v0,0x8003173c
80031674:	e10f0a24 	li	t2,4065
80031678:	21484000 	move	t1,v0
8003167c:	0600e524 	addiu	a1,a3,6
80031680:	000000c9 	lwc2	$0,0(t0)
80031684:	040001c9 	lwc2	$1,4(t0)
	...
80031690:	0100184a 	c2	0x180001
80031694:	0000eee8 	swc2	$14,0(a3)
80031698:	0400e224 	addiu	v0,a3,4
8003169c:	000053e8 	swc2	$19,0(v0)
800316a0:	6400048e 	lw	a0,100(s0)
800316a4:	6800038e 	lw	v1,104(s0)
800316a8:	00000000 	nop
800316ac:	12008310 	beq	a0,v1,0x800316f8
800316b0:	23186400 	subu	v1,v1,a0
800316b4:	feffa284 	lh	v0,-2(a1)
800316b8:	00000000 	nop
800316bc:	23104400 	subu	v0,v0,a0
800316c0:	00130200 	sll	v0,v0,0xc
800316c4:	1a004300 	div	zero,v0,v1
800316c8:	02006014 	bnez	v1,0x800316d4
800316cc:	00000000 	nop
800316d0:	0d000700 	break	0x7
800316d4:	ffff0124 	li	at,-1
800316d8:	04006114 	bne	v1,at,0x800316ec
800316dc:	0080013c 	lui	at,0x8000
800316e0:	02004114 	bne	v0,at,0x800316ec
800316e4:	00000000 	nop
800316e8:	0d000600 	break	0x6
800316ec:	12100000 	mflo	v0
800316f0:	bf870008 	j	0x80021efc
800316f4:	0000a2a4 	sh	v0,0(a1)
800316f8:	0000a0a4 	sh	zero,0(a1)
800316fc:	0000a284 	lh	v0,0(a1)
80031700:	00000000 	nop
80031704:	e20f4228 	slti	v0,v0,4066
80031708:	02004014 	bnez	v0,0x80031714
8003170c:	00000000 	nop
80031710:	0000aaa4 	sh	t2,0(a1)
80031714:	0000a284 	lh	v0,0(a1)
80031718:	00000000 	nop
8003171c:	02004104 	bgez	v0,0x80031728
80031720:	00000000 	nop
80031724:	0000a0a4 	sh	zero,0(a1)
80031728:	0800a524 	addiu	a1,a1,8
8003172c:	0800e724 	addiu	a3,a3,8
80031730:	ffffc624 	addiu	a2,a2,-1
80031734:	d2ffc914 	bne	a2,t1,0x80031680
80031738:	08000825 	addiu	t0,t0,8
8003173c:	21200000 	move	a0,zero
80031740:	7267000c 	jal	0x80019dc8
80031744:	80000524 	li	a1,128
80031748:	e9870008 	j	0x80021fa4
8003174c:	1680033c 	lui	v1,0x8016
80031750:	2110ca00 	addu	v0,a2,t2
80031754:	cc830334 	li	v1,0x83cc
80031758:	21104300 	addu	v0,v0,v1
8003175c:	0000428c 	lw	v0,0(v0)
80031760:	0801e424 	addiu	a0,a3,264
80031764:	0800438c 	lw	v1,8(v0)
80031768:	2120c400 	addu	a0,a2,a0
8003176c:	21104300 	addu	v0,v0,v1
80031770:	0c0002ae 	sw	v0,12(s0)
80031774:	2110a700 	addu	v0,a1,a3
80031778:	50014690 	lbu	a2,336(v0)
8003177c:	40100500 	sll	v0,a1,0x1
80031780:	21104700 	addu	v0,v0,a3
80031784:	30014784 	lh	a3,304(v0)
80031788:	aad6000c 	jal	0x80035aa8
8003178c:	2000a524 	addiu	a1,a1,32
80031790:	03004010 	beqz	v0,0x800317a0
80031794:	80000424 	li	a0,128
80031798:	0488000c 	jal	0x80022010
8003179c:	21280000 	move	a1,zero
800317a0:	1680033c 	lui	v1,0x8016
800317a4:	90d06324 	addiu	v1,v1,-12144
800317a8:	00800234 	li	v0,0x8000
800317ac:	21186200 	addu	v1,v1,v0
800317b0:	0403648c 	lw	a0,772(v1)
800317b4:	1000028e 	lw	v0,16(s0)
800317b8:	00000000 	nop
800317bc:	080082ac 	sw	v0,8(a0)
800317c0:	0403648c 	lw	a0,772(v1)
800317c4:	1400028e 	lw	v0,20(s0)
800317c8:	00000000 	nop
800317cc:	040082ac 	sw	v0,4(a0)
800317d0:	8800028e 	lw	v0,136(s0)
800317d4:	8c00048e 	lw	a0,140(s0)
800317d8:	9400058e 	lw	a1,148(s0)
800317dc:	9000068e 	lw	a2,144(s0)
800317e0:	1c0362ac 	sw	v0,796(v1)
800317e4:	200364ac 	sw	a0,800(v1)
800317e8:	280365ac 	sw	a1,808(v1)
800317ec:	240366ac 	sw	a2,804(v1)
800317f0:	4800bf8f 	lw	ra,72(sp)
800317f4:	4400b38f 	lw	s3,68(sp)
800317f8:	4000b28f 	lw	s2,64(sp)
800317fc:	3c00b18f 	lw	s1,60(sp)
80031800:	3800b08f 	lw	s0,56(sp)
80031804:	5000bd27 	addiu	sp,sp,80
80031808:	0800e003 	jr	ra
8003180c:	00000000 	nop
80031810:	60ffbd27 	addiu	sp,sp,-160
80031814:	8400b3af 	sw	s3,132(sp)
80031818:	801f133c 	lui	s3,0x1f80
8003181c:	9c00bfaf 	sw	ra,156(sp)
80031820:	9800beaf 	sw	s8,152(sp)
80031824:	9400b7af 	sw	s7,148(sp)
80031828:	9000b6af 	sw	s6,144(sp)
8003182c:	8c00b5af 	sw	s5,140(sp)
80031830:	8800b4af 	sw	s4,136(sp)
80031834:	8000b2af 	sw	s2,128(sp)
80031838:	7c00b1af 	sw	s1,124(sp)
8003183c:	7800b0af 	sw	s0,120(sp)
80031840:	a400a5af 	sw	a1,164(sp)
80031844:	a400628e 	lw	v0,164(s3)
80031848:	21a08000 	move	s4,a0
8003184c:	0000478c 	lw	a3,0(v0)
80031850:	0400528c 	lw	s2,4(v0)
80031854:	0180023c 	lui	v0,0x8001
80031858:	10104624 	addiu	a2,v0,4112
8003185c:	0000c38c 	lw	v1,0(a2)
80031860:	0400c48c 	lw	a0,4(a2)
80031864:	0800c58c 	lw	a1,8(a2)
80031868:	3000a3af 	sw	v1,48(sp)
8003186c:	3400a4af 	sw	a0,52(sp)
80031870:	3800a5af 	sw	a1,56(sp)
80031874:	0c00c38c 	lw	v1,12(a2)
80031878:	1000c48c 	lw	a0,16(a2)
8003187c:	1400c58c 	lw	a1,20(a2)
80031880:	3c00a3af 	sw	v1,60(sp)
80031884:	4000a4af 	sw	a0,64(sp)
80031888:	4400a5af 	sw	a1,68(sp)
8003188c:	1800c38c 	lw	v1,24(a2)
80031890:	1c00c48c 	lw	a0,28(a2)
80031894:	4800a3af 	sw	v1,72(sp)
80031898:	4c00a4af 	sw	a0,76(sp)
8003189c:	ffff0224 	li	v0,-1
800318a0:	ffff5226 	addiu	s2,s2,-1
800318a4:	07004212 	beq	s2,v0,0x800318c4
800318a8:	00000000 	nop
800318ac:	21184000 	move	v1,v0
800318b0:	0400e28c 	lw	v0,4(a3)
800318b4:	1000e724 	addiu	a3,a3,16
800318b8:	ffff5226 	addiu	s2,s2,-1
800318bc:	fcff4316 	bne	s2,v1,0x800318b0
800318c0:	000040a4 	sh	zero,0(v0)
800318c4:	a400628e 	lw	v0,164(s3)
800318c8:	00000000 	nop
800318cc:	0400528c 	lw	s2,4(v0)
800318d0:	0000478c 	lw	a3,0(v0)
800318d4:	ffff0224 	li	v0,-1
800318d8:	ffff5226 	addiu	s2,s2,-1
800318dc:	59014212 	beq	s2,v0,0x80031e44
800318e0:	21f04000 	move	s8,v0
800318e4:	5000b527 	addiu	s5,sp,80
800318e8:	1a80023c 	lui	v0,0x801a
800318ec:	288f5724 	addiu	s7,v0,-28888
800318f0:	1780023c 	lui	v0,0x8017
800318f4:	90505624 	addiu	s6,v0,20624
800318f8:	0800f124 	addiu	s1,a3,8
800318fc:	fcff228e 	lw	v0,-4(s1)
80031900:	00000000 	nop
80031904:	000040a4 	sh	zero,0(v0)
80031908:	0400228e 	lw	v0,4(s1)
8003190c:	00000000 	nop
80031910:	48015e10 	beq	v0,s8,0x80031e34
80031914:	ffff0234 	li	v0,0xffff
80031918:	00002396 	lhu	v1,0(s1)
8003191c:	00000000 	nop
80031920:	44016210 	beq	v1,v0,0x80031e34
80031924:	02000224 	li	v0,2
80031928:	02002392 	lbu	v1,2(s1)
8003192c:	00000000 	nop
80031930:	81006214 	bne	v1,v0,0x80031b38
80031934:	0180023c 	lui	v0,0x8001
80031938:	10104624 	addiu	a2,v0,4112
8003193c:	0000c38c 	lw	v1,0(a2)
80031940:	0400c48c 	lw	a0,4(a2)
80031944:	0800c58c 	lw	a1,8(a2)
80031948:	5000a3af 	sw	v1,80(sp)
8003194c:	5400a4af 	sw	a0,84(sp)
80031950:	5800a5af 	sw	a1,88(sp)
80031954:	0c00c38c 	lw	v1,12(a2)
80031958:	1000c48c 	lw	a0,16(a2)
8003195c:	1400c58c 	lw	a1,20(a2)
80031960:	5c00a3af 	sw	v1,92(sp)
80031964:	6000a4af 	sw	a0,96(sp)
80031968:	6400a5af 	sw	a1,100(sp)
8003196c:	1800c38c 	lw	v1,24(a2)
80031970:	1c00c48c 	lw	a0,28(a2)
80031974:	6800a3af 	sw	v1,104(sp)
80031978:	6c00a4af 	sw	a0,108(sp)
8003197c:	6802e296 	lhu	v0,616(s7)
80031980:	2128a002 	move	a1,s5
80031984:	23100200 	negu	v0,v0
80031988:	00240200 	sll	a0,v0,0x10
8003198c:	03240400 	sra	a0,a0,0x10
80031990:	7000a2a7 	sh	v0,112(sp)
80031994:	6a02e296 	lhu	v0,618(s7)
80031998:	6c02e396 	lhu	v1,620(s7)
8003199c:	23100200 	negu	v0,v0
800319a0:	23180300 	negu	v1,v1
800319a4:	7200a2a7 	sh	v0,114(sp)
800319a8:	f9d4010c 	jal	0x800753e4
800319ac:	7400a3a7 	sh	v1,116(sp)
800319b0:	a400ab8f 	lw	t3,164(sp)
800319b4:	7200a287 	lh	v0,114(sp)
800319b8:	02006485 	lh	a0,2(t3)
800319bc:	2128a002 	move	a1,s5
800319c0:	61d5010c 	jal	0x80075584
800319c4:	21204400 	addu	a0,v0,a0
800319c8:	7400a487 	lh	a0,116(sp)
800319cc:	c9d5010c 	jal	0x80075724
800319d0:	2128a002 	move	a1,s5
800319d4:	fcff228e 	lw	v0,-4(s1)
800319d8:	00000000 	nop
800319dc:	4800458c 	lw	a1,72(v0)
800319e0:	00000000 	nop
800319e4:	0200a294 	lhu	v0,2(a1)
800319e8:	00000000 	nop
800319ec:	05004014 	bnez	v0,0x80031a04
800319f0:	00000000 	nop
800319f4:	4400a48c 	lw	a0,68(a1)
800319f8:	0400a524 	addiu	a1,a1,4
800319fc:	b1d3010c 	jal	0x80074ec4
80031a00:	10008424 	addiu	a0,a0,16
80031a04:	fcff228e 	lw	v0,-4(s1)
80031a08:	00000000 	nop
80031a0c:	4800428c 	lw	v0,72(v0)
80031a10:	00000000 	nop
80031a14:	04004224 	addiu	v0,v0,4
80031a18:	00004c8c 	lw	t4,0(v0)
80031a1c:	04004d8c 	lw	t5,4(v0)
80031a20:	0000cc48 	ctc2	t4,$0
80031a24:	0008cd48 	ctc2	t5,$1
80031a28:	08004c8c 	lw	t4,8(v0)
80031a2c:	0c004d8c 	lw	t5,12(v0)
80031a30:	10004e8c 	lw	t6,16(v0)
80031a34:	0010cc48 	ctc2	t4,$2
80031a38:	0018cd48 	ctc2	t5,$3
80031a3c:	0020ce48 	ctc2	t6,$4
80031a40:	0000ac96 	lhu	t4,0(s5)
80031a44:	0600ad96 	lhu	t5,6(s5)
80031a48:	0c00ae96 	lhu	t6,12(s5)
80031a4c:	00488c48 	mtc2	t4,$9
80031a50:	00508d48 	mtc2	t5,$10
80031a54:	00588e48 	mtc2	t6,$11
	...
80031a60:	12e0494a 	c2	0x49e012
80031a64:	00480c48 	mfc2	t4,$9
80031a68:	00500d48 	mfc2	t5,$10
80031a6c:	00580e48 	mfc2	t6,$11
80031a70:	00004ca4 	sh	t4,0(v0)
80031a74:	06004da4 	sh	t5,6(v0)
80031a78:	0c004ea4 	sh	t6,12(v0)
80031a7c:	5200a227 	addiu	v0,sp,82
80031a80:	00004c94 	lhu	t4,0(v0)
80031a84:	06004d94 	lhu	t5,6(v0)
80031a88:	0c004e94 	lhu	t6,12(v0)
80031a8c:	00488c48 	mtc2	t4,$9
80031a90:	00508d48 	mtc2	t5,$10
80031a94:	00588e48 	mtc2	t6,$11
	...
80031aa0:	12e0494a 	c2	0x49e012
80031aa4:	fcff228e 	lw	v0,-4(s1)
80031aa8:	00000000 	nop
80031aac:	4800428c 	lw	v0,72(v0)
80031ab0:	00000000 	nop
80031ab4:	06004224 	addiu	v0,v0,6
80031ab8:	00480c48 	mfc2	t4,$9
80031abc:	00500d48 	mfc2	t5,$10
80031ac0:	00580e48 	mfc2	t6,$11
80031ac4:	00004ca4 	sh	t4,0(v0)
80031ac8:	06004da4 	sh	t5,6(v0)
80031acc:	0c004ea4 	sh	t6,12(v0)
80031ad0:	5400a227 	addiu	v0,sp,84
80031ad4:	00004c94 	lhu	t4,0(v0)
80031ad8:	06004d94 	lhu	t5,6(v0)
80031adc:	0c004e94 	lhu	t6,12(v0)
80031ae0:	00488c48 	mtc2	t4,$9
80031ae4:	00508d48 	mtc2	t5,$10
80031ae8:	00588e48 	mtc2	t6,$11
	...
80031af4:	12e0494a 	c2	0x49e012
80031af8:	fcff228e 	lw	v0,-4(s1)
80031afc:	00000000 	nop
80031b00:	4800428c 	lw	v0,72(v0)
80031b04:	00000000 	nop
80031b08:	08004224 	addiu	v0,v0,8
80031b0c:	00480c48 	mfc2	t4,$9
80031b10:	00500d48 	mfc2	t5,$10
80031b14:	00580e48 	mfc2	t6,$11
80031b18:	00004ca4 	sh	t4,0(v0)
80031b1c:	06004da4 	sh	t5,6(v0)
80031b20:	0c004ea4 	sh	t6,12(v0)
80031b24:	fcff228e 	lw	v0,-4(s1)
80031b28:	00000000 	nop
80031b2c:	4800428c 	lw	v0,72(v0)
80031b30:	00000000 	nop
80031b34:	020040a4 	sh	zero,2(v0)
80031b38:	fcff248e 	lw	a0,-4(s1)
80031b3c:	98d4000c 	jal	0x80035260
80031b40:	00000000 	nop
80031b44:	02002392 	lbu	v1,2(s1)
80031b48:	01000224 	li	v0,1
80031b4c:	29006214 	bne	v1,v0,0x80031bf4
80031b50:	03000224 	li	v0,3
80031b54:	aa2a023c 	lui	v0,0x2aaa
80031b58:	abaa4234 	ori	v0,v0,0xaaab
80031b5c:	18004202 	mult	s2,v0
80031b60:	10180000 	mfhi	v1
80031b64:	c06cc592 	lbu	a1,27840(s6)
80031b68:	aaaa023c 	lui	v0,0xaaaa
80031b6c:	abaa4234 	ori	v0,v0,0xaaab
80031b70:	1900a200 	multu	a1,v0
80031b74:	c3171200 	sra	v0,s2,0x1f
80031b78:	23106200 	subu	v0,v1,v0
80031b7c:	40180200 	sll	v1,v0,0x1
80031b80:	21186200 	addu	v1,v1,v0
80031b84:	40180300 	sll	v1,v1,0x1
80031b88:	23184302 	subu	v1,s2,v1
80031b8c:	10200000 	mfhi	a0
80031b90:	82200400 	srl	a0,a0,0x2
80031b94:	40100400 	sll	v0,a0,0x1
80031b98:	21104400 	addu	v0,v0,a0
80031b9c:	40100200 	sll	v0,v0,0x1
80031ba0:	2328a200 	subu	a1,a1,v0
80031ba4:	ff00a530 	andi	a1,a1,0xff
80031ba8:	a2006514 	bne	v1,a1,0x80031e34
80031bac:	3000b027 	addiu	s0,sp,48
80031bb0:	fcff228e 	lw	v0,-4(s1)
80031bb4:	00000000 	nop
80031bb8:	4400458c 	lw	a1,68(v0)
80031bbc:	61d3010c 	jal	0x80074d84
80031bc0:	21200002 	move	a0,s0
80031bc4:	00000c8e 	lw	t4,0(s0)
80031bc8:	04000d8e 	lw	t5,4(s0)
80031bcc:	0000cc48 	ctc2	t4,$0
80031bd0:	0008cd48 	ctc2	t5,$1
80031bd4:	08000c8e 	lw	t4,8(s0)
80031bd8:	0c000d8e 	lw	t5,12(s0)
80031bdc:	10000e8e 	lw	t6,16(s0)
80031be0:	0010cc48 	ctc2	t4,$2
80031be4:	0018cd48 	ctc2	t5,$3
80031be8:	0020ce48 	ctc2	t6,$4
80031bec:	35890008 	j	0x800224d4
80031bf0:	00000000 	nop
80031bf4:	1c006214 	bne	v1,v0,0x80031c68
80031bf8:	04000224 	li	v0,4
80031bfc:	02004106 	bgez	s2,0x80031c08
80031c00:	21184002 	move	v1,s2
80031c04:	03004326 	addiu	v1,s2,3
80031c08:	83180300 	sra	v1,v1,0x2
80031c0c:	80180300 	sll	v1,v1,0x2
80031c10:	c06cc292 	lbu	v0,27840(s6)
80031c14:	23184302 	subu	v1,s2,v1
80031c18:	03004230 	andi	v0,v0,0x3
80031c1c:	85006214 	bne	v1,v0,0x80031e34
80031c20:	3000b027 	addiu	s0,sp,48
80031c24:	fcff228e 	lw	v0,-4(s1)
80031c28:	00000000 	nop
80031c2c:	4400458c 	lw	a1,68(v0)
80031c30:	61d3010c 	jal	0x80074d84
80031c34:	21200002 	move	a0,s0
80031c38:	00000c8e 	lw	t4,0(s0)
80031c3c:	04000d8e 	lw	t5,4(s0)
80031c40:	0000cc48 	ctc2	t4,$0
80031c44:	0008cd48 	ctc2	t5,$1
80031c48:	08000c8e 	lw	t4,8(s0)
80031c4c:	0c000d8e 	lw	t5,12(s0)
80031c50:	10000e8e 	lw	t6,16(s0)
80031c54:	0010cc48 	ctc2	t4,$2
80031c58:	0018cd48 	ctc2	t5,$3
80031c5c:	0020ce48 	ctc2	t6,$4
80031c60:	35890008 	j	0x800224d4
80031c64:	00000000 	nop
80031c68:	1a006214 	bne	v1,v0,0x80031cd4
80031c6c:	00000000 	nop
80031c70:	02004106 	bgez	s2,0x80031c7c
80031c74:	21184002 	move	v1,s2
80031c78:	07004326 	addiu	v1,s2,7
80031c7c:	c3180300 	sra	v1,v1,0x3
80031c80:	c0180300 	sll	v1,v1,0x3
80031c84:	c06cc292 	lbu	v0,27840(s6)
80031c88:	23184302 	subu	v1,s2,v1
80031c8c:	07004230 	andi	v0,v0,0x7
80031c90:	68006214 	bne	v1,v0,0x80031e34
80031c94:	3000b027 	addiu	s0,sp,48
80031c98:	fcff228e 	lw	v0,-4(s1)
80031c9c:	00000000 	nop
80031ca0:	4400458c 	lw	a1,68(v0)
80031ca4:	61d3010c 	jal	0x80074d84
80031ca8:	21200002 	move	a0,s0
80031cac:	00000c8e 	lw	t4,0(s0)
80031cb0:	04000d8e 	lw	t5,4(s0)
80031cb4:	0000cc48 	ctc2	t4,$0
80031cb8:	0008cd48 	ctc2	t5,$1
80031cbc:	08000c8e 	lw	t4,8(s0)
80031cc0:	0c000d8e 	lw	t5,12(s0)
80031cc4:	10000e8e 	lw	t6,16(s0)
80031cc8:	0010cc48 	ctc2	t4,$2
80031ccc:	0018cd48 	ctc2	t5,$3
80031cd0:	0020ce48 	ctc2	t6,$4
80031cd4:	00002396 	lhu	v1,0(s1)
80031cd8:	4000678e 	lw	a3,64(s3)
80031cdc:	80100300 	sll	v0,v1,0x2
80031ce0:	21104300 	addu	v0,v0,v1
80031ce4:	c0100200 	sll	v0,v0,0x3
80031ce8:	0c00638e 	lw	v1,12(s3)
80031cec:	0c004224 	addiu	v0,v0,12
80031cf0:	21186200 	addu	v1,v1,v0
80031cf4:	200063ae 	sw	v1,32(s3)
80031cf8:	0000638c 	lw	v1,0(v1)
80031cfc:	0c00628e 	lw	v0,12(s3)
80031d00:	2000648e 	lw	a0,32(s3)
80031d04:	0c006324 	addiu	v1,v1,12
80031d08:	21104300 	addu	v0,v0,v1
80031d0c:	480062ae 	sw	v0,72(s3)
80031d10:	0400868c 	lw	a2,4(a0)
80031d14:	00000000 	nop
80031d18:	ffffc624 	addiu	a2,a2,-1
80031d1c:	3300de10 	beq	a2,s8,0x80031dec
80031d20:	21404000 	move	t0,v0
80031d24:	e10f0a24 	li	t2,4065
80031d28:	ffff0924 	li	t1,-1
80031d2c:	0600e524 	addiu	a1,a3,6
80031d30:	000000c9 	lwc2	$0,0(t0)
80031d34:	040001c9 	lwc2	$1,4(t0)
	...
80031d40:	0100184a 	c2	0x180001
80031d44:	0000eee8 	swc2	$14,0(a3)
80031d48:	0400e224 	addiu	v0,a3,4
80031d4c:	000053e8 	swc2	$19,0(v0)
80031d50:	6400648e 	lw	a0,100(s3)
80031d54:	6800628e 	lw	v0,104(s3)
80031d58:	00000000 	nop
80031d5c:	12008210 	beq	a0,v0,0x80031da8
80031d60:	23104400 	subu	v0,v0,a0
80031d64:	feffa384 	lh	v1,-2(a1)
80031d68:	00000000 	nop
80031d6c:	23186400 	subu	v1,v1,a0
80031d70:	001b0300 	sll	v1,v1,0xc
80031d74:	1a006200 	div	zero,v1,v0
80031d78:	02004014 	bnez	v0,0x80031d84
80031d7c:	00000000 	nop
80031d80:	0d000700 	break	0x7
80031d84:	ffff0124 	li	at,-1
80031d88:	04004114 	bne	v0,at,0x80031d9c
80031d8c:	0080013c 	lui	at,0x8000
80031d90:	02006114 	bne	v1,at,0x80031d9c
80031d94:	00000000 	nop
80031d98:	0d000600 	break	0x6
80031d9c:	12180000 	mflo	v1
80031da0:	6b890008 	j	0x800225ac
80031da4:	0000a3a4 	sh	v1,0(a1)
80031da8:	0000a0a4 	sh	zero,0(a1)
80031dac:	0000a284 	lh	v0,0(a1)
80031db0:	00000000 	nop
80031db4:	e20f4228 	slti	v0,v0,4066
80031db8:	02004014 	bnez	v0,0x80031dc4
80031dbc:	00000000 	nop
80031dc0:	0000aaa4 	sh	t2,0(a1)
80031dc4:	0000a284 	lh	v0,0(a1)
80031dc8:	00000000 	nop
80031dcc:	02004104 	bgez	v0,0x80031dd8
80031dd0:	00000000 	nop
80031dd4:	0000a0a4 	sh	zero,0(a1)
80031dd8:	0800a524 	addiu	a1,a1,8
80031ddc:	0800e724 	addiu	a3,a3,8
80031de0:	ffffc624 	addiu	a2,a2,-1
80031de4:	d2ffc914 	bne	a2,t1,0x80031d30
80031de8:	08000825 	addiu	t0,t0,8
80031dec:	40008232 	andi	v0,s4,0x40
80031df0:	06004010 	beqz	v0,0x80031e0c
80031df4:	80008232 	andi	v0,s4,0x80
80031df8:	00002496 	lhu	a0,0(s1)
80031dfc:	c46f000c 	jal	0x8001bf10
80031e00:	ff008532 	andi	a1,s4,0xff
80031e04:	8e890008 	j	0x80022638
80031e08:	10003126 	addiu	s1,s1,16
80031e0c:	06004010 	beqz	v0,0x80031e28
80031e10:	00000000 	nop
80031e14:	00002496 	lhu	a0,0(s1)
80031e18:	b564000c 	jal	0x800192d4
80031e1c:	ff008532 	andi	a1,s4,0xff
80031e20:	8e890008 	j	0x80022638
80031e24:	10003126 	addiu	s1,s1,16
80031e28:	00002496 	lhu	a0,0(s1)
80031e2c:	7267000c 	jal	0x80019dc8
80031e30:	ff008532 	andi	a1,s4,0xff
80031e34:	10003126 	addiu	s1,s1,16
80031e38:	ffff5226 	addiu	s2,s2,-1
80031e3c:	affe5e16 	bne	s2,s8,0x800318fc
80031e40:	00000000 	nop
80031e44:	9c00bf8f 	lw	ra,156(sp)
80031e48:	9800be8f 	lw	s8,152(sp)
80031e4c:	9400b78f 	lw	s7,148(sp)
80031e50:	9000b68f 	lw	s6,144(sp)
80031e54:	8c00b58f 	lw	s5,140(sp)
80031e58:	8800b48f 	lw	s4,136(sp)
80031e5c:	8400b38f 	lw	s3,132(sp)
80031e60:	8000b28f 	lw	s2,128(sp)
80031e64:	7c00b18f 	lw	s1,124(sp)
80031e68:	7800b08f 	lw	s0,120(sp)
80031e6c:	a000bd27 	addiu	sp,sp,160
80031e70:	0800e003 	jr	ra
80031e74:	00000000 	nop
80031e78:	30ffbd27 	addiu	sp,sp,-208
80031e7c:	ac00b1af 	sw	s1,172(sp)
80031e80:	2188c000 	move	s1,a2
80031e84:	a800b0af 	sw	s0,168(sp)
80031e88:	801f103c 	lui	s0,0x1f80
80031e8c:	1680043c 	lui	a0,0x8016
80031e90:	c400b7af 	sw	s7,196(sp)
80031e94:	e000b78f 	lw	s7,224(sp)
80031e98:	1680033c 	lui	v1,0x8016
80031e9c:	c800beaf 	sw	s8,200(sp)
80031ea0:	e800be8f 	lw	s8,232(sp)
80031ea4:	fc00aa8f 	lw	t2,252(sp)
80031ea8:	90d06324 	addiu	v1,v1,-12144
80031eac:	bc00b5af 	sw	s5,188(sp)
80031eb0:	ec00b597 	lhu	s5,236(sp)
80031eb4:	f000ab97 	lhu	t3,240(sp)
80031eb8:	00800234 	li	v0,0x8000
80031ebc:	b000b2af 	sw	s2,176(sp)
80031ec0:	f400b297 	lhu	s2,244(sp)
80031ec4:	21186200 	addu	v1,v1,v0
80031ec8:	cc00bfaf 	sw	ra,204(sp)
80031ecc:	c000b6af 	sw	s6,192(sp)
80031ed0:	b800b4af 	sw	s4,184(sp)
80031ed4:	b400b3af 	sw	s3,180(sp)
80031ed8:	dc00a7af 	sw	a3,220(sp)
80031edc:	a000aba7 	sh	t3,160(sp)
80031ee0:	1c03668c 	lw	a2,796(v1)
80031ee4:	2003678c 	lw	a3,800(v1)
80031ee8:	2403688c 	lw	t0,804(v1)
80031eec:	2803698c 	lw	t1,808(v1)
80031ef0:	0403628c 	lw	v0,772(v1)
80031ef4:	cc7b8424 	addiu	a0,a0,31692
80031ef8:	400004ae 	sw	a0,64(s0)
80031efc:	440004ae 	sw	a0,68(s0)
80031f00:	880006ae 	sw	a2,136(s0)
80031f04:	8c0007ae 	sw	a3,140(s0)
80031f08:	900008ae 	sw	t0,144(s0)
80031f0c:	940009ae 	sw	t1,148(s0)
80031f10:	0800448c 	lw	a0,8(v0)
80031f14:	00000000 	nop
80031f18:	100004ae 	sw	a0,16(s0)
80031f1c:	0400438c 	lw	v1,4(v0)
80031f20:	21a04001 	move	s4,t2
80031f24:	00886224 	addiu	v0,v1,-30720
80031f28:	2b104400 	sltu	v0,v0,a0
80031f2c:	140003ae 	sw	v1,20(s0)
80031f30:	02004010 	beqz	v0,0x80031f3c
80031f34:	9c00a5a7 	sh	a1,156(sp)
80031f38:	bf005431 	andi	s4,t2,0xbf
80031f3c:	2b106400 	sltu	v0,v1,a0
80031f40:	08004010 	beqz	v0,0x80031f64
80031f44:	ffff0434 	li	a0,0xffff
80031f48:	21280000 	move	a1,zero
80031f4c:	4bfc000c 	jal	0x8003f12c
80031f50:	2130a000 	move	a2,a1
80031f54:	ffff0434 	li	a0,0xffff
80031f58:	01000524 	li	a1,1
80031f5c:	4bfc000c 	jal	0x8003f12c
80031f60:	21300000 	move	a2,zero
80031f64:	18800b3c 	lui	t3,0x8018
80031f68:	78bd6b25 	addiu	t3,t3,-17032
80031f6c:	00006c8d 	lw	t4,0(t3)
80031f70:	04006d8d 	lw	t5,4(t3)
80031f74:	0000cc48 	ctc2	t4,$0
80031f78:	0008cd48 	ctc2	t5,$1
80031f7c:	08006c8d 	lw	t4,8(t3)
80031f80:	0c006d8d 	lw	t5,12(t3)
80031f84:	10006e8d 	lw	t6,16(t3)
80031f88:	0010cc48 	ctc2	t4,$2
80031f8c:	0018cd48 	ctc2	t5,$3
80031f90:	0020ce48 	ctc2	t6,$4
80031f94:	18800b3c 	lui	t3,0x8018
80031f98:	78bd6b25 	addiu	t3,t3,-17032
80031f9c:	14006c8d 	lw	t4,20(t3)
80031fa0:	18006d8d 	lw	t5,24(t3)
80031fa4:	0028cc48 	ctc2	t4,$5
80031fa8:	1c006e8d 	lw	t6,28(t3)
80031fac:	0030cd48 	ctc2	t5,$6
80031fb0:	0038ce48 	ctc2	t6,$7
80031fb4:	3500c013 	beqz	s8,0x8003208c
80031fb8:	1a80053c 	lui	a1,0x801a
80031fbc:	288fa524 	addiu	a1,a1,-28888
80031fc0:	0000228e 	lw	v0,0(s1)
80031fc4:	4802a48c 	lw	a0,584(a1)
80031fc8:	ce02a684 	lh	a2,718(a1)
80031fcc:	4c02a38c 	lw	v1,588(a1)
80031fd0:	23104400 	subu	v0,v0,a0
80031fd4:	21186600 	addu	v1,v1,a2
80031fd8:	1800a2af 	sw	v0,24(sp)
80031fdc:	d202a484 	lh	a0,722(a1)
80031fe0:	0400228e 	lw	v0,4(s1)
80031fe4:	21186400 	addu	v1,v1,a0
80031fe8:	23104300 	subu	v0,v0,v1
80031fec:	1c00a2af 	sw	v0,28(sp)
80031ff0:	0800228e 	lw	v0,8(s1)
80031ff4:	5002a38c 	lw	v1,592(a1)
80031ff8:	00000000 	nop
80031ffc:	23104300 	subu	v0,v0,v1
80032000:	2000a2af 	sw	v0,32(sp)
80032004:	ce02a694 	lhu	a2,718(a1)
80032008:	00002296 	lhu	v0,0(s1)
8003200c:	4802a394 	lhu	v1,584(a1)
80032010:	4c02a494 	lhu	a0,588(a1)
80032014:	23104300 	subu	v0,v0,v1
80032018:	21208600 	addu	a0,a0,a2
8003201c:	1000a2a7 	sh	v0,16(sp)
80032020:	d202a294 	lhu	v0,722(a1)
80032024:	04002396 	lhu	v1,4(s1)
80032028:	21104400 	addu	v0,v0,a0
8003202c:	23186200 	subu	v1,v1,v0
80032030:	1200a3a7 	sh	v1,18(sp)
80032034:	08002296 	lhu	v0,8(s1)
80032038:	5002a394 	lhu	v1,592(a1)
8003203c:	00000000 	nop
80032040:	23104300 	subu	v0,v0,v1
80032044:	1400a2a7 	sh	v0,20(sp)
80032048:	1000a227 	addiu	v0,sp,16
8003204c:	000040c8 	lwc2	$0,0(v0)
80032050:	040041c8 	lwc2	$1,4(v0)
	...
8003205c:	1200484a 	c2	0x480012
80032060:	801f0b3c 	lui	t3,0x1f80
80032064:	bc006b35 	ori	t3,t3,0xbc
80032068:	000079e9 	swc2	$25,0(t3)
8003206c:	04007ae9 	swc2	$26,4(t3)
80032070:	08007be9 	swc2	$27,8(t3)
80032074:	9800a227 	addiu	v0,sp,152
80032078:	00f84c48 	cfc2	t4,$31
8003207c:	00000000 	nop
80032080:	00004cac 	sw	t4,0(v0)
80032084:	2d8a0008 	j	0x800228b4
80032088:	a8001126 	addiu	s1,s0,168
8003208c:	0000228e 	lw	v0,0(s1)
80032090:	00000000 	nop
80032094:	bc0002ae 	sw	v0,188(s0)
80032098:	0400228e 	lw	v0,4(s1)
8003209c:	00000000 	nop
800320a0:	c00002ae 	sw	v0,192(s0)
800320a4:	0800228e 	lw	v0,8(s1)
800320a8:	00000000 	nop
800320ac:	c40002ae 	sw	v0,196(s0)
800320b0:	a8001126 	addiu	s1,s0,168
800320b4:	dc00a48f 	lw	a0,220(sp)
800320b8:	8c27010c 	jal	0x80049e30
800320bc:	21282002 	move	a1,s1
800320c0:	00241200 	sll	a0,s2,0x10
800320c4:	03240400 	sra	a0,a0,0x10
800320c8:	ff009632 	andi	s6,s4,0xff
800320cc:	4a5f000c 	jal	0x80017d28
800320d0:	2128c002 	move	a1,s6
800320d4:	94030b8e 	lw	t3,916(s0)
800320d8:	00000000 	nop
800320dc:	00006c8d 	lw	t4,0(t3)
800320e0:	04006d8d 	lw	t5,4(t3)
800320e4:	0000cc48 	ctc2	t4,$0
800320e8:	0008cd48 	ctc2	t5,$1
800320ec:	08006c8d 	lw	t4,8(t3)
800320f0:	0c006d8d 	lw	t5,12(t3)
800320f4:	10006e8d 	lw	t6,16(t3)
800320f8:	0010cc48 	ctc2	t4,$2
800320fc:	0018cd48 	ctc2	t5,$3
80032100:	0020ce48 	ctc2	t6,$4
80032104:	00002c96 	lhu	t4,0(s1)
80032108:	06002d96 	lhu	t5,6(s1)
8003210c:	0c002e96 	lhu	t6,12(s1)
80032110:	00488c48 	mtc2	t4,$9
80032114:	00508d48 	mtc2	t5,$10
80032118:	00588e48 	mtc2	t6,$11
	...
80032124:	12e0494a 	c2	0x49e012
80032128:	5800a327 	addiu	v1,sp,88
8003212c:	00480c48 	mfc2	t4,$9
80032130:	00500d48 	mfc2	t5,$10
80032134:	00580e48 	mfc2	t6,$11
80032138:	00006ca4 	sh	t4,0(v1)
8003213c:	06006da4 	sh	t5,6(v1)
80032140:	0c006ea4 	sh	t6,12(v1)
80032144:	aa001326 	addiu	s3,s0,170
80032148:	00006c96 	lhu	t4,0(s3)
8003214c:	06006d96 	lhu	t5,6(s3)
80032150:	0c006e96 	lhu	t6,12(s3)
80032154:	00488c48 	mtc2	t4,$9
80032158:	00508d48 	mtc2	t5,$10
8003215c:	00588e48 	mtc2	t6,$11
	...
80032168:	12e0494a 	c2	0x49e012
8003216c:	5a00a227 	addiu	v0,sp,90
80032170:	00480c48 	mfc2	t4,$9
80032174:	00500d48 	mfc2	t5,$10
80032178:	00580e48 	mfc2	t6,$11
8003217c:	00004ca4 	sh	t4,0(v0)
80032180:	06004da4 	sh	t5,6(v0)
80032184:	0c004ea4 	sh	t6,12(v0)
80032188:	ac001226 	addiu	s2,s0,172
8003218c:	00004c96 	lhu	t4,0(s2)
80032190:	06004d96 	lhu	t5,6(s2)
80032194:	0c004e96 	lhu	t6,12(s2)
80032198:	00488c48 	mtc2	t4,$9
8003219c:	00508d48 	mtc2	t5,$10
800321a0:	00588e48 	mtc2	t6,$11
	...
800321ac:	12e0494a 	c2	0x49e012
800321b0:	5c00a227 	addiu	v0,sp,92
800321b4:	00480c48 	mfc2	t4,$9
800321b8:	00500d48 	mfc2	t5,$10
800321bc:	00580e48 	mfc2	t6,$11
800321c0:	00004ca4 	sh	t4,0(v0)
800321c4:	06004da4 	sh	t5,6(v0)
800321c8:	0c004ea4 	sh	t6,12(v0)
800321cc:	00006c8c 	lw	t4,0(v1)
800321d0:	04006d8c 	lw	t5,4(v1)
800321d4:	0040cc48 	ctc2	t4,$8
800321d8:	0048cd48 	ctc2	t5,$9
800321dc:	08006c8c 	lw	t4,8(v1)
800321e0:	0c006d8c 	lw	t5,12(v1)
800321e4:	10006e8c 	lw	t6,16(v1)
800321e8:	0050cc48 	ctc2	t4,$10
800321ec:	0058cd48 	ctc2	t5,$11
800321f0:	0060ce48 	ctc2	t6,$12
800321f4:	0b00e012 	beqz	s7,0x80032224
800321f8:	21202002 	move	a0,s1
800321fc:	0000e286 	lh	v0,0(s7)
80032200:	00000000 	nop
80032204:	2800a2af 	sw	v0,40(sp)
80032208:	0200e286 	lh	v0,2(s7)
8003220c:	00000000 	nop
80032210:	2c00a2af 	sw	v0,44(sp)
80032214:	0400e286 	lh	v0,4(s7)
80032218:	2800a527 	addiu	a1,sp,40
8003221c:	61d3010c 	jal	0x80074d84
80032220:	3000a2af 	sw	v0,48(sp)
80032224:	3800c013 	beqz	s8,0x80032308
80032228:	00000000 	nop
8003222c:	0000cc8f 	lw	t4,0(s8)
80032230:	0400cd8f 	lw	t5,4(s8)
80032234:	0000cc48 	ctc2	t4,$0
80032238:	0008cd48 	ctc2	t5,$1
8003223c:	0800cc8f 	lw	t4,8(s8)
80032240:	0c00cd8f 	lw	t5,12(s8)
80032244:	1000ce8f 	lw	t6,16(s8)
80032248:	0010cc48 	ctc2	t4,$2
8003224c:	0018cd48 	ctc2	t5,$3
80032250:	0020ce48 	ctc2	t6,$4
80032254:	00002c96 	lhu	t4,0(s1)
80032258:	06002d96 	lhu	t5,6(s1)
8003225c:	0c002e96 	lhu	t6,12(s1)
80032260:	00488c48 	mtc2	t4,$9
80032264:	00508d48 	mtc2	t5,$10
80032268:	00588e48 	mtc2	t6,$11
	...
80032274:	12e0494a 	c2	0x49e012
80032278:	00480c48 	mfc2	t4,$9
8003227c:	00500d48 	mfc2	t5,$10
80032280:	00580e48 	mfc2	t6,$11
80032284:	00002ca6 	sh	t4,0(s1)
80032288:	06002da6 	sh	t5,6(s1)
8003228c:	0c002ea6 	sh	t6,12(s1)
80032290:	00006c96 	lhu	t4,0(s3)
80032294:	06006d96 	lhu	t5,6(s3)
80032298:	0c006e96 	lhu	t6,12(s3)
8003229c:	00488c48 	mtc2	t4,$9
800322a0:	00508d48 	mtc2	t5,$10
800322a4:	00588e48 	mtc2	t6,$11
	...
800322b0:	12e0494a 	c2	0x49e012
800322b4:	00480c48 	mfc2	t4,$9
800322b8:	00500d48 	mfc2	t5,$10
800322bc:	00580e48 	mfc2	t6,$11
800322c0:	00006ca6 	sh	t4,0(s3)
800322c4:	06006da6 	sh	t5,6(s3)
800322c8:	0c006ea6 	sh	t6,12(s3)
800322cc:	00004c96 	lhu	t4,0(s2)
800322d0:	06004d96 	lhu	t5,6(s2)
800322d4:	0c004e96 	lhu	t6,12(s2)
800322d8:	00488c48 	mtc2	t4,$9
800322dc:	00508d48 	mtc2	t5,$10
800322e0:	00588e48 	mtc2	t6,$11
	...
800322ec:	12e0494a 	c2	0x49e012
800322f0:	00480c48 	mfc2	t4,$9
800322f4:	00500d48 	mfc2	t5,$10
800322f8:	00580e48 	mfc2	t6,$11
800322fc:	00004ca6 	sh	t4,0(s2)
80032300:	06004da6 	sh	t5,6(s2)
80032304:	0c004ea6 	sh	t6,12(s2)
80032308:	00002c8e 	lw	t4,0(s1)
8003230c:	04002d8e 	lw	t5,4(s1)
80032310:	0000cc48 	ctc2	t4,$0
80032314:	0008cd48 	ctc2	t5,$1
80032318:	08002c8e 	lw	t4,8(s1)
8003231c:	0c002d8e 	lw	t5,12(s1)
80032320:	10002e8e 	lw	t6,16(s1)
80032324:	0010cc48 	ctc2	t4,$2
80032328:	0018cd48 	ctc2	t5,$3
8003232c:	0020ce48 	ctc2	t6,$4
80032330:	14002c8e 	lw	t4,20(s1)
80032334:	18002d8e 	lw	t5,24(s1)
80032338:	0028cc48 	ctc2	t4,$5
8003233c:	1c002e8e 	lw	t6,28(s1)
80032340:	0030cd48 	ctc2	t5,$6
80032344:	0038ce48 	ctc2	t6,$7
80032348:	1680033c 	lui	v1,0x8016
8003234c:	9c00a597 	lhu	a1,156(sp)
80032350:	90d06324 	addiu	v1,v1,-12144
80032354:	80100500 	sll	v0,a1,0x2
80032358:	21104300 	addu	v0,v0,v1
8003235c:	4c830334 	li	v1,0x834c
80032360:	21104300 	addu	v0,v0,v1
80032364:	0000438c 	lw	v1,0(v0)
80032368:	00000000 	nop
8003236c:	06006294 	lhu	v0,6(v1)
80032370:	00000000 	nop
80032374:	17004014 	bnez	v0,0x800323d4
80032378:	ffffa632 	andi	a2,s5,0xffff
8003237c:	0800628c 	lw	v0,8(v1)
80032380:	00000000 	nop
80032384:	21186200 	addu	v1,v1,v0
80032388:	8000c22c 	sltiu	v0,a2,128
8003238c:	2c004010 	beqz	v0,0x80032440
80032390:	0c0003ae 	sw	v1,12(s0)
80032394:	21880000 	move	s1,zero
80032398:	0c006224 	addiu	v0,v1,12
8003239c:	200002ae 	sw	v0,32(s0)
800323a0:	a000ab97 	lhu	t3,160(sp)
800323a4:	e400a48f 	lw	a0,228(sp)
800323a8:	81d1000c 	jal	0x80034604
800323ac:	21386001 	move	a3,t3
800323b0:	30004014 	bnez	v0,0x80032474
800323b4:	40008232 	andi	v0,s4,0x40
800323b8:	0c00038e 	lw	v1,12(s0)
800323bc:	00000000 	nop
800323c0:	0c006224 	addiu	v0,v1,12
800323c4:	200002ae 	sw	v0,32(s0)
800323c8:	0c00628c 	lw	v0,12(v1)
800323cc:	1a8b0008 	j	0x80022c68
800323d0:	0c004224 	addiu	v0,v0,12
800323d4:	0800628c 	lw	v0,8(v1)
800323d8:	00000000 	nop
800323dc:	21186200 	addu	v1,v1,v0
800323e0:	8000c22c 	sltiu	v0,a2,128
800323e4:	16004010 	beqz	v0,0x80032440
800323e8:	0c0003ae 	sw	v1,12(s0)
800323ec:	a000ab97 	lhu	t3,160(sp)
800323f0:	e400a48f 	lw	a0,228(sp)
800323f4:	aad6000c 	jal	0x80035aa8
800323f8:	21386001 	move	a3,t3
800323fc:	0b004014 	bnez	v0,0x8003242c
80032400:	00000000 	nop
80032404:	0c00038e 	lw	v1,12(s0)
80032408:	00000000 	nop
8003240c:	0c006224 	addiu	v0,v1,12
80032410:	200002ae 	sw	v0,32(s0)
80032414:	0c00628c 	lw	v0,12(v1)
80032418:	00000000 	nop
8003241c:	0c004224 	addiu	v0,v0,12
80032420:	21186200 	addu	v1,v1,v0
80032424:	618c0008 	j	0x80023184
80032428:	480003ae 	sw	v1,72(s0)
8003242c:	dc00a58f 	lw	a1,220(sp)
80032430:	0488000c 	jal	0x80022010
80032434:	2120c002 	move	a0,s6
80032438:	628c0008 	j	0x80023188
8003243c:	1680033c 	lui	v1,0x8016
80032440:	7f00b132 	andi	s1,s5,0x7f
80032444:	80101100 	sll	v0,s1,0x2
80032448:	21105100 	addu	v0,v0,s1
8003244c:	c0100200 	sll	v0,v0,0x3
80032450:	0c004224 	addiu	v0,v0,12
80032454:	21106200 	addu	v0,v1,v0
80032458:	200002ae 	sw	v0,32(s0)
8003245c:	0000428c 	lw	v0,0(v0)
80032460:	0c00038e 	lw	v1,12(s0)
80032464:	0c004224 	addiu	v0,v0,12
80032468:	21186200 	addu	v1,v1,v0
8003246c:	480003ae 	sw	v1,72(s0)
80032470:	40008232 	andi	v0,s4,0x40
80032474:	6c004010 	beqz	v0,0x80032628
80032478:	80008232 	andi	v0,s4,0x80
8003247c:	4000078e 	lw	a3,64(s0)
80032480:	2000038e 	lw	v1,32(s0)
80032484:	8800028e 	lw	v0,136(s0)
80032488:	2000048e 	lw	a0,32(s0)
8003248c:	0400638c 	lw	v1,4(v1)
80032490:	4800088e 	lw	t0,72(s0)
80032494:	21104300 	addu	v0,v0,v1
80032498:	880002ae 	sw	v0,136(s0)
8003249c:	0400868c 	lw	a2,4(a0)
800324a0:	ffff0224 	li	v0,-1
800324a4:	ffffc624 	addiu	a2,a2,-1
800324a8:	3200c210 	beq	a2,v0,0x80032574
800324ac:	0600e524 	addiu	a1,a3,6
800324b0:	e10f0a24 	li	t2,4065
800324b4:	21484000 	move	t1,v0
800324b8:	000000c9 	lwc2	$0,0(t0)
800324bc:	040001c9 	lwc2	$1,4(t0)
	...
800324c8:	0100184a 	c2	0x180001
800324cc:	0000eee8 	swc2	$14,0(a3)
800324d0:	0400e224 	addiu	v0,a3,4
800324d4:	000053e8 	swc2	$19,0(v0)
800324d8:	6400048e 	lw	a0,100(s0)
800324dc:	6800038e 	lw	v1,104(s0)
800324e0:	00000000 	nop
800324e4:	12008310 	beq	a0,v1,0x80032530
800324e8:	23186400 	subu	v1,v1,a0
800324ec:	feffa284 	lh	v0,-2(a1)
800324f0:	00000000 	nop
800324f4:	23104400 	subu	v0,v0,a0
800324f8:	00130200 	sll	v0,v0,0xc
800324fc:	1a004300 	div	zero,v0,v1
80032500:	02006014 	bnez	v1,0x8003250c
80032504:	00000000 	nop
80032508:	0d000700 	break	0x7
8003250c:	ffff0124 	li	at,-1
80032510:	04006114 	bne	v1,at,0x80032524
80032514:	0080013c 	lui	at,0x8000
80032518:	02004114 	bne	v0,at,0x80032524
8003251c:	00000000 	nop
80032520:	0d000600 	break	0x6
80032524:	12100000 	mflo	v0
80032528:	4d8b0008 	j	0x80022d34
8003252c:	0000a2a4 	sh	v0,0(a1)
80032530:	0000a0a4 	sh	zero,0(a1)
80032534:	0000a284 	lh	v0,0(a1)
80032538:	00000000 	nop
8003253c:	e20f4228 	slti	v0,v0,4066
80032540:	02004014 	bnez	v0,0x8003254c
80032544:	00000000 	nop
80032548:	0000aaa4 	sh	t2,0(a1)
8003254c:	0000a284 	lh	v0,0(a1)
80032550:	00000000 	nop
80032554:	02004104 	bgez	v0,0x80032560
80032558:	00000000 	nop
8003255c:	0000a0a4 	sh	zero,0(a1)
80032560:	0800a524 	addiu	a1,a1,8
80032564:	0800e724 	addiu	a3,a3,8
80032568:	ffffc624 	addiu	a2,a2,-1
8003256c:	d2ffc914 	bne	a2,t1,0x800324b8
80032570:	08000825 	addiu	t0,t0,8
80032574:	0500c013 	beqz	s8,0x8003258c
80032578:	21202002 	move	a0,s1
8003257c:	c46f000c 	jal	0x8001bf10
80032580:	ff008532 	andi	a1,s4,0xff
80032584:	628c0008 	j	0x80023188
80032588:	1680033c 	lui	v1,0x8016
8003258c:	4000058e 	lw	a1,64(s0)
80032590:	2000038e 	lw	v1,32(s0)
80032594:	8800028e 	lw	v0,136(s0)
80032598:	2000048e 	lw	a0,32(s0)
8003259c:	0400638c 	lw	v1,4(v1)
800325a0:	4800068e 	lw	a2,72(s0)
800325a4:	21104300 	addu	v0,v0,v1
800325a8:	880002ae 	sw	v0,136(s0)
800325ac:	0400848c 	lw	a0,4(a0)
800325b0:	ffff0224 	li	v0,-1
800325b4:	ffff8424 	addiu	a0,a0,-1
800325b8:	ef008210 	beq	a0,v0,0x80032978
800325bc:	50000726 	addiu	a3,s0,80
800325c0:	21404000 	move	t0,v0
800325c4:	0400a324 	addiu	v1,a1,4
800325c8:	0000c0c8 	lwc2	$0,0(a2)
800325cc:	0400c1c8 	lwc2	$1,4(a2)
	...
800325d8:	1200484a 	c2	0x480012
800325dc:	0000f9e8 	swc2	$25,0(a3)
800325e0:	0400fae8 	swc2	$26,4(a3)
800325e4:	0800fbe8 	swc2	$27,8(a3)
800325e8:	0800c624 	addiu	a2,a2,8
800325ec:	50000296 	lhu	v0,80(s0)
800325f0:	ffff8424 	addiu	a0,a0,-1
800325f4:	0000a2a4 	sh	v0,0(a1)
800325f8:	54000296 	lhu	v0,84(s0)
800325fc:	0800a524 	addiu	a1,a1,8
80032600:	feff62a4 	sh	v0,-2(v1)
80032604:	58000296 	lhu	v0,88(s0)
80032608:	0001ab97 	lhu	t3,256(sp)
8003260c:	00000000 	nop
80032610:	00006ba4 	sh	t3,0(v1)
80032614:	020062a4 	sh	v0,2(v1)
80032618:	ebff8814 	bne	a0,t0,0x800325c8
8003261c:	08006324 	addiu	v1,v1,8
80032620:	5f8c0008 	j	0x8002317c
80032624:	21202002 	move	a0,s1
80032628:	6c004010 	beqz	v0,0x800327dc
8003262c:	00000000 	nop
80032630:	4000078e 	lw	a3,64(s0)
80032634:	2000038e 	lw	v1,32(s0)
80032638:	8800028e 	lw	v0,136(s0)
8003263c:	2000048e 	lw	a0,32(s0)
80032640:	0400638c 	lw	v1,4(v1)
80032644:	4800088e 	lw	t0,72(s0)
80032648:	21104300 	addu	v0,v0,v1
8003264c:	880002ae 	sw	v0,136(s0)
80032650:	0400868c 	lw	a2,4(a0)
80032654:	ffff0224 	li	v0,-1
80032658:	ffffc624 	addiu	a2,a2,-1
8003265c:	3200c210 	beq	a2,v0,0x80032728
80032660:	0600e524 	addiu	a1,a3,6
80032664:	e10f0a24 	li	t2,4065
80032668:	21484000 	move	t1,v0
8003266c:	000000c9 	lwc2	$0,0(t0)
80032670:	040001c9 	lwc2	$1,4(t0)
	...
8003267c:	0100184a 	c2	0x180001
80032680:	0000eee8 	swc2	$14,0(a3)
80032684:	0400e224 	addiu	v0,a3,4
80032688:	000053e8 	swc2	$19,0(v0)
8003268c:	6400048e 	lw	a0,100(s0)
80032690:	6800038e 	lw	v1,104(s0)
80032694:	00000000 	nop
80032698:	12008310 	beq	a0,v1,0x800326e4
8003269c:	23186400 	subu	v1,v1,a0
800326a0:	feffa284 	lh	v0,-2(a1)
800326a4:	00000000 	nop
800326a8:	23104400 	subu	v0,v0,a0
800326ac:	00130200 	sll	v0,v0,0xc
800326b0:	1a004300 	div	zero,v0,v1
800326b4:	02006014 	bnez	v1,0x800326c0
800326b8:	00000000 	nop
800326bc:	0d000700 	break	0x7
800326c0:	ffff0124 	li	at,-1
800326c4:	04006114 	bne	v1,at,0x800326d8
800326c8:	0080013c 	lui	at,0x8000
800326cc:	02004114 	bne	v0,at,0x800326d8
800326d0:	00000000 	nop
800326d4:	0d000600 	break	0x6
800326d8:	12100000 	mflo	v0
800326dc:	ba8b0008 	j	0x80022ee8
800326e0:	0000a2a4 	sh	v0,0(a1)
800326e4:	0000a0a4 	sh	zero,0(a1)
800326e8:	0000a284 	lh	v0,0(a1)
800326ec:	00000000 	nop
800326f0:	e20f4228 	slti	v0,v0,4066
800326f4:	02004014 	bnez	v0,0x80032700
800326f8:	00000000 	nop
800326fc:	0000aaa4 	sh	t2,0(a1)
80032700:	0000a284 	lh	v0,0(a1)
80032704:	00000000 	nop
80032708:	02004104 	bgez	v0,0x80032714
8003270c:	00000000 	nop
80032710:	0000a0a4 	sh	zero,0(a1)
80032714:	0800a524 	addiu	a1,a1,8
80032718:	0800e724 	addiu	a3,a3,8
8003271c:	ffffc624 	addiu	a2,a2,-1
80032720:	d2ffc914 	bne	a2,t1,0x8003266c
80032724:	08000825 	addiu	t0,t0,8
80032728:	0500c013 	beqz	s8,0x80032740
8003272c:	21202002 	move	a0,s1
80032730:	b564000c 	jal	0x800192d4
80032734:	ff008532 	andi	a1,s4,0xff
80032738:	628c0008 	j	0x80023188
8003273c:	1680033c 	lui	v1,0x8016
80032740:	4000058e 	lw	a1,64(s0)
80032744:	2000038e 	lw	v1,32(s0)
80032748:	8800028e 	lw	v0,136(s0)
8003274c:	2000048e 	lw	a0,32(s0)
80032750:	0400638c 	lw	v1,4(v1)
80032754:	4800068e 	lw	a2,72(s0)
80032758:	21104300 	addu	v0,v0,v1
8003275c:	880002ae 	sw	v0,136(s0)
80032760:	0400848c 	lw	a0,4(a0)
80032764:	ffff0224 	li	v0,-1
80032768:	ffff8424 	addiu	a0,a0,-1
8003276c:	82008210 	beq	a0,v0,0x80032978
80032770:	50000726 	addiu	a3,s0,80
80032774:	21404000 	move	t0,v0
80032778:	0400a324 	addiu	v1,a1,4
8003277c:	0000c0c8 	lwc2	$0,0(a2)
80032780:	0400c1c8 	lwc2	$1,4(a2)
	...
8003278c:	1200484a 	c2	0x480012
80032790:	0000f9e8 	swc2	$25,0(a3)
80032794:	0400fae8 	swc2	$26,4(a3)
80032798:	0800fbe8 	swc2	$27,8(a3)
8003279c:	0800c624 	addiu	a2,a2,8
800327a0:	50000296 	lhu	v0,80(s0)
800327a4:	ffff8424 	addiu	a0,a0,-1
800327a8:	0000a2a4 	sh	v0,0(a1)
800327ac:	54000296 	lhu	v0,84(s0)
800327b0:	0800a524 	addiu	a1,a1,8
800327b4:	feff62a4 	sh	v0,-2(v1)
800327b8:	58000296 	lhu	v0,88(s0)
800327bc:	0001ab97 	lhu	t3,256(sp)
800327c0:	00000000 	nop
800327c4:	00006ba4 	sh	t3,0(v1)
800327c8:	020062a4 	sh	v0,2(v1)
800327cc:	ebff8814 	bne	a0,t0,0x8003277c
800327d0:	08006324 	addiu	v1,v1,8
800327d4:	5f8c0008 	j	0x8002317c
800327d8:	21202002 	move	a0,s1
800327dc:	4100c013 	beqz	s8,0x800328e4
800327e0:	00000000 	nop
800327e4:	4000078e 	lw	a3,64(s0)
800327e8:	2000038e 	lw	v1,32(s0)
800327ec:	8800028e 	lw	v0,136(s0)
800327f0:	2000048e 	lw	a0,32(s0)
800327f4:	0400638c 	lw	v1,4(v1)
800327f8:	4800088e 	lw	t0,72(s0)
800327fc:	21104300 	addu	v0,v0,v1
80032800:	880002ae 	sw	v0,136(s0)
80032804:	0400868c 	lw	a2,4(a0)
80032808:	ffff0224 	li	v0,-1
8003280c:	ffffc624 	addiu	a2,a2,-1
80032810:	5900c210 	beq	a2,v0,0x80032978
80032814:	e10f0a24 	li	t2,4065
80032818:	21484000 	move	t1,v0
8003281c:	0600e524 	addiu	a1,a3,6
80032820:	000000c9 	lwc2	$0,0(t0)
80032824:	040001c9 	lwc2	$1,4(t0)
	...
80032830:	0100184a 	c2	0x180001
80032834:	0000eee8 	swc2	$14,0(a3)
80032838:	0400e224 	addiu	v0,a3,4
8003283c:	000053e8 	swc2	$19,0(v0)
80032840:	6400048e 	lw	a0,100(s0)
80032844:	6800038e 	lw	v1,104(s0)
80032848:	00000000 	nop
8003284c:	12008310 	beq	a0,v1,0x80032898
80032850:	23186400 	subu	v1,v1,a0
80032854:	feffa284 	lh	v0,-2(a1)
80032858:	00000000 	nop
8003285c:	23104400 	subu	v0,v0,a0
80032860:	00130200 	sll	v0,v0,0xc
80032864:	1a004300 	div	zero,v0,v1
80032868:	02006014 	bnez	v1,0x80032874
8003286c:	00000000 	nop
80032870:	0d000700 	break	0x7
80032874:	ffff0124 	li	at,-1
80032878:	04006114 	bne	v1,at,0x8003288c
8003287c:	0080013c 	lui	at,0x8000
80032880:	02004114 	bne	v0,at,0x8003288c
80032884:	00000000 	nop
80032888:	0d000600 	break	0x6
8003288c:	12100000 	mflo	v0
80032890:	278c0008 	j	0x8002309c
80032894:	0000a2a4 	sh	v0,0(a1)
80032898:	0000a0a4 	sh	zero,0(a1)
8003289c:	0000a284 	lh	v0,0(a1)
800328a0:	00000000 	nop
800328a4:	e20f4228 	slti	v0,v0,4066
800328a8:	02004014 	bnez	v0,0x800328b4
800328ac:	00000000 	nop
800328b0:	0000aaa4 	sh	t2,0(a1)
800328b4:	0000a284 	lh	v0,0(a1)
800328b8:	00000000 	nop
800328bc:	02004104 	bgez	v0,0x800328c8
800328c0:	00000000 	nop
800328c4:	0000a0a4 	sh	zero,0(a1)
800328c8:	0800a524 	addiu	a1,a1,8
800328cc:	0800e724 	addiu	a3,a3,8
800328d0:	ffffc624 	addiu	a2,a2,-1
800328d4:	d2ffc914 	bne	a2,t1,0x80032820
800328d8:	08000825 	addiu	t0,t0,8
800328dc:	5f8c0008 	j	0x8002317c
800328e0:	21202002 	move	a0,s1
800328e4:	4000058e 	lw	a1,64(s0)
800328e8:	2000038e 	lw	v1,32(s0)
800328ec:	8800028e 	lw	v0,136(s0)
800328f0:	2000048e 	lw	a0,32(s0)
800328f4:	0400638c 	lw	v1,4(v1)
800328f8:	4800068e 	lw	a2,72(s0)
800328fc:	21104300 	addu	v0,v0,v1
80032900:	880002ae 	sw	v0,136(s0)
80032904:	0400848c 	lw	a0,4(a0)
80032908:	ffff0224 	li	v0,-1
8003290c:	ffff8424 	addiu	a0,a0,-1
80032910:	19008210 	beq	a0,v0,0x80032978
80032914:	50000726 	addiu	a3,s0,80
80032918:	21404000 	move	t0,v0
8003291c:	0400a324 	addiu	v1,a1,4
80032920:	0000c0c8 	lwc2	$0,0(a2)
80032924:	0400c1c8 	lwc2	$1,4(a2)
	...
80032930:	1200484a 	c2	0x480012
80032934:	0000f9e8 	swc2	$25,0(a3)
80032938:	0400fae8 	swc2	$26,4(a3)
8003293c:	0800fbe8 	swc2	$27,8(a3)
80032940:	0800c624 	addiu	a2,a2,8
80032944:	50000296 	lhu	v0,80(s0)
80032948:	ffff8424 	addiu	a0,a0,-1
8003294c:	0000a2a4 	sh	v0,0(a1)
80032950:	54000296 	lhu	v0,84(s0)
80032954:	0800a524 	addiu	a1,a1,8
80032958:	feff62a4 	sh	v0,-2(v1)
8003295c:	58000296 	lhu	v0,88(s0)
80032960:	0001ab97 	lhu	t3,256(sp)
80032964:	00000000 	nop
80032968:	00006ba4 	sh	t3,0(v1)
8003296c:	020062a4 	sh	v0,2(v1)
80032970:	ebff8814 	bne	a0,t0,0x80032920
80032974:	08006324 	addiu	v1,v1,8
80032978:	21202002 	move	a0,s1
8003297c:	7267000c 	jal	0x80019dc8
80032980:	ff008532 	andi	a1,s4,0xff
80032984:	1680033c 	lui	v1,0x8016
80032988:	90d06324 	addiu	v1,v1,-12144
8003298c:	00800234 	li	v0,0x8000
80032990:	21186200 	addu	v1,v1,v0
80032994:	0403648c 	lw	a0,772(v1)
80032998:	1000028e 	lw	v0,16(s0)
8003299c:	00000000 	nop
800329a0:	080082ac 	sw	v0,8(a0)
800329a4:	0403648c 	lw	a0,772(v1)
800329a8:	1400028e 	lw	v0,20(s0)
800329ac:	00000000 	nop
800329b0:	040082ac 	sw	v0,4(a0)
800329b4:	8800028e 	lw	v0,136(s0)
800329b8:	8c00048e 	lw	a0,140(s0)
800329bc:	9000058e 	lw	a1,144(s0)
800329c0:	9400068e 	lw	a2,148(s0)
800329c4:	1c0362ac 	sw	v0,796(v1)
800329c8:	200364ac 	sw	a0,800(v1)
800329cc:	240365ac 	sw	a1,804(v1)
800329d0:	280366ac 	sw	a2,808(v1)
800329d4:	cc00bf8f 	lw	ra,204(sp)
800329d8:	c800be8f 	lw	s8,200(sp)
800329dc:	c400b78f 	lw	s7,196(sp)
800329e0:	c000b68f 	lw	s6,192(sp)
800329e4:	bc00b58f 	lw	s5,188(sp)
800329e8:	b800b48f 	lw	s4,184(sp)
800329ec:	b400b38f 	lw	s3,180(sp)
800329f0:	b000b28f 	lw	s2,176(sp)
800329f4:	ac00b18f 	lw	s1,172(sp)
800329f8:	a800b08f 	lw	s0,168(sp)
800329fc:	d000bd27 	addiu	sp,sp,208
80032a00:	0800e003 	jr	ra
80032a04:	00000000 	nop
80032a08:	21308000 	move	a2,a0
80032a0c:	ffffc230 	andi	v0,a2,0xffff
80032a10:	2c01422c 	sltiu	v0,v0,300
80032a14:	1a004014 	bnez	v0,0x80032a80
80032a18:	00018224 	addiu	v0,a0,256
80032a1c:	1b80023c 	lui	v0,0x801b
80032a20:	20594524 	addiu	a1,v0,22816
80032a24:	20594384 	lh	v1,22816(v0)
80032a28:	01000224 	li	v0,1
80032a2c:	0f006214 	bne	v1,v0,0x80032a6c
80032a30:	1b80023c 	lui	v0,0x801b
80032a34:	1e00a290 	lbu	v0,30(a1)
80032a38:	00000000 	nop
80032a3c:	0b004314 	bne	v0,v1,0x80032a6c
80032a40:	1b80023c 	lui	v0,0x801b
80032a44:	1000a390 	lbu	v1,16(a1)
80032a48:	ff000224 	li	v0,255
80032a4c:	06006210 	beq	v1,v0,0x80032a68
80032a50:	00000000 	nop
80032a54:	21106000 	move	v0,v1
80032a58:	40110200 	sll	v0,v0,0x5
80032a5c:	00014224 	addiu	v0,v0,256
80032a60:	a08c0008 	j	0x80023280
80032a64:	21108200 	addu	v0,a0,v0
80032a68:	1b80023c 	lui	v0,0x801b
80032a6c:	24594290 	lbu	v0,22820(v0)
80032a70:	00000000 	nop
80032a74:	40110200 	sll	v0,v0,0x5
80032a78:	00014224 	addiu	v0,v0,256
80032a7c:	2110c200 	addu	v0,a2,v0
80032a80:	0800e003 	jr	ra
80032a84:	ffff4230 	andi	v0,v0,0xffff
80032a88:	c0ffbd27 	addiu	sp,sp,-64
80032a8c:	3000b0af 	sw	s0,48(sp)
80032a90:	21808000 	move	s0,a0
80032a94:	0180023c 	lui	v0,0x8001
80032a98:	3800bfaf 	sw	ra,56(sp)
80032a9c:	3400b1af 	sw	s1,52(sp)
80032aa0:	30104624 	addiu	a2,v0,4144
80032aa4:	0300c388 	lwl	v1,3(a2)
80032aa8:	0000c398 	lwr	v1,0(a2)
80032aac:	0700c488 	lwl	a0,7(a2)
80032ab0:	0400c498 	lwr	a0,4(a2)
80032ab4:	0b00c588 	lwl	a1,11(a2)
80032ab8:	0800c598 	lwr	a1,8(a2)
80032abc:	1300a3ab 	swl	v1,19(sp)
80032ac0:	1000a3bb 	swr	v1,16(sp)
80032ac4:	1700a4ab 	swl	a0,23(sp)
80032ac8:	1400a4bb 	swr	a0,20(sp)
80032acc:	1b00a5ab 	swl	a1,27(sp)
80032ad0:	1800a5bb 	swr	a1,24(sp)
80032ad4:	0f00c388 	lwl	v1,15(a2)
80032ad8:	0c00c398 	lwr	v1,12(a2)
80032adc:	00000000 	nop
80032ae0:	1f00a3ab 	swl	v1,31(sp)
80032ae4:	1c00a3bb 	swr	v1,28(sp)
80032ae8:	0180023c 	lui	v0,0x8001
80032aec:	40104624 	addiu	a2,v0,4160
80032af0:	0300c388 	lwl	v1,3(a2)
80032af4:	0000c398 	lwr	v1,0(a2)
80032af8:	0700c488 	lwl	a0,7(a2)
80032afc:	0400c498 	lwr	a0,4(a2)
80032b00:	0b00c588 	lwl	a1,11(a2)
80032b04:	0800c598 	lwr	a1,8(a2)
80032b08:	2300a3ab 	swl	v1,35(sp)
80032b0c:	2000a3bb 	swr	v1,32(sp)
80032b10:	2700a4ab 	swl	a0,39(sp)
80032b14:	2400a4bb 	swr	a0,36(sp)
80032b18:	2b00a5ab 	swl	a1,43(sp)
80032b1c:	2800a5bb 	swr	a1,40(sp)
80032b20:	0f00c388 	lwl	v1,15(a2)
80032b24:	0c00c398 	lwr	v1,12(a2)
80032b28:	00000000 	nop
80032b2c:	2f00a3ab 	swl	v1,47(sp)
80032b30:	2c00a3bb 	swr	v1,44(sp)
80032b34:	21200002 	move	a0,s0
80032b38:	9b54000c 	jal	0x8001526c
80032b3c:	1000b127 	addiu	s1,sp,16
80032b40:	ff004230 	andi	v0,v0,0xff
80032b44:	80100200 	sll	v0,v0,0x2
80032b48:	21282202 	addu	a1,s1,v0
80032b4c:	2000a627 	addiu	a2,sp,32
80032b50:	2130c200 	addu	a2,a2,v0
80032b54:	0800048e 	lw	a0,8(s0)
80032b58:	21380000 	move	a3,zero
80032b5c:	e85d000c 	jal	0x800177a0
80032b60:	21200402 	addu	a0,s0,a0
80032b64:	21200002 	move	a0,s0
80032b68:	9454000c 	jal	0x80015250
80032b6c:	02000524 	li	a1,2
80032b70:	3800bf8f 	lw	ra,56(sp)
80032b74:	3400b18f 	lw	s1,52(sp)
80032b78:	3000b08f 	lw	s0,48(sp)
80032b7c:	4000bd27 	addiu	sp,sp,64
80032b80:	0800e003 	jr	ra
80032b84:	00000000 	nop
80032b88:	c8ffbd27 	addiu	sp,sp,-56
80032b8c:	3000b0af 	sw	s0,48(sp)
80032b90:	21808000 	move	s0,a0
80032b94:	0180023c 	lui	v0,0x8001
80032b98:	3400bfaf 	sw	ra,52(sp)
80032b9c:	30104624 	addiu	a2,v0,4144
80032ba0:	0300c388 	lwl	v1,3(a2)
80032ba4:	0000c398 	lwr	v1,0(a2)
80032ba8:	0700c488 	lwl	a0,7(a2)
80032bac:	0400c498 	lwr	a0,4(a2)
80032bb0:	0b00c588 	lwl	a1,11(a2)
80032bb4:	0800c598 	lwr	a1,8(a2)
80032bb8:	1300a3ab 	swl	v1,19(sp)
80032bbc:	1000a3bb 	swr	v1,16(sp)
80032bc0:	1700a4ab 	swl	a0,23(sp)
80032bc4:	1400a4bb 	swr	a0,20(sp)
80032bc8:	1b00a5ab 	swl	a1,27(sp)
80032bcc:	1800a5bb 	swr	a1,24(sp)
80032bd0:	0f00c388 	lwl	v1,15(a2)
80032bd4:	0c00c398 	lwr	v1,12(a2)
80032bd8:	00000000 	nop
80032bdc:	1f00a3ab 	swl	v1,31(sp)
80032be0:	1c00a3bb 	swr	v1,28(sp)
80032be4:	0180023c 	lui	v0,0x8001
80032be8:	40104624 	addiu	a2,v0,4160
80032bec:	0300c388 	lwl	v1,3(a2)
80032bf0:	0000c398 	lwr	v1,0(a2)
80032bf4:	0700c488 	lwl	a0,7(a2)
80032bf8:	0400c498 	lwr	a0,4(a2)
80032bfc:	0b00c588 	lwl	a1,11(a2)
80032c00:	0800c598 	lwr	a1,8(a2)
80032c04:	2300a3ab 	swl	v1,35(sp)
80032c08:	2000a3bb 	swr	v1,32(sp)
80032c0c:	2700a4ab 	swl	a0,39(sp)
80032c10:	2400a4bb 	swr	a0,36(sp)
80032c14:	2b00a5ab 	swl	a1,43(sp)
80032c18:	2800a5bb 	swr	a1,40(sp)
80032c1c:	0f00c388 	lwl	v1,15(a2)
80032c20:	0c00c398 	lwr	v1,12(a2)
80032c24:	00000000 	nop
80032c28:	2f00a3ab 	swl	v1,47(sp)
80032c2c:	2c00a3bb 	swr	v1,44(sp)
80032c30:	9b54000c 	jal	0x8001526c
80032c34:	21200002 	move	a0,s0
80032c38:	21200002 	move	a0,s0
80032c3c:	1000a527 	addiu	a1,sp,16
80032c40:	2000a627 	addiu	a2,sp,32
80032c44:	ff004230 	andi	v0,v0,0xff
80032c48:	80100200 	sll	v0,v0,0x2
80032c4c:	2128a200 	addu	a1,a1,v0
80032c50:	2130c200 	addu	a2,a2,v0
80032c54:	17fb000c 	jal	0x8003ec5c
80032c58:	21380000 	move	a3,zero
80032c5c:	3400bf8f 	lw	ra,52(sp)
80032c60:	3000b08f 	lw	s0,48(sp)
80032c64:	3800bd27 	addiu	sp,sp,56
80032c68:	0800e003 	jr	ra
80032c6c:	00000000 	nop
80032c70:	68ffbd27 	addiu	sp,sp,-152
80032c74:	9000b0af 	sw	s0,144(sp)
80032c78:	21808000 	move	s0,a0
80032c7c:	1000a727 	addiu	a3,sp,16
80032c80:	0180023c 	lui	v0,0x8001
80032c84:	50104624 	addiu	a2,v0,4176
80032c88:	0300c230 	andi	v0,a2,0x3
80032c8c:	17004010 	beqz	v0,0x80032cec
80032c90:	9400bfaf 	sw	ra,148(sp)
80032c94:	4000c824 	addiu	t0,a2,64
80032c98:	0300c288 	lwl	v0,3(a2)
80032c9c:	0000c298 	lwr	v0,0(a2)
80032ca0:	0700c388 	lwl	v1,7(a2)
80032ca4:	0400c398 	lwr	v1,4(a2)
80032ca8:	0b00c488 	lwl	a0,11(a2)
80032cac:	0800c498 	lwr	a0,8(a2)
80032cb0:	0f00c588 	lwl	a1,15(a2)
80032cb4:	0c00c598 	lwr	a1,12(a2)
80032cb8:	0300e2a8 	swl	v0,3(a3)
80032cbc:	0000e2b8 	swr	v0,0(a3)
80032cc0:	0700e3a8 	swl	v1,7(a3)
80032cc4:	0400e3b8 	swr	v1,4(a3)
80032cc8:	0b00e4a8 	swl	a0,11(a3)
80032ccc:	0800e4b8 	swr	a0,8(a3)
80032cd0:	0f00e5a8 	swl	a1,15(a3)
80032cd4:	0c00e5b8 	swr	a1,12(a3)
80032cd8:	1000c624 	addiu	a2,a2,16
80032cdc:	eeffc814 	bne	a2,t0,0x80032c98
80032ce0:	1000e724 	addiu	a3,a3,16
80032ce4:	488d0008 	j	0x80023520
80032ce8:	5000a727 	addiu	a3,sp,80
80032cec:	4000c824 	addiu	t0,a2,64
80032cf0:	0000c28c 	lw	v0,0(a2)
80032cf4:	0400c38c 	lw	v1,4(a2)
80032cf8:	0800c48c 	lw	a0,8(a2)
80032cfc:	0c00c58c 	lw	a1,12(a2)
80032d00:	0000e2ac 	sw	v0,0(a3)
80032d04:	0400e3ac 	sw	v1,4(a3)
80032d08:	0800e4ac 	sw	a0,8(a3)
80032d0c:	0c00e5ac 	sw	a1,12(a3)
80032d10:	1000c624 	addiu	a2,a2,16
80032d14:	f6ffc814 	bne	a2,t0,0x80032cf0
80032d18:	1000e724 	addiu	a3,a3,16
80032d1c:	5000a727 	addiu	a3,sp,80
80032d20:	0180023c 	lui	v0,0x8001
80032d24:	90104624 	addiu	a2,v0,4240
80032d28:	0300c230 	andi	v0,a2,0x3
80032d2c:	16004010 	beqz	v0,0x80032d88
80032d30:	4000c824 	addiu	t0,a2,64
80032d34:	0300c288 	lwl	v0,3(a2)
80032d38:	0000c298 	lwr	v0,0(a2)
80032d3c:	0700c388 	lwl	v1,7(a2)
80032d40:	0400c398 	lwr	v1,4(a2)
80032d44:	0b00c488 	lwl	a0,11(a2)
80032d48:	0800c498 	lwr	a0,8(a2)
80032d4c:	0f00c588 	lwl	a1,15(a2)
80032d50:	0c00c598 	lwr	a1,12(a2)
80032d54:	0300e2a8 	swl	v0,3(a3)
80032d58:	0000e2b8 	swr	v0,0(a3)
80032d5c:	0700e3a8 	swl	v1,7(a3)
80032d60:	0400e3b8 	swr	v1,4(a3)
80032d64:	0b00e4a8 	swl	a0,11(a3)
80032d68:	0800e4b8 	swr	a0,8(a3)
80032d6c:	0f00e5a8 	swl	a1,15(a3)
80032d70:	0c00e5b8 	swr	a1,12(a3)
80032d74:	1000c624 	addiu	a2,a2,16
80032d78:	eeffc814 	bne	a2,t0,0x80032d34
80032d7c:	1000e724 	addiu	a3,a3,16
80032d80:	6d8d0008 	j	0x800235b4
80032d84:	00000000 	nop
80032d88:	0000c28c 	lw	v0,0(a2)
80032d8c:	0400c38c 	lw	v1,4(a2)
80032d90:	0800c48c 	lw	a0,8(a2)
80032d94:	0c00c58c 	lw	a1,12(a2)
80032d98:	0000e2ac 	sw	v0,0(a3)
80032d9c:	0400e3ac 	sw	v1,4(a3)
80032da0:	0800e4ac 	sw	a0,8(a3)
80032da4:	0c00e5ac 	sw	a1,12(a3)
80032da8:	1000c624 	addiu	a2,a2,16
80032dac:	f6ffc814 	bne	a2,t0,0x80032d88
80032db0:	1000e724 	addiu	a3,a3,16
80032db4:	9b54000c 	jal	0x8001526c
80032db8:	21200002 	move	a0,s0
80032dbc:	0800048e 	lw	a0,8(s0)
80032dc0:	ff004230 	andi	v0,v0,0xff
80032dc4:	80100200 	sll	v0,v0,0x2
80032dc8:	1000a527 	addiu	a1,sp,16
80032dcc:	2128a200 	addu	a1,a1,v0
80032dd0:	5000a627 	addiu	a2,sp,80
80032dd4:	2130c200 	addu	a2,a2,v0
80032dd8:	21380000 	move	a3,zero
80032ddc:	e85d000c 	jal	0x800177a0
80032de0:	21200402 	addu	a0,s0,a0
80032de4:	21200002 	move	a0,s0
80032de8:	9454000c 	jal	0x80015250
80032dec:	02000524 	li	a1,2
80032df0:	9400bf8f 	lw	ra,148(sp)
80032df4:	9000b08f 	lw	s0,144(sp)
80032df8:	9800bd27 	addiu	sp,sp,152
80032dfc:	0800e003 	jr	ra
80032e00:	00000000 	nop
80032e04:	68ffbd27 	addiu	sp,sp,-152
80032e08:	9000b0af 	sw	s0,144(sp)
80032e0c:	21808000 	move	s0,a0
80032e10:	1000a727 	addiu	a3,sp,16
80032e14:	0180023c 	lui	v0,0x8001
80032e18:	50104624 	addiu	a2,v0,4176
80032e1c:	0300c230 	andi	v0,a2,0x3
80032e20:	17004010 	beqz	v0,0x80032e80
80032e24:	9400bfaf 	sw	ra,148(sp)
80032e28:	4000c824 	addiu	t0,a2,64
80032e2c:	0300c288 	lwl	v0,3(a2)
80032e30:	0000c298 	lwr	v0,0(a2)
80032e34:	0700c388 	lwl	v1,7(a2)
80032e38:	0400c398 	lwr	v1,4(a2)
80032e3c:	0b00c488 	lwl	a0,11(a2)
80032e40:	0800c498 	lwr	a0,8(a2)
80032e44:	0f00c588 	lwl	a1,15(a2)
80032e48:	0c00c598 	lwr	a1,12(a2)
80032e4c:	0300e2a8 	swl	v0,3(a3)
80032e50:	0000e2b8 	swr	v0,0(a3)
80032e54:	0700e3a8 	swl	v1,7(a3)
80032e58:	0400e3b8 	swr	v1,4(a3)
80032e5c:	0b00e4a8 	swl	a0,11(a3)
80032e60:	0800e4b8 	swr	a0,8(a3)
80032e64:	0f00e5a8 	swl	a1,15(a3)
80032e68:	0c00e5b8 	swr	a1,12(a3)
80032e6c:	1000c624 	addiu	a2,a2,16
80032e70:	eeffc814 	bne	a2,t0,0x80032e2c
80032e74:	1000e724 	addiu	a3,a3,16
80032e78:	ad8d0008 	j	0x800236b4
80032e7c:	5000a727 	addiu	a3,sp,80
80032e80:	4000c824 	addiu	t0,a2,64
80032e84:	0000c28c 	lw	v0,0(a2)
80032e88:	0400c38c 	lw	v1,4(a2)
80032e8c:	0800c48c 	lw	a0,8(a2)
80032e90:	0c00c58c 	lw	a1,12(a2)
80032e94:	0000e2ac 	sw	v0,0(a3)
80032e98:	0400e3ac 	sw	v1,4(a3)
80032e9c:	0800e4ac 	sw	a0,8(a3)
80032ea0:	0c00e5ac 	sw	a1,12(a3)
80032ea4:	1000c624 	addiu	a2,a2,16
80032ea8:	f6ffc814 	bne	a2,t0,0x80032e84
80032eac:	1000e724 	addiu	a3,a3,16
80032eb0:	5000a727 	addiu	a3,sp,80
80032eb4:	0180023c 	lui	v0,0x8001
80032eb8:	90104624 	addiu	a2,v0,4240
80032ebc:	0300c230 	andi	v0,a2,0x3
80032ec0:	16004010 	beqz	v0,0x80032f1c
80032ec4:	4000c824 	addiu	t0,a2,64
80032ec8:	0300c288 	lwl	v0,3(a2)
80032ecc:	0000c298 	lwr	v0,0(a2)
80032ed0:	0700c388 	lwl	v1,7(a2)
80032ed4:	0400c398 	lwr	v1,4(a2)
80032ed8:	0b00c488 	lwl	a0,11(a2)
80032edc:	0800c498 	lwr	a0,8(a2)
80032ee0:	0f00c588 	lwl	a1,15(a2)
80032ee4:	0c00c598 	lwr	a1,12(a2)
80032ee8:	0300e2a8 	swl	v0,3(a3)
80032eec:	0000e2b8 	swr	v0,0(a3)
80032ef0:	0700e3a8 	swl	v1,7(a3)
80032ef4:	0400e3b8 	swr	v1,4(a3)
80032ef8:	0b00e4a8 	swl	a0,11(a3)
80032efc:	0800e4b8 	swr	a0,8(a3)
80032f00:	0f00e5a8 	swl	a1,15(a3)
80032f04:	0c00e5b8 	swr	a1,12(a3)
80032f08:	1000c624 	addiu	a2,a2,16
80032f0c:	eeffc814 	bne	a2,t0,0x80032ec8
80032f10:	1000e724 	addiu	a3,a3,16
80032f14:	d28d0008 	j	0x80023748
80032f18:	00000000 	nop
80032f1c:	0000c28c 	lw	v0,0(a2)
80032f20:	0400c38c 	lw	v1,4(a2)
80032f24:	0800c48c 	lw	a0,8(a2)
80032f28:	0c00c58c 	lw	a1,12(a2)
80032f2c:	0000e2ac 	sw	v0,0(a3)
80032f30:	0400e3ac 	sw	v1,4(a3)
80032f34:	0800e4ac 	sw	a0,8(a3)
80032f38:	0c00e5ac 	sw	a1,12(a3)
80032f3c:	1000c624 	addiu	a2,a2,16
80032f40:	f6ffc814 	bne	a2,t0,0x80032f1c
80032f44:	1000e724 	addiu	a3,a3,16
80032f48:	9b54000c 	jal	0x8001526c
80032f4c:	21200002 	move	a0,s0
80032f50:	21200002 	move	a0,s0
80032f54:	ff004230 	andi	v0,v0,0xff
80032f58:	80100200 	sll	v0,v0,0x2
80032f5c:	1000a527 	addiu	a1,sp,16
80032f60:	5000a627 	addiu	a2,sp,80
80032f64:	2128a200 	addu	a1,a1,v0
80032f68:	2130c200 	addu	a2,a2,v0
80032f6c:	17fb000c 	jal	0x8003ec5c
80032f70:	21380000 	move	a3,zero
80032f74:	9400bf8f 	lw	ra,148(sp)
80032f78:	9000b08f 	lw	s0,144(sp)
80032f7c:	9800bd27 	addiu	sp,sp,152
80032f80:	0800e003 	jr	ra
80032f84:	00000000 	nop
80032f88:	e8ffbd27 	addiu	sp,sp,-24
80032f8c:	1000bfaf 	sw	ra,16(sp)
80032f90:	9454000c 	jal	0x80015250
80032f94:	02000524 	li	a1,2
80032f98:	1000bf8f 	lw	ra,16(sp)
80032f9c:	1800bd27 	addiu	sp,sp,24
80032fa0:	0800e003 	jr	ra
80032fa4:	00000000 	nop
80032fa8:	c8ffbd27 	addiu	sp,sp,-56
80032fac:	3000beaf 	sw	s8,48(sp)
80032fb0:	21f08000 	move	s8,a0
80032fb4:	2800b6af 	sw	s6,40(sp)
80032fb8:	21b0a000 	move	s6,a1
80032fbc:	1c00b3af 	sw	s3,28(sp)
80032fc0:	ffffd333 	andi	s3,s8,0xffff
80032fc4:	21206002 	move	a0,s3
80032fc8:	2000b4af 	sw	s4,32(sp)
80032fcc:	0100d426 	addiu	s4,s6,1
80032fd0:	ffff8532 	andi	a1,s4,0xffff
80032fd4:	1000b0af 	sw	s0,16(sp)
80032fd8:	2180c000 	move	s0,a2
80032fdc:	2400b5af 	sw	s5,36(sp)
80032fe0:	21a8e000 	move	s5,a3
80032fe4:	3400bfaf 	sw	ra,52(sp)
80032fe8:	2c00b7af 	sw	s7,44(sp)
80032fec:	1800b2af 	sw	s2,24(sp)
80032ff0:	b257000c 	jal	0x80015ec8
80032ff4:	1400b1af 	sw	s1,20(sp)
80032ff8:	21206002 	move	a0,s3
80032ffc:	ffffc532 	andi	a1,s6,0xffff
80033000:	b257000c 	jal	0x80015ec8
80033004:	21884000 	move	s1,v0
80033008:	21284000 	move	a1,v0
8003300c:	2b10b100 	sltu	v0,a1,s1
80033010:	02004010 	beqz	v0,0x8003301c
80033014:	0a80043c 	lui	a0,0x800a
80033018:	21282002 	move	a1,s1
8003301c:	88c88424 	addiu	a0,a0,-14200
80033020:	ffff1232 	andi	s2,s0,0xffff
80033024:	80101200 	sll	v0,s2,0x2
80033028:	1680063c 	lui	a2,0x8016
8003302c:	dc53c624 	addiu	a2,a2,21468
80033030:	5954000c 	jal	0x80015164
80033034:	21304600 	addu	a2,v0,a2
80033038:	21804000 	move	s0,v0
8003303c:	5e000012 	beqz	s0,0x800331b8
80033040:	21200002 	move	a0,s0
80033044:	9454000c 	jal	0x80015250
80033048:	03000524 	li	a1,3
8003304c:	21200002 	move	a0,s0
80033050:	9e54000c 	jal	0x80015278
80033054:	21284002 	move	a1,s2
80033058:	21200002 	move	a0,s0
8003305c:	9954000c 	jal	0x80015264
80033060:	ff00a532 	andi	a1,s5,0xff
80033064:	06002012 	beqz	s1,0x80033080
80033068:	2120c003 	move	a0,s8
8003306c:	21288002 	move	a1,s4
80033070:	21300002 	move	a2,s0
80033074:	0280073c 	lui	a3,0x8002
80033078:	5557000c 	jal	0x80015d54
8003307c:	8833e724 	addiu	a3,a3,13192
80033080:	2120c003 	move	a0,s8
80033084:	2128c002 	move	a1,s6
80033088:	21300002 	move	a2,s0
8003308c:	0280073c 	lui	a3,0x8002
80033090:	5557000c 	jal	0x80015d54
80033094:	8832e724 	addiu	a3,a3,12936
80033098:	21206002 	move	a0,s3
8003309c:	0200c526 	addiu	a1,s6,2
800330a0:	b257000c 	jal	0x80015ec8
800330a4:	ffffa530 	andi	a1,a1,0xffff
800330a8:	43004010 	beqz	v0,0x800331b8
800330ac:	6666023c 	lui	v0,0x6666
800330b0:	67664234 	ori	v0,v0,0x6667
800330b4:	1800c202 	mult	s6,v0
800330b8:	c3171600 	sra	v0,s6,0x1f
800330bc:	10400000 	mfhi	t0
800330c0:	43180800 	sra	v1,t0,0x1
800330c4:	23a06200 	subu	s4,v1,v0
800330c8:	21208002 	move	a0,s4
800330cc:	c0181400 	sll	v1,s4,0x3
800330d0:	1e80023c 	lui	v0,0x801e
800330d4:	28d24524 	addiu	a1,v0,-11736
800330d8:	02008106 	bgez	s4,0x800330e4
800330dc:	21986500 	addu	s3,v1,a1
800330e0:	03008426 	addiu	a0,s4,3
800330e4:	83100400 	sra	v0,a0,0x2
800330e8:	80100200 	sll	v0,v0,0x2
800330ec:	23108202 	subu	v0,s4,v0
800330f0:	c0100200 	sll	v0,v0,0x3
800330f4:	21804500 	addu	s0,v0,a1
800330f8:	03001224 	li	s2,3
800330fc:	21b84002 	move	s7,s2
80033100:	ffff1524 	li	s5,-1
80033104:	03001316 	bne	s0,s3,0x80033114
80033108:	00000000 	nop
8003310c:	5c8e0008 	j	0x80023970
80033110:	20007026 	addiu	s0,s3,32
80033114:	0000028e 	lw	v0,0(s0)
80033118:	00000000 	nop
8003311c:	13004010 	beqz	v0,0x8003316c
80033120:	00000000 	nop
80033124:	04004284 	lh	v0,4(v0)
80033128:	00000000 	nop
8003312c:	0a005714 	bne	v0,s7,0x80033158
80033130:	00000000 	nop
80033134:	03001124 	li	s1,3
80033138:	c754000c 	jal	0x8001531c
8003313c:	00000000 	nop
80033140:	0000028e 	lw	v0,0(s0)
80033144:	00000000 	nop
80033148:	04004284 	lh	v0,4(v0)
8003314c:	00000000 	nop
80033150:	f9ff5110 	beq	v0,s1,0x80033138
80033154:	00000000 	nop
80033158:	04000486 	lh	a0,4(s0)
8003315c:	59cd010c 	jal	0x80073564
80033160:	00000000 	nop
80033164:	040015a6 	sh	s5,4(s0)
80033168:	000000ae 	sw	zero,0(s0)
8003316c:	20001026 	addiu	s0,s0,32
80033170:	ffff5226 	addiu	s2,s2,-1
80033174:	e3ff5516 	bne	s2,s5,0x80033104
80033178:	00000000 	nop
8003317c:	0000648e 	lw	a0,0(s3)
80033180:	00000000 	nop
80033184:	07008014 	bnez	a0,0x800331a4
80033188:	01000224 	li	v0,1
8003318c:	2120c003 	move	a0,s8
80033190:	0200c526 	addiu	a1,s6,2
80033194:	8362010c 	jal	0x80058a0c
80033198:	08008626 	addiu	a2,s4,8
8003319c:	6e8e0008 	j	0x800239b8
800331a0:	00000000 	nop
800331a4:	04008384 	lh	v1,4(a0)
800331a8:	00000000 	nop
800331ac:	02006214 	bne	v1,v0,0x800331b8
800331b0:	02000224 	li	v0,2
800331b4:	040082a4 	sh	v0,4(a0)
800331b8:	3400bf8f 	lw	ra,52(sp)
800331bc:	3000be8f 	lw	s8,48(sp)
800331c0:	2c00b78f 	lw	s7,44(sp)
800331c4:	2800b68f 	lw	s6,40(sp)
800331c8:	2400b58f 	lw	s5,36(sp)
800331cc:	2000b48f 	lw	s4,32(sp)
800331d0:	1c00b38f 	lw	s3,28(sp)
800331d4:	1800b28f 	lw	s2,24(sp)
800331d8:	1400b18f 	lw	s1,20(sp)
800331dc:	1000b08f 	lw	s0,16(sp)
800331e0:	3800bd27 	addiu	sp,sp,56
800331e4:	0800e003 	jr	ra
800331e8:	00000000 	nop
800331ec:	d8ffbd27 	addiu	sp,sp,-40
800331f0:	2000b4af 	sw	s4,32(sp)
800331f4:	21a08000 	move	s4,a0
800331f8:	ffff8432 	andi	a0,s4,0xffff
800331fc:	1800b2af 	sw	s2,24(sp)
80033200:	0400b224 	addiu	s2,a1,4
80033204:	ffff4532 	andi	a1,s2,0xffff
80033208:	1400b1af 	sw	s1,20(sp)
8003320c:	2188c000 	move	s1,a2
80033210:	1c00b3af 	sw	s3,28(sp)
80033214:	2198e000 	move	s3,a3
80033218:	2400bfaf 	sw	ra,36(sp)
8003321c:	b257000c 	jal	0x80015ec8
80033220:	1000b0af 	sw	s0,16(sp)
80033224:	1c004010 	beqz	v0,0x80033298
80033228:	21802002 	move	s0,s1
8003322c:	0a80043c 	lui	a0,0x800a
80033230:	88c88424 	addiu	a0,a0,-14200
80033234:	21284000 	move	a1,v0
80033238:	ffff0232 	andi	v0,s0,0xffff
8003323c:	80100200 	sll	v0,v0,0x2
80033240:	1680063c 	lui	a2,0x8016
80033244:	9c53c624 	addiu	a2,a2,21404
80033248:	5954000c 	jal	0x80015164
8003324c:	21304600 	addu	a2,v0,a2
80033250:	21804000 	move	s0,v0
80033254:	10000012 	beqz	s0,0x80033298
80033258:	21200002 	move	a0,s0
8003325c:	9454000c 	jal	0x80015250
80033260:	03000524 	li	a1,3
80033264:	21200002 	move	a0,s0
80033268:	f0ff2526 	addiu	a1,s1,-16
8003326c:	9e54000c 	jal	0x80015278
80033270:	ffffa530 	andi	a1,a1,0xffff
80033274:	21200002 	move	a0,s0
80033278:	9954000c 	jal	0x80015264
8003327c:	ff006532 	andi	a1,s3,0xff
80033280:	21208002 	move	a0,s4
80033284:	21284002 	move	a1,s2
80033288:	21300002 	move	a2,s0
8003328c:	0280073c 	lui	a3,0x8002
80033290:	5557000c 	jal	0x80015d54
80033294:	8832e724 	addiu	a3,a3,12936
80033298:	2400bf8f 	lw	ra,36(sp)
8003329c:	2000b48f 	lw	s4,32(sp)
800332a0:	1c00b38f 	lw	s3,28(sp)
800332a4:	1800b28f 	lw	s2,24(sp)
800332a8:	1400b18f 	lw	s1,20(sp)
800332ac:	1000b08f 	lw	s0,16(sp)
800332b0:	2800bd27 	addiu	sp,sp,40
800332b4:	0800e003 	jr	ra
800332b8:	00000000 	nop
800332bc:	d0ffbd27 	addiu	sp,sp,-48
800332c0:	1800b2af 	sw	s2,24(sp)
800332c4:	21908000 	move	s2,a0
800332c8:	1c00b3af 	sw	s3,28(sp)
800332cc:	2198a000 	move	s3,a1
800332d0:	1000b0af 	sw	s0,16(sp)
800332d4:	ffff5032 	andi	s0,s2,0xffff
800332d8:	21200002 	move	a0,s0
800332dc:	2000b4af 	sw	s4,32(sp)
800332e0:	01007426 	addiu	s4,s3,1
800332e4:	ffff8532 	andi	a1,s4,0xffff
800332e8:	1400b1af 	sw	s1,20(sp)
800332ec:	2188c000 	move	s1,a2
800332f0:	2400b5af 	sw	s5,36(sp)
800332f4:	2800bfaf 	sw	ra,40(sp)
800332f8:	b257000c 	jal	0x80015ec8
800332fc:	21a8e000 	move	s5,a3
80033300:	21200002 	move	a0,s0
80033304:	ffff6532 	andi	a1,s3,0xffff
80033308:	b257000c 	jal	0x80015ec8
8003330c:	21804000 	move	s0,v0
80033310:	21284000 	move	a1,v0
80033314:	2b10b000 	sltu	v0,a1,s0
80033318:	02004010 	beqz	v0,0x80033324
8003331c:	0a80043c 	lui	a0,0x800a
80033320:	21280002 	move	a1,s0
80033324:	88c88424 	addiu	a0,a0,-14200
80033328:	ffff3132 	andi	s1,s1,0xffff
8003332c:	80101100 	sll	v0,s1,0x2
80033330:	1680063c 	lui	a2,0x8016
80033334:	dc53c624 	addiu	a2,a2,21468
80033338:	5954000c 	jal	0x80015164
8003333c:	21304600 	addu	a2,v0,a2
80033340:	21804000 	move	s0,v0
80033344:	15000012 	beqz	s0,0x8003339c
80033348:	21200002 	move	a0,s0
8003334c:	9454000c 	jal	0x80015250
80033350:	03000524 	li	a1,3
80033354:	21200002 	move	a0,s0
80033358:	9e54000c 	jal	0x80015278
8003335c:	21282002 	move	a1,s1
80033360:	21200002 	move	a0,s0
80033364:	9954000c 	jal	0x80015264
80033368:	ff00a532 	andi	a1,s5,0xff
8003336c:	21204002 	move	a0,s2
80033370:	21288002 	move	a1,s4
80033374:	21300002 	move	a2,s0
80033378:	0280073c 	lui	a3,0x8002
8003337c:	5557000c 	jal	0x80015d54
80033380:	0436e724 	addiu	a3,a3,13828
80033384:	21204002 	move	a0,s2
80033388:	21286002 	move	a1,s3
8003338c:	21300002 	move	a2,s0
80033390:	0280073c 	lui	a3,0x8002
80033394:	5557000c 	jal	0x80015d54
80033398:	7034e724 	addiu	a3,a3,13424
8003339c:	2800bf8f 	lw	ra,40(sp)
800333a0:	2400b58f 	lw	s5,36(sp)
800333a4:	2000b48f 	lw	s4,32(sp)
800333a8:	1c00b38f 	lw	s3,28(sp)
800333ac:	1800b28f 	lw	s2,24(sp)
800333b0:	1400b18f 	lw	s1,20(sp)
800333b4:	1000b08f 	lw	s0,16(sp)
800333b8:	3000bd27 	addiu	sp,sp,48
800333bc:	0800e003 	jr	ra
800333c0:	00000000 	nop
800333c4:	d8ffbd27 	addiu	sp,sp,-40
800333c8:	1800b2af 	sw	s2,24(sp)
800333cc:	21908000 	move	s2,a0
800333d0:	1c00b3af 	sw	s3,28(sp)
800333d4:	2198a000 	move	s3,a1
800333d8:	1400b1af 	sw	s1,20(sp)
800333dc:	2188c000 	move	s1,a2
800333e0:	ffff4432 	andi	a0,s2,0xffff
800333e4:	ffff6532 	andi	a1,s3,0xffff
800333e8:	2000bfaf 	sw	ra,32(sp)
800333ec:	b257000c 	jal	0x80015ec8
800333f0:	1000b0af 	sw	s0,16(sp)
800333f4:	0a80043c 	lui	a0,0x800a
800333f8:	88c88424 	addiu	a0,a0,-14200
800333fc:	21284000 	move	a1,v0
80033400:	80101100 	sll	v0,s1,0x2
80033404:	1680063c 	lui	a2,0x8016
80033408:	dc53c624 	addiu	a2,a2,21468
8003340c:	5954000c 	jal	0x80015164
80033410:	21304600 	addu	a2,v0,a2
80033414:	21804000 	move	s0,v0
80033418:	0c000012 	beqz	s0,0x8003344c
8003341c:	21200002 	move	a0,s0
80033420:	9454000c 	jal	0x80015250
80033424:	03000524 	li	a1,3
80033428:	21200002 	move	a0,s0
8003342c:	9e54000c 	jal	0x80015278
80033430:	ffff2532 	andi	a1,s1,0xffff
80033434:	21204002 	move	a0,s2
80033438:	21286002 	move	a1,s3
8003343c:	21300002 	move	a2,s0
80033440:	0280073c 	lui	a3,0x8002
80033444:	5557000c 	jal	0x80015d54
80033448:	8837e724 	addiu	a3,a3,14216
8003344c:	2000bf8f 	lw	ra,32(sp)
80033450:	1c00b38f 	lw	s3,28(sp)
80033454:	1800b28f 	lw	s2,24(sp)
80033458:	1400b18f 	lw	s1,20(sp)
8003345c:	1000b08f 	lw	s0,16(sp)
80033460:	2800bd27 	addiu	sp,sp,40
80033464:	0800e003 	jr	ra
80033468:	00000000 	nop
8003346c:	c0ffbd27 	addiu	sp,sp,-64
80033470:	2800b4af 	sw	s4,40(sp)
80033474:	21a0c000 	move	s4,a2
80033478:	3400b7af 	sw	s7,52(sp)
8003347c:	801f173c 	lui	s7,0x1f80
80033480:	3000b6af 	sw	s6,48(sp)
80033484:	21b0a000 	move	s6,a1
80033488:	2138f600 	addu	a3,a3,s6
8003348c:	3c00bfaf 	sw	ra,60(sp)
80033490:	3800beaf 	sw	s8,56(sp)
80033494:	2c00b5af 	sw	s5,44(sp)
80033498:	2400b3af 	sw	s3,36(sp)
8003349c:	2000b2af 	sw	s2,32(sp)
800334a0:	1c00b1af 	sw	s1,28(sp)
800334a4:	1800b0af 	sw	s0,24(sp)
800334a8:	4000a4af 	sw	a0,64(sp)
800334ac:	f000fe8e 	lw	s8,240(s7)
800334b0:	2a10c702 	slt	v0,s6,a3
800334b4:	7b004010 	beqz	v0,0x800336a4
800334b8:	1000a7af 	sw	a3,16(sp)
800334bc:	80101600 	sll	v0,s6,0x2
800334c0:	21a85600 	addu	s5,v0,s6
800334c4:	0000c593 	lbu	a1,0(s8)
800334c8:	ffff9332 	andi	s3,s4,0xffff
800334cc:	80181300 	sll	v1,s3,0x2
800334d0:	1680083c 	lui	t0,0x8016
800334d4:	90d00825 	addiu	t0,t0,-12144
800334d8:	21186800 	addu	v1,v1,t0
800334dc:	4c830434 	li	a0,0x834c
800334e0:	21206400 	addu	a0,v1,a0
800334e4:	0c830234 	li	v0,0x830c
800334e8:	21186200 	addu	v1,v1,v0
800334ec:	0000908c 	lw	s0,0(a0)
800334f0:	0000728c 	lw	s2,0(v1)
800334f4:	4300a010 	beqz	a1,0x80033604
800334f8:	0100de27 	addiu	s8,s8,1
800334fc:	06000016 	bnez	s0,0x80033518
80033500:	0f008232 	andi	v0,s4,0xf
80033504:	2110e202 	addu	v0,s7,v0
80033508:	4000a48f 	lw	a0,64(sp)
8003350c:	c8004790 	lbu	a3,200(v0)
80033510:	598f0008 	j	0x80023d64
80033514:	2128a002 	move	a1,s5
80033518:	9654000c 	jal	0x80015258
8003351c:	21200002 	move	a0,s0
80033520:	ff004230 	andi	v0,v0,0xff
80033524:	01000824 	li	t0,1
80033528:	14004814 	bne	v0,t0,0x8003357c
8003352c:	00000000 	nop
80033530:	9b54000c 	jal	0x8001526c
80033534:	21200002 	move	a0,s0
80033538:	0f008332 	andi	v1,s4,0xf
8003353c:	2188e302 	addu	s1,s7,v1
80033540:	c8002392 	lbu	v1,200(s1)
80033544:	ff004230 	andi	v0,v0,0xff
80033548:	0a004310 	beq	v0,v1,0x80033574
8003354c:	21200002 	move	a0,s0
80033550:	8c54000c 	jal	0x80015230
80033554:	21200002 	move	a0,s0
80033558:	2128a002 	move	a1,s5
8003355c:	4000a48f 	lw	a0,64(sp)
80033560:	c8002792 	lbu	a3,200(s1)
80033564:	ea8d000c 	jal	0x800237a8
80033568:	21306002 	move	a2,s3
8003356c:	5f8f0008 	j	0x80023d7c
80033570:	00000000 	nop
80033574:	9454000c 	jal	0x80015250
80033578:	02000524 	li	a1,2
8003357c:	06004016 	bnez	s2,0x80033598
80033580:	0f008232 	andi	v0,s4,0xf
80033584:	2110e202 	addu	v0,s7,v0
80033588:	4000a48f 	lw	a0,64(sp)
8003358c:	c8004790 	lbu	a3,200(v0)
80033590:	798f0008 	j	0x80023de4
80033594:	2128a002 	move	a1,s5
80033598:	9654000c 	jal	0x80015258
8003359c:	21204002 	move	a0,s2
800335a0:	ff004230 	andi	v0,v0,0xff
800335a4:	01000824 	li	t0,1
800335a8:	37004814 	bne	v0,t0,0x80033688
800335ac:	00000000 	nop
800335b0:	9b54000c 	jal	0x8001526c
800335b4:	21204002 	move	a0,s2
800335b8:	0f008332 	andi	v1,s4,0xf
800335bc:	2180e302 	addu	s0,s7,v1
800335c0:	c8000392 	lbu	v1,200(s0)
800335c4:	ff004230 	andi	v0,v0,0xff
800335c8:	0a004310 	beq	v0,v1,0x800335f4
800335cc:	21204002 	move	a0,s2
800335d0:	8c54000c 	jal	0x80015230
800335d4:	21204002 	move	a0,s2
800335d8:	2128a002 	move	a1,s5
800335dc:	4000a48f 	lw	a0,64(sp)
800335e0:	c8000792 	lbu	a3,200(s0)
800335e4:	7b8e000c 	jal	0x800239ec
800335e8:	ffff8632 	andi	a2,s4,0xffff
800335ec:	a38f0008 	j	0x80023e8c
800335f0:	0500b526 	addiu	s5,s5,5
800335f4:	9454000c 	jal	0x80015250
800335f8:	02000524 	li	a1,2
800335fc:	a38f0008 	j	0x80023e8c
80033600:	0500b526 	addiu	s5,s5,5
80033604:	09000012 	beqz	s0,0x8003362c
80033608:	00000000 	nop
8003360c:	9654000c 	jal	0x80015258
80033610:	21200002 	move	a0,s0
80033614:	ff004230 	andi	v0,v0,0xff
80033618:	03000324 	li	v1,3
8003361c:	03004310 	beq	v0,v1,0x8003362c
80033620:	21200002 	move	a0,s0
80033624:	9454000c 	jal	0x80015250
80033628:	01000524 	li	a1,1
8003362c:	0a004012 	beqz	s2,0x80033658
80033630:	c0181600 	sll	v1,s6,0x3
80033634:	9654000c 	jal	0x80015258
80033638:	21204002 	move	a0,s2
8003363c:	ff004230 	andi	v0,v0,0xff
80033640:	03000324 	li	v1,3
80033644:	03004310 	beq	v0,v1,0x80033654
80033648:	21204002 	move	a0,s2
8003364c:	9454000c 	jal	0x80015250
80033650:	01000524 	li	a1,1
80033654:	c0181600 	sll	v1,s6,0x3
80033658:	1e80023c 	lui	v0,0x801e
8003365c:	28d24224 	addiu	v0,v0,-11736
80033660:	21186200 	addu	v1,v1,v0
80033664:	0000638c 	lw	v1,0(v1)
80033668:	00000000 	nop
8003366c:	06006010 	beqz	v1,0x80033688
80033670:	01000824 	li	t0,1
80033674:	04006284 	lh	v0,4(v1)
80033678:	00000000 	nop
8003367c:	02004814 	bne	v0,t0,0x80033688
80033680:	02000224 	li	v0,2
80033684:	040062a4 	sh	v0,4(v1)
80033688:	0500b526 	addiu	s5,s5,5
8003368c:	0100d626 	addiu	s6,s6,1
80033690:	1000a88f 	lw	t0,16(sp)
80033694:	00000000 	nop
80033698:	2a10c802 	slt	v0,s6,t0
8003369c:	89ff4014 	bnez	v0,0x800334c4
800336a0:	01009426 	addiu	s4,s4,1
800336a4:	3c00bf8f 	lw	ra,60(sp)
800336a8:	3800be8f 	lw	s8,56(sp)
800336ac:	3400b78f 	lw	s7,52(sp)
800336b0:	3000b68f 	lw	s6,48(sp)
800336b4:	2c00b58f 	lw	s5,44(sp)
800336b8:	2800b48f 	lw	s4,40(sp)
800336bc:	2400b38f 	lw	s3,36(sp)
800336c0:	2000b28f 	lw	s2,32(sp)
800336c4:	1c00b18f 	lw	s1,28(sp)
800336c8:	1800b08f 	lw	s0,24(sp)
800336cc:	4000bd27 	addiu	sp,sp,64
800336d0:	0800e003 	jr	ra
800336d4:	00000000 	nop
800336d8:	c8ffbd27 	addiu	sp,sp,-56
800336dc:	2c00b7af 	sw	s7,44(sp)
800336e0:	21b88000 	move	s7,a0
800336e4:	1800b2af 	sw	s2,24(sp)
800336e8:	2190c000 	move	s2,a2
800336ec:	1400b1af 	sw	s1,20(sp)
800336f0:	2188a000 	move	s1,a1
800336f4:	2400b5af 	sw	s5,36(sp)
800336f8:	21a8f100 	addu	s5,a3,s1
800336fc:	2000b4af 	sw	s4,32(sp)
80033700:	801f143c 	lui	s4,0x1f80
80033704:	f000948e 	lw	s4,240(s4)
80033708:	2a103502 	slt	v0,s1,s5
8003370c:	3000bfaf 	sw	ra,48(sp)
80033710:	2800b6af 	sw	s6,40(sp)
80033714:	1c00b3af 	sw	s3,28(sp)
80033718:	2e004010 	beqz	v0,0x800337d4
8003371c:	1000b0af 	sw	s0,16(sp)
80033720:	1c80023c 	lui	v0,0x801c
80033724:	f8765624 	addiu	s6,v0,30456
80033728:	1680023c 	lui	v0,0x8016
8003372c:	90d04224 	addiu	v0,v0,-12144
80033730:	80181200 	sll	v1,s2,0x2
80033734:	21986200 	addu	s3,v1,v0
80033738:	00008392 	lbu	v1,0(s4)
8003373c:	4c830234 	li	v0,0x834c
80033740:	21106202 	addu	v0,s3,v0
80033744:	0000508c 	lw	s0,0(v0)
80033748:	12006010 	beqz	v1,0x80033794
8003374c:	01009426 	addiu	s4,s4,1
80033750:	08000016 	bnez	s0,0x80033774
80033754:	2120e002 	move	a0,s7
80033758:	40281100 	sll	a1,s1,0x1
8003375c:	21105602 	addu	v0,s2,s6
80033760:	48fe4790 	lbu	a3,-440(v0)
80033764:	af8e000c 	jal	0x80023abc
80033768:	ffff4632 	andi	a2,s2,0xffff
8003376c:	f18f0008 	j	0x80023fc4
80033770:	01003126 	addiu	s1,s1,1
80033774:	9654000c 	jal	0x80015258
80033778:	21200002 	move	a0,s0
8003377c:	ff004230 	andi	v0,v0,0xff
80033780:	01000324 	li	v1,1
80033784:	0e004314 	bne	v0,v1,0x800337c0
80033788:	21200002 	move	a0,s0
8003378c:	ee8f0008 	j	0x80023fb8
80033790:	02000524 	li	a1,2
80033794:	0a000012 	beqz	s0,0x800337c0
80033798:	00000000 	nop
8003379c:	9654000c 	jal	0x80015258
800337a0:	21200002 	move	a0,s0
800337a4:	ff004230 	andi	v0,v0,0xff
800337a8:	03000324 	li	v1,3
800337ac:	04004310 	beq	v0,v1,0x800337c0
800337b0:	21200002 	move	a0,s0
800337b4:	01000524 	li	a1,1
800337b8:	9454000c 	jal	0x80015250
800337bc:	00000000 	nop
800337c0:	01003126 	addiu	s1,s1,1
800337c4:	04007326 	addiu	s3,s3,4
800337c8:	2a103502 	slt	v0,s1,s5
800337cc:	daff4014 	bnez	v0,0x80033738
800337d0:	01005226 	addiu	s2,s2,1
800337d4:	3000bf8f 	lw	ra,48(sp)
800337d8:	2c00b78f 	lw	s7,44(sp)
800337dc:	2800b68f 	lw	s6,40(sp)
800337e0:	2400b58f 	lw	s5,36(sp)
800337e4:	2000b48f 	lw	s4,32(sp)
800337e8:	1c00b38f 	lw	s3,28(sp)
800337ec:	1800b28f 	lw	s2,24(sp)
800337f0:	1400b18f 	lw	s1,20(sp)
800337f4:	1000b08f 	lw	s0,16(sp)
800337f8:	3800bd27 	addiu	sp,sp,56
800337fc:	0800e003 	jr	ra
80033800:	00000000 	nop
80033804:	c8ffbd27 	addiu	sp,sp,-56
80033808:	2000b4af 	sw	s4,32(sp)
8003380c:	21a0c000 	move	s4,a2
80033810:	1400b1af 	sw	s1,20(sp)
80033814:	2188a000 	move	s1,a1
80033818:	3000beaf 	sw	s8,48(sp)
8003381c:	21f0f100 	addu	s8,a3,s1
80033820:	2c00b7af 	sw	s7,44(sp)
80033824:	801f173c 	lui	s7,0x1f80
80033828:	f000f78e 	lw	s7,240(s7)
8003382c:	2a103e02 	slt	v0,s1,s8
80033830:	3400bfaf 	sw	ra,52(sp)
80033834:	2800b6af 	sw	s6,40(sp)
80033838:	2400b5af 	sw	s5,36(sp)
8003383c:	1c00b3af 	sw	s3,28(sp)
80033840:	1800b2af 	sw	s2,24(sp)
80033844:	1000b0af 	sw	s0,16(sp)
80033848:	54004010 	beqz	v0,0x8003399c
8003384c:	3800a4af 	sw	a0,56(sp)
80033850:	1680023c 	lui	v0,0x8016
80033854:	90d04224 	addiu	v0,v0,-12144
80033858:	80181400 	sll	v1,s4,0x2
8003385c:	21b06200 	addu	s6,v1,v0
80033860:	c0981100 	sll	s3,s1,0x3
80033864:	40101100 	sll	v0,s1,0x1
80033868:	21105100 	addu	v0,v0,s1
8003386c:	01005224 	addiu	s2,v0,1
80033870:	21a84000 	move	s5,v0
80033874:	0000e392 	lbu	v1,0(s7)
80033878:	4c830234 	li	v0,0x834c
8003387c:	2110c202 	addu	v0,s6,v0
80033880:	0000508c 	lw	s0,0(v0)
80033884:	27006010 	beqz	v1,0x80033924
80033888:	0100f726 	addiu	s7,s7,1
8003388c:	06000016 	bnez	s0,0x800338a8
80033890:	2128a002 	move	a1,s5
80033894:	3800a48f 	lw	a0,56(sp)
80033898:	f18e000c 	jal	0x80023bc4
8003389c:	21308002 	move	a2,s4
800338a0:	32900008 	j	0x800240c8
800338a4:	00000000 	nop
800338a8:	9654000c 	jal	0x80015258
800338ac:	21200002 	move	a0,s0
800338b0:	ff004230 	andi	v0,v0,0xff
800338b4:	01000824 	li	t0,1
800338b8:	03004814 	bne	v0,t0,0x800338c8
800338bc:	21200002 	move	a0,s0
800338c0:	9454000c 	jal	0x80015250
800338c4:	02000524 	li	a1,2
800338c8:	3800a497 	lhu	a0,56(sp)
800338cc:	b257000c 	jal	0x80015ec8
800338d0:	ffff4532 	andi	a1,s2,0xffff
800338d4:	29004010 	beqz	v0,0x8003397c
800338d8:	1e80083c 	lui	t0,0x801e
800338dc:	a8d20825 	addiu	t0,t0,-11608
800338e0:	21106802 	addu	v0,s3,t0
800338e4:	0000428c 	lw	v0,0(v0)
800338e8:	00000000 	nop
800338ec:	07004014 	bnez	v0,0x8003390c
800338f0:	21204000 	move	a0,v0
800338f4:	3800a48f 	lw	a0,56(sp)
800338f8:	21284002 	move	a1,s2
800338fc:	8362010c 	jal	0x80058a0c
80033900:	18002626 	addiu	a2,s1,24
80033904:	60900008 	j	0x80024180
80033908:	08007326 	addiu	s3,s3,8
8003390c:	04008384 	lh	v1,4(a0)
80033910:	02000224 	li	v0,2
80033914:	19006214 	bne	v1,v0,0x8003397c
80033918:	01000824 	li	t0,1
8003391c:	5f900008 	j	0x8002417c
80033920:	040088a4 	sh	t0,4(a0)
80033924:	0a000012 	beqz	s0,0x80033950
80033928:	1e80083c 	lui	t0,0x801e
8003392c:	9654000c 	jal	0x80015258
80033930:	21200002 	move	a0,s0
80033934:	ff004230 	andi	v0,v0,0xff
80033938:	03000324 	li	v1,3
8003393c:	03004310 	beq	v0,v1,0x8003394c
80033940:	21200002 	move	a0,s0
80033944:	9454000c 	jal	0x80015250
80033948:	01000524 	li	a1,1
8003394c:	1e80083c 	lui	t0,0x801e
80033950:	a8d20825 	addiu	t0,t0,-11608
80033954:	21106802 	addu	v0,s3,t0
80033958:	0000428c 	lw	v0,0(v0)
8003395c:	00000000 	nop
80033960:	06004010 	beqz	v0,0x8003397c
80033964:	21204000 	move	a0,v0
80033968:	04008284 	lh	v0,4(a0)
8003396c:	01000824 	li	t0,1
80033970:	02004814 	bne	v0,t0,0x8003397c
80033974:	02000224 	li	v0,2
80033978:	040082a4 	sh	v0,4(a0)
8003397c:	08007326 	addiu	s3,s3,8
80033980:	03005226 	addiu	s2,s2,3
80033984:	0300b526 	addiu	s5,s5,3
80033988:	01003126 	addiu	s1,s1,1
8003398c:	0400d626 	addiu	s6,s6,4
80033990:	2a103e02 	slt	v0,s1,s8
80033994:	b7ff4014 	bnez	v0,0x80033874
80033998:	01009426 	addiu	s4,s4,1
8003399c:	3400bf8f 	lw	ra,52(sp)
800339a0:	3000be8f 	lw	s8,48(sp)
800339a4:	2c00b78f 	lw	s7,44(sp)
800339a8:	2800b68f 	lw	s6,40(sp)
800339ac:	2400b58f 	lw	s5,36(sp)
800339b0:	2000b48f 	lw	s4,32(sp)
800339b4:	1c00b38f 	lw	s3,28(sp)
800339b8:	1800b28f 	lw	s2,24(sp)
800339bc:	1400b18f 	lw	s1,20(sp)
800339c0:	1000b08f 	lw	s0,16(sp)
800339c4:	3800bd27 	addiu	sp,sp,56
800339c8:	0800e003 	jr	ra
800339cc:	00000000 	nop
800339d0:	70ffbd27 	addiu	sp,sp,-144
800339d4:	801f033c 	lui	v1,0x1f80
800339d8:	f8006334 	ori	v1,v1,0xf8
800339dc:	801f023c 	lui	v0,0x1f80
800339e0:	44024234 	ori	v0,v0,0x244
800339e4:	801f043c 	lui	a0,0x1f80
800339e8:	f8008434 	ori	a0,a0,0xf8
800339ec:	21280000 	move	a1,zero
800339f0:	20000624 	li	a2,32
800339f4:	7400b3af 	sw	s3,116(sp)
800339f8:	801f133c 	lui	s3,0x1f80
800339fc:	8c00bfaf 	sw	ra,140(sp)
80033a00:	8800beaf 	sw	s8,136(sp)
80033a04:	8400b7af 	sw	s7,132(sp)
80033a08:	8000b6af 	sw	s6,128(sp)
80033a0c:	7c00b5af 	sw	s5,124(sp)
80033a10:	7800b4af 	sw	s4,120(sp)
80033a14:	7000b2af 	sw	s2,112(sp)
80033a18:	6c00b1af 	sw	s1,108(sp)
80033a1c:	6800b0af 	sw	s0,104(sp)
80033a20:	f00063ae 	sw	v1,240(s3)
80033a24:	5753000c 	jal	0x80014d5c
80033a28:	f40062ae 	sw	v0,244(s3)
80033a2c:	21206002 	move	a0,s3
80033a30:	44028434 	ori	a0,a0,0x244
80033a34:	21280000 	move	a1,zero
80033a38:	5753000c 	jal	0x80014d5c
80033a3c:	04000624 	li	a2,4
80033a40:	1c80023c 	lui	v0,0x801c
80033a44:	38a14324 	addiu	v1,v0,-24264
80033a48:	00617490 	lbu	s4,24832(v1)
80033a4c:	ffff0224 	li	v0,-1
80033a50:	ffff9426 	addiu	s4,s4,-1
80033a54:	0d018212 	beq	s4,v0,0x80033e8c
80033a58:	980060a6 	sh	zero,152(s3)
80033a5c:	21b06000 	move	s6,v1
80033a60:	0035de26 	addiu	s8,s6,13568
80033a64:	1780023c 	lui	v0,0x8017
80033a68:	90505724 	addiu	s7,v0,20624
80033a6c:	1680023c 	lui	v0,0x8016
80033a70:	90505524 	addiu	s5,v0,20624
80033a74:	40101400 	sll	v0,s4,0x1
80033a78:	21105600 	addu	v0,v0,s6
80033a7c:	04614394 	lhu	v1,24836(v0)
80033a80:	4800a527 	addiu	a1,sp,72
80033a84:	40100300 	sll	v0,v1,0x1
80033a88:	21104300 	addu	v0,v0,v1
80033a8c:	80100200 	sll	v0,v0,0x2
80033a90:	21104300 	addu	v0,v0,v1
80033a94:	80100200 	sll	v0,v0,0x2
80033a98:	21104300 	addu	v0,v0,v1
80033a9c:	80100200 	sll	v0,v0,0x2
80033aa0:	21885600 	addu	s1,v0,s6
80033aa4:	0b002492 	lbu	a0,11(s1)
80033aa8:	02002392 	lbu	v1,2(s1)
80033aac:	80008424 	addiu	a0,a0,128
80033ab0:	40100300 	sll	v0,v1,0x1
80033ab4:	21104300 	addu	v0,v0,v1
80033ab8:	80110200 	sll	v0,v0,0x6
80033abc:	6ecf000c 	jal	0x80033db8
80033ac0:	21805e00 	addu	s0,v0,s8
80033ac4:	1e002292 	lbu	v0,30(s1)
80033ac8:	040020a2 	sb	zero,4(s1)
80033acc:	3f004430 	andi	a0,v0,0x3f
80033ad0:	1e0024a2 	sb	a0,30(s1)
80033ad4:	046ee28e 	lw	v0,28164(s7)
80033ad8:	00000000 	nop
80033adc:	18004200 	mult	v0,v0
80033ae0:	3c00238e 	lw	v1,60(s1)
80033ae4:	12480000 	mflo	t1
80033ae8:	2b102301 	sltu	v0,t1,v1
80033aec:	08004010 	beqz	v0,0x80033b10
80033af0:	40008234 	ori	v0,a0,0x40
80033af4:	006ee28e 	lw	v0,28160(s7)
80033af8:	00000000 	nop
80033afc:	18004200 	mult	v0,v0
80033b00:	12480000 	mflo	t1
80033b04:	2b106900 	sltu	v0,v1,t1
80033b08:	02004014 	bnez	v0,0x80033b14
80033b0c:	80008234 	ori	v0,a0,0x80
80033b10:	1e0022a2 	sb	v0,30(s1)
80033b14:	1c00228e 	lw	v0,28(s1)
80033b18:	3000033c 	lui	v1,0x30
80033b1c:	24104300 	and	v0,v0,v1
80033b20:	04004010 	beqz	v0,0x80033b34
80033b24:	00000000 	nop
80033b28:	34002786 	lh	a3,52(s1)
80033b2c:	ce900008 	j	0x80024338
80033b30:	00000000 	nop
80033b34:	36002786 	lh	a3,54(s1)
80033b38:	10000396 	lhu	v1,16(s0)
80033b3c:	ffff0234 	li	v0,0xffff
80033b40:	0c006210 	beq	v1,v0,0x80033b74
80033b44:	1d80023c 	lui	v0,0x801d
80033b48:	21286000 	move	a1,v1
80033b4c:	08ba4224 	addiu	v0,v0,-17912
80033b50:	42210500 	srl	a0,a1,0x5
80033b54:	80200400 	sll	a0,a0,0x2
80033b58:	21208200 	addu	a0,a0,v0
80033b5c:	1f00a530 	andi	a1,a1,0x1f
80033b60:	01000224 	li	v0,1
80033b64:	a814838c 	lw	v1,5288(a0)
80033b68:	0410a200 	sllv	v0,v0,a1
80033b6c:	25186200 	or	v1,v1,v0
80033b70:	a81483ac 	sw	v1,5288(a0)
80033b74:	4800a28f 	lw	v0,72(sp)
80033b78:	00000000 	nop
80033b7c:	a7004010 	beqz	v0,0x80033e1c
80033b80:	02000224 	li	v0,2
80033b84:	7000228e 	lw	v0,112(s1)
80033b88:	00000000 	nop
80033b8c:	20004230 	andi	v0,v0,0x20
80033b90:	2d004010 	beqz	v0,0x80033c48
80033b94:	74002826 	addiu	t0,s1,116
80033b98:	21200000 	move	a0,zero
80033b9c:	21300001 	move	a2,t0
80033ba0:	dc0060a6 	sh	zero,220(s3)
80033ba4:	da0060a6 	sh	zero,218(s3)
80033ba8:	d80060a6 	sh	zero,216(s3)
80033bac:	21002282 	lb	v0,33(s1)
80033bb0:	e400a38e 	lw	v1,228(s5)
80033bb4:	80100200 	sll	v0,v0,0x2
80033bb8:	21186200 	addu	v1,v1,v0
80033bbc:	000063ae 	sw	v1,0(s3)
80033bc0:	21002382 	lb	v1,33(s1)
80033bc4:	04000224 	li	v0,4
80033bc8:	23104300 	subu	v0,v0,v1
80033bcc:	800062ae 	sw	v0,128(s3)
80033bd0:	21002282 	lb	v0,33(s1)
80033bd4:	00100324 	li	v1,4096
80033bd8:	23106200 	subu	v0,v1,v0
80033bdc:	040062ae 	sw	v0,4(s3)
80033be0:	0b002592 	lbu	a1,11(s1)
80033be4:	94002226 	addiu	v0,s1,148
80033be8:	1000a2af 	sw	v0,16(sp)
80033bec:	a4002226 	addiu	v0,s1,164
80033bf0:	1400a2af 	sw	v0,20(sp)
80033bf4:	0880023c 	lui	v0,0x8008
80033bf8:	0c044224 	addiu	v0,v0,1036
80033bfc:	23186700 	subu	v1,v1,a3
80033c00:	1800a2af 	sw	v0,24(sp)
80033c04:	08002292 	lbu	v0,8(s1)
80033c08:	001c0300 	sll	v1,v1,0x10
80033c0c:	1c00a2af 	sw	v0,28(sp)
80033c10:	2a002296 	lhu	v0,42(s1)
80033c14:	031c0300 	sra	v1,v1,0x10
80033c18:	2400a3af 	sw	v1,36(sp)
80033c1c:	2000a2af 	sw	v0,32(sp)
80033c20:	24002286 	lh	v0,36(s1)
80033c24:	d8006726 	addiu	a3,s3,216
80033c28:	2800a2af 	sw	v0,40(sp)
80033c2c:	1e002292 	lbu	v0,30(s1)
80033c30:	8000a524 	addiu	a1,a1,128
80033c34:	3000a0af 	sw	zero,48(sp)
80033c38:	9e89000c 	jal	0x80022678
80033c3c:	2c00a2af 	sw	v0,44(sp)
80033c40:	88910008 	j	0x80024620
80033c44:	00000000 	nop
80033c48:	0880023c 	lui	v0,0x8008
80033c4c:	047f4624 	addiu	a2,v0,32516
80033c50:	0300c388 	lwl	v1,3(a2)
80033c54:	0000c398 	lwr	v1,0(a2)
80033c58:	0700c488 	lwl	a0,7(a2)
80033c5c:	0400c498 	lwr	a0,4(a2)
80033c60:	6300a3ab 	swl	v1,99(sp)
80033c64:	6000a3bb 	swr	v1,96(sp)
80033c68:	6700a4ab 	swl	a0,103(sp)
80033c6c:	6400a4bb 	swr	a0,100(sp)
80033c70:	8c002396 	lhu	v1,140(s1)
80033c74:	01000224 	li	v0,1
80033c78:	040022a2 	sb	v0,4(s1)
80033c7c:	d80063a6 	sh	v1,216(s3)
80033c80:	8e002296 	lhu	v0,142(s1)
80033c84:	00000000 	nop
80033c88:	da0062a6 	sh	v0,218(s3)
80033c8c:	90002296 	lhu	v0,144(s1)
80033c90:	00000000 	nop
80033c94:	dc0062a6 	sh	v0,220(s3)
80033c98:	03002392 	lbu	v1,3(s1)
80033c9c:	03000224 	li	v0,3
80033ca0:	28006210 	beq	v1,v0,0x80033d44
80033ca4:	6000b027 	addiu	s0,sp,96
80033ca8:	21200000 	move	a0,zero
80033cac:	21300001 	move	a2,t0
80033cb0:	21002282 	lb	v0,33(s1)
80033cb4:	e400a38e 	lw	v1,228(s5)
80033cb8:	80100200 	sll	v0,v0,0x2
80033cbc:	21186200 	addu	v1,v1,v0
80033cc0:	000063ae 	sw	v1,0(s3)
80033cc4:	21002382 	lb	v1,33(s1)
80033cc8:	04000224 	li	v0,4
80033ccc:	23104300 	subu	v0,v0,v1
80033cd0:	800062ae 	sw	v0,128(s3)
80033cd4:	21002282 	lb	v0,33(s1)
80033cd8:	00100324 	li	v1,4096
80033cdc:	23106200 	subu	v0,v1,v0
80033ce0:	040062ae 	sw	v0,4(s3)
80033ce4:	0b002592 	lbu	a1,11(s1)
80033ce8:	94002226 	addiu	v0,s1,148
80033cec:	1000a2af 	sw	v0,16(sp)
80033cf0:	a4002226 	addiu	v0,s1,164
80033cf4:	1400a2af 	sw	v0,20(sp)
80033cf8:	1880023c 	lui	v0,0x8018
80033cfc:	78bd4224 	addiu	v0,v0,-17032
80033d00:	23186700 	subu	v1,v1,a3
80033d04:	1800a2af 	sw	v0,24(sp)
80033d08:	08002292 	lbu	v0,8(s1)
80033d0c:	001c0300 	sll	v1,v1,0x10
80033d10:	1c00a2af 	sw	v0,28(sp)
80033d14:	2a002296 	lhu	v0,42(s1)
80033d18:	031c0300 	sra	v1,v1,0x10
80033d1c:	2400a3af 	sw	v1,36(sp)
80033d20:	2000a2af 	sw	v0,32(sp)
80033d24:	24002286 	lh	v0,36(s1)
80033d28:	d8006726 	addiu	a3,s3,216
80033d2c:	2800a2af 	sw	v0,40(sp)
80033d30:	1e002292 	lbu	v0,30(s1)
80033d34:	8000a524 	addiu	a1,a1,128
80033d38:	3000a0af 	sw	zero,48(sp)
80033d3c:	9e89000c 	jal	0x80022678
80033d40:	2c00a2af 	sw	v0,44(sp)
80033d44:	32002296 	lhu	v0,50(s1)
80033d48:	00000000 	nop
80033d4c:	34004010 	beqz	v0,0x80033e20
80033d50:	5000a627 	addiu	a2,sp,80
80033d54:	7400228e 	lw	v0,116(s1)
80033d58:	7800238e 	lw	v1,120(s1)
80033d5c:	7c00248e 	lw	a0,124(s1)
80033d60:	8000258e 	lw	a1,128(s1)
80033d64:	5000a2af 	sw	v0,80(sp)
80033d68:	5400a3af 	sw	v1,84(sp)
80033d6c:	5800a4af 	sw	a0,88(sp)
80033d70:	5c00a5af 	sw	a1,92(sp)
80033d74:	21200000 	move	a0,zero
80033d78:	2c000524 	li	a1,44
80033d7c:	32002296 	lhu	v0,50(s1)
80033d80:	00000000 	nop
80033d84:	40100200 	sll	v0,v0,0x1
80033d88:	00044224 	addiu	v0,v0,1024
80033d8c:	6000a2a7 	sh	v0,96(sp)
80033d90:	32002296 	lhu	v0,50(s1)
80033d94:	d8006726 	addiu	a3,s3,216
80033d98:	40100200 	sll	v0,v0,0x1
80033d9c:	00044224 	addiu	v0,v0,1024
80033da0:	6400a2a7 	sh	v0,100(sp)
80033da4:	21002382 	lb	v1,33(s1)
80033da8:	e400a28e 	lw	v0,228(s5)
80033dac:	80180300 	sll	v1,v1,0x2
80033db0:	21104300 	addu	v0,v0,v1
80033db4:	f0ff4224 	addiu	v0,v0,-16
80033db8:	000062ae 	sw	v0,0(s3)
80033dbc:	21002382 	lb	v1,33(s1)
80033dc0:	08000224 	li	v0,8
80033dc4:	23104300 	subu	v0,v0,v1
80033dc8:	800062ae 	sw	v0,128(s3)
80033dcc:	1880023c 	lui	v0,0x8018
80033dd0:	21002382 	lb	v1,33(s1)
80033dd4:	78bd4224 	addiu	v0,v0,-17032
80033dd8:	1800a2af 	sw	v0,24(sp)
80033ddc:	80000224 	li	v0,128
80033de0:	1c00a2af 	sw	v0,28(sp)
80033de4:	04000224 	li	v0,4
80033de8:	2c00a2af 	sw	v0,44(sp)
80033dec:	04100224 	li	v0,4100
80033df0:	1000b0af 	sw	s0,16(sp)
80033df4:	1400a0af 	sw	zero,20(sp)
80033df8:	2000a0af 	sw	zero,32(sp)
80033dfc:	2400a0af 	sw	zero,36(sp)
80033e00:	2800a0af 	sw	zero,40(sp)
80033e04:	3000a0af 	sw	zero,48(sp)
80033e08:	23104300 	subu	v0,v0,v1
80033e0c:	9e89000c 	jal	0x80022678
80033e10:	040062ae 	sw	v0,4(s3)
80033e14:	88910008 	j	0x80024620
80033e18:	00000000 	nop
80033e1c:	040022a2 	sb	v0,4(s1)
80033e20:	22002282 	lb	v0,34(s1)
80033e24:	ffff1224 	li	s2,-1
80033e28:	0c005210 	beq	v0,s2,0x80033e5c
80033e2c:	1e80103c 	lui	s0,0x801e
80033e30:	f8db1026 	addiu	s0,s0,-9224
80033e34:	06af010c 	jal	0x8006bc18
80033e38:	21200002 	move	a0,s0
80033e3c:	22002282 	lb	v0,34(s1)
80033e40:	c8f51026 	addiu	s0,s0,-2616
80033e44:	21105000 	addu	v0,v0,s0
80033e48:	380a4290 	lbu	v0,2616(v0)
80033e4c:	00000000 	nop
80033e50:	02004014 	bnez	v0,0x80033e5c
80033e54:	00000000 	nop
80033e58:	220032a2 	sb	s2,34(s1)
80033e5c:	ffff9426 	addiu	s4,s4,-1
80033e60:	0b002392 	lbu	v1,11(s1)
80033e64:	01000224 	li	v0,1
80033e68:	21186302 	addu	v1,s3,v1
80033e6c:	f80062a0 	sb	v0,248(v1)
80033e70:	0b002292 	lbu	v0,11(s1)
80033e74:	0c002392 	lbu	v1,12(s1)
80033e78:	21106202 	addu	v0,s3,v0
80033e7c:	c80043a0 	sb	v1,200(v0)
80033e80:	ffff0224 	li	v0,-1
80033e84:	fcfe8216 	bne	s4,v0,0x80033a78
80033e88:	40101400 	sll	v0,s4,0x1
80033e8c:	1b80023c 	lui	v0,0x801b
80033e90:	3f594290 	lbu	v0,22847(v0)
80033e94:	00000000 	nop
80033e98:	05004014 	bnez	v0,0x80033eb0
80033e9c:	02000424 	li	a0,2
80033ea0:	21280000 	move	a1,zero
80033ea4:	80000624 	li	a2,128
80033ea8:	1b8f000c 	jal	0x80023c6c
80033eac:	10000724 	li	a3,16
80033eb0:	8c00bf8f 	lw	ra,140(sp)
80033eb4:	8800be8f 	lw	s8,136(sp)
80033eb8:	8400b78f 	lw	s7,132(sp)
80033ebc:	8000b68f 	lw	s6,128(sp)
80033ec0:	7c00b58f 	lw	s5,124(sp)
80033ec4:	7800b48f 	lw	s4,120(sp)
80033ec8:	7400b38f 	lw	s3,116(sp)
80033ecc:	7000b28f 	lw	s2,112(sp)
80033ed0:	6c00b18f 	lw	s1,108(sp)
80033ed4:	6800b08f 	lw	s0,104(sp)
80033ed8:	9000bd27 	addiu	sp,sp,144
80033edc:	0800e003 	jr	ra
80033ee0:	00000000 	nop
80033ee4:	70ffbd27 	addiu	sp,sp,-144
80033ee8:	801f033c 	lui	v1,0x1f80
80033eec:	f8006334 	ori	v1,v1,0xf8
80033ef0:	801f023c 	lui	v0,0x1f80
80033ef4:	44024234 	ori	v0,v0,0x244
80033ef8:	801f043c 	lui	a0,0x1f80
80033efc:	f8008434 	ori	a0,a0,0xf8
80033f00:	21280000 	move	a1,zero
80033f04:	53000624 	li	a2,83
80033f08:	7800b4af 	sw	s4,120(sp)
80033f0c:	801f143c 	lui	s4,0x1f80
80033f10:	8c00bfaf 	sw	ra,140(sp)
80033f14:	8800beaf 	sw	s8,136(sp)
80033f18:	8400b7af 	sw	s7,132(sp)
80033f1c:	8000b6af 	sw	s6,128(sp)
80033f20:	7c00b5af 	sw	s5,124(sp)
80033f24:	7400b3af 	sw	s3,116(sp)
80033f28:	7000b2af 	sw	s2,112(sp)
80033f2c:	6c00b1af 	sw	s1,108(sp)
80033f30:	6800b0af 	sw	s0,104(sp)
80033f34:	f00083ae 	sw	v1,240(s4)
80033f38:	5753000c 	jal	0x80014d5c
80033f3c:	f40082ae 	sw	v0,244(s4)
80033f40:	21208002 	move	a0,s4
80033f44:	44028434 	ori	a0,a0,0x244
80033f48:	21280000 	move	a1,zero
80033f4c:	5753000c 	jal	0x80014d5c
80033f50:	4b000624 	li	a2,75
80033f54:	1c80023c 	lui	v0,0x801c
80033f58:	10034424 	addiu	a0,v0,784
80033f5c:	0980023c 	lui	v0,0x8009
80033f60:	74729e90 	lbu	s8,29300(a0)
80033f64:	ffff0324 	li	v1,-1
80033f68:	980080a6 	sh	zero,152(s4)
80033f6c:	0482568c 	lw	s6,-32252(v0)
80033f70:	ffffde27 	addiu	s8,s8,-1
80033f74:	7c02c313 	beq	s8,v1,0x80034968
80033f78:	1b80023c 	lui	v0,0x801b
80033f7c:	21b86000 	move	s7,v1
80033f80:	40101e00 	sll	v0,s8,0x1
80033f84:	1c80083c 	lui	t0,0x801c
80033f88:	10030825 	addiu	t0,t0,784
80033f8c:	21104800 	addu	v0,v0,t0
80033f90:	1c80083c 	lui	t0,0x801c
80033f94:	b4714394 	lhu	v1,29108(v0)
80033f98:	30220825 	addiu	t0,t0,8752
80033f9c:	40100300 	sll	v0,v1,0x1
80033fa0:	21104300 	addu	v0,v0,v1
80033fa4:	80100200 	sll	v0,v0,0x2
80033fa8:	23104300 	subu	v0,v0,v1
80033fac:	c0100200 	sll	v0,v0,0x3
80033fb0:	21804800 	addu	s0,v0,t0
80033fb4:	00000392 	lbu	v1,0(s0)
80033fb8:	02000224 	li	v0,2
80033fbc:	66026210 	beq	v1,v0,0x80034958
80033fc0:	070000a2 	sb	zero,7(s0)
80033fc4:	0100033c 	lui	v1,0x1
80033fc8:	00806334 	ori	v1,v1,0x8000
80033fcc:	1680083c 	lui	t0,0x8016
80033fd0:	90d00825 	addiu	t0,t0,-12144
80033fd4:	03000292 	lbu	v0,3(s0)
80033fd8:	21280301 	addu	a1,t0,v1
80033fdc:	3f004430 	andi	a0,v0,0x3f
80033fe0:	030004a2 	sb	a0,3(s0)
80033fe4:	046ea28c 	lw	v0,28164(a1)
80033fe8:	00000000 	nop
80033fec:	18004200 	mult	v0,v0
80033ff0:	1800038e 	lw	v1,24(s0)
80033ff4:	12400000 	mflo	t0
80033ff8:	2b100301 	sltu	v0,t0,v1
80033ffc:	08004010 	beqz	v0,0x80034020
80034000:	40008234 	ori	v0,a0,0x40
80034004:	006ea28c 	lw	v0,28160(a1)
80034008:	00000000 	nop
8003400c:	18004200 	mult	v0,v0
80034010:	12400000 	mflo	t0
80034014:	2b106800 	sltu	v0,v1,t0
80034018:	02004014 	bnez	v0,0x80034024
8003401c:	80008234 	ori	v0,a0,0x80
80034020:	030002a2 	sb	v0,3(s0)
80034024:	05000392 	lbu	v1,5(s0)
80034028:	e2000224 	li	v0,226
8003402c:	4a026210 	beq	v1,v0,0x80034958
80034030:	e3006228 	slti	v0,v1,227
80034034:	0e004010 	beqz	v0,0x80034070
80034038:	25000224 	li	v0,37
8003403c:	46026210 	beq	v1,v0,0x80034958
80034040:	26006228 	slti	v0,v1,38
80034044:	05004010 	beqz	v0,0x8003405c
80034048:	1f000224 	li	v0,31
8003404c:	16006210 	beq	v1,v0,0x800340a8
80034050:	01001524 	li	s5,1
80034054:	8b930008 	j	0x80024e2c
80034058:	1c80083c 	lui	t0,0x801c
8003405c:	26000224 	li	v0,38
80034060:	38016210 	beq	v1,v0,0x80034544
80034064:	01001524 	li	s5,1
80034068:	8b930008 	j	0x80024e2c
8003406c:	1c80083c 	lui	t0,0x801c
80034070:	e9000224 	li	v0,233
80034074:	38026210 	beq	v1,v0,0x80034958
80034078:	ea006228 	slti	v0,v1,234
8003407c:	05004010 	beqz	v0,0x80034094
80034080:	e5000224 	li	v0,229
80034084:	34026210 	beq	v1,v0,0x80034958
80034088:	01001524 	li	s5,1
8003408c:	8b930008 	j	0x80024e2c
80034090:	1c80083c 	lui	t0,0x801c
80034094:	ec000224 	li	v0,236
80034098:	9f006210 	beq	v1,v0,0x80034318
8003409c:	01001524 	li	s5,1
800340a0:	8b930008 	j	0x80024e2c
800340a4:	1c80083c 	lui	t0,0x801c
800340a8:	2400048e 	lw	a0,36(s0)
800340ac:	2c00058e 	lw	a1,44(s0)
800340b0:	48000692 	lbu	a2,72(s0)
800340b4:	49000792 	lbu	a3,73(s0)
800340b8:	00800834 	li	t0,0x8000
800340bc:	1000a8af 	sw	t0,16(sp)
800340c0:	03230400 	sra	a0,a0,0xc
800340c4:	253f010c 	jal	0x8004fc94
800340c8:	032b0500 	sra	a1,a1,0xc
800340cc:	87004010 	beqz	v0,0x800342ec
800340d0:	00000000 	nop
800340d4:	5000028e 	lw	v0,80(s0)
800340d8:	00000000 	nop
800340dc:	23105600 	subu	v0,v0,s6
800340e0:	1d024104 	bgez	v0,0x80034958
800340e4:	00000000 	nop
800340e8:	4d000292 	lbu	v0,77(s0)
800340ec:	00000000 	nop
800340f0:	02004230 	andi	v0,v0,0x2
800340f4:	0b004010 	beqz	v0,0x80034124
800340f8:	00000000 	nop
800340fc:	b1e2010c 	jal	0x80078ac4
80034100:	00000000 	nop
80034104:	4e000396 	lhu	v1,78(s0)
80034108:	03120200 	sra	v0,v0,0x8
8003410c:	40200300 	sll	a0,v1,0x1
80034110:	21208300 	addu	a0,a0,v1
80034114:	40200400 	sll	a0,a0,0x1
80034118:	21208200 	addu	a0,a0,v0
8003411c:	2120c402 	addu	a0,s6,a0
80034120:	500004ae 	sw	a0,80(s0)
80034124:	4d000292 	lbu	v0,77(s0)
80034128:	00000000 	nop
8003412c:	04004230 	andi	v0,v0,0x4
80034130:	0c004010 	beqz	v0,0x80034164
80034134:	00000000 	nop
80034138:	b1e2010c 	jal	0x80078ac4
8003413c:	00000000 	nop
80034140:	4e000396 	lhu	v1,78(s0)
80034144:	83110200 	sra	v0,v0,0x6
80034148:	40200300 	sll	a0,v1,0x1
8003414c:	21208300 	addu	a0,a0,v1
80034150:	40200400 	sll	a0,a0,0x1
80034154:	21208200 	addu	a0,a0,v0
80034158:	2120c402 	addu	a0,s6,a0
8003415c:	60920008 	j	0x80024980
80034160:	500004ae 	sw	a0,80(s0)
80034164:	4e000396 	lhu	v1,78(s0)
80034168:	00000000 	nop
8003416c:	40100300 	sll	v0,v1,0x1
80034170:	21104300 	addu	v0,v0,v1
80034174:	40100200 	sll	v0,v0,0x1
80034178:	2110c202 	addu	v0,s6,v0
8003417c:	500002ae 	sw	v0,80(s0)
80034180:	1a80083c 	lui	t0,0x801a
80034184:	48000292 	lbu	v0,72(s0)
80034188:	288f0825 	addiu	t0,t0,-28888
8003418c:	c02a0200 	sll	a1,v0,0xb
80034190:	2400028e 	lw	v0,36(s0)
80034194:	4802038d 	lw	v1,584(t0)
80034198:	21104500 	addu	v0,v0,a1
8003419c:	23206200 	subu	a0,v1,v0
800341a0:	02008104 	bgez	a0,0x800341ac
800341a4:	00000000 	nop
800341a8:	23200400 	negu	a0,a0
800341ac:	2320a400 	subu	a0,a1,a0
800341b0:	1a80083c 	lui	t0,0x801a
800341b4:	49000292 	lbu	v0,73(s0)
800341b8:	288f0825 	addiu	t0,t0,-28888
800341bc:	c02a0200 	sll	a1,v0,0xb
800341c0:	2c00028e 	lw	v0,44(s0)
800341c4:	5002038d 	lw	v1,592(t0)
800341c8:	21104500 	addu	v0,v0,a1
800341cc:	23186200 	subu	v1,v1,v0
800341d0:	02006104 	bgez	v1,0x800341dc
800341d4:	00000000 	nop
800341d8:	23180300 	negu	v1,v1
800341dc:	2318a300 	subu	v1,a1,v1
800341e0:	2a106400 	slt	v0,v1,a0
800341e4:	02004010 	beqz	v0,0x800341f0
800341e8:	00000000 	nop
800341ec:	21206000 	move	a0,v1
800341f0:	4c000292 	lbu	v0,76(s0)
800341f4:	00000000 	nop
800341f8:	008b0200 	sll	s1,v0,0xc
800341fc:	2a109100 	slt	v0,a0,s1
80034200:	04004014 	bnez	v0,0x80034214
80034204:	00000000 	nop
80034208:	4b001192 	lbu	s1,75(s0)
8003420c:	98920008 	j	0x80024a60
80034210:	00000000 	nop
80034214:	d0012012 	beqz	s1,0x80034958
80034218:	00000000 	nop
8003421c:	4b000292 	lbu	v0,75(s0)
80034220:	00000000 	nop
80034224:	18004400 	mult	v0,a0
80034228:	12100000 	mflo	v0
	...
80034234:	1a005100 	div	zero,v0,s1
80034238:	02002016 	bnez	s1,0x80034244
8003423c:	00000000 	nop
80034240:	0d000700 	break	0x7
80034244:	ffff0124 	li	at,-1
80034248:	04002116 	bne	s1,at,0x8003425c
8003424c:	0080013c 	lui	at,0x8000
80034250:	02004114 	bne	v0,at,0x8003425c
80034254:	00000000 	nop
80034258:	0d000600 	break	0x6
8003425c:	12880000 	mflo	s1
80034260:	4d000292 	lbu	v0,77(s0)
80034264:	00000000 	nop
80034268:	01004230 	andi	v0,v0,0x1
8003426c:	11004010 	beqz	v0,0x800342b4
80034270:	1400222a 	slti	v0,s1,20
80034274:	1a80083c 	lui	t0,0x801a
80034278:	288f0825 	addiu	t0,t0,-28888
8003427c:	4c02038d 	lw	v1,588(t0)
80034280:	2800028e 	lw	v0,40(s0)
80034284:	00000000 	nop
80034288:	23186200 	subu	v1,v1,v0
8003428c:	02006104 	bgez	v1,0x80034298
80034290:	00000000 	nop
80034294:	23180300 	negu	v1,v1
80034298:	4b000292 	lbu	v0,75(s0)
8003429c:	00000000 	nop
800342a0:	18004300 	mult	v0,v1
800342a4:	12400000 	mflo	t0
800342a8:	431b0800 	sra	v1,t0,0xd
800342ac:	23882302 	subu	s1,s1,v1
800342b0:	1400222a 	slti	v0,s1,20
800342b4:	a8014014 	bnez	v0,0x80034958
800342b8:	00000000 	nop
800342bc:	54000486 	lh	a0,84(s0)
800342c0:	00000000 	nop
800342c4:	05009710 	beq	a0,s7,0x800342dc
800342c8:	00000000 	nop
800342cc:	4a000592 	lbu	a1,74(s0)
800342d0:	4361010c 	jal	0x8005850c
800342d4:	d000a524 	addiu	a1,a1,208
800342d8:	540017a6 	sh	s7,84(s0)
800342dc:	4a000492 	lbu	a0,74(s0)
800342e0:	21282002 	move	a1,s1
800342e4:	3e930008 	j	0x80024cf8
800342e8:	d0008424 	addiu	a0,a0,208
800342ec:	4e000396 	lhu	v1,78(s0)
800342f0:	54000486 	lh	a0,84(s0)
800342f4:	40100300 	sll	v0,v1,0x1
800342f8:	21104300 	addu	v0,v0,v1
800342fc:	40100200 	sll	v0,v0,0x1
80034300:	2110c202 	addu	v0,s6,v0
80034304:	94019710 	beq	a0,s7,0x80034958
80034308:	500002ae 	sw	v0,80(s0)
8003430c:	4a000592 	lbu	a1,74(s0)
80034310:	4d930008 	j	0x80024d34
80034314:	d000a524 	addiu	a1,a1,208
80034318:	48000692 	lbu	a2,72(s0)
8003431c:	49000792 	lbu	a3,73(s0)
80034320:	00800834 	li	t0,0x8000
80034324:	1000a8af 	sw	t0,16(sp)
80034328:	2400048e 	lw	a0,36(s0)
8003432c:	2c00058e 	lw	a1,44(s0)
80034330:	00320600 	sll	a2,a2,0x8
80034334:	4a3f010c 	jal	0x8004fd28
80034338:	003a0700 	sll	a3,a3,0x8
8003433c:	72004010 	beqz	v0,0x80034508
80034340:	00000000 	nop
80034344:	5000028e 	lw	v0,80(s0)
80034348:	00000000 	nop
8003434c:	23105600 	subu	v0,v0,s6
80034350:	81014104 	bgez	v0,0x80034958
80034354:	00000000 	nop
80034358:	4d000292 	lbu	v0,77(s0)
8003435c:	00000000 	nop
80034360:	02004230 	andi	v0,v0,0x2
80034364:	0b004010 	beqz	v0,0x80034394
80034368:	00000000 	nop
8003436c:	b1e2010c 	jal	0x80078ac4
80034370:	00000000 	nop
80034374:	4e000396 	lhu	v1,78(s0)
80034378:	c3120200 	sra	v0,v0,0xb
8003437c:	00210300 	sll	a0,v1,0x4
80034380:	23208300 	subu	a0,a0,v1
80034384:	80200400 	sll	a0,a0,0x2
80034388:	21208200 	addu	a0,a0,v0
8003438c:	2120c402 	addu	a0,s6,a0
80034390:	500004ae 	sw	a0,80(s0)
80034394:	4d000292 	lbu	v0,77(s0)
80034398:	00000000 	nop
8003439c:	04004230 	andi	v0,v0,0x4
800343a0:	0c004010 	beqz	v0,0x800343d4
800343a4:	00000000 	nop
800343a8:	b1e2010c 	jal	0x80078ac4
800343ac:	00000000 	nop
800343b0:	4e000396 	lhu	v1,78(s0)
800343b4:	43120200 	sra	v0,v0,0x9
800343b8:	00210300 	sll	a0,v1,0x4
800343bc:	23208300 	subu	a0,a0,v1
800343c0:	80200400 	sll	a0,a0,0x2
800343c4:	21208200 	addu	a0,a0,v0
800343c8:	2120c402 	addu	a0,s6,a0
800343cc:	fc920008 	j	0x80024bf0
800343d0:	500004ae 	sw	a0,80(s0)
800343d4:	4e000396 	lhu	v1,78(s0)
800343d8:	00000000 	nop
800343dc:	00110300 	sll	v0,v1,0x4
800343e0:	23104300 	subu	v0,v0,v1
800343e4:	80100200 	sll	v0,v0,0x2
800343e8:	2110c202 	addu	v0,s6,v0
800343ec:	500002ae 	sw	v0,80(s0)
800343f0:	48000292 	lbu	v0,72(s0)
800343f4:	4c000392 	lbu	v1,76(s0)
800343f8:	1c00068e 	lw	a2,28(s0)
800343fc:	c0110200 	sll	v0,v0,0x7
80034400:	21284000 	move	a1,v0
80034404:	c0190300 	sll	v1,v1,0x7
80034408:	2320a300 	subu	a0,a1,v1
8003440c:	2a10c400 	slt	v0,a2,a0
80034410:	16004014 	bnez	v0,0x8003446c
80034414:	00000000 	nop
80034418:	1400a410 	beq	a1,a0,0x8003446c
8003441c:	2310a600 	subu	v0,a1,a2
80034420:	4b000392 	lbu	v1,75(s0)
80034424:	00000000 	nop
80034428:	18006200 	mult	v1,v0
8003442c:	12180000 	mflo	v1
80034430:	2310a400 	subu	v0,a1,a0
80034434:	00000000 	nop
80034438:	1a006200 	div	zero,v1,v0
8003443c:	02004014 	bnez	v0,0x80034448
80034440:	00000000 	nop
80034444:	0d000700 	break	0x7
80034448:	ffff0124 	li	at,-1
8003444c:	04004114 	bne	v0,at,0x80034460
80034450:	0080013c 	lui	at,0x8000
80034454:	02006114 	bne	v1,at,0x80034460
80034458:	00000000 	nop
8003445c:	0d000600 	break	0x6
80034460:	12880000 	mflo	s1
80034464:	1c930008 	j	0x80024c70
80034468:	00000000 	nop
8003446c:	4b001192 	lbu	s1,75(s0)
80034470:	4d000292 	lbu	v0,77(s0)
80034474:	00000000 	nop
80034478:	01004230 	andi	v0,v0,0x1
8003447c:	11004010 	beqz	v0,0x800344c4
80034480:	1400222a 	slti	v0,s1,20
80034484:	1a80083c 	lui	t0,0x801a
80034488:	288f0825 	addiu	t0,t0,-28888
8003448c:	4c02038d 	lw	v1,588(t0)
80034490:	2800028e 	lw	v0,40(s0)
80034494:	00000000 	nop
80034498:	23186200 	subu	v1,v1,v0
8003449c:	02006104 	bgez	v1,0x800344a8
800344a0:	00000000 	nop
800344a4:	23180300 	negu	v1,v1
800344a8:	4b000292 	lbu	v0,75(s0)
800344ac:	00000000 	nop
800344b0:	18004300 	mult	v0,v1
800344b4:	12400000 	mflo	t0
800344b8:	431b0800 	sra	v1,t0,0xd
800344bc:	23882302 	subu	s1,s1,v1
800344c0:	1400222a 	slti	v0,s1,20
800344c4:	24014014 	bnez	v0,0x80034958
800344c8:	00000000 	nop
800344cc:	54000486 	lh	a0,84(s0)
800344d0:	00000000 	nop
800344d4:	05009710 	beq	a0,s7,0x800344ec
800344d8:	00000000 	nop
800344dc:	4a000592 	lbu	a1,74(s0)
800344e0:	4361010c 	jal	0x8005850c
800344e4:	5404a524 	addiu	a1,a1,1108
800344e8:	540017a6 	sh	s7,84(s0)
800344ec:	4a000492 	lbu	a0,74(s0)
800344f0:	21282002 	move	a1,s1
800344f4:	54048424 	addiu	a0,a0,1108
800344f8:	bc60010c 	jal	0x800582f0
800344fc:	ffffde27 	addiu	s8,s8,-1
80034500:	57940008 	j	0x8002515c
80034504:	540002a6 	sh	v0,84(s0)
80034508:	4e000396 	lhu	v1,78(s0)
8003450c:	54000486 	lh	a0,84(s0)
80034510:	00110300 	sll	v0,v1,0x4
80034514:	23104300 	subu	v0,v0,v1
80034518:	80100200 	sll	v0,v0,0x2
8003451c:	2110c202 	addu	v0,s6,v0
80034520:	0d019710 	beq	a0,s7,0x80034958
80034524:	500002ae 	sw	v0,80(s0)
80034528:	4a000592 	lbu	a1,74(s0)
8003452c:	00000000 	nop
80034530:	5404a524 	addiu	a1,a1,1108
80034534:	4361010c 	jal	0x8005850c
80034538:	ffffde27 	addiu	s8,s8,-1
8003453c:	57940008 	j	0x8002515c
80034540:	540017a6 	sh	s7,84(s0)
80034544:	0a000296 	lhu	v0,10(s0)
80034548:	01000324 	li	v1,1
8003454c:	21108202 	addu	v0,s4,v0
80034550:	f80043a0 	sb	v1,248(v0)
80034554:	0a000496 	lhu	a0,10(s0)
80034558:	828c000c 	jal	0x80023208
8003455c:	3c001126 	addiu	s1,s0,60
80034560:	ffff5230 	andi	s2,v0,0xffff
80034564:	21204002 	move	a0,s2
80034568:	6ecf000c 	jal	0x80033db8
8003456c:	4800a527 	addiu	a1,sp,72
80034570:	4800a28f 	lw	v0,72(sp)
80034574:	00000000 	nop
80034578:	f7004010 	beqz	v0,0x80034958
8003457c:	1680083c 	lui	t0,0x8016
80034580:	34000296 	lhu	v0,52(s0)
80034584:	00000000 	nop
80034588:	d80082a6 	sh	v0,216(s4)
8003458c:	36000296 	lhu	v0,54(s0)
80034590:	00000000 	nop
80034594:	da0082a6 	sh	v0,218(s4)
80034598:	38000296 	lhu	v0,56(s0)
8003459c:	90500825 	addiu	t0,t0,20624
800345a0:	dc0082a6 	sh	v0,220(s4)
800345a4:	14000286 	lh	v0,20(s0)
800345a8:	e400038d 	lw	v1,228(t0)
800345ac:	80100200 	sll	v0,v0,0x2
800345b0:	21186200 	addu	v1,v1,v0
800345b4:	000083ae 	sw	v1,0(s4)
800345b8:	14000386 	lh	v1,20(s0)
800345bc:	04000224 	li	v0,4
800345c0:	23104300 	subu	v0,v0,v1
800345c4:	800082ae 	sw	v0,128(s4)
800345c8:	14000386 	lh	v1,20(s0)
800345cc:	44000226 	addiu	v0,s0,68
800345d0:	1400a2af 	sw	v0,20(sp)
800345d4:	1880023c 	lui	v0,0x8018
800345d8:	78bd4224 	addiu	v0,v0,-17032
800345dc:	1800a2af 	sw	v0,24(sp)
800345e0:	00100224 	li	v0,4096
800345e4:	1000b1af 	sw	s1,16(sp)
800345e8:	23104300 	subu	v0,v0,v1
800345ec:	040082ae 	sw	v0,4(s4)
800345f0:	02000292 	lbu	v0,2(s0)
800345f4:	21200000 	move	a0,zero
800345f8:	1c00a2af 	sw	v0,28(sp)
800345fc:	10000296 	lhu	v0,16(s0)
80034600:	21284002 	move	a1,s2
80034604:	2400a0af 	sw	zero,36(sp)
80034608:	2000a2af 	sw	v0,32(sp)
8003460c:	16000286 	lh	v0,22(s0)
80034610:	24000626 	addiu	a2,s0,36
80034614:	2800a2af 	sw	v0,40(sp)
80034618:	03000292 	lbu	v0,3(s0)
8003461c:	d8008726 	addiu	a3,s4,216
80034620:	3000a0af 	sw	zero,48(sp)
80034624:	54940008 	j	0x80025150
80034628:	2c00a2af 	sw	v0,44(sp)
8003462c:	0a000396 	lhu	v1,10(s0)
80034630:	10030825 	addiu	t0,t0,784
80034634:	21108302 	addu	v0,s4,v1
80034638:	f80055a0 	sb	s5,248(v0)
8003463c:	40100300 	sll	v0,v1,0x1
80034640:	21104300 	addu	v0,v0,v1
80034644:	c0100200 	sll	v0,v0,0x3
80034648:	0a000496 	lhu	a0,10(s0)
8003464c:	828c000c 	jal	0x80023208
80034650:	21904800 	addu	s2,v0,t0
80034654:	ffff5330 	andi	s3,v0,0xffff
80034658:	21206002 	move	a0,s3
8003465c:	6ecf000c 	jal	0x80033db8
80034660:	4800a527 	addiu	a1,sp,72
80034664:	4800a28f 	lw	v0,72(sp)
80034668:	00000000 	nop
8003466c:	ba004010 	beqz	v0,0x80034958
80034670:	3c001126 	addiu	s1,s0,60
80034674:	34000296 	lhu	v0,52(s0)
80034678:	00000000 	nop
8003467c:	d80082a6 	sh	v0,216(s4)
80034680:	36000296 	lhu	v0,54(s0)
80034684:	00000000 	nop
80034688:	da0082a6 	sh	v0,218(s4)
8003468c:	38000296 	lhu	v0,56(s0)
80034690:	00000000 	nop
80034694:	dc0082a6 	sh	v0,220(s4)
80034698:	04000292 	lbu	v0,4(s0)
8003469c:	00000000 	nop
800346a0:	40004230 	andi	v0,v0,0x40
800346a4:	2b004010 	beqz	v0,0x80034754
800346a8:	1680083c 	lui	t0,0x8016
800346ac:	34000296 	lhu	v0,52(s0)
800346b0:	da0080a6 	sh	zero,218(s4)
800346b4:	d80082a6 	sh	v0,216(s4)
800346b8:	38000296 	lhu	v0,56(s0)
800346bc:	90500825 	addiu	t0,t0,20624
800346c0:	dc0082a6 	sh	v0,220(s4)
800346c4:	14000286 	lh	v0,20(s0)
800346c8:	e400038d 	lw	v1,228(t0)
800346cc:	80100200 	sll	v0,v0,0x2
800346d0:	21186200 	addu	v1,v1,v0
800346d4:	000083ae 	sw	v1,0(s4)
800346d8:	14000386 	lh	v1,20(s0)
800346dc:	04000224 	li	v0,4
800346e0:	23104300 	subu	v0,v0,v1
800346e4:	800082ae 	sw	v0,128(s4)
800346e8:	14000386 	lh	v1,20(s0)
800346ec:	44000226 	addiu	v0,s0,68
800346f0:	1400a2af 	sw	v0,20(sp)
800346f4:	1880023c 	lui	v0,0x8018
800346f8:	38be4224 	addiu	v0,v0,-16840
800346fc:	1800a2af 	sw	v0,24(sp)
80034700:	00100224 	li	v0,4096
80034704:	1000b1af 	sw	s1,16(sp)
80034708:	23104300 	subu	v0,v0,v1
8003470c:	040082ae 	sw	v0,4(s4)
80034710:	02000292 	lbu	v0,2(s0)
80034714:	00000000 	nop
80034718:	1c00a2af 	sw	v0,28(sp)
8003471c:	10000296 	lhu	v0,16(s0)
80034720:	21200000 	move	a0,zero
80034724:	2000a2af 	sw	v0,32(sp)
80034728:	16000286 	lh	v0,22(s0)
8003472c:	21286002 	move	a1,s3
80034730:	2400a2af 	sw	v0,36(sp)
80034734:	16000286 	lh	v0,22(s0)
80034738:	24000626 	addiu	a2,s0,36
8003473c:	2800a2af 	sw	v0,40(sp)
80034740:	03000292 	lbu	v0,3(s0)
80034744:	d8008726 	addiu	a3,s4,216
80034748:	3000a0af 	sw	zero,48(sp)
8003474c:	54940008 	j	0x80025150
80034750:	2c00a2af 	sw	v0,44(sp)
80034754:	0880023c 	lui	v0,0x8008
80034758:	047f4624 	addiu	a2,v0,32516
8003475c:	0300c388 	lwl	v1,3(a2)
80034760:	0000c398 	lwr	v1,0(a2)
80034764:	0700c488 	lwl	a0,7(a2)
80034768:	0400c498 	lwr	a0,4(a2)
8003476c:	6300a3ab 	swl	v1,99(sp)
80034770:	6000a3bb 	swr	v1,96(sp)
80034774:	6700a4ab 	swl	a0,103(sp)
80034778:	6400a4bb 	swr	a0,100(sp)
8003477c:	14000286 	lh	v0,20(s0)
80034780:	90500825 	addiu	t0,t0,20624
80034784:	070015a2 	sb	s5,7(s0)
80034788:	e400038d 	lw	v1,228(t0)
8003478c:	80100200 	sll	v0,v0,0x2
80034790:	21186200 	addu	v1,v1,v0
80034794:	000083ae 	sw	v1,0(s4)
80034798:	14000386 	lh	v1,20(s0)
8003479c:	04000224 	li	v0,4
800347a0:	23104300 	subu	v0,v0,v1
800347a4:	800082ae 	sw	v0,128(s4)
800347a8:	14000386 	lh	v1,20(s0)
800347ac:	44000226 	addiu	v0,s0,68
800347b0:	1400a2af 	sw	v0,20(sp)
800347b4:	1880023c 	lui	v0,0x8018
800347b8:	78bd4224 	addiu	v0,v0,-17032
800347bc:	1800a2af 	sw	v0,24(sp)
800347c0:	00100224 	li	v0,4096
800347c4:	1000b1af 	sw	s1,16(sp)
800347c8:	23104300 	subu	v0,v0,v1
800347cc:	040082ae 	sw	v0,4(s4)
800347d0:	02000292 	lbu	v0,2(s0)
800347d4:	00000000 	nop
800347d8:	1c00a2af 	sw	v0,28(sp)
800347dc:	10000296 	lhu	v0,16(s0)
800347e0:	21200000 	move	a0,zero
800347e4:	2000a2af 	sw	v0,32(sp)
800347e8:	16000286 	lh	v0,22(s0)
800347ec:	21286002 	move	a1,s3
800347f0:	2400a2af 	sw	v0,36(sp)
800347f4:	16000286 	lh	v0,22(s0)
800347f8:	24000626 	addiu	a2,s0,36
800347fc:	2800a2af 	sw	v0,40(sp)
80034800:	03000292 	lbu	v0,3(s0)
80034804:	d8008726 	addiu	a3,s4,216
80034808:	3000a0af 	sw	zero,48(sp)
8003480c:	9e89000c 	jal	0x80022678
80034810:	2c00a2af 	sw	v0,44(sp)
80034814:	04000292 	lbu	v0,4(s0)
80034818:	00000000 	nop
8003481c:	01004230 	andi	v0,v0,0x1
80034820:	4d004014 	bnez	v0,0x80034958
80034824:	00000000 	nop
80034828:	2400028e 	lw	v0,36(s0)
8003482c:	2800038e 	lw	v1,40(s0)
80034830:	2c00048e 	lw	a0,44(s0)
80034834:	3000058e 	lw	a1,48(s0)
80034838:	5000a2af 	sw	v0,80(sp)
8003483c:	5400a3af 	sw	v1,84(sp)
80034840:	5800a4af 	sw	a0,88(sp)
80034844:	5c00a5af 	sw	a1,92(sp)
80034848:	04000292 	lbu	v0,4(s0)
8003484c:	00000000 	nop
80034850:	04004230 	andi	v0,v0,0x4
80034854:	0a004010 	beqz	v0,0x80034880
80034858:	00000000 	nop
8003485c:	0c004296 	lhu	v0,12(s2)
80034860:	00000000 	nop
80034864:	40180200 	sll	v1,v0,0x1
80034868:	42100200 	srl	v0,v0,0x1
8003486c:	21186200 	addu	v1,v1,v0
80034870:	6000a3a7 	sh	v1,96(sp)
80034874:	0e004296 	lhu	v0,14(s2)
80034878:	29940008 	j	0x800250a4
8003487c:	40180200 	sll	v1,v0,0x1
80034880:	04004296 	lhu	v0,4(s2)
80034884:	00000000 	nop
80034888:	40180200 	sll	v1,v0,0x1
8003488c:	42100200 	srl	v0,v0,0x1
80034890:	21186200 	addu	v1,v1,v0
80034894:	6000a3a7 	sh	v1,96(sp)
80034898:	04004296 	lhu	v0,4(s2)
8003489c:	00000000 	nop
800348a0:	40180200 	sll	v1,v0,0x1
800348a4:	42100200 	srl	v0,v0,0x1
800348a8:	21186200 	addu	v1,v1,v0
800348ac:	6400a3a7 	sh	v1,100(sp)
800348b0:	21200000 	move	a0,zero
800348b4:	5000a627 	addiu	a2,sp,80
800348b8:	d8008726 	addiu	a3,s4,216
800348bc:	1680083c 	lui	t0,0x8016
800348c0:	90500825 	addiu	t0,t0,20624
800348c4:	14000386 	lh	v1,20(s0)
800348c8:	e400028d 	lw	v0,228(t0)
800348cc:	80180300 	sll	v1,v1,0x2
800348d0:	21104300 	addu	v0,v0,v1
800348d4:	ecff4224 	addiu	v0,v0,-20
800348d8:	000082ae 	sw	v0,0(s4)
800348dc:	14000386 	lh	v1,20(s0)
800348e0:	09000224 	li	v0,9
800348e4:	23104300 	subu	v0,v0,v1
800348e8:	800082ae 	sw	v0,128(s4)
800348ec:	14000386 	lh	v1,20(s0)
800348f0:	05100224 	li	v0,4101
800348f4:	23104300 	subu	v0,v0,v1
800348f8:	040082ae 	sw	v0,4(s4)
800348fc:	03004592 	lbu	a1,3(s2)
80034900:	6000a227 	addiu	v0,sp,96
80034904:	1000a2af 	sw	v0,16(sp)
80034908:	44000226 	addiu	v0,s0,68
8003490c:	1400a2af 	sw	v0,20(sp)
80034910:	1880023c 	lui	v0,0x8018
80034914:	78bd4224 	addiu	v0,v0,-17032
80034918:	1800a2af 	sw	v0,24(sp)
8003491c:	80000224 	li	v0,128
80034920:	1c00a2af 	sw	v0,28(sp)
80034924:	2000a0af 	sw	zero,32(sp)
80034928:	16000386 	lh	v1,22(s0)
8003492c:	00100224 	li	v0,4096
80034930:	2800a2af 	sw	v0,40(sp)
80034934:	04000224 	li	v0,4
80034938:	2c00a2af 	sw	v0,44(sp)
8003493c:	3000a0af 	sw	zero,48(sp)
80034940:	82280500 	srl	a1,a1,0x2
80034944:	0100a530 	andi	a1,a1,0x1
80034948:	2c00a534 	ori	a1,a1,0x2c
8003494c:	2400a3af 	sw	v1,36(sp)
80034950:	9e89000c 	jal	0x80022678
80034954:	00000000 	nop
80034958:	ffffde27 	addiu	s8,s8,-1
8003495c:	89fdd717 	bne	s8,s7,0x80033f84
80034960:	40101e00 	sll	v0,s8,0x1
80034964:	1b80023c 	lui	v0,0x801b
80034968:	3f594290 	lbu	v0,22847(v0)
8003496c:	00000000 	nop
80034970:	07004014 	bnez	v0,0x80034990
80034974:	24028226 	addiu	v0,s4,548
80034978:	21200000 	move	a0,zero
8003497c:	21288000 	move	a1,a0
80034980:	00010624 	li	a2,256
80034984:	0190000c 	jal	0x80024004
80034988:	f9000724 	li	a3,249
8003498c:	24028226 	addiu	v0,s4,548
80034990:	f00082ae 	sw	v0,240(s4)
80034994:	8c00bf8f 	lw	ra,140(sp)
80034998:	8800be8f 	lw	s8,136(sp)
8003499c:	8400b78f 	lw	s7,132(sp)
800349a0:	8000b68f 	lw	s6,128(sp)
800349a4:	7c00b58f 	lw	s5,124(sp)
800349a8:	7800b48f 	lw	s4,120(sp)
800349ac:	7400b38f 	lw	s3,116(sp)
800349b0:	7000b28f 	lw	s2,112(sp)
800349b4:	6c00b18f 	lw	s1,108(sp)
800349b8:	6800b08f 	lw	s0,104(sp)
800349bc:	9000bd27 	addiu	sp,sp,144
800349c0:	0800e003 	jr	ra
800349c4:	00000000 	nop
800349c8:	58ffbd27 	addiu	sp,sp,-168
800349cc:	801f033c 	lui	v1,0x1f80
800349d0:	f8006334 	ori	v1,v1,0xf8
800349d4:	801f023c 	lui	v0,0x1f80
800349d8:	44024234 	ori	v0,v0,0x244
800349dc:	801f043c 	lui	a0,0x1f80
800349e0:	f8008434 	ori	a0,a0,0xf8
800349e4:	21280000 	move	a1,zero
800349e8:	20000624 	li	a2,32
800349ec:	8800b2af 	sw	s2,136(sp)
800349f0:	801f123c 	lui	s2,0x1f80
800349f4:	a400bfaf 	sw	ra,164(sp)
800349f8:	a000beaf 	sw	s8,160(sp)
800349fc:	9c00b7af 	sw	s7,156(sp)
80034a00:	9800b6af 	sw	s6,152(sp)
80034a04:	9400b5af 	sw	s5,148(sp)
80034a08:	9000b4af 	sw	s4,144(sp)
80034a0c:	8c00b3af 	sw	s3,140(sp)
80034a10:	8400b1af 	sw	s1,132(sp)
80034a14:	8000b0af 	sw	s0,128(sp)
80034a18:	f00043ae 	sw	v1,240(s2)
80034a1c:	5753000c 	jal	0x80014d5c
80034a20:	f40042ae 	sw	v0,244(s2)
80034a24:	1c80023c 	lui	v0,0x801c
80034a28:	f8764324 	addiu	v1,v0,30456
80034a2c:	06007e90 	lbu	s8,6(v1)
80034a30:	ffff0224 	li	v0,-1
80034a34:	ffffde27 	addiu	s8,s8,-1
80034a38:	d400c213 	beq	s8,v0,0x80034d8c
80034a3c:	980040a6 	sh	zero,152(s2)
80034a40:	4800a827 	addiu	t0,sp,72
80034a44:	7800a8af 	sw	t0,120(sp)
80034a48:	1c80083c 	lui	t0,0x801c
80034a4c:	f8760825 	addiu	t0,t0,30456
80034a50:	2110c803 	addu	v0,s8,t0
80034a54:	1c80083c 	lui	t0,0x801c
80034a58:	07004390 	lbu	v1,7(v0)
80034a5c:	f8760825 	addiu	t0,t0,30456
80034a60:	40100300 	sll	v0,v1,0x1
80034a64:	21104300 	addu	v0,v0,v1
80034a68:	00110200 	sll	v0,v0,0x4
80034a6c:	10370325 	addiu	v1,t0,14096
80034a70:	21884300 	addu	s1,v0,v1
80034a74:	1780083c 	lui	t0,0x8017
80034a78:	90500825 	addiu	t0,t0,20624
80034a7c:	006e048d 	lw	a0,28160(t0)
80034a80:	1c80083c 	lui	t0,0x801c
80034a84:	00002396 	lhu	v1,0(s1)
80034a88:	10780825 	addiu	t0,t0,30736
80034a8c:	40100300 	sll	v0,v1,0x1
80034a90:	21104300 	addu	v0,v0,v1
80034a94:	80100200 	sll	v0,v0,0x2
80034a98:	23104300 	subu	v0,v0,v1
80034a9c:	80100200 	sll	v0,v0,0x2
80034aa0:	2800238e 	lw	v1,40(s1)
80034aa4:	00000000 	nop
80034aa8:	2a186400 	slt	v1,v1,a0
80034aac:	05006014 	bnez	v1,0x80034ac4
80034ab0:	21984800 	addu	s3,v0,t0
80034ab4:	24002292 	lbu	v0,36(s1)
80034ab8:	00000000 	nop
80034abc:	80004234 	ori	v0,v0,0x80
80034ac0:	240022a2 	sb	v0,36(s1)
80034ac4:	22002392 	lbu	v1,34(s1)
80034ac8:	00000000 	nop
80034acc:	0600622c 	sltiu	v0,v1,6
80034ad0:	08004010 	beqz	v0,0x80034af4
80034ad4:	0180023c 	lui	v0,0x8001
80034ad8:	78144224 	addiu	v0,v0,5240
80034adc:	80180300 	sll	v1,v1,0x2
80034ae0:	21186200 	addu	v1,v1,v0
80034ae4:	0000628c 	lw	v0,0(v1)
80034ae8:	00000000 	nop
80034aec:	08004000 	jr	v0
80034af0:	00000000 	nop
80034af4:	0880023c 	lui	v0,0x8008
80034af8:	0c7f4624 	addiu	a2,v0,32524
80034afc:	0300c388 	lwl	v1,3(a2)
80034b00:	0000c398 	lwr	v1,0(a2)
80034b04:	0700c488 	lwl	a0,7(a2)
80034b08:	0400c498 	lwr	a0,4(a2)
80034b0c:	4b00a3ab 	swl	v1,75(sp)
80034b10:	4800a3bb 	swr	v1,72(sp)
80034b14:	4f00a4ab 	swl	a0,79(sp)
80034b18:	4c00a4bb 	swr	a0,76(sp)
80034b1c:	04006292 	lbu	v0,4(s3)
80034b20:	01000324 	li	v1,1
80034b24:	21104202 	addu	v0,s2,v0
80034b28:	f80043a0 	sb	v1,248(v0)
80034b2c:	04006492 	lbu	a0,4(s3)
80034b30:	5000a527 	addiu	a1,sp,80
80034b34:	6ecf000c 	jal	0x80033db8
80034b38:	4c028424 	addiu	a0,a0,588
80034b3c:	5000a28f 	lw	v0,80(sp)
80034b40:	00000000 	nop
80034b44:	8d004010 	beqz	v0,0x80034d7c
80034b48:	00000000 	nop
80034b4c:	18002296 	lhu	v0,24(s1)
80034b50:	00000000 	nop
80034b54:	d80042a6 	sh	v0,216(s2)
80034b58:	1a002296 	lhu	v0,26(s1)
80034b5c:	00000000 	nop
80034b60:	da0042a6 	sh	v0,218(s2)
80034b64:	1c002296 	lhu	v0,28(s1)
80034b68:	00000000 	nop
80034b6c:	dc0042a6 	sh	v0,220(s2)
80034b70:	1e006296 	lhu	v0,30(s3)
80034b74:	00000000 	nop
80034b78:	40004230 	andi	v0,v0,0x40
80034b7c:	5c004010 	beqz	v0,0x80034cf0
80034b80:	21200000 	move	a0,zero
80034b84:	1680083c 	lui	t0,0x8016
80034b88:	90500825 	addiu	t0,t0,20624
80034b8c:	04001024 	li	s0,4
80034b90:	00101624 	li	s6,4096
80034b94:	08003726 	addiu	s7,s1,8
80034b98:	2130e002 	move	a2,s7
80034b9c:	04003526 	addiu	s5,s1,4
80034ba0:	2d002282 	lb	v0,45(s1)
80034ba4:	e400038d 	lw	v1,228(t0)
80034ba8:	80100200 	sll	v0,v0,0x2
80034bac:	21186200 	addu	v1,v1,v0
80034bb0:	000043ae 	sw	v1,0(s2)
80034bb4:	2d002282 	lb	v0,45(s1)
80034bb8:	d8005426 	addiu	s4,s2,216
80034bbc:	23100202 	subu	v0,s0,v0
80034bc0:	800042ae 	sw	v0,128(s2)
80034bc4:	2d002282 	lb	v0,45(s1)
80034bc8:	21388002 	move	a3,s4
80034bcc:	2310c202 	subu	v0,s6,v0
80034bd0:	040042ae 	sw	v0,4(s2)
80034bd4:	1880023c 	lui	v0,0x8018
80034bd8:	04006592 	lbu	a1,4(s3)
80034bdc:	7800a88f 	lw	t0,120(sp)
80034be0:	78bd4224 	addiu	v0,v0,-17032
80034be4:	1800a2af 	sw	v0,24(sp)
80034be8:	80000224 	li	v0,128
80034bec:	1400b5af 	sw	s5,20(sp)
80034bf0:	1c00a2af 	sw	v0,28(sp)
80034bf4:	2000a0af 	sw	zero,32(sp)
80034bf8:	2400a0af 	sw	zero,36(sp)
80034bfc:	2800b6af 	sw	s6,40(sp)
80034c00:	1000a8af 	sw	t0,16(sp)
80034c04:	24002292 	lbu	v0,36(s1)
80034c08:	4c02a524 	addiu	a1,a1,588
80034c0c:	3000a0af 	sw	zero,48(sp)
80034c10:	9e89000c 	jal	0x80022678
80034c14:	2c00a2af 	sw	v0,44(sp)
80034c18:	1680083c 	lui	t0,0x8016
80034c1c:	90500825 	addiu	t0,t0,20624
80034c20:	dc0040a6 	sh	zero,220(s2)
80034c24:	da0040a6 	sh	zero,218(s2)
80034c28:	d80040a6 	sh	zero,216(s2)
80034c2c:	2d002282 	lb	v0,45(s1)
80034c30:	e400038d 	lw	v1,228(t0)
80034c34:	1780083c 	lui	t0,0x8017
80034c38:	80100200 	sll	v0,v0,0x2
80034c3c:	21186200 	addu	v1,v1,v0
80034c40:	000043ae 	sw	v1,0(s2)
80034c44:	2d002282 	lb	v0,45(s1)
80034c48:	90500825 	addiu	t0,t0,20624
80034c4c:	23800202 	subu	s0,s0,v0
80034c50:	800050ae 	sw	s0,128(s2)
80034c54:	2d002282 	lb	v0,45(s1)
80034c58:	a86d038d 	lw	v1,28072(t0)
80034c5c:	ac6d048d 	lw	a0,28076(t0)
80034c60:	b06d058d 	lw	a1,28080(t0)
80034c64:	b46d068d 	lw	a2,28084(t0)
80034c68:	5800a3af 	sw	v1,88(sp)
80034c6c:	5c00a4af 	sw	a0,92(sp)
80034c70:	6000a5af 	sw	a1,96(sp)
80034c74:	6400a6af 	sw	a2,100(sp)
80034c78:	b86d038d 	lw	v1,28088(t0)
80034c7c:	bc6d048d 	lw	a0,28092(t0)
80034c80:	c06d058d 	lw	a1,28096(t0)
80034c84:	c46d068d 	lw	a2,28100(t0)
80034c88:	6800a3af 	sw	v1,104(sp)
80034c8c:	6c00a4af 	sw	a0,108(sp)
80034c90:	7000a5af 	sw	a1,112(sp)
80034c94:	7400a6af 	sw	a2,116(sp)
80034c98:	2310c202 	subu	v0,s6,v0
80034c9c:	040042ae 	sw	v0,4(s2)
80034ca0:	22002392 	lbu	v1,34(s1)
80034ca4:	02000224 	li	v0,2
80034ca8:	04006210 	beq	v1,v0,0x80034cbc
80034cac:	5800b027 	addiu	s0,sp,88
80034cb0:	18002486 	lh	a0,24(s1)
80034cb4:	f9d4010c 	jal	0x800753e4
80034cb8:	21280002 	move	a1,s0
80034cbc:	21200000 	move	a0,zero
80034cc0:	2130e002 	move	a2,s7
80034cc4:	81000224 	li	v0,129
80034cc8:	04006592 	lbu	a1,4(s3)
80034ccc:	7800a88f 	lw	t0,120(sp)
80034cd0:	21388002 	move	a3,s4
80034cd4:	1400b5af 	sw	s5,20(sp)
80034cd8:	1800b0af 	sw	s0,24(sp)
80034cdc:	1c00a2af 	sw	v0,28(sp)
80034ce0:	2000a0af 	sw	zero,32(sp)
80034ce4:	2400a0af 	sw	zero,36(sp)
80034ce8:	59950008 	j	0x80025564
80034cec:	2800b6af 	sw	s6,40(sp)
80034cf0:	1680083c 	lui	t0,0x8016
80034cf4:	90500825 	addiu	t0,t0,20624
80034cf8:	08002626 	addiu	a2,s1,8
80034cfc:	d8004726 	addiu	a3,s2,216
80034d00:	2d002282 	lb	v0,45(s1)
80034d04:	e400038d 	lw	v1,228(t0)
80034d08:	80100200 	sll	v0,v0,0x2
80034d0c:	21186200 	addu	v1,v1,v0
80034d10:	000043ae 	sw	v1,0(s2)
80034d14:	2d002382 	lb	v1,45(s1)
80034d18:	04000224 	li	v0,4
80034d1c:	23104300 	subu	v0,v0,v1
80034d20:	800042ae 	sw	v0,128(s2)
80034d24:	2d002282 	lb	v0,45(s1)
80034d28:	00100324 	li	v1,4096
80034d2c:	23106200 	subu	v0,v1,v0
80034d30:	040042ae 	sw	v0,4(s2)
80034d34:	04006592 	lbu	a1,4(s3)
80034d38:	04002226 	addiu	v0,s1,4
80034d3c:	1400a2af 	sw	v0,20(sp)
80034d40:	1880023c 	lui	v0,0x8018
80034d44:	7800a88f 	lw	t0,120(sp)
80034d48:	78bd4224 	addiu	v0,v0,-17032
80034d4c:	1800a2af 	sw	v0,24(sp)
80034d50:	80000224 	li	v0,128
80034d54:	1c00a2af 	sw	v0,28(sp)
80034d58:	2000a0af 	sw	zero,32(sp)
80034d5c:	2400a0af 	sw	zero,36(sp)
80034d60:	2800a3af 	sw	v1,40(sp)
80034d64:	1000a8af 	sw	t0,16(sp)
80034d68:	24002292 	lbu	v0,36(s1)
80034d6c:	4c02a524 	addiu	a1,a1,588
80034d70:	3000a0af 	sw	zero,48(sp)
80034d74:	9e89000c 	jal	0x80022678
80034d78:	2c00a2af 	sw	v0,44(sp)
80034d7c:	ffffde27 	addiu	s8,s8,-1
80034d80:	ffff0224 	li	v0,-1
80034d84:	31ffc217 	bne	s8,v0,0x80034a4c
80034d88:	1c80083c 	lui	t0,0x801c
80034d8c:	1b80023c 	lui	v0,0x801b
80034d90:	3f594290 	lbu	v0,22847(v0)
80034d94:	00000000 	nop
80034d98:	07004014 	bnez	v0,0x80034db8
80034d9c:	78014226 	addiu	v0,s2,376
80034da0:	05000424 	li	a0,5
80034da4:	21280000 	move	a1,zero
80034da8:	4c020624 	li	a2,588
80034dac:	b68f000c 	jal	0x80023ed8
80034db0:	80000724 	li	a3,128
80034db4:	78014226 	addiu	v0,s2,376
80034db8:	f00042ae 	sw	v0,240(s2)
80034dbc:	a400bf8f 	lw	ra,164(sp)
80034dc0:	a000be8f 	lw	s8,160(sp)
80034dc4:	9c00b78f 	lw	s7,156(sp)
80034dc8:	9800b68f 	lw	s6,152(sp)
80034dcc:	9400b58f 	lw	s5,148(sp)
80034dd0:	9000b48f 	lw	s4,144(sp)
80034dd4:	8c00b38f 	lw	s3,140(sp)
80034dd8:	8800b28f 	lw	s2,136(sp)
80034ddc:	8400b18f 	lw	s1,132(sp)
80034de0:	8000b08f 	lw	s0,128(sp)
80034de4:	a800bd27 	addiu	sp,sp,168
80034de8:	0800e003 	jr	ra
80034dec:	00000000 	nop
80034df0:	98ffbd27 	addiu	sp,sp,-104
80034df4:	4400b1af 	sw	s1,68(sp)
80034df8:	801f113c 	lui	s1,0x1f80
80034dfc:	1980023c 	lui	v0,0x8019
80034e00:	5400b5af 	sw	s5,84(sp)
80034e04:	18e35524 	addiu	s5,v0,-7400
80034e08:	5c00b7af 	sw	s7,92(sp)
80034e0c:	7f001724 	li	s7,127
80034e10:	1680023c 	lui	v0,0x8016
80034e14:	6000beaf 	sw	s8,96(sp)
80034e18:	90505e24 	addiu	s8,v0,20624
80034e1c:	4000b0af 	sw	s0,64(sp)
80034e20:	0700b026 	addiu	s0,s5,7
80034e24:	5000b4af 	sw	s4,80(sp)
80034e28:	4800b426 	addiu	s4,s5,72
80034e2c:	4c00b3af 	sw	s3,76(sp)
80034e30:	3800b326 	addiu	s3,s5,56
80034e34:	5800b6af 	sw	s6,88(sp)
80034e38:	3000b626 	addiu	s6,s5,48
80034e3c:	6400bfaf 	sw	ra,100(sp)
80034e40:	4800b2af 	sw	s2,72(sp)
80034e44:	0000a392 	lbu	v1,0(s5)
80034e48:	ff000224 	li	v0,255
80034e4c:	88006210 	beq	v1,v0,0x80035070
80034e50:	00000000 	nop
80034e54:	ffff0292 	lbu	v0,-1(s0)
80034e58:	00000000 	nop
80034e5c:	03004630 	andi	a2,v0,0x3
80034e60:	8300c010 	beqz	a2,0x80035070
80034e64:	00000000 	nop
80034e68:	1900028e 	lw	v0,25(s0)
80034e6c:	1d00038e 	lw	v1,29(s0)
80034e70:	2100048e 	lw	a0,33(s0)
80034e74:	2500058e 	lw	a1,37(s0)
80034e78:	e00022ae 	sw	v0,224(s1)
80034e7c:	e40023ae 	sw	v1,228(s1)
80034e80:	e80024ae 	sw	a0,232(s1)
80034e84:	ec0025ae 	sw	a1,236(s1)
80034e88:	02000224 	li	v0,2
80034e8c:	0500c210 	beq	a2,v0,0x80034ea4
80034e90:	2000b226 	addiu	s2,s5,32
80034e94:	5559000c 	jal	0x80016554
80034e98:	00000000 	nop
80034e9c:	74004010 	beqz	v0,0x80035070
80034ea0:	00000000 	nop
80034ea4:	07000296 	lhu	v0,7(s0)
80034ea8:	00000000 	nop
80034eac:	980022a6 	sh	v0,152(s1)
80034eb0:	03000496 	lhu	a0,3(s0)
80034eb4:	3800a527 	addiu	a1,sp,56
80034eb8:	60008424 	addiu	a0,a0,96
80034ebc:	6ecf000c 	jal	0x80033db8
80034ec0:	ffff8430 	andi	a0,a0,0xffff
80034ec4:	3800a28f 	lw	v0,56(sp)
80034ec8:	00000000 	nop
80034ecc:	68004010 	beqz	v0,0x80035070
80034ed0:	00000000 	nop
80034ed4:	ffff0292 	lbu	v0,-1(s0)
80034ed8:	00000000 	nop
80034edc:	0c004330 	andi	v1,v0,0xc
80034ee0:	04000224 	li	v0,4
80034ee4:	2b006210 	beq	v1,v0,0x80034f94
80034ee8:	05006228 	slti	v0,v1,5
80034eec:	05004010 	beqz	v0,0x80034f04
80034ef0:	08000224 	li	v0,8
80034ef4:	09006010 	beqz	v1,0x80034f1c
80034ef8:	21200000 	move	a0,zero
80034efc:	1d960008 	j	0x80025874
80034f00:	58001026 	addiu	s0,s0,88
80034f04:	31006210 	beq	v1,v0,0x80034fcc
80034f08:	0c000224 	li	v0,12
80034f0c:	3d006210 	beq	v1,v0,0x80035004
80034f10:	f0ff0224 	li	v0,-16
80034f14:	1d960008 	j	0x80025874
80034f18:	58001026 	addiu	s0,s0,88
80034f1c:	29000296 	lhu	v0,41(s0)
80034f20:	00000000 	nop
80034f24:	d80022a6 	sh	v0,216(s1)
80034f28:	2b000296 	lhu	v0,43(s0)
80034f2c:	00000000 	nop
80034f30:	da0022a6 	sh	v0,218(s1)
80034f34:	e400c28f 	lw	v0,228(s8)
80034f38:	2d000396 	lhu	v1,45(s0)
80034f3c:	e4ff4224 	addiu	v0,v0,-28
80034f40:	000022ae 	sw	v0,0(s1)
80034f44:	0b000224 	li	v0,11
80034f48:	800022ae 	sw	v0,128(s1)
80034f4c:	07100224 	li	v0,4103
80034f50:	040022ae 	sw	v0,4(s1)
80034f54:	1880023c 	lui	v0,0x8018
80034f58:	dc0023a6 	sh	v1,220(s1)
80034f5c:	03000596 	lhu	a1,3(s0)
80034f60:	78bd4224 	addiu	v0,v0,-17032
80034f64:	1000b3af 	sw	s3,16(sp)
80034f68:	1400b4af 	sw	s4,20(sp)
80034f6c:	1800a2af 	sw	v0,24(sp)
80034f70:	fbff0292 	lbu	v0,-5(s0)
80034f74:	00000000 	nop
80034f78:	1c00a2af 	sw	v0,28(sp)
80034f7c:	0d000296 	lhu	v0,13(s0)
80034f80:	21304002 	move	a2,s2
80034f84:	2000a2af 	sw	v0,32(sp)
80034f88:	0b000286 	lh	v0,11(s0)
80034f8c:	13960008 	j	0x8002584c
80034f90:	d8002726 	addiu	a3,s1,216
80034f94:	0b000224 	li	v0,11
80034f98:	800022ae 	sw	v0,128(s1)
80034f9c:	e400c38f 	lw	v1,228(s8)
80034fa0:	07100224 	li	v0,4103
80034fa4:	040022ae 	sw	v0,4(s1)
80034fa8:	0880023c 	lui	v0,0x8008
80034fac:	e4ff6324 	addiu	v1,v1,-28
80034fb0:	000023ae 	sw	v1,0(s1)
80034fb4:	03000596 	lhu	a1,3(s0)
80034fb8:	0c044224 	addiu	v0,v0,1036
80034fbc:	1000b3af 	sw	s3,16(sp)
80034fc0:	1400b4af 	sw	s4,20(sp)
80034fc4:	0b960008 	j	0x8002582c
80034fc8:	1800a2af 	sw	v0,24(sp)
80034fcc:	0b000224 	li	v0,11
80034fd0:	800022ae 	sw	v0,128(s1)
80034fd4:	e400c38f 	lw	v1,228(s8)
80034fd8:	07100224 	li	v0,4103
80034fdc:	040022ae 	sw	v0,4(s1)
80034fe0:	1880023c 	lui	v0,0x8018
80034fe4:	e4ff6324 	addiu	v1,v1,-28
80034fe8:	000023ae 	sw	v1,0(s1)
80034fec:	03000596 	lhu	a1,3(s0)
80034ff0:	38be4224 	addiu	v0,v0,-16840
80034ff4:	1000b3af 	sw	s3,16(sp)
80034ff8:	1400b4af 	sw	s4,20(sp)
80034ffc:	0b960008 	j	0x8002582c
80035000:	1800a2af 	sw	v0,24(sp)
80035004:	800022ae 	sw	v0,128(s1)
80035008:	e400c38f 	lw	v1,228(s8)
8003500c:	ec0f0224 	li	v0,4076
80035010:	040022ae 	sw	v0,4(s1)
80035014:	50006324 	addiu	v1,v1,80
80035018:	000023ae 	sw	v1,0(s1)
8003501c:	03000596 	lhu	a1,3(s0)
80035020:	1000b3af 	sw	s3,16(sp)
80035024:	1400b4af 	sw	s4,20(sp)
80035028:	1800a0af 	sw	zero,24(sp)
8003502c:	fbff0292 	lbu	v0,-5(s0)
80035030:	21200000 	move	a0,zero
80035034:	1c00a2af 	sw	v0,28(sp)
80035038:	0d000296 	lhu	v0,13(s0)
8003503c:	21304002 	move	a2,s2
80035040:	2000a2af 	sw	v0,32(sp)
80035044:	0b000286 	lh	v0,11(s0)
80035048:	2138c002 	move	a3,s6
8003504c:	2400a2af 	sw	v0,36(sp)
80035050:	0b000286 	lh	v0,11(s0)
80035054:	6000a524 	addiu	a1,a1,96
80035058:	2800a2af 	sw	v0,40(sp)
8003505c:	00000292 	lbu	v0,0(s0)
80035060:	ffffa530 	andi	a1,a1,0xffff
80035064:	3000a0af 	sw	zero,48(sp)
80035068:	9e89000c 	jal	0x80022678
8003506c:	2c00a2af 	sw	v0,44(sp)
80035070:	58001026 	addiu	s0,s0,88
80035074:	58009426 	addiu	s4,s4,88
80035078:	58007326 	addiu	s3,s3,88
8003507c:	5800d626 	addiu	s6,s6,88
80035080:	fffff726 	addiu	s7,s7,-1
80035084:	ffff0224 	li	v0,-1
80035088:	6effe216 	bne	s7,v0,0x80034e44
8003508c:	5800b526 	addiu	s5,s5,88
80035090:	1680023c 	lui	v0,0x8016
80035094:	8cc45324 	addiu	s3,v0,-15220
80035098:	7f001724 	li	s7,127
8003509c:	1680023c 	lui	v0,0x8016
800350a0:	90505524 	addiu	s5,v0,20624
800350a4:	00101424 	li	s4,4096
800350a8:	d8003e26 	addiu	s8,s1,216
800350ac:	07001624 	li	s6,7
800350b0:	05007026 	addiu	s0,s3,5
800350b4:	dc0020a6 	sh	zero,220(s1)
800350b8:	da0020a6 	sh	zero,218(s1)
800350bc:	d80020a6 	sh	zero,216(s1)
800350c0:	980020a6 	sh	zero,152(s1)
800350c4:	00006396 	lhu	v1,0(s3)
800350c8:	ffff0234 	li	v0,0xffff
800350cc:	be006210 	beq	v1,v0,0x800353c8
800350d0:	00806230 	andi	v0,v1,0x8000
800350d4:	06004010 	beqz	v0,0x800350f0
800350d8:	04000224 	li	v0,4
800350dc:	e400a38e 	lw	v1,228(s5)
800350e0:	800022ae 	sw	v0,128(s1)
800350e4:	040034ae 	sw	s4,4(s1)
800350e8:	d4960008 	j	0x80025b50
800350ec:	000023ae 	sw	v1,0(s1)
800350f0:	0300028e 	lw	v0,3(s0)
800350f4:	0700038e 	lw	v1,7(s0)
800350f8:	0b00048e 	lw	a0,11(s0)
800350fc:	0f00058e 	lw	a1,15(s0)
80035100:	e00022ae 	sw	v0,224(s1)
80035104:	e40023ae 	sw	v1,228(s1)
80035108:	e80024ae 	sw	a0,232(s1)
8003510c:	ec0025ae 	sw	a1,236(s1)
80035110:	5559000c 	jal	0x80016554
80035114:	08007226 	addiu	s2,s3,8
80035118:	8d004010 	beqz	v0,0x80035350
8003511c:	01000224 	li	v0,1
80035120:	fdff0592 	lbu	a1,-3(s0)
80035124:	00000000 	nop
80035128:	3f00a330 	andi	v1,a1,0x3f
8003512c:	34006214 	bne	v1,v0,0x80035200
80035130:	02000224 	li	v0,2
80035134:	03000424 	li	a0,3
80035138:	c000a230 	andi	v0,a1,0xc0
8003513c:	00110200 	sll	v0,v0,0x4
80035140:	da0022a6 	sh	v0,218(s1)
80035144:	18000224 	li	v0,24
80035148:	800022ae 	sw	v0,128(s1)
8003514c:	14100224 	li	v0,4116
80035150:	e400a38e 	lw	v1,228(s5)
80035154:	21304002 	move	a2,s2
80035158:	040022ae 	sw	v0,4(s1)
8003515c:	1880023c 	lui	v0,0x8018
80035160:	b0ff6324 	addiu	v1,v1,-80
80035164:	000023ae 	sw	v1,0(s1)
80035168:	00006596 	lhu	a1,0(s3)
8003516c:	78bd4224 	addiu	v0,v0,-17032
80035170:	1000a0af 	sw	zero,16(sp)
80035174:	1400a0af 	sw	zero,20(sp)
80035178:	1800a2af 	sw	v0,24(sp)
8003517c:	00000292 	lbu	v0,0(s0)
80035180:	2138c003 	move	a3,s8
80035184:	2000a0af 	sw	zero,32(sp)
80035188:	2400a0af 	sw	zero,36(sp)
8003518c:	2800b4af 	sw	s4,40(sp)
80035190:	2c00b6af 	sw	s6,44(sp)
80035194:	3000a0af 	sw	zero,48(sp)
80035198:	2800a524 	addiu	a1,a1,40
8003519c:	ffffa530 	andi	a1,a1,0xffff
800351a0:	80004224 	addiu	v0,v0,128
800351a4:	9e89000c 	jal	0x80022678
800351a8:	1c00a2af 	sw	v0,28(sp)
800351ac:	03000424 	li	a0,3
800351b0:	21304002 	move	a2,s2
800351b4:	da0020a6 	sh	zero,218(s1)
800351b8:	00006596 	lhu	a1,0(s3)
800351bc:	1880083c 	lui	t0,0x8018
800351c0:	38be0825 	addiu	t0,t0,-16840
800351c4:	1000a0af 	sw	zero,16(sp)
800351c8:	1400a0af 	sw	zero,20(sp)
800351cc:	1800a8af 	sw	t0,24(sp)
800351d0:	00000292 	lbu	v0,0(s0)
800351d4:	2138c003 	move	a3,s8
800351d8:	2000a0af 	sw	zero,32(sp)
800351dc:	2400a0af 	sw	zero,36(sp)
800351e0:	2800b4af 	sw	s4,40(sp)
800351e4:	2c00b6af 	sw	s6,44(sp)
800351e8:	3000a0af 	sw	zero,48(sp)
800351ec:	2800a524 	addiu	a1,a1,40
800351f0:	ffffa530 	andi	a1,a1,0xffff
800351f4:	80004224 	addiu	v0,v0,128
800351f8:	d2960008 	j	0x80025b48
800351fc:	1c00a2af 	sw	v0,28(sp)
80035200:	1c006214 	bne	v1,v0,0x80035274
80035204:	03000224 	li	v0,3
80035208:	03000424 	li	a0,3
8003520c:	18000224 	li	v0,24
80035210:	800022ae 	sw	v0,128(s1)
80035214:	14100224 	li	v0,4116
80035218:	e400a38e 	lw	v1,228(s5)
8003521c:	21304002 	move	a2,s2
80035220:	040022ae 	sw	v0,4(s1)
80035224:	b0ff6324 	addiu	v1,v1,-80
80035228:	000023ae 	sw	v1,0(s1)
8003522c:	00006596 	lhu	a1,0(s3)
80035230:	1880083c 	lui	t0,0x8018
80035234:	38be0825 	addiu	t0,t0,-16840
80035238:	1000a0af 	sw	zero,16(sp)
8003523c:	1400a0af 	sw	zero,20(sp)
80035240:	1800a8af 	sw	t0,24(sp)
80035244:	00000292 	lbu	v0,0(s0)
80035248:	d8002726 	addiu	a3,s1,216
8003524c:	2000a0af 	sw	zero,32(sp)
80035250:	2400a0af 	sw	zero,36(sp)
80035254:	2800b4af 	sw	s4,40(sp)
80035258:	2c00b6af 	sw	s6,44(sp)
8003525c:	3000a0af 	sw	zero,48(sp)
80035260:	2800a524 	addiu	a1,a1,40
80035264:	ffffa530 	andi	a1,a1,0xffff
80035268:	80004224 	addiu	v0,v0,128
8003526c:	d2960008 	j	0x80025b48
80035270:	1c00a2af 	sw	v0,28(sp)
80035274:	1c006214 	bne	v1,v0,0x800352e8
80035278:	03000424 	li	a0,3
8003527c:	21204000 	move	a0,v0
80035280:	18000224 	li	v0,24
80035284:	800022ae 	sw	v0,128(s1)
80035288:	14100224 	li	v0,4116
8003528c:	e400a38e 	lw	v1,228(s5)
80035290:	21304002 	move	a2,s2
80035294:	040022ae 	sw	v0,4(s1)
80035298:	1880023c 	lui	v0,0x8018
8003529c:	b0ff6324 	addiu	v1,v1,-80
800352a0:	000023ae 	sw	v1,0(s1)
800352a4:	00006596 	lhu	a1,0(s3)
800352a8:	78bd4224 	addiu	v0,v0,-17032
800352ac:	1000a0af 	sw	zero,16(sp)
800352b0:	1400a0af 	sw	zero,20(sp)
800352b4:	1800a2af 	sw	v0,24(sp)
800352b8:	00000292 	lbu	v0,0(s0)
800352bc:	d8002726 	addiu	a3,s1,216
800352c0:	2000a0af 	sw	zero,32(sp)
800352c4:	2400a0af 	sw	zero,36(sp)
800352c8:	2800b4af 	sw	s4,40(sp)
800352cc:	2c00b6af 	sw	s6,44(sp)
800352d0:	3000a0af 	sw	zero,48(sp)
800352d4:	2800a524 	addiu	a1,a1,40
800352d8:	ffffa530 	andi	a1,a1,0xffff
800352dc:	80004224 	addiu	v0,v0,128
800352e0:	d2960008 	j	0x80025b48
800352e4:	1c00a2af 	sw	v0,28(sp)
800352e8:	04000224 	li	v0,4
800352ec:	21304002 	move	a2,s2
800352f0:	e400a38e 	lw	v1,228(s5)
800352f4:	d8002726 	addiu	a3,s1,216
800352f8:	800022ae 	sw	v0,128(s1)
800352fc:	040034ae 	sw	s4,4(s1)
80035300:	000023ae 	sw	v1,0(s1)
80035304:	00006596 	lhu	a1,0(s3)
80035308:	1880083c 	lui	t0,0x8018
8003530c:	38be0825 	addiu	t0,t0,-16840
80035310:	1000a0af 	sw	zero,16(sp)
80035314:	1400a0af 	sw	zero,20(sp)
80035318:	1800a8af 	sw	t0,24(sp)
8003531c:	00000392 	lbu	v1,0(s0)
80035320:	05000224 	li	v0,5
80035324:	2000a0af 	sw	zero,32(sp)
80035328:	2400a0af 	sw	zero,36(sp)
8003532c:	2800b4af 	sw	s4,40(sp)
80035330:	2c00a2af 	sw	v0,44(sp)
80035334:	3000a0af 	sw	zero,48(sp)
80035338:	2800a524 	addiu	a1,a1,40
8003533c:	ffffa530 	andi	a1,a1,0xffff
80035340:	80006324 	addiu	v1,v1,128
80035344:	1c00a3af 	sw	v1,28(sp)
80035348:	9e89000c 	jal	0x80022678
8003534c:	00000000 	nop
80035350:	ffff0292 	lbu	v0,-1(s0)
80035354:	00000000 	nop
80035358:	1b004010 	beqz	v0,0x800353c8
8003535c:	1680023c 	lui	v0,0x8016
80035360:	ffff0392 	lbu	v1,-1(s0)
80035364:	88c4428c 	lw	v0,-15224(v0)
80035368:	00000000 	nop
8003536c:	1a004300 	div	zero,v0,v1
80035370:	02006014 	bnez	v1,0x8003537c
80035374:	00000000 	nop
80035378:	0d000700 	break	0x7
8003537c:	ffff0124 	li	at,-1
80035380:	04006114 	bne	v1,at,0x80035394
80035384:	0080013c 	lui	at,0x8000
80035388:	02004114 	bne	v0,at,0x80035394
8003538c:	00000000 	nop
80035390:	0d000600 	break	0x6
80035394:	10180000 	mfhi	v1
80035398:	00000000 	nop
8003539c:	0a006014 	bnez	v1,0x800353c8
800353a0:	00000000 	nop
800353a4:	00000292 	lbu	v0,0(s0)
800353a8:	feff0392 	lbu	v1,-2(s0)
800353ac:	01004224 	addiu	v0,v0,1
800353b0:	000002a2 	sb	v0,0(s0)
800353b4:	ff004230 	andi	v0,v0,0xff
800353b8:	2b104300 	sltu	v0,v0,v1
800353bc:	02004014 	bnez	v0,0x800353c8
800353c0:	00000000 	nop
800353c4:	000000a2 	sb	zero,0(s0)
800353c8:	18001026 	addiu	s0,s0,24
800353cc:	fffff726 	addiu	s7,s7,-1
800353d0:	ffff0224 	li	v0,-1
800353d4:	3bffe216 	bne	s7,v0,0x800350c4
800353d8:	18007326 	addiu	s3,s3,24
800353dc:	1680033c 	lui	v1,0x8016
800353e0:	88c4628c 	lw	v0,-15224(v1)
800353e4:	00000000 	nop
800353e8:	01004224 	addiu	v0,v0,1
800353ec:	88c462ac 	sw	v0,-15224(v1)
800353f0:	6400bf8f 	lw	ra,100(sp)
800353f4:	6000be8f 	lw	s8,96(sp)
800353f8:	5c00b78f 	lw	s7,92(sp)
800353fc:	5800b68f 	lw	s6,88(sp)
80035400:	5400b58f 	lw	s5,84(sp)
80035404:	5000b48f 	lw	s4,80(sp)
80035408:	4c00b38f 	lw	s3,76(sp)
8003540c:	4800b28f 	lw	s2,72(sp)
80035410:	4400b18f 	lw	s1,68(sp)
80035414:	4000b08f 	lw	s0,64(sp)
80035418:	6800bd27 	addiu	sp,sp,104
8003541c:	0800e003 	jr	ra
80035420:	00000000 	nop
80035424:	d8ffbd27 	addiu	sp,sp,-40
80035428:	1c00b1af 	sw	s1,28(sp)
8003542c:	21888000 	move	s1,a0
80035430:	2138a000 	move	a3,a1
80035434:	1680023c 	lui	v0,0x8016
80035438:	90d04224 	addiu	v0,v0,-12144
8003543c:	00800334 	li	v1,0x8000
80035440:	21284300 	addu	a1,v0,v1
80035444:	2400bfaf 	sw	ra,36(sp)
80035448:	2000b2af 	sw	s2,32(sp)
8003544c:	1800b0af 	sw	s0,24(sp)
80035450:	0403a38c 	lw	v1,772(a1)
80035454:	00000000 	nop
80035458:	0800728c 	lw	s2,8(v1)
8003545c:	0400628c 	lw	v0,4(v1)
80035460:	0c004426 	addiu	a0,s2,12
80035464:	2b104400 	sltu	v0,v0,a0
80035468:	5e004014 	bnez	v0,0x800355e4
8003546c:	2140e000 	move	t0,a3
80035470:	080064ac 	sw	a0,8(v1)
80035474:	2803a28c 	lw	v0,808(a1)
80035478:	0403a38c 	lw	v1,772(a1)
8003547c:	01004224 	addiu	v0,v0,1
80035480:	2803a2ac 	sw	v0,808(a1)
80035484:	0800708c 	lw	s0,8(v1)
80035488:	0400628c 	lw	v0,4(v1)
8003548c:	14000426 	addiu	a0,s0,20
80035490:	2b104400 	sltu	v0,v0,a0
80035494:	53004014 	bnez	v0,0x800355e4
80035498:	00000000 	nop
8003549c:	080064ac 	sw	a0,8(v1)
800354a0:	2803a28c 	lw	v0,808(a1)
800354a4:	00000000 	nop
800354a8:	01004224 	addiu	v0,v0,1
800354ac:	2803a2ac 	sw	v0,808(a1)
800354b0:	06002296 	lhu	v0,6(s1)
800354b4:	00000000 	nop
800354b8:	080002a6 	sh	v0,8(s0)
800354bc:	08002296 	lhu	v0,8(s1)
800354c0:	00000000 	nop
800354c4:	0a0002a6 	sh	v0,10(s0)
800354c8:	0e002296 	lhu	v0,14(s1)
800354cc:	00000000 	nop
800354d0:	0e0002a6 	sh	v0,14(s0)
800354d4:	02002292 	lbu	v0,2(s1)
800354d8:	00000000 	nop
800354dc:	0c0002a2 	sb	v0,12(s0)
800354e0:	03002292 	lbu	v0,3(s1)
800354e4:	00000000 	nop
800354e8:	0d0002a2 	sb	v0,13(s0)
800354ec:	04002292 	lbu	v0,4(s1)
800354f0:	00000000 	nop
800354f4:	100002a6 	sh	v0,16(s0)
800354f8:	05002292 	lbu	v0,5(s1)
800354fc:	00000000 	nop
80035500:	120002a6 	sh	v0,18(s0)
80035504:	0000c290 	lbu	v0,0(a2)
80035508:	00000000 	nop
8003550c:	040002a2 	sb	v0,4(s0)
80035510:	0100c290 	lbu	v0,1(a2)
80035514:	00000000 	nop
80035518:	050002a2 	sb	v0,5(s0)
8003551c:	0200c390 	lbu	v1,2(a2)
80035520:	04000224 	li	v0,4
80035524:	030002a2 	sb	v0,3(s0)
80035528:	64000224 	li	v0,100
8003552c:	070002a2 	sb	v0,7(s0)
80035530:	ff000224 	li	v0,255
80035534:	060003a2 	sb	v1,6(s0)
80035538:	ffff0331 	andi	v1,t0,0xffff
8003553c:	0c006210 	beq	v1,v0,0x80035570
80035540:	21280000 	move	a1,zero
80035544:	21204002 	move	a0,s2
80035548:	01000624 	li	a2,1
8003554c:	0300e730 	andi	a3,a3,0x3
80035550:	10002296 	lhu	v0,16(s1)
80035554:	40390700 	sll	a3,a3,0x5
80035558:	1000a0af 	sw	zero,16(sp)
8003555c:	4dea010c 	jal	0x8007a934
80035560:	25384700 	or	a3,v0,a3
80035564:	07000292 	lbu	v0,7(s0)
80035568:	64970008 	j	0x80025d90
8003556c:	02004234 	ori	v0,v0,0x2
80035570:	21204002 	move	a0,s2
80035574:	10002796 	lhu	a3,16(s1)
80035578:	01000624 	li	a2,1
8003557c:	4dea010c 	jal	0x8007a934
80035580:	1000a0af 	sw	zero,16(sp)
80035584:	07000292 	lbu	v0,7(s0)
80035588:	00000000 	nop
8003558c:	fd004230 	andi	v0,v0,0xfd
80035590:	070002a2 	sb	v0,7(s0)
80035594:	21280002 	move	a1,s0
80035598:	1680103c 	lui	s0,0x8016
8003559c:	90d01026 	addiu	s0,s0,-12144
800355a0:	00800234 	li	v0,0x8000
800355a4:	21800202 	addu	s0,s0,v0
800355a8:	12002486 	lh	a0,18(s1)
800355ac:	e400028e 	lw	v0,228(s0)
800355b0:	80200400 	sll	a0,a0,0x2
800355b4:	d9f1010c 	jal	0x8007c764
800355b8:	21204400 	addu	a0,v0,a0
800355bc:	21284002 	move	a1,s2
800355c0:	12002486 	lh	a0,18(s1)
800355c4:	e400028e 	lw	v0,228(s0)
800355c8:	80200400 	sll	a0,a0,0x2
800355cc:	d9f1010c 	jal	0x8007c764
800355d0:	21204400 	addu	a0,v0,a0
800355d4:	2403028e 	lw	v0,804(s0)
800355d8:	00000000 	nop
800355dc:	02004224 	addiu	v0,v0,2
800355e0:	240302ae 	sw	v0,804(s0)
800355e4:	2400bf8f 	lw	ra,36(sp)
800355e8:	2000b28f 	lw	s2,32(sp)
800355ec:	1c00b18f 	lw	s1,28(sp)
800355f0:	1800b08f 	lw	s0,24(sp)
800355f4:	2800bd27 	addiu	sp,sp,40
800355f8:	0800e003 	jr	ra
800355fc:	00000000 	nop
80035600:	e8ffbd27 	addiu	sp,sp,-24
80035604:	21388000 	move	a3,a0
80035608:	2148a000 	move	t1,a1
8003560c:	1680023c 	lui	v0,0x8016
80035610:	90d04224 	addiu	v0,v0,-12144
80035614:	00800334 	li	v1,0x8000
80035618:	21404300 	addu	t0,v0,v1
8003561c:	1400bfaf 	sw	ra,20(sp)
80035620:	1000b0af 	sw	s0,16(sp)
80035624:	0403038d 	lw	v1,772(t0)
80035628:	00000000 	nop
8003562c:	0800658c 	lw	a1,8(v1)
80035630:	0400628c 	lw	v0,4(v1)
80035634:	2800a424 	addiu	a0,a1,40
80035638:	2b104400 	sltu	v0,v0,a0
8003563c:	73004014 	bnez	v0,0x8003580c
80035640:	21502001 	move	t2,t1
80035644:	080064ac 	sw	a0,8(v1)
80035648:	2803028d 	lw	v0,808(t0)
8003564c:	00000000 	nop
80035650:	01004224 	addiu	v0,v0,1
80035654:	280302ad 	sw	v0,808(t0)
80035658:	0600e294 	lhu	v0,6(a3)
8003565c:	00000000 	nop
80035660:	0800a2a4 	sh	v0,8(a1)
80035664:	0800e294 	lhu	v0,8(a3)
80035668:	00000000 	nop
8003566c:	0a00a2a4 	sh	v0,10(a1)
80035670:	0600e294 	lhu	v0,6(a3)
80035674:	0a00e394 	lhu	v1,10(a3)
80035678:	00000000 	nop
8003567c:	21104300 	addu	v0,v0,v1
80035680:	1000a2a4 	sh	v0,16(a1)
80035684:	0800e294 	lhu	v0,8(a3)
80035688:	00000000 	nop
8003568c:	1200a2a4 	sh	v0,18(a1)
80035690:	0600e294 	lhu	v0,6(a3)
80035694:	00000000 	nop
80035698:	1800a2a4 	sh	v0,24(a1)
8003569c:	0800e294 	lhu	v0,8(a3)
800356a0:	0c00e394 	lhu	v1,12(a3)
800356a4:	00000000 	nop
800356a8:	21104300 	addu	v0,v0,v1
800356ac:	1a00a2a4 	sh	v0,26(a1)
800356b0:	0600e294 	lhu	v0,6(a3)
800356b4:	0a00e394 	lhu	v1,10(a3)
800356b8:	00000000 	nop
800356bc:	21104300 	addu	v0,v0,v1
800356c0:	2000a2a4 	sh	v0,32(a1)
800356c4:	0800e294 	lhu	v0,8(a3)
800356c8:	0c00e394 	lhu	v1,12(a3)
800356cc:	00000000 	nop
800356d0:	21104300 	addu	v0,v0,v1
800356d4:	2200a2a4 	sh	v0,34(a1)
800356d8:	0e00e294 	lhu	v0,14(a3)
800356dc:	00000000 	nop
800356e0:	0e00a2a4 	sh	v0,14(a1)
800356e4:	0200e290 	lbu	v0,2(a3)
800356e8:	00000000 	nop
800356ec:	0c00a2a0 	sb	v0,12(a1)
800356f0:	0300e290 	lbu	v0,3(a3)
800356f4:	00000000 	nop
800356f8:	0d00a2a0 	sb	v0,13(a1)
800356fc:	0200e290 	lbu	v0,2(a3)
80035700:	0400e390 	lbu	v1,4(a3)
80035704:	00000000 	nop
80035708:	21104300 	addu	v0,v0,v1
8003570c:	1400a2a0 	sb	v0,20(a1)
80035710:	0300e290 	lbu	v0,3(a3)
80035714:	00000000 	nop
80035718:	1500a2a0 	sb	v0,21(a1)
8003571c:	0200e290 	lbu	v0,2(a3)
80035720:	00000000 	nop
80035724:	1c00a2a0 	sb	v0,28(a1)
80035728:	0300e290 	lbu	v0,3(a3)
8003572c:	0500e390 	lbu	v1,5(a3)
80035730:	00000000 	nop
80035734:	21104300 	addu	v0,v0,v1
80035738:	1d00a2a0 	sb	v0,29(a1)
8003573c:	0200e290 	lbu	v0,2(a3)
80035740:	0400e390 	lbu	v1,4(a3)
80035744:	00000000 	nop
80035748:	21104300 	addu	v0,v0,v1
8003574c:	2400a2a0 	sb	v0,36(a1)
80035750:	0300e290 	lbu	v0,3(a3)
80035754:	0500e390 	lbu	v1,5(a3)
80035758:	00000000 	nop
8003575c:	21104300 	addu	v0,v0,v1
80035760:	2500a2a0 	sb	v0,37(a1)
80035764:	0000c290 	lbu	v0,0(a2)
80035768:	00000000 	nop
8003576c:	0400a2a0 	sb	v0,4(a1)
80035770:	0100c290 	lbu	v0,1(a2)
80035774:	00000000 	nop
80035778:	0500a2a0 	sb	v0,5(a1)
8003577c:	0200c390 	lbu	v1,2(a2)
80035780:	09000224 	li	v0,9
80035784:	0300a2a0 	sb	v0,3(a1)
80035788:	2c000224 	li	v0,44
8003578c:	0700a2a0 	sb	v0,7(a1)
80035790:	ff000224 	li	v0,255
80035794:	0600a3a0 	sb	v1,6(a1)
80035798:	ffff4331 	andi	v1,t2,0xffff
8003579c:	09006210 	beq	v1,v0,0x800357c4
800357a0:	03002231 	andi	v0,t1,0x3
800357a4:	40110200 	sll	v0,v0,0x5
800357a8:	1000e394 	lhu	v1,16(a3)
800357ac:	0700a490 	lbu	a0,7(a1)
800357b0:	25186200 	or	v1,v1,v0
800357b4:	02008434 	ori	a0,a0,0x2
800357b8:	1600a3a4 	sh	v1,22(a1)
800357bc:	f6970008 	j	0x80025fd8
800357c0:	0700a4a0 	sb	a0,7(a1)
800357c4:	0700a290 	lbu	v0,7(a1)
800357c8:	1000e394 	lhu	v1,16(a3)
800357cc:	fd004230 	andi	v0,v0,0xfd
800357d0:	1600a3a4 	sh	v1,22(a1)
800357d4:	0700a2a0 	sb	v0,7(a1)
800357d8:	1680103c 	lui	s0,0x8016
800357dc:	90d01026 	addiu	s0,s0,-12144
800357e0:	00800234 	li	v0,0x8000
800357e4:	21800202 	addu	s0,s0,v0
800357e8:	1200e484 	lh	a0,18(a3)
800357ec:	e400028e 	lw	v0,228(s0)
800357f0:	80200400 	sll	a0,a0,0x2
800357f4:	d9f1010c 	jal	0x8007c764
800357f8:	21204400 	addu	a0,v0,a0
800357fc:	2403028e 	lw	v0,804(s0)
80035800:	00000000 	nop
80035804:	01004224 	addiu	v0,v0,1
80035808:	240302ae 	sw	v0,804(s0)
8003580c:	1400bf8f 	lw	ra,20(sp)
80035810:	1000b08f 	lw	s0,16(sp)
80035814:	1800bd27 	addiu	sp,sp,24
80035818:	0800e003 	jr	ra
8003581c:	00000000 	nop
80035820:	d8ffbd27 	addiu	sp,sp,-40
80035824:	1c00b1af 	sw	s1,28(sp)
80035828:	21888000 	move	s1,a0
8003582c:	2138a000 	move	a3,a1
80035830:	1680023c 	lui	v0,0x8016
80035834:	90d04224 	addiu	v0,v0,-12144
80035838:	00800334 	li	v1,0x8000
8003583c:	21284300 	addu	a1,v0,v1
80035840:	2400bfaf 	sw	ra,36(sp)
80035844:	2000b2af 	sw	s2,32(sp)
80035848:	1800b0af 	sw	s0,24(sp)
8003584c:	0403a38c 	lw	v1,772(a1)
80035850:	00000000 	nop
80035854:	0800728c 	lw	s2,8(v1)
80035858:	0400628c 	lw	v0,4(v1)
8003585c:	0c004426 	addiu	a0,s2,12
80035860:	2b104400 	sltu	v0,v0,a0
80035864:	69004014 	bnez	v0,0x80035a0c
80035868:	2140e000 	move	t0,a3
8003586c:	080064ac 	sw	a0,8(v1)
80035870:	2803a28c 	lw	v0,808(a1)
80035874:	0403a38c 	lw	v1,772(a1)
80035878:	01004224 	addiu	v0,v0,1
8003587c:	2803a2ac 	sw	v0,808(a1)
80035880:	0800708c 	lw	s0,8(v1)
80035884:	0400628c 	lw	v0,4(v1)
80035888:	18000426 	addiu	a0,s0,24
8003588c:	2b104400 	sltu	v0,v0,a0
80035890:	5e004014 	bnez	v0,0x80035a0c
80035894:	00000000 	nop
80035898:	080064ac 	sw	a0,8(v1)
8003589c:	2803a28c 	lw	v0,808(a1)
800358a0:	00000000 	nop
800358a4:	01004224 	addiu	v0,v0,1
800358a8:	2803a2ac 	sw	v0,808(a1)
800358ac:	06002296 	lhu	v0,6(s1)
800358b0:	00000000 	nop
800358b4:	080002a6 	sh	v0,8(s0)
800358b8:	08002296 	lhu	v0,8(s1)
800358bc:	00000000 	nop
800358c0:	0a0002a6 	sh	v0,10(s0)
800358c4:	06002296 	lhu	v0,6(s1)
800358c8:	0a002396 	lhu	v1,10(s1)
800358cc:	00000000 	nop
800358d0:	21104300 	addu	v0,v0,v1
800358d4:	0c0002a6 	sh	v0,12(s0)
800358d8:	08002296 	lhu	v0,8(s1)
800358dc:	00000000 	nop
800358e0:	0e0002a6 	sh	v0,14(s0)
800358e4:	06002296 	lhu	v0,6(s1)
800358e8:	00000000 	nop
800358ec:	100002a6 	sh	v0,16(s0)
800358f0:	08002296 	lhu	v0,8(s1)
800358f4:	0c002396 	lhu	v1,12(s1)
800358f8:	00000000 	nop
800358fc:	21104300 	addu	v0,v0,v1
80035900:	120002a6 	sh	v0,18(s0)
80035904:	06002296 	lhu	v0,6(s1)
80035908:	0a002396 	lhu	v1,10(s1)
8003590c:	00000000 	nop
80035910:	21104300 	addu	v0,v0,v1
80035914:	140002a6 	sh	v0,20(s0)
80035918:	08002296 	lhu	v0,8(s1)
8003591c:	0c002396 	lhu	v1,12(s1)
80035920:	00000000 	nop
80035924:	21104300 	addu	v0,v0,v1
80035928:	160002a6 	sh	v0,22(s0)
8003592c:	0000c290 	lbu	v0,0(a2)
80035930:	00000000 	nop
80035934:	040002a2 	sb	v0,4(s0)
80035938:	0100c290 	lbu	v0,1(a2)
8003593c:	00000000 	nop
80035940:	050002a2 	sb	v0,5(s0)
80035944:	0200c390 	lbu	v1,2(a2)
80035948:	05000224 	li	v0,5
8003594c:	030002a2 	sb	v0,3(s0)
80035950:	28000224 	li	v0,40
80035954:	070002a2 	sb	v0,7(s0)
80035958:	ff000224 	li	v0,255
8003595c:	060003a2 	sb	v1,6(s0)
80035960:	ffff0331 	andi	v1,t0,0xffff
80035964:	0c006210 	beq	v1,v0,0x80035998
80035968:	21280000 	move	a1,zero
8003596c:	21204002 	move	a0,s2
80035970:	01000624 	li	a2,1
80035974:	0300e730 	andi	a3,a3,0x3
80035978:	10002296 	lhu	v0,16(s1)
8003597c:	40390700 	sll	a3,a3,0x5
80035980:	1000a0af 	sw	zero,16(sp)
80035984:	4dea010c 	jal	0x8007a934
80035988:	25384700 	or	a3,v0,a3
8003598c:	07000292 	lbu	v0,7(s0)
80035990:	6e980008 	j	0x800261b8
80035994:	02004234 	ori	v0,v0,0x2
80035998:	21204002 	move	a0,s2
8003599c:	10002796 	lhu	a3,16(s1)
800359a0:	01000624 	li	a2,1
800359a4:	4dea010c 	jal	0x8007a934
800359a8:	1000a0af 	sw	zero,16(sp)
800359ac:	07000292 	lbu	v0,7(s0)
800359b0:	00000000 	nop
800359b4:	fd004230 	andi	v0,v0,0xfd
800359b8:	070002a2 	sb	v0,7(s0)
800359bc:	21280002 	move	a1,s0
800359c0:	1680103c 	lui	s0,0x8016
800359c4:	90d01026 	addiu	s0,s0,-12144
800359c8:	00800234 	li	v0,0x8000
800359cc:	21800202 	addu	s0,s0,v0
800359d0:	12002486 	lh	a0,18(s1)
800359d4:	e400028e 	lw	v0,228(s0)
800359d8:	80200400 	sll	a0,a0,0x2
800359dc:	d9f1010c 	jal	0x8007c764
800359e0:	21204400 	addu	a0,v0,a0
800359e4:	21284002 	move	a1,s2
800359e8:	12002486 	lh	a0,18(s1)
800359ec:	e400028e 	lw	v0,228(s0)
800359f0:	80200400 	sll	a0,a0,0x2
800359f4:	d9f1010c 	jal	0x8007c764
800359f8:	21204400 	addu	a0,v0,a0
800359fc:	2403028e 	lw	v0,804(s0)
80035a00:	00000000 	nop
80035a04:	02004224 	addiu	v0,v0,2
80035a08:	240302ae 	sw	v0,804(s0)
80035a0c:	2400bf8f 	lw	ra,36(sp)
80035a10:	2000b28f 	lw	s2,32(sp)
80035a14:	1c00b18f 	lw	s1,28(sp)
80035a18:	1800b08f 	lw	s0,24(sp)
80035a1c:	2800bd27 	addiu	sp,sp,40
80035a20:	0800e003 	jr	ra
80035a24:	00000000 	nop
80035a28:	2148a000 	move	t1,a1
80035a2c:	0f270a24 	li	t2,9999
80035a30:	10278228 	slti	v0,a0,10000
80035a34:	02004010 	beqz	v0,0x80035a40
80035a38:	2140c000 	move	t0,a2
80035a3c:	21508000 	move	t2,a0
80035a40:	00140a00 	sll	v0,t2,0x10
80035a44:	031c0200 	sra	v1,v0,0x10
80035a48:	0a006228 	slti	v0,v1,10
80035a4c:	15004010 	beqz	v0,0x80035aa4
80035a50:	0880043c 	lui	a0,0x8008
80035a54:	f4f38424 	addiu	a0,a0,-3084
80035a58:	80100900 	sll	v0,t1,0x2
80035a5c:	21104900 	addu	v0,v0,t1
80035a60:	80100200 	sll	v0,v0,0x2
80035a64:	21104400 	addu	v0,v0,a0
80035a68:	01002325 	addiu	v1,t1,1
80035a6c:	000040a0 	sb	zero,0(v0)
80035a70:	80100300 	sll	v0,v1,0x2
80035a74:	21104300 	addu	v0,v0,v1
80035a78:	80100200 	sll	v0,v0,0x2
80035a7c:	21104400 	addu	v0,v0,a0
80035a80:	02002325 	addiu	v1,t1,2
80035a84:	000040a0 	sb	zero,0(v0)
80035a88:	80100300 	sll	v0,v1,0x2
80035a8c:	21104300 	addu	v0,v0,v1
80035a90:	80100200 	sll	v0,v0,0x2
80035a94:	21104400 	addu	v0,v0,a0
80035a98:	03002325 	addiu	v1,t1,3
80035a9c:	e0980008 	j	0x80026380
80035aa0:	000040a0 	sb	zero,0(v0)
80035aa4:	64006228 	slti	v0,v1,100
80035aa8:	0e004010 	beqz	v0,0x80035ae4
80035aac:	f4f38424 	addiu	a0,a0,-3084
80035ab0:	80100900 	sll	v0,t1,0x2
80035ab4:	21104900 	addu	v0,v0,t1
80035ab8:	80100200 	sll	v0,v0,0x2
80035abc:	21104400 	addu	v0,v0,a0
80035ac0:	01002325 	addiu	v1,t1,1
80035ac4:	000040a0 	sb	zero,0(v0)
80035ac8:	80100300 	sll	v0,v1,0x2
80035acc:	21104300 	addu	v0,v0,v1
80035ad0:	80100200 	sll	v0,v0,0x2
80035ad4:	21104400 	addu	v0,v0,a0
80035ad8:	02002325 	addiu	v1,t1,2
80035adc:	d7980008 	j	0x8002635c
80035ae0:	000040a0 	sb	zero,0(v0)
80035ae4:	e8036228 	slti	v0,v1,1000
80035ae8:	09004010 	beqz	v0,0x80035b10
80035aec:	0880043c 	lui	a0,0x8008
80035af0:	f4f38424 	addiu	a0,a0,-3084
80035af4:	80100900 	sll	v0,t1,0x2
80035af8:	21104900 	addu	v0,v0,t1
80035afc:	80100200 	sll	v0,v0,0x2
80035b00:	21104400 	addu	v0,v0,a0
80035b04:	01002325 	addiu	v1,t1,1
80035b08:	ce980008 	j	0x80026338
80035b0c:	000040a0 	sb	zero,0(v0)
80035b10:	f4f38424 	addiu	a0,a0,-3084
80035b14:	80100900 	sll	v0,t1,0x2
80035b18:	21104900 	addu	v0,v0,t1
80035b1c:	80100200 	sll	v0,v0,0x2
80035b20:	21104400 	addu	v0,v0,a0
80035b24:	00004390 	lbu	v1,0(v0)
80035b28:	00000000 	nop
80035b2c:	01006334 	ori	v1,v1,0x1
80035b30:	000043a0 	sb	v1,0(v0)
80035b34:	01002325 	addiu	v1,t1,1
80035b38:	80100300 	sll	v0,v1,0x2
80035b3c:	21104300 	addu	v0,v0,v1
80035b40:	80100200 	sll	v0,v0,0x2
80035b44:	21104400 	addu	v0,v0,a0
80035b48:	00004390 	lbu	v1,0(v0)
80035b4c:	00000000 	nop
80035b50:	01006334 	ori	v1,v1,0x1
80035b54:	000043a0 	sb	v1,0(v0)
80035b58:	02002325 	addiu	v1,t1,2
80035b5c:	80100300 	sll	v0,v1,0x2
80035b60:	21104300 	addu	v0,v0,v1
80035b64:	80100200 	sll	v0,v0,0x2
80035b68:	21104400 	addu	v0,v0,a0
80035b6c:	00004390 	lbu	v1,0(v0)
80035b70:	00000000 	nop
80035b74:	01006334 	ori	v1,v1,0x1
80035b78:	000043a0 	sb	v1,0(v0)
80035b7c:	03002325 	addiu	v1,t1,3
80035b80:	80100300 	sll	v0,v1,0x2
80035b84:	21104300 	addu	v0,v0,v1
80035b88:	80100200 	sll	v0,v0,0x2
80035b8c:	21104400 	addu	v0,v0,a0
80035b90:	00004390 	lbu	v1,0(v0)
80035b94:	00000000 	nop
80035b98:	01006334 	ori	v1,v1,0x1
80035b9c:	000043a0 	sb	v1,0(v0)
80035ba0:	6210033c 	lui	v1,0x1062
80035ba4:	d34d6334 	ori	v1,v1,0x4dd3
80035ba8:	00240a00 	sll	a0,t2,0x10
80035bac:	03140400 	sra	v0,a0,0x10
80035bb0:	18004300 	mult	v0,v1
80035bb4:	eb51073c 	lui	a3,0x51eb
80035bb8:	1f85e734 	ori	a3,a3,0x851f
80035bbc:	c3270400 	sra	a0,a0,0x1f
80035bc0:	10100000 	mfhi	v0
80035bc4:	83190200 	sra	v1,v0,0x6
80035bc8:	23186400 	subu	v1,v1,a0
80035bcc:	001c0300 	sll	v1,v1,0x10
80035bd0:	031c0300 	sra	v1,v1,0x10
80035bd4:	40290300 	sll	a1,v1,0x5
80035bd8:	2328a300 	subu	a1,a1,v1
80035bdc:	80280500 	sll	a1,a1,0x2
80035be0:	2128a300 	addu	a1,a1,v1
80035be4:	c0280500 	sll	a1,a1,0x3
80035be8:	23284501 	subu	a1,t2,a1
80035bec:	00340500 	sll	a2,a1,0x10
80035bf0:	03140600 	sra	v0,a2,0x10
80035bf4:	18004700 	mult	v0,a3
80035bf8:	ff000831 	andi	t0,t0,0xff
80035bfc:	10100000 	mfhi	v0
80035c00:	6666073c 	lui	a3,0x6666
80035c04:	6766e734 	ori	a3,a3,0x6667
80035c08:	18006800 	mult	v1,t0
80035c0c:	c3370600 	sra	a2,a2,0x1f
80035c10:	43210200 	sra	a0,v0,0x5
80035c14:	23208600 	subu	a0,a0,a2
80035c18:	00240400 	sll	a0,a0,0x10
80035c1c:	03240400 	sra	a0,a0,0x10
80035c20:	40100400 	sll	v0,a0,0x1
80035c24:	21104400 	addu	v0,v0,a0
80035c28:	c0100200 	sll	v0,v0,0x3
80035c2c:	21104400 	addu	v0,v0,a0
80035c30:	80100200 	sll	v0,v0,0x2
80035c34:	2328a200 	subu	a1,a1,v0
80035c38:	12180000 	mflo	v1
80035c3c:	00340500 	sll	a2,a1,0x10
80035c40:	03140600 	sra	v0,a2,0x10
80035c44:	18004700 	mult	v0,a3
80035c48:	c3370600 	sra	a2,a2,0x1f
80035c4c:	10500000 	mfhi	t2
80035c50:	0880073c 	lui	a3,0x8008
80035c54:	f4f3e724 	addiu	a3,a3,-3084
80035c58:	18008800 	mult	a0,t0
80035c5c:	80100900 	sll	v0,t1,0x2
80035c60:	21104900 	addu	v0,v0,t1
80035c64:	80100200 	sll	v0,v0,0x2
80035c68:	21104700 	addu	v0,v0,a3
80035c6c:	60006324 	addiu	v1,v1,96
80035c70:	020043a0 	sb	v1,2(v0)
80035c74:	01002325 	addiu	v1,t1,1
80035c78:	80100300 	sll	v0,v1,0x2
80035c7c:	21104300 	addu	v0,v0,v1
80035c80:	83180a00 	sra	v1,t2,0x2
80035c84:	23186600 	subu	v1,v1,a2
80035c88:	12600000 	mflo	t4
80035c8c:	001c0300 	sll	v1,v1,0x10
80035c90:	031c0300 	sra	v1,v1,0x10
80035c94:	18006800 	mult	v1,t0
80035c98:	80100200 	sll	v0,v0,0x2
80035c9c:	21104700 	addu	v0,v0,a3
80035ca0:	60008425 	addiu	a0,t4,96
80035ca4:	020044a0 	sb	a0,2(v0)
80035ca8:	02002425 	addiu	a0,t1,2
80035cac:	80100300 	sll	v0,v1,0x2
80035cb0:	21104300 	addu	v0,v0,v1
80035cb4:	40100200 	sll	v0,v0,0x1
80035cb8:	2328a200 	subu	a1,a1,v0
80035cbc:	12300000 	mflo	a2
80035cc0:	002c0500 	sll	a1,a1,0x10
80035cc4:	032c0500 	sra	a1,a1,0x10
80035cc8:	1800a800 	mult	a1,t0
80035ccc:	80100400 	sll	v0,a0,0x2
80035cd0:	21104400 	addu	v0,v0,a0
80035cd4:	80100200 	sll	v0,v0,0x2
80035cd8:	21104700 	addu	v0,v0,a3
80035cdc:	6000c324 	addiu	v1,a2,96
80035ce0:	020043a0 	sb	v1,2(v0)
80035ce4:	03002325 	addiu	v1,t1,3
80035ce8:	80100300 	sll	v0,v1,0x2
80035cec:	21104300 	addu	v0,v0,v1
80035cf0:	80100200 	sll	v0,v0,0x2
80035cf4:	21104700 	addu	v0,v0,a3
80035cf8:	12400000 	mflo	t0
80035cfc:	60000325 	addiu	v1,t0,96
80035d00:	0800e003 	jr	ra
80035d04:	020043a0 	sb	v1,2(v0)
80035d08:	e8ffbd27 	addiu	sp,sp,-24
80035d0c:	1a80023c 	lui	v0,0x801a
80035d10:	288f4424 	addiu	a0,v0,-28888
80035d14:	1400bfaf 	sw	ra,20(sp)
80035d18:	1000b0af 	sw	s0,16(sp)
80035d1c:	02008594 	lhu	a1,2(a0)
80035d20:	8a018294 	lhu	v0,394(a0)
80035d24:	00000000 	nop
80035d28:	0600a214 	bne	a1,v0,0x80035d44
80035d2c:	00000000 	nop
80035d30:	06008394 	lhu	v1,6(a0)
80035d34:	8c018294 	lhu	v0,396(a0)
80035d38:	00000000 	nop
80035d3c:	07006210 	beq	v1,v0,0x80035d5c
80035d40:	1a80023c 	lui	v0,0x801a
80035d44:	06008394 	lhu	v1,6(a0)
80035d48:	02000224 	li	v0,2
80035d4c:	860182a0 	sb	v0,390(a0)
80035d50:	8a0185a4 	sh	a1,394(a0)
80035d54:	8c0183a4 	sh	v1,396(a0)
80035d58:	1a80023c 	lui	v0,0x801a
80035d5c:	288f5024 	addiu	s0,v0,-28888
80035d60:	86010392 	lbu	v1,390(s0)
80035d64:	00000000 	nop
80035d68:	1f006010 	beqz	v1,0x80035de8
80035d6c:	02000224 	li	v0,2
80035d70:	1e006214 	bne	v1,v0,0x80035dec
80035d74:	1a80023c 	lui	v0,0x801a
80035d78:	0e000524 	li	a1,14
80035d7c:	10000624 	li	a2,16
80035d80:	0880083c 	lui	t0,0x8008
80035d84:	f4f30725 	addiu	a3,t0,-3084
80035d88:	02000496 	lhu	a0,2(s0)
80035d8c:	f4f30291 	lbu	v0,-3084(t0)
80035d90:	ff000324 	li	v1,255
80035d94:	cc01e3a0 	sb	v1,460(a3)
80035d98:	01004234 	ori	v0,v0,0x1
80035d9c:	f4f302a1 	sb	v0,-3084(t0)
80035da0:	1400e290 	lbu	v0,20(a3)
80035da4:	2800e390 	lbu	v1,40(a3)
80035da8:	01004234 	ori	v0,v0,0x1
80035dac:	1400e2a0 	sb	v0,20(a3)
80035db0:	3c00e290 	lbu	v0,60(a3)
80035db4:	02006334 	ori	v1,v1,0x2
80035db8:	2800e3a0 	sb	v1,40(a3)
80035dbc:	0401e390 	lbu	v1,260(a3)
80035dc0:	02004234 	ori	v0,v0,0x2
80035dc4:	01006334 	ori	v1,v1,0x1
80035dc8:	3c00e2a0 	sb	v0,60(a3)
80035dcc:	8a98000c 	jal	0x80026228
80035dd0:	0401e3a0 	sb	v1,260(a3)
80035dd4:	13000524 	li	a1,19
80035dd8:	06000496 	lhu	a0,6(s0)
80035ddc:	8a98000c 	jal	0x80026228
80035de0:	10000624 	li	a2,16
80035de4:	860100a2 	sb	zero,390(s0)
80035de8:	1a80023c 	lui	v0,0x801a
80035dec:	288f4724 	addiu	a3,v0,-28888
80035df0:	8601e290 	lbu	v0,390(a3)
80035df4:	00000000 	nop
80035df8:	1c004014 	bnez	v0,0x80035e6c
80035dfc:	6666053c 	lui	a1,0x6666
80035e00:	7e01e294 	lhu	v0,382(a3)
80035e04:	6766a534 	ori	a1,a1,0x6667
80035e08:	c0200200 	sll	a0,v0,0x3
80035e0c:	23208200 	subu	a0,a0,v0
80035e10:	00210400 	sll	a0,a0,0x4
80035e14:	18008500 	mult	a0,a1
80035e18:	8201e294 	lhu	v0,386(a3)
80035e1c:	00000000 	nop
80035e20:	c0180200 	sll	v1,v0,0x3
80035e24:	10300000 	mfhi	a2
80035e28:	23186200 	subu	v1,v1,v0
80035e2c:	00190300 	sll	v1,v1,0x4
80035e30:	18006500 	mult	v1,a1
80035e34:	c3270400 	sra	a0,a0,0x1f
80035e38:	0880053c 	lui	a1,0x8008
80035e3c:	f4f3a524 	addiu	a1,a1,-3084
80035e40:	c3120600 	sra	v0,a2,0xb
80035e44:	23104400 	subu	v0,v0,a0
80035e48:	c31f0300 	sra	v1,v1,0x1f
80035e4c:	0a00a2a4 	sh	v0,10(a1)
80035e50:	33010224 	li	v0,307
80035e54:	10400000 	mfhi	t0
80035e58:	c3220800 	sra	a0,t0,0xb
80035e5c:	23208300 	subu	a0,a0,v1
80035e60:	23104400 	subu	v0,v0,a0
80035e64:	1e00a4a4 	sh	a0,30(a1)
80035e68:	1a00a2a4 	sh	v0,26(a1)
80035e6c:	2c00e38c 	lw	v1,44(a3)
80035e70:	00000000 	nop
80035e74:	07006230 	andi	v0,v1,0x7
80035e78:	0e004010 	beqz	v0,0x80035eb4
80035e7c:	0880023c 	lui	v0,0x8008
80035e80:	f4f34424 	addiu	a0,v0,-3084
80035e84:	01000224 	li	v0,1
80035e88:	500082a0 	sb	v0,80(a0)
80035e8c:	04006230 	andi	v0,v1,0x4
80035e90:	03004010 	beqz	v0,0x80035ea0
80035e94:	09000224 	li	v0,9
80035e98:	af990008 	j	0x800266bc
80035e9c:	500082a0 	sb	v0,80(a0)
80035ea0:	02006230 	andi	v0,v1,0x2
80035ea4:	05004010 	beqz	v0,0x80035ebc
80035ea8:	05000224 	li	v0,5
80035eac:	af990008 	j	0x800266bc
80035eb0:	500082a0 	sb	v0,80(a0)
80035eb4:	0880023c 	lui	v0,0x8008
80035eb8:	44f440a0 	sb	zero,-3004(v0)
80035ebc:	1a80023c 	lui	v0,0x801a
80035ec0:	548f438c 	lw	v1,-28844(v0)
80035ec4:	00000000 	nop
80035ec8:	18006230 	andi	v0,v1,0x18
80035ecc:	09004010 	beqz	v0,0x80035ef4
80035ed0:	0880023c 	lui	v0,0x8008
80035ed4:	f4f34424 	addiu	a0,v0,-3084
80035ed8:	01000224 	li	v0,1
80035edc:	8c0082a0 	sb	v0,140(a0)
80035ee0:	10006230 	andi	v0,v1,0x10
80035ee4:	05004010 	beqz	v0,0x80035efc
80035ee8:	09000224 	li	v0,9
80035eec:	bf990008 	j	0x800266fc
80035ef0:	8c0082a0 	sb	v0,140(a0)
80035ef4:	0880023c 	lui	v0,0x8008
80035ef8:	80f440a0 	sb	zero,-2944(v0)
80035efc:	1a80023c 	lui	v0,0x801a
80035f00:	548f438c 	lw	v1,-28844(v0)
80035f04:	00000000 	nop
80035f08:	60006230 	andi	v0,v1,0x60
80035f0c:	09004010 	beqz	v0,0x80035f34
80035f10:	0880023c 	lui	v0,0x8008
80035f14:	f4f34424 	addiu	a0,v0,-3084
80035f18:	01000224 	li	v0,1
80035f1c:	b40082a0 	sb	v0,180(a0)
80035f20:	40006230 	andi	v0,v1,0x40
80035f24:	05004010 	beqz	v0,0x80035f3c
80035f28:	09000224 	li	v0,9
80035f2c:	cf990008 	j	0x8002673c
80035f30:	b40082a0 	sb	v0,180(a0)
80035f34:	0880023c 	lui	v0,0x8008
80035f38:	a8f440a0 	sb	zero,-2904(v0)
80035f3c:	1a80023c 	lui	v0,0x801a
80035f40:	548f428c 	lw	v0,-28844(v0)
80035f44:	00000000 	nop
80035f48:	80004230 	andi	v0,v0,0x80
80035f4c:	07004010 	beqz	v0,0x80035f6c
80035f50:	0880033c 	lui	v1,0x8008
80035f54:	f4f36324 	addiu	v1,v1,-3084
80035f58:	dc006290 	lbu	v0,220(v1)
80035f5c:	00000000 	nop
80035f60:	01004234 	ori	v0,v0,0x1
80035f64:	dd990008 	j	0x80026774
80035f68:	dc0062a0 	sb	v0,220(v1)
80035f6c:	0880023c 	lui	v0,0x8008
80035f70:	d0f440a0 	sb	zero,-2864(v0)
80035f74:	1a80023c 	lui	v0,0x801a
80035f78:	548f428c 	lw	v0,-28844(v0)
80035f7c:	00000000 	nop
80035f80:	00014230 	andi	v0,v0,0x100
80035f84:	07004010 	beqz	v0,0x80035fa4
80035f88:	0880033c 	lui	v1,0x8008
80035f8c:	f4f36324 	addiu	v1,v1,-3084
80035f90:	f0006290 	lbu	v0,240(v1)
80035f94:	00000000 	nop
80035f98:	01004234 	ori	v0,v0,0x1
80035f9c:	eb990008 	j	0x800267ac
80035fa0:	f00062a0 	sb	v0,240(v1)
80035fa4:	0880023c 	lui	v0,0x8008
80035fa8:	e4f440a0 	sb	zero,-2844(v0)
80035fac:	1a80023c 	lui	v0,0x801a
80035fb0:	cc90428c 	lw	v0,-28468(v0)
80035fb4:	00000000 	nop
80035fb8:	04004014 	bnez	v0,0x80035fcc
80035fbc:	0880033c 	lui	v1,0x8008
80035fc0:	0880023c 	lui	v0,0x8008
80035fc4:	f8990008 	j	0x800267e0
80035fc8:	d8f640a0 	sb	zero,-2344(v0)
80035fcc:	f4f36324 	addiu	v1,v1,-3084
80035fd0:	e4026290 	lbu	v0,740(v1)
80035fd4:	00000000 	nop
80035fd8:	01004234 	ori	v0,v0,0x1
80035fdc:	e40262a0 	sb	v0,740(v1)
80035fe0:	1a80023c 	lui	v0,0x801a
80035fe4:	e890428c 	lw	v0,-28440(v0)
80035fe8:	00000000 	nop
80035fec:	04004014 	bnez	v0,0x80036000
80035ff0:	0880033c 	lui	v1,0x8008
80035ff4:	0880023c 	lui	v0,0x8008
80035ff8:	059a0008 	j	0x80026814
80035ffc:	ecf640a0 	sb	zero,-2324(v0)
80036000:	f4f36324 	addiu	v1,v1,-3084
80036004:	f8026290 	lbu	v0,760(v1)
80036008:	00000000 	nop
8003600c:	01004234 	ori	v0,v0,0x1
80036010:	f80262a0 	sb	v0,760(v1)
80036014:	1a80023c 	lui	v0,0x801a
80036018:	d490428c 	lw	v0,-28460(v0)
8003601c:	00000000 	nop
80036020:	04004014 	bnez	v0,0x80036034
80036024:	0880033c 	lui	v1,0x8008
80036028:	0880023c 	lui	v0,0x8008
8003602c:	129a0008 	j	0x80026848
80036030:	00f740a0 	sb	zero,-2304(v0)
80036034:	f4f36324 	addiu	v1,v1,-3084
80036038:	0c036290 	lbu	v0,780(v1)
8003603c:	00000000 	nop
80036040:	01004234 	ori	v0,v0,0x1
80036044:	0c0362a0 	sb	v0,780(v1)
80036048:	1a80023c 	lui	v0,0x801a
8003604c:	d890428c 	lw	v0,-28456(v0)
80036050:	00000000 	nop
80036054:	04004014 	bnez	v0,0x80036068
80036058:	0880033c 	lui	v1,0x8008
8003605c:	0880023c 	lui	v0,0x8008
80036060:	1f9a0008 	j	0x8002687c
80036064:	14f740a0 	sb	zero,-2284(v0)
80036068:	f4f36324 	addiu	v1,v1,-3084
8003606c:	20036290 	lbu	v0,800(v1)
80036070:	00000000 	nop
80036074:	01004234 	ori	v0,v0,0x1
80036078:	200362a0 	sb	v0,800(v1)
8003607c:	1a80023c 	lui	v0,0x801a
80036080:	dc90428c 	lw	v0,-28452(v0)
80036084:	00000000 	nop
80036088:	04004014 	bnez	v0,0x8003609c
8003608c:	0880033c 	lui	v1,0x8008
80036090:	0880023c 	lui	v0,0x8008
80036094:	2c9a0008 	j	0x800268b0
80036098:	28f740a0 	sb	zero,-2264(v0)
8003609c:	f4f36324 	addiu	v1,v1,-3084
800360a0:	34036290 	lbu	v0,820(v1)
800360a4:	00000000 	nop
800360a8:	01004234 	ori	v0,v0,0x1
800360ac:	340362a0 	sb	v0,820(v1)
800360b0:	1a80023c 	lui	v0,0x801a
800360b4:	e090428c 	lw	v0,-28448(v0)
800360b8:	00000000 	nop
800360bc:	04004014 	bnez	v0,0x800360d0
800360c0:	0880033c 	lui	v1,0x8008
800360c4:	0880023c 	lui	v0,0x8008
800360c8:	399a0008 	j	0x800268e4
800360cc:	3cf740a0 	sb	zero,-2244(v0)
800360d0:	f4f36324 	addiu	v1,v1,-3084
800360d4:	48036290 	lbu	v0,840(v1)
800360d8:	00000000 	nop
800360dc:	01004234 	ori	v0,v0,0x1
800360e0:	480362a0 	sb	v0,840(v1)
800360e4:	1a80023c 	lui	v0,0x801a
800360e8:	e490428c 	lw	v0,-28444(v0)
800360ec:	00000000 	nop
800360f0:	04004014 	bnez	v0,0x80036104
800360f4:	0880033c 	lui	v1,0x8008
800360f8:	0880023c 	lui	v0,0x8008
800360fc:	469a0008 	j	0x80026918
80036100:	50f740a0 	sb	zero,-2224(v0)
80036104:	f4f36324 	addiu	v1,v1,-3084
80036108:	5c036290 	lbu	v0,860(v1)
8003610c:	00000000 	nop
80036110:	01004234 	ori	v0,v0,0x1
80036114:	5c0362a0 	sb	v0,860(v1)
80036118:	1a80023c 	lui	v0,0x801a
8003611c:	548f428c 	lw	v0,-28844(v0)
80036120:	0001033c 	lui	v1,0x100
80036124:	24104300 	and	v0,v0,v1
80036128:	07004010 	beqz	v0,0x80036148
8003612c:	0880033c 	lui	v1,0x8008
80036130:	f4f36324 	addiu	v1,v1,-3084
80036134:	70036290 	lbu	v0,880(v1)
80036138:	00000000 	nop
8003613c:	01004234 	ori	v0,v0,0x1
80036140:	549a0008 	j	0x80026950
80036144:	700362a0 	sb	v0,880(v1)
80036148:	0880023c 	lui	v0,0x8008
8003614c:	64f740a0 	sb	zero,-2204(v0)
80036150:	1400bf8f 	lw	ra,20(sp)
80036154:	1000b08f 	lw	s0,16(sp)
80036158:	1800bd27 	addiu	sp,sp,24
8003615c:	0800e003 	jr	ra
80036160:	00000000 	nop
80036164:	d0ffbd27 	addiu	sp,sp,-48
80036168:	0880023c 	lui	v0,0x8008
8003616c:	2800bfaf 	sw	ra,40(sp)
80036170:	2400b3af 	sw	s3,36(sp)
80036174:	2000b2af 	sw	s2,32(sp)
80036178:	1c00b1af 	sw	s1,28(sp)
8003617c:	1800b0af 	sw	s0,24(sp)
80036180:	147f4724 	addiu	a3,v0,32532
80036184:	0300e388 	lwl	v1,3(a3)
80036188:	0000e398 	lwr	v1,0(a3)
8003618c:	00000000 	nop
80036190:	1300a3ab 	swl	v1,19(sp)
80036194:	1000a3bb 	swr	v1,16(sp)
80036198:	ff008430 	andi	a0,a0,0xff
8003619c:	80180400 	sll	v1,a0,0x2
800361a0:	21186400 	addu	v1,v1,a0
800361a4:	80180300 	sll	v1,v1,0x2
800361a8:	0880023c 	lui	v0,0x8008
800361ac:	f4f34224 	addiu	v0,v0,-3084
800361b0:	21886200 	addu	s1,v1,v0
800361b4:	00002392 	lbu	v1,0(s1)
800361b8:	ff000224 	li	v0,255
800361bc:	2a006210 	beq	v1,v0,0x80036268
800361c0:	60001324 	li	s3,96
800361c4:	21904000 	move	s2,v0
800361c8:	01003026 	addiu	s0,s1,1
800361cc:	01006230 	andi	v0,v1,0x1
800361d0:	1a004010 	beqz	v0,0x8003623c
800361d4:	04006230 	andi	v0,v1,0x4
800361d8:	03004010 	beqz	v0,0x800361e8
800361dc:	08006230 	andi	v0,v1,0x8
800361e0:	819a0008 	j	0x80026a04
800361e4:	1200a0a3 	sb	zero,18(sp)
800361e8:	04004010 	beqz	v0,0x800361fc
800361ec:	00000000 	nop
800361f0:	1100a0a3 	sb	zero,17(sp)
800361f4:	819a0008 	j	0x80026a04
800361f8:	1200a0a3 	sb	zero,18(sp)
800361fc:	1100b3a3 	sb	s3,17(sp)
80036200:	1200b3a3 	sb	s3,18(sp)
80036204:	09000296 	lhu	v0,9(s0)
80036208:	00000000 	nop
8003620c:	06005210 	beq	v0,s2,0x80036228
80036210:	21202002 	move	a0,s1
80036214:	00000592 	lbu	a1,0(s0)
80036218:	8097000c 	jal	0x80025e00
8003621c:	1000a627 	addiu	a2,sp,16
80036220:	969a0008 	j	0x80026a58
80036224:	14003126 	addiu	s1,s1,20
80036228:	00000592 	lbu	a1,0(s0)
8003622c:	0997000c 	jal	0x80025c24
80036230:	1000a627 	addiu	a2,sp,16
80036234:	969a0008 	j	0x80026a58
80036238:	14003126 	addiu	s1,s1,20
8003623c:	02006230 	andi	v0,v1,0x2
80036240:	04004010 	beqz	v0,0x80036254
80036244:	21202002 	move	a0,s1
80036248:	00000592 	lbu	a1,0(s0)
8003624c:	0898000c 	jal	0x80026020
80036250:	1000a627 	addiu	a2,sp,16
80036254:	14003126 	addiu	s1,s1,20
80036258:	00002392 	lbu	v1,0(s1)
8003625c:	00000000 	nop
80036260:	daff7214 	bne	v1,s2,0x800361cc
80036264:	14001026 	addiu	s0,s0,20
80036268:	2800bf8f 	lw	ra,40(sp)
8003626c:	2400b38f 	lw	s3,36(sp)
80036270:	2000b28f 	lw	s2,32(sp)
80036274:	1c00b18f 	lw	s1,28(sp)
80036278:	1800b08f 	lw	s0,24(sp)
8003627c:	3000bd27 	addiu	sp,sp,48
80036280:	0800e003 	jr	ra
80036284:	00000000 	nop
80036288:	21388000 	move	a3,a0
8003628c:	00240400 	sll	a0,a0,0x10
80036290:	03240400 	sra	a0,a0,0x10
80036294:	ffff0224 	li	v0,-1
80036298:	16008210 	beq	a0,v0,0x800362f4
8003629c:	1d80023c 	lui	v0,0x801d
800362a0:	23d14290 	lbu	v0,-11997(v0)
800362a4:	00000000 	nop
800362a8:	12004010 	beqz	v0,0x800362f4
800362ac:	1a80023c 	lui	v0,0x801a
800362b0:	04000524 	li	a1,4
800362b4:	3c000824 	li	t0,60
800362b8:	ffff0624 	li	a2,-1
800362bc:	288f4224 	addiu	v0,v0,-28888
800362c0:	08004424 	addiu	a0,v0,8
800362c4:	10004324 	addiu	v1,v0,16
800362c8:	ec01628c 	lw	v0,492(v1)
800362cc:	00000000 	nop
800362d0:	04004014 	bnez	v0,0x800362e4
800362d4:	00000000 	nop
800362d8:	ec0168ac 	sw	t0,492(v1)
800362dc:	bd9a0008 	j	0x80026af4
800362e0:	0c0287a4 	sh	a3,524(a0)
800362e4:	feff8424 	addiu	a0,a0,-2
800362e8:	ffffa524 	addiu	a1,a1,-1
800362ec:	f6ffa614 	bne	a1,a2,0x800362c8
800362f0:	fcff6324 	addiu	v1,v1,-4
800362f4:	0800e003 	jr	ra
800362f8:	00000000 	nop
800362fc:	c8ffbd27 	addiu	sp,sp,-56
80036300:	2000b0af 	sw	s0,32(sp)
80036304:	21808000 	move	s0,a0
80036308:	2400b1af 	sw	s1,36(sp)
8003630c:	2188a000 	move	s1,a1
80036310:	3400bfaf 	sw	ra,52(sp)
80036314:	3000b4af 	sw	s4,48(sp)
80036318:	2c00b3af 	sw	s3,44(sp)
8003631c:	c45e010c 	jal	0x80057b10
80036320:	2800b2af 	sw	s2,40(sp)
80036324:	21200002 	move	a0,s0
80036328:	aa5d000c 	jal	0x800176a8
8003632c:	21282002 	move	a1,s1
80036330:	855a000c 	jal	0x80016a14
80036334:	00000000 	nop
80036338:	1a80023c 	lui	v0,0x801a
8003633c:	40914390 	lbu	v1,-28352(v0)
80036340:	00000000 	nop
80036344:	07006010 	beqz	v1,0x80036364
80036348:	05000224 	li	v0,5
8003634c:	05006210 	beq	v1,v0,0x80036364
80036350:	06000224 	li	v0,6
80036354:	03006210 	beq	v1,v0,0x80036364
80036358:	01000224 	li	v0,1
8003635c:	03006214 	bne	v1,v0,0x8003636c
80036360:	00000000 	nop
80036364:	44cc000c 	jal	0x80033110
80036368:	00000000 	nop
8003636c:	315d000c 	jal	0x800174c4
80036370:	00000000 	nop
80036374:	3ed0000c 	jal	0x800340f8
80036378:	00000000 	nop
8003637c:	f1d3000c 	jal	0x80034fc4
80036380:	00000000 	nop
80036384:	1680023c 	lui	v0,0x8016
80036388:	90d04224 	addiu	v0,v0,-12144
8003638c:	00800334 	li	v1,0x8000
80036390:	21104300 	addu	v0,v0,v1
80036394:	200340ac 	sw	zero,800(v0)
80036398:	1a80023c 	lui	v0,0x801a
8003639c:	288f4424 	addiu	a0,v0,-28888
800363a0:	18028390 	lbu	v1,536(a0)
800363a4:	01000224 	li	v0,1
800363a8:	27006214 	bne	v1,v0,0x80036448
800363ac:	1d80023c 	lui	v0,0x801d
800363b0:	5800878f 	lw	a3,88(gp)
800363b4:	5e018280 	lb	v0,350(a0)
800363b8:	0100e524 	addiu	a1,a3,1
800363bc:	2130a000 	move	a2,a1
800363c0:	80180200 	sll	v1,v0,0x2
800363c4:	21186200 	addu	v1,v1,v0
800363c8:	80180300 	sll	v1,v1,0x2
800363cc:	0880023c 	lui	v0,0x8008
800363d0:	fcf54224 	addiu	v0,v0,-2564
800363d4:	0200a104 	bgez	a1,0x800363e0
800363d8:	21206200 	addu	a0,v1,v0
800363dc:	2000e624 	addiu	a2,a3,32
800363e0:	43110600 	sra	v0,a2,0x5
800363e4:	40110200 	sll	v0,v0,0x5
800363e8:	2310a200 	subu	v0,a1,v0
800363ec:	580082af 	sw	v0,88(gp)
800363f0:	10004228 	slti	v0,v0,16
800363f4:	04004010 	beqz	v0,0x80036408
800363f8:	08000224 	li	v0,8
800363fc:	58008397 	lhu	v1,88(gp)
80036400:	059b0008 	j	0x80026c14
80036404:	23104300 	subu	v0,v0,v1
80036408:	58008297 	lhu	v0,88(gp)
8003640c:	00000000 	nop
80036410:	e8ff4224 	addiu	v0,v0,-24
80036414:	06008424 	addiu	a0,a0,6
80036418:	1800a527 	addiu	a1,sp,24
8003641c:	01010624 	li	a2,257
80036420:	80100200 	sll	v0,v0,0x2
80036424:	60004224 	addiu	v0,v0,96
80036428:	01000724 	li	a3,1
8003642c:	1800a2a3 	sb	v0,24(sp)
80036430:	1900a2a3 	sb	v0,25(sp)
80036434:	469f000c 	jal	0x80027d18
80036438:	1a00a2a3 	sb	v0,26(sp)
8003643c:	599a000c 	jal	0x80026964
80036440:	1a000424 	li	a0,26
80036444:	1d80023c 	lui	v0,0x801d
80036448:	23d14290 	lbu	v0,-11997(v0)
8003644c:	00000000 	nop
80036450:	2a004010 	beqz	v0,0x800364fc
80036454:	1b80023c 	lui	v0,0x801b
80036458:	29594290 	lbu	v0,22825(v0)
8003645c:	00000000 	nop
80036460:	2c00422c 	sltiu	v0,v0,44
80036464:	25004010 	beqz	v0,0x800364fc
80036468:	00000000 	nop
8003646c:	4299000c 	jal	0x80026508
80036470:	04001424 	li	s4,4
80036474:	599a000c 	jal	0x80026964
80036478:	21200000 	move	a0,zero
8003647c:	0880023c 	lui	v0,0x8008
80036480:	f4f35324 	addiu	s3,v0,-3084
80036484:	1a80023c 	lui	v0,0x801a
80036488:	288f4224 	addiu	v0,v0,-28888
8003648c:	08005224 	addiu	s2,v0,8
80036490:	d0001024 	li	s0,208
80036494:	10005124 	addiu	s1,v0,16
80036498:	ec01228e 	lw	v0,492(s1)
8003649c:	00000000 	nop
800364a0:	0e004010 	beqz	v0,0x800364dc
800364a4:	20000524 	li	a1,32
800364a8:	c40270a6 	sh	s0,708(s3)
800364ac:	b00270a6 	sh	s0,688(s3)
800364b0:	9c0270a6 	sh	s0,668(s3)
800364b4:	880270a6 	sh	s0,648(s3)
800364b8:	0c024486 	lh	a0,524(s2)
800364bc:	8a98000c 	jal	0x80026228
800364c0:	08000624 	li	a2,8
800364c4:	599a000c 	jal	0x80026964
800364c8:	20000424 	li	a0,32
800364cc:	ec01228e 	lw	v0,492(s1)
800364d0:	00000000 	nop
800364d4:	ffff4224 	addiu	v0,v0,-1
800364d8:	ec0122ae 	sw	v0,492(s1)
800364dc:	feff5226 	addiu	s2,s2,-2
800364e0:	f0ff1026 	addiu	s0,s0,-16
800364e4:	ffff9426 	addiu	s4,s4,-1
800364e8:	ffff0224 	li	v0,-1
800364ec:	eaff8216 	bne	s4,v0,0x80036498
800364f0:	fcff3126 	addiu	s1,s1,-4
800364f4:	599a000c 	jal	0x80026964
800364f8:	25000424 	li	a0,37
800364fc:	0786000c 	jal	0x8002181c
80036500:	00000000 	nop
80036504:	3686000c 	jal	0x800218d8
80036508:	00000000 	nop
8003650c:	9585000c 	jal	0x80021654
80036510:	00000000 	nop
80036514:	b186000c 	jal	0x80021ac4
80036518:	21200000 	move	a0,zero
8003651c:	b186000c 	jal	0x80021ac4
80036520:	01000424 	li	a0,1
80036524:	a082000c 	jal	0x80020a80
80036528:	00000000 	nop
8003652c:	3872000c 	jal	0x8001c8e0
80036530:	00000000 	nop
80036534:	7272000c 	jal	0x8001c9c8
80036538:	00000000 	nop
8003653c:	ae72000c 	jal	0x8001cab8
80036540:	00000000 	nop
80036544:	7490000c 	jal	0x800241d0
80036548:	00000000 	nop
8003654c:	b991000c 	jal	0x800246e4
80036550:	00000000 	nop
80036554:	7294000c 	jal	0x800251c8
80036558:	00000000 	nop
8003655c:	7c95000c 	jal	0x800255f0
80036560:	00000000 	nop
80036564:	0100023c 	lui	v0,0x1
80036568:	00804234 	ori	v0,v0,0x8000
8003656c:	1680033c 	lui	v1,0x8016
80036570:	90d06324 	addiu	v1,v1,-12144
80036574:	21806200 	addu	s0,v1,v0
80036578:	166e0292 	lbu	v0,28182(s0)
8003657c:	00000000 	nop
80036580:	03004010 	beqz	v0,0x80036590
80036584:	00000000 	nop
80036588:	e1a1000c 	jal	0x80028784
8003658c:	00000000 	nop
80036590:	a05d000c 	jal	0x80017680
80036594:	00000000 	nop
80036598:	d754000c 	jal	0x8001535c
8003659c:	00000000 	nop
800365a0:	c06c0292 	lbu	v0,27840(s0)
800365a4:	00000000 	nop
800365a8:	01004224 	addiu	v0,v0,1
800365ac:	c06c02a2 	sb	v0,27840(s0)
800365b0:	3400bf8f 	lw	ra,52(sp)
800365b4:	3000b48f 	lw	s4,48(sp)
800365b8:	2c00b38f 	lw	s3,44(sp)
800365bc:	2800b28f 	lw	s2,40(sp)
800365c0:	2400b18f 	lw	s1,36(sp)
800365c4:	2000b08f 	lw	s0,32(sp)
800365c8:	3800bd27 	addiu	sp,sp,56
800365cc:	0800e003 	jr	ra
800365d0:	00000000 	nop
800365d4:	e8ffbd27 	addiu	sp,sp,-24
800365d8:	1000b0af 	sw	s0,16(sp)
800365dc:	1400bfaf 	sw	ra,20(sp)
800365e0:	bf9a000c 	jal	0x80026afc
800365e4:	2180c000 	move	s0,a2
800365e8:	93f0000c 	jal	0x8003c24c
800365ec:	21200002 	move	a0,s0
800365f0:	1400bf8f 	lw	ra,20(sp)
800365f4:	1000b08f 	lw	s0,16(sp)
800365f8:	1800bd27 	addiu	sp,sp,24
800365fc:	0800e003 	jr	ra
80036600:	00000000 	nop
80036604:	e8ffbd27 	addiu	sp,sp,-24
80036608:	21200000 	move	a0,zero
8003660c:	1400bfaf 	sw	ra,20(sp)
80036610:	98e6010c 	jal	0x80079a60
80036614:	1000b0af 	sw	s0,16(sp)
80036618:	0100023c 	lui	v0,0x1
8003661c:	00804234 	ori	v0,v0,0x8000
80036620:	1680103c 	lui	s0,0x8016
80036624:	90d01026 	addiu	s0,s0,-12144
80036628:	21100202 	addu	v0,s0,v0
8003662c:	c26c4290 	lbu	v0,27842(v0)
80036630:	00d40334 	li	v1,0xd400
80036634:	40200200 	sll	a0,v0,0x1
80036638:	21208200 	addu	a0,a0,v0
8003663c:	c0200400 	sll	a0,a0,0x3
80036640:	23208200 	subu	a0,a0,v0
80036644:	80200400 	sll	a0,a0,0x2
80036648:	00800234 	li	v0,0x8000
8003664c:	21100202 	addu	v0,s0,v0
80036650:	ec02458c 	lw	a1,748(v0)
80036654:	21209000 	addu	a0,a0,s0
80036658:	2128a300 	addu	a1,a1,v1
8003665c:	f00245ac 	sw	a1,752(v0)
80036660:	f80245ac 	sw	a1,760(v0)
80036664:	2128a300 	addu	a1,a1,v1
80036668:	5be7010c 	jal	0x80079d6c
8003666c:	fc0245ac 	sw	a1,764(v0)
80036670:	01000224 	li	v0,1
80036674:	180002a2 	sb	v0,24(s0)
80036678:	740002a2 	sb	v0,116(s0)
8003667c:	1400bf8f 	lw	ra,20(sp)
80036680:	1000b08f 	lw	s0,16(sp)
80036684:	1800bd27 	addiu	sp,sp,24
80036688:	0800e003 	jr	ra
8003668c:	00000000 	nop
80036690:	1680033c 	lui	v1,0x8016
80036694:	90d06324 	addiu	v1,v1,-12144
80036698:	01000224 	li	v0,1
8003669c:	180062a0 	sb	v0,24(v1)
800366a0:	740062a0 	sb	v0,116(v1)
800366a4:	00800234 	li	v0,0x8000
800366a8:	21186200 	addu	v1,v1,v0
800366ac:	ec02628c 	lw	v0,748(v1)
800366b0:	0200043c 	lui	a0,0x2
800366b4:	21104400 	addu	v0,v0,a0
800366b8:	f00262ac 	sw	v0,752(v1)
800366bc:	f80262ac 	sw	v0,760(v1)
800366c0:	21104400 	addu	v0,v0,a0
800366c4:	0800e003 	jr	ra
800366c8:	fc0262ac 	sw	v0,764(v1)
800366cc:	e0ffbd27 	addiu	sp,sp,-32
800366d0:	801f023c 	lui	v0,0x1f80
800366d4:	e5024290 	lbu	v0,741(v0)
800366d8:	21188000 	move	v1,a0
800366dc:	1c00bfaf 	sw	ra,28(sp)
800366e0:	09004014 	bnez	v0,0x80036708
800366e4:	1800b0af 	sw	s0,24(sp)
800366e8:	0c000d24 	li	t5,12
800366ec:	2158a001 	move	t3,t5
800366f0:	21706001 	move	t6,t3
800366f4:	21786001 	move	t7,t3
800366f8:	06000c24 	li	t4,6
800366fc:	15000824 	li	t0,21
80036700:	c99b0008 	j	0x80026f24
80036704:	40000424 	li	a0,64
80036708:	07000c24 	li	t4,7
8003670c:	12000824 	li	t0,18
80036710:	04000424 	li	a0,4
80036714:	0c000f24 	li	t7,12
80036718:	0a000e24 	li	t6,10
8003671c:	2158e001 	move	t3,t7
80036720:	2168c001 	move	t5,t6
80036724:	ffff6330 	andi	v1,v1,0xffff
80036728:	ffff8430 	andi	a0,a0,0xffff
8003672c:	2b106400 	sltu	v0,v1,a0
80036730:	54004010 	beqz	v0,0x80036884
80036734:	42200400 	srl	a0,a0,0x1
80036738:	40200800 	sll	a0,t0,0x1
8003673c:	1a006400 	div	zero,v1,a0
80036740:	02008014 	bnez	a0,0x8003674c
80036744:	00000000 	nop
80036748:	0d000700 	break	0x7
8003674c:	ffff0124 	li	at,-1
80036750:	04008114 	bne	a0,at,0x80036764
80036754:	0080013c 	lui	at,0x8000
80036758:	02006114 	bne	v1,at,0x80036764
8003675c:	00000000 	nop
80036760:	0d000600 	break	0x6
80036764:	12200000 	mflo	a0
80036768:	10100000 	mfhi	v0
8003676c:	ffff8b31 	andi	t3,t4,0xffff
80036770:	00000000 	nop
80036774:	18004b00 	mult	v0,t3
80036778:	12480000 	mflo	t1
	...
80036784:	1800a401 	mult	t5,a0
80036788:	00800334 	li	v1,0x8000
8003678c:	1680023c 	lui	v0,0x8016
80036790:	90d04224 	addiu	v0,v0,-12144
80036794:	21504300 	addu	t2,v0,v1
80036798:	0403438d 	lw	v1,772(t2)
8003679c:	00000000 	nop
800367a0:	0800708c 	lw	s0,8(v1)
800367a4:	0400628c 	lw	v0,4(v1)
800367a8:	28000826 	addiu	t0,s0,40
800367ac:	2b104800 	sltu	v0,v0,t0
800367b0:	12200000 	mflo	a0
800367b4:	d8004014 	bnez	v0,0x80036b18
800367b8:	00000000 	nop
800367bc:	080068ac 	sw	t0,8(v1)
800367c0:	2803428d 	lw	v0,808(t2)
800367c4:	21188901 	addu	v1,t4,t1
800367c8:	01004224 	addiu	v0,v0,1
800367cc:	280342ad 	sw	v0,808(t2)
800367d0:	2110a401 	addu	v0,t5,a0
800367d4:	0c0009a2 	sb	t1,12(s0)
800367d8:	0d0004a2 	sb	a0,13(s0)
800367dc:	140003a2 	sb	v1,20(s0)
800367e0:	150004a2 	sb	a0,21(s0)
800367e4:	1c0009a2 	sb	t1,28(s0)
800367e8:	1d0002a2 	sb	v0,29(s0)
800367ec:	240003a2 	sb	v1,36(s0)
800367f0:	250002a2 	sb	v0,37(s0)
800367f4:	0403828f 	lw	v0,772(gp)
800367f8:	00000000 	nop
800367fc:	1f004010 	beqz	v0,0x8003687c
80036800:	01000224 	li	v0,1
80036804:	0980033c 	lui	v1,0x8009
80036808:	ac816394 	lhu	v1,-32340(v1)
8003680c:	00000000 	nop
80036810:	05006214 	bne	v1,v0,0x80036828
80036814:	01006225 	addiu	v0,t3,1
80036818:	0980033c 	lui	v1,0x8009
8003681c:	a0816394 	lhu	v1,-32352(v1)
80036820:	0e9c0008 	j	0x80027038
80036824:	18006200 	mult	v1,v0
80036828:	0980033c 	lui	v1,0x8009
8003682c:	a2816394 	lhu	v1,-32350(v1)
80036830:	00000000 	nop
80036834:	18006200 	mult	v1,v0
80036838:	12c00000 	mflo	t8
8003683c:	2328b800 	subu	a1,a1,t8
80036840:	0003828f 	lw	v0,768(gp)
80036844:	00000000 	nop
80036848:	01004224 	addiu	v0,v0,1
8003684c:	21108201 	addu	v0,t4,v0
80036850:	000382af 	sw	v0,768(gp)
80036854:	fc028287 	lh	v0,764(gp)
80036858:	ffffa330 	andi	v1,a1,0xffff
8003685c:	2a104300 	slt	v0,v0,v1
80036860:	53004014 	bnez	v0,0x800369b0
80036864:	00000000 	nop
80036868:	fa028287 	lh	v0,762(gp)
8003686c:	00000000 	nop
80036870:	2a106200 	slt	v0,v1,v0
80036874:	a8004014 	bnez	v0,0x80036b18
80036878:	00000000 	nop
8003687c:	789c0008 	j	0x800271e0
80036880:	2110ac00 	addu	v0,a1,t4
80036884:	23206400 	subu	a0,v1,a0
80036888:	1a008800 	div	zero,a0,t0
8003688c:	02000015 	bnez	t0,0x80036898
80036890:	00000000 	nop
80036894:	0d000700 	break	0x7
80036898:	ffff0124 	li	at,-1
8003689c:	04000115 	bne	t0,at,0x800368b0
800368a0:	0080013c 	lui	at,0x8000
800368a4:	02008114 	bne	a0,at,0x800368b0
800368a8:	00000000 	nop
800368ac:	0d000600 	break	0x6
800368b0:	12200000 	mflo	a0
800368b4:	10100000 	mfhi	v0
800368b8:	ffff4230 	andi	v0,v0,0xffff
800368bc:	00000000 	nop
800368c0:	18006201 	mult	t3,v0
800368c4:	12480000 	mflo	t1
800368c8:	ffff8430 	andi	a0,a0,0xffff
800368cc:	00000000 	nop
800368d0:	1800a401 	mult	t5,a0
800368d4:	00800334 	li	v1,0x8000
800368d8:	1680023c 	lui	v0,0x8016
800368dc:	90d04224 	addiu	v0,v0,-12144
800368e0:	21504300 	addu	t2,v0,v1
800368e4:	0403438d 	lw	v1,772(t2)
800368e8:	00000000 	nop
800368ec:	0800708c 	lw	s0,8(v1)
800368f0:	0400628c 	lw	v0,4(v1)
800368f4:	28000826 	addiu	t0,s0,40
800368f8:	2b104800 	sltu	v0,v0,t0
800368fc:	12200000 	mflo	a0
80036900:	85004014 	bnez	v0,0x80036b18
80036904:	00000000 	nop
80036908:	080068ac 	sw	t0,8(v1)
8003690c:	2803428d 	lw	v0,808(t2)
80036910:	21186901 	addu	v1,t3,t1
80036914:	01004224 	addiu	v0,v0,1
80036918:	280342ad 	sw	v0,808(t2)
8003691c:	2110a401 	addu	v0,t5,a0
80036920:	0c0009a2 	sb	t1,12(s0)
80036924:	0d0004a2 	sb	a0,13(s0)
80036928:	140003a2 	sb	v1,20(s0)
8003692c:	150004a2 	sb	a0,21(s0)
80036930:	1c0009a2 	sb	t1,28(s0)
80036934:	1d0002a2 	sb	v0,29(s0)
80036938:	240003a2 	sb	v1,36(s0)
8003693c:	250002a2 	sb	v0,37(s0)
80036940:	0403828f 	lw	v0,772(gp)
80036944:	00000000 	nop
80036948:	24004010 	beqz	v0,0x800369dc
8003694c:	01000224 	li	v0,1
80036950:	0980033c 	lui	v1,0x8009
80036954:	ac816394 	lhu	v1,-32340(v1)
80036958:	00000000 	nop
8003695c:	05006214 	bne	v1,v0,0x80036974
80036960:	01008225 	addiu	v0,t4,1
80036964:	0980033c 	lui	v1,0x8009
80036968:	a0816394 	lhu	v1,-32352(v1)
8003696c:	619c0008 	j	0x80027184
80036970:	18006200 	mult	v1,v0
80036974:	0980033c 	lui	v1,0x8009
80036978:	a2816394 	lhu	v1,-32350(v1)
8003697c:	00000000 	nop
80036980:	18006200 	mult	v1,v0
80036984:	12c00000 	mflo	t8
80036988:	2328b800 	subu	a1,a1,t8
8003698c:	0003828f 	lw	v0,768(gp)
80036990:	00000000 	nop
80036994:	21106201 	addu	v0,t3,v0
80036998:	000382af 	sw	v0,768(gp)
8003699c:	fc028287 	lh	v0,764(gp)
800369a0:	ffffa330 	andi	v1,a1,0xffff
800369a4:	2a104300 	slt	v0,v0,v1
800369a8:	07004010 	beqz	v0,0x800369c8
800369ac:	00000000 	nop
800369b0:	0803828f 	lw	v0,776(gp)
800369b4:	00000000 	nop
800369b8:	01004224 	addiu	v0,v0,1
800369bc:	080382af 	sw	v0,776(gp)
800369c0:	c69c0008 	j	0x80027318
800369c4:	00000000 	nop
800369c8:	fa028287 	lh	v0,762(gp)
800369cc:	00000000 	nop
800369d0:	2a106200 	slt	v0,v1,v0
800369d4:	50004014 	bnez	v0,0x80036b18
800369d8:	00000000 	nop
800369dc:	2110af00 	addu	v0,a1,t7
800369e0:	200002a6 	sh	v0,32(s0)
800369e4:	100002a6 	sh	v0,16(s0)
800369e8:	2110ce00 	addu	v0,a2,t6
800369ec:	180005a6 	sh	a1,24(s0)
800369f0:	080005a6 	sh	a1,8(s0)
800369f4:	120006a6 	sh	a2,18(s0)
800369f8:	0a0006a6 	sh	a2,10(s0)
800369fc:	220002a6 	sh	v0,34(s0)
80036a00:	1a0002a6 	sh	v0,26(s0)
80036a04:	0300e288 	lwl	v0,3(a3)
80036a08:	0000e298 	lwr	v0,0(a3)
80036a0c:	00000000 	nop
80036a10:	1300a2ab 	swl	v0,19(sp)
80036a14:	1000a2bb 	swr	v0,16(sp)
80036a18:	1000a293 	lbu	v0,16(sp)
80036a1c:	1200a393 	lbu	v1,18(sp)
80036a20:	08004224 	addiu	v0,v0,8
80036a24:	1000a2a3 	sb	v0,16(sp)
80036a28:	1100a293 	lbu	v0,17(sp)
80036a2c:	08006324 	addiu	v1,v1,8
80036a30:	1200a3a3 	sb	v1,18(sp)
80036a34:	08004224 	addiu	v0,v0,8
80036a38:	1100a2a3 	sb	v0,17(sp)
80036a3c:	1000a293 	lbu	v0,16(sp)
80036a40:	00000000 	nop
80036a44:	040002a2 	sb	v0,4(s0)
80036a48:	1100a293 	lbu	v0,17(sp)
80036a4c:	00000000 	nop
80036a50:	050002a2 	sb	v0,5(s0)
80036a54:	1200a293 	lbu	v0,18(sp)
80036a58:	00000000 	nop
80036a5c:	060002a2 	sb	v0,6(s0)
80036a60:	0300e590 	lbu	a1,3(a3)
80036a64:	00000000 	nop
80036a68:	8000a230 	andi	v0,a1,0x80
80036a6c:	08004010 	beqz	v0,0x80036a90
80036a70:	21200000 	move	a0,zero
80036a74:	0300a530 	andi	a1,a1,0x3
80036a78:	80030624 	li	a2,896
80036a7c:	c1f1010c 	jal	0x8007c704
80036a80:	00010724 	li	a3,256
80036a84:	30020424 	li	a0,560
80036a88:	aa9c0008 	j	0x800272a8
80036a8c:	f1010524 	li	a1,497
80036a90:	0300a530 	andi	a1,a1,0x3
80036a94:	c0030624 	li	a2,960
80036a98:	c1f1010c 	jal	0x8007c704
80036a9c:	00010724 	li	a3,256
80036aa0:	30020424 	li	a0,560
80036aa4:	ef010524 	li	a1,495
80036aa8:	d1f1010c 	jal	0x8007c744
80036aac:	160002a6 	sh	v0,22(s0)
80036ab0:	0e0002a6 	sh	v0,14(s0)
80036ab4:	ff00053c 	lui	a1,0xff
80036ab8:	ffffa534 	ori	a1,a1,0xffff
80036abc:	09000224 	li	v0,9
80036ac0:	030002a2 	sb	v0,3(s0)
80036ac4:	2e000224 	li	v0,46
80036ac8:	1680043c 	lui	a0,0x8016
80036acc:	90d08424 	addiu	a0,a0,-12144
80036ad0:	070002a2 	sb	v0,7(s0)
80036ad4:	00800234 	li	v0,0x8000
80036ad8:	21208200 	addu	a0,a0,v0
80036adc:	00ff063c 	lui	a2,0xff00
80036ae0:	e400828c 	lw	v0,228(a0)
80036ae4:	0000038e 	lw	v1,0(s0)
80036ae8:	0000428c 	lw	v0,0(v0)
80036aec:	24186600 	and	v1,v1,a2
80036af0:	24104500 	and	v0,v0,a1
80036af4:	25186200 	or	v1,v1,v0
80036af8:	000003ae 	sw	v1,0(s0)
80036afc:	e400838c 	lw	v1,228(a0)
80036b00:	00000000 	nop
80036b04:	0000628c 	lw	v0,0(v1)
80036b08:	24280502 	and	a1,s0,a1
80036b0c:	24104600 	and	v0,v0,a2
80036b10:	25104500 	or	v0,v0,a1
80036b14:	000062ac 	sw	v0,0(v1)
80036b18:	1c00bf8f 	lw	ra,28(sp)
80036b1c:	1800b08f 	lw	s0,24(sp)
80036b20:	2000bd27 	addiu	sp,sp,32
80036b24:	0800e003 	jr	ra
80036b28:	00000000 	nop
80036b2c:	c8ffbd27 	addiu	sp,sp,-56
80036b30:	1000b0af 	sw	s0,16(sp)
80036b34:	21808000 	move	s0,a0
80036b38:	1400b1af 	sw	s1,20(sp)
80036b3c:	2188a000 	move	s1,a1
80036b40:	2c00b7af 	sw	s7,44(sp)
80036b44:	21b8e000 	move	s7,a3
80036b48:	3400bfaf 	sw	ra,52(sp)
80036b4c:	3000beaf 	sw	s8,48(sp)
80036b50:	2800b6af 	sw	s6,40(sp)
80036b54:	2400b5af 	sw	s5,36(sp)
80036b58:	2000b4af 	sw	s4,32(sp)
80036b5c:	1c00b3af 	sw	s3,28(sp)
80036b60:	1800b2af 	sw	s2,24(sp)
80036b64:	0300e292 	lbu	v0,3(s7)
80036b68:	2190c000 	move	s2,a2
80036b6c:	7c004230 	andi	v0,v0,0x7c
80036b70:	82a00200 	srl	s4,v0,0x2
80036b74:	801f023c 	lui	v0,0x1f80
80036b78:	e5024290 	lbu	v0,741(v0)
80036b7c:	00000000 	nop
80036b80:	04004014 	bnez	v0,0x80036b94
80036b84:	21f0a000 	move	s8,a1
80036b88:	0e001524 	li	s5,14
80036b8c:	e89c0008 	j	0x800273a0
80036b90:	40001324 	li	s3,64
80036b94:	0b001424 	li	s4,11
80036b98:	0a001524 	li	s5,10
80036b9c:	04001324 	li	s3,4
80036ba0:	00000396 	lhu	v1,0(s0)
80036ba4:	ffff0234 	li	v0,0xffff
80036ba8:	18006210 	beq	v1,v0,0x80036c0c
80036bac:	42b01400 	srl	s6,s4,0x1
80036bb0:	05006014 	bnez	v1,0x80036bc8
80036bb4:	ffff2532 	andi	a1,s1,0xffff
80036bb8:	2188c003 	move	s1,s8
80036bbc:	21905502 	addu	s2,s2,s5
80036bc0:	ff9c0008 	j	0x800273fc
80036bc4:	04001026 	addiu	s0,s0,4
80036bc8:	ffff4632 	andi	a2,s2,0xffff
80036bcc:	00000496 	lhu	a0,0(s0)
80036bd0:	b39b000c 	jal	0x80026ecc
80036bd4:	2138e002 	move	a3,s7
80036bd8:	00000296 	lhu	v0,0(s0)
80036bdc:	00000000 	nop
80036be0:	2b105300 	sltu	v0,v0,s3
80036be4:	03004010 	beqz	v0,0x80036bf4
80036be8:	00000000 	nop
80036bec:	fe9c0008 	j	0x800273f8
80036bf0:	21883602 	addu	s1,s1,s6
80036bf4:	21883402 	addu	s1,s1,s4
80036bf8:	02001026 	addiu	s0,s0,2
80036bfc:	00000396 	lhu	v1,0(s0)
80036c00:	ffff0234 	li	v0,0xffff
80036c04:	eaff6214 	bne	v1,v0,0x80036bb0
80036c08:	00000000 	nop
80036c0c:	3400bf8f 	lw	ra,52(sp)
80036c10:	3000be8f 	lw	s8,48(sp)
80036c14:	2c00b78f 	lw	s7,44(sp)
80036c18:	2800b68f 	lw	s6,40(sp)
80036c1c:	2400b58f 	lw	s5,36(sp)
80036c20:	2000b48f 	lw	s4,32(sp)
80036c24:	1c00b38f 	lw	s3,28(sp)
80036c28:	1800b28f 	lw	s2,24(sp)
80036c2c:	1400b18f 	lw	s1,20(sp)
80036c30:	1000b08f 	lw	s0,16(sp)
80036c34:	3800bd27 	addiu	sp,sp,56
80036c38:	0800e003 	jr	ra
80036c3c:	00000000 	nop
80036c40:	b8ffbd27 	addiu	sp,sp,-72
80036c44:	3c00b7af 	sw	s7,60(sp)
80036c48:	01001724 	li	s7,1
80036c4c:	4000beaf 	sw	s8,64(sp)
80036c50:	21f0e000 	move	s8,a3
80036c54:	21480000 	move	t1,zero
80036c58:	4400bfaf 	sw	ra,68(sp)
80036c5c:	3800b6af 	sw	s6,56(sp)
80036c60:	3400b5af 	sw	s5,52(sp)
80036c64:	3000b4af 	sw	s4,48(sp)
80036c68:	2c00b3af 	sw	s3,44(sp)
80036c6c:	2800b2af 	sw	s2,40(sp)
80036c70:	2400b1af 	sw	s1,36(sp)
80036c74:	2000b0af 	sw	s0,32(sp)
80036c78:	0300c293 	lbu	v0,3(s8)
80036c7c:	21b0a000 	move	s6,a1
80036c80:	82880200 	srl	s1,v0,0x2
80036c84:	0980023c 	lui	v0,0x8009
80036c88:	ae814294 	lhu	v0,-32338(v0)
80036c8c:	00000000 	nop
80036c90:	02004010 	beqz	v0,0x80036c9c
80036c94:	21a8c000 	move	s5,a2
80036c98:	fcff3126 	addiu	s1,s1,-4
80036c9c:	801f023c 	lui	v0,0x1f80
80036ca0:	e5024290 	lbu	v0,741(v0)
80036ca4:	00000000 	nop
80036ca8:	02004014 	bnez	v0,0x80036cb4
80036cac:	04001424 	li	s4,4
80036cb0:	40001424 	li	s4,64
80036cb4:	02160400 	srl	v0,a0,0x18
80036cb8:	0f005230 	andi	s2,v0,0xf
80036cbc:	21308000 	move	a2,a0
80036cc0:	00f0023c 	lui	v0,0xf000
80036cc4:	24508200 	and	t2,a0,v0
80036cc8:	00140400 	sll	v0,a0,0x10
80036ccc:	03004104 	bgez	v0,0x80036cdc
80036cd0:	ffff0724 	li	a3,-1
80036cd4:	23300400 	negu	a2,a0
80036cd8:	01000924 	li	t1,1
80036cdc:	00140600 	sll	v0,a2,0x10
80036ce0:	0d004014 	bnez	v0,0x80036d18
80036ce4:	ffff5026 	addiu	s0,s2,-1
80036ce8:	ffff2332 	andi	v1,s1,0xffff
80036cec:	ffff4226 	addiu	v0,s2,-1
80036cf0:	18006200 	mult	v1,v0
80036cf4:	21208002 	move	a0,s4
80036cf8:	ffffa632 	andi	a2,s5,0xffff
80036cfc:	2138c003 	move	a3,s8
80036d00:	12580000 	mflo	t3
80036d04:	2128ab00 	addu	a1,a1,t3
80036d08:	b39b000c 	jal	0x80026ecc
80036d0c:	ffffa530 	andi	a1,a1,0xffff
80036d10:	a29d0008 	j	0x80027688
80036d14:	00000000 	nop
80036d18:	07000712 	beq	s0,a3,0x80036d38
80036d1c:	01000324 	li	v1,1
80036d20:	ffff0424 	li	a0,-1
80036d24:	80100300 	sll	v0,v1,0x2
80036d28:	21104300 	addu	v0,v0,v1
80036d2c:	ffff1026 	addiu	s0,s0,-1
80036d30:	fcff0416 	bne	s0,a0,0x80036d24
80036d34:	40180200 	sll	v1,v0,0x1
80036d38:	00140600 	sll	v0,a2,0x10
80036d3c:	03140200 	sra	v0,v0,0x10
80036d40:	2a104300 	slt	v0,v0,v1
80036d44:	1f004010 	beqz	v0,0x80036dc4
80036d48:	21286000 	move	a1,v1
80036d4c:	28004012 	beqz	s2,0x80036df0
80036d50:	ffff5026 	addiu	s0,s2,-1
80036d54:	cccc083c 	lui	t0,0xcccc
80036d58:	cdcc0835 	ori	t0,t0,0xcccd
80036d5c:	ffff0724 	li	a3,-1
80036d60:	1000a327 	addiu	v1,sp,16
80036d64:	40101000 	sll	v0,s0,0x1
80036d68:	21204300 	addu	a0,v0,v1
80036d6c:	1900a800 	multu	a1,t0
80036d70:	00140600 	sll	v0,a2,0x10
80036d74:	10580000 	mfhi	t3
80036d78:	03140200 	sra	v0,v0,0x10
80036d7c:	c2280b00 	srl	a1,t3,0x3
80036d80:	1b004500 	divu	zero,v0,a1
80036d84:	0200a014 	bnez	a1,0x80036d90
80036d88:	00000000 	nop
80036d8c:	0d000700 	break	0x7
80036d90:	12100000 	mflo	v0
80036d94:	00000000 	nop
80036d98:	000082a4 	sh	v0,0(a0)
80036d9c:	00008294 	lhu	v0,0(a0)
80036da0:	00000000 	nop
80036da4:	18004500 	mult	v0,a1
80036da8:	ffff1026 	addiu	s0,s0,-1
80036dac:	feff8424 	addiu	a0,a0,-2
80036db0:	12580000 	mflo	t3
80036db4:	edff0716 	bne	s0,a3,0x80036d6c
80036db8:	2330cb00 	subu	a2,a2,t3
80036dbc:	7d9d0008 	j	0x800275f4
80036dc0:	ff002231 	andi	v0,t1,0xff
80036dc4:	0a004012 	beqz	s2,0x80036df0
80036dc8:	ffff5026 	addiu	s0,s2,-1
80036dcc:	09000524 	li	a1,9
80036dd0:	ffff0424 	li	a0,-1
80036dd4:	1000a327 	addiu	v1,sp,16
80036dd8:	40101000 	sll	v0,s0,0x1
80036ddc:	21104300 	addu	v0,v0,v1
80036de0:	000045a4 	sh	a1,0(v0)
80036de4:	ffff1026 	addiu	s0,s0,-1
80036de8:	fdff0416 	bne	s0,a0,0x80036de0
80036dec:	feff4224 	addiu	v0,v0,-2
80036df0:	ff002231 	andi	v0,t1,0xff
80036df4:	03004014 	bnez	v0,0x80036e04
80036df8:	0d008426 	addiu	a0,s4,13
80036dfc:	06004011 	beqz	t2,0x80036e18
80036e00:	0c008426 	addiu	a0,s4,12
80036e04:	2328d102 	subu	a1,s6,s1
80036e08:	ffffa530 	andi	a1,a1,0xffff
80036e0c:	ffffa632 	andi	a2,s5,0xffff
80036e10:	b39b000c 	jal	0x80026ecc
80036e14:	2138c003 	move	a3,s8
80036e18:	1b004012 	beqz	s2,0x80036e88
80036e1c:	ffff5026 	addiu	s0,s2,-1
80036e20:	ffff3332 	andi	s3,s1,0xffff
80036e24:	1000a327 	addiu	v1,sp,16
80036e28:	40101000 	sll	v0,s0,0x1
80036e2c:	21884300 	addu	s1,v0,v1
80036e30:	00002396 	lhu	v1,0(s1)
80036e34:	00000000 	nop
80036e38:	03006010 	beqz	v1,0x80036e48
80036e3c:	ff00e232 	andi	v0,s7,0xff
80036e40:	21b80000 	move	s7,zero
80036e44:	ff00e232 	andi	v0,s7,0xff
80036e48:	0b004014 	bnez	v0,0x80036e78
80036e4c:	23105002 	subu	v0,s2,s0
80036e50:	ffff4224 	addiu	v0,v0,-1
80036e54:	18006202 	mult	s3,v0
80036e58:	21208302 	addu	a0,s4,v1
80036e5c:	ffff8430 	andi	a0,a0,0xffff
80036e60:	ffffa632 	andi	a2,s5,0xffff
80036e64:	2138c003 	move	a3,s8
80036e68:	12580000 	mflo	t3
80036e6c:	2128cb02 	addu	a1,s6,t3
80036e70:	b39b000c 	jal	0x80026ecc
80036e74:	ffffa530 	andi	a1,a1,0xffff
80036e78:	ffff1026 	addiu	s0,s0,-1
80036e7c:	ffff0224 	li	v0,-1
80036e80:	ebff0216 	bne	s0,v0,0x80036e30
80036e84:	feff3126 	addiu	s1,s1,-2
80036e88:	4400bf8f 	lw	ra,68(sp)
80036e8c:	4000be8f 	lw	s8,64(sp)
80036e90:	3c00b78f 	lw	s7,60(sp)
80036e94:	3800b68f 	lw	s6,56(sp)
80036e98:	3400b58f 	lw	s5,52(sp)
80036e9c:	3000b48f 	lw	s4,48(sp)
80036ea0:	2c00b38f 	lw	s3,44(sp)
80036ea4:	2800b28f 	lw	s2,40(sp)
80036ea8:	2400b18f 	lw	s1,36(sp)
80036eac:	2000b08f 	lw	s0,32(sp)
80036eb0:	4800bd27 	addiu	sp,sp,72
80036eb4:	0800e003 	jr	ra
80036eb8:	00000000 	nop
80036ebc:	b8ffbd27 	addiu	sp,sp,-72
80036ec0:	3800b6af 	sw	s6,56(sp)
80036ec4:	01001624 	li	s6,1
80036ec8:	21480000 	move	t1,zero
80036ecc:	02160400 	srl	v0,a0,0x18
80036ed0:	2800b2af 	sw	s2,40(sp)
80036ed4:	0f005230 	andi	s2,v0,0xf
80036ed8:	21408000 	move	t0,a0
80036edc:	3c00b7af 	sw	s7,60(sp)
80036ee0:	21b8e000 	move	s7,a3
80036ee4:	3400b5af 	sw	s5,52(sp)
80036ee8:	21a8a000 	move	s5,a1
80036eec:	3000b4af 	sw	s4,48(sp)
80036ef0:	21a0c000 	move	s4,a2
80036ef4:	2400b1af 	sw	s1,36(sp)
80036ef8:	07001124 	li	s1,7
80036efc:	00f0023c 	lui	v0,0xf000
80036f00:	24508200 	and	t2,a0,v0
80036f04:	ffff0624 	li	a2,-1
80036f08:	00140400 	sll	v0,a0,0x10
80036f0c:	4000bfaf 	sw	ra,64(sp)
80036f10:	2c00b3af 	sw	s3,44(sp)
80036f14:	03004104 	bgez	v0,0x80036f24
80036f18:	2000b0af 	sw	s0,32(sp)
80036f1c:	23400400 	negu	t0,a0
80036f20:	2148c002 	move	t1,s6
80036f24:	00140800 	sll	v0,t0,0x10
80036f28:	0d004014 	bnez	v0,0x80036f60
80036f2c:	ffff5026 	addiu	s0,s2,-1
80036f30:	07000324 	li	v1,7
80036f34:	ffff4226 	addiu	v0,s2,-1
80036f38:	18004300 	mult	v0,v1
80036f3c:	02000424 	li	a0,2
80036f40:	ffff8632 	andi	a2,s4,0xffff
80036f44:	2138e002 	move	a3,s7
80036f48:	12580000 	mflo	t3
80036f4c:	2128ab00 	addu	a1,a1,t3
80036f50:	b39b000c 	jal	0x80026ecc
80036f54:	ffffa530 	andi	a1,a1,0xffff
80036f58:	349e0008 	j	0x800278d0
80036f5c:	00000000 	nop
80036f60:	07000612 	beq	s0,a2,0x80036f80
80036f64:	01000324 	li	v1,1
80036f68:	ffff0424 	li	a0,-1
80036f6c:	80100300 	sll	v0,v1,0x2
80036f70:	21104300 	addu	v0,v0,v1
80036f74:	ffff1026 	addiu	s0,s0,-1
80036f78:	fcff0416 	bne	s0,a0,0x80036f6c
80036f7c:	40180200 	sll	v1,v0,0x1
80036f80:	00140800 	sll	v0,t0,0x10
80036f84:	03140200 	sra	v0,v0,0x10
80036f88:	2b104300 	sltu	v0,v0,v1
80036f8c:	1f004010 	beqz	v0,0x8003700c
80036f90:	21286000 	move	a1,v1
80036f94:	28004012 	beqz	s2,0x80037038
80036f98:	ffff5026 	addiu	s0,s2,-1
80036f9c:	cccc073c 	lui	a3,0xcccc
80036fa0:	cdcce734 	ori	a3,a3,0xcccd
80036fa4:	ffff0624 	li	a2,-1
80036fa8:	1000a327 	addiu	v1,sp,16
80036fac:	40101000 	sll	v0,s0,0x1
80036fb0:	21204300 	addu	a0,v0,v1
80036fb4:	1900a700 	multu	a1,a3
80036fb8:	00140800 	sll	v0,t0,0x10
80036fbc:	10580000 	mfhi	t3
80036fc0:	03140200 	sra	v0,v0,0x10
80036fc4:	c2280b00 	srl	a1,t3,0x3
80036fc8:	1b004500 	divu	zero,v0,a1
80036fcc:	0200a014 	bnez	a1,0x80036fd8
80036fd0:	00000000 	nop
80036fd4:	0d000700 	break	0x7
80036fd8:	12100000 	mflo	v0
80036fdc:	00000000 	nop
80036fe0:	000082a4 	sh	v0,0(a0)
80036fe4:	00008294 	lhu	v0,0(a0)
80036fe8:	00000000 	nop
80036fec:	18004500 	mult	v0,a1
80036ff0:	ffff1026 	addiu	s0,s0,-1
80036ff4:	feff8424 	addiu	a0,a0,-2
80036ff8:	12580000 	mflo	t3
80036ffc:	edff0616 	bne	s0,a2,0x80036fb4
80037000:	23400b01 	subu	t0,t0,t3
80037004:	0f9e0008 	j	0x8002783c
80037008:	ff002231 	andi	v0,t1,0xff
8003700c:	0a004012 	beqz	s2,0x80037038
80037010:	ffff5026 	addiu	s0,s2,-1
80037014:	09000524 	li	a1,9
80037018:	ffff0424 	li	a0,-1
8003701c:	1000a327 	addiu	v1,sp,16
80037020:	40101000 	sll	v0,s0,0x1
80037024:	21104300 	addu	v0,v0,v1
80037028:	000045a4 	sh	a1,0(v0)
8003702c:	ffff1026 	addiu	s0,s0,-1
80037030:	fdff0416 	bne	s0,a0,0x80037028
80037034:	feff4224 	addiu	v0,v0,-2
80037038:	ff002231 	andi	v0,t1,0xff
8003703c:	03004014 	bnez	v0,0x8003704c
80037040:	0d000424 	li	a0,13
80037044:	06004011 	beqz	t2,0x80037060
80037048:	0c000424 	li	a0,12
8003704c:	2328b102 	subu	a1,s5,s1
80037050:	ffffa530 	andi	a1,a1,0xffff
80037054:	ffff8632 	andi	a2,s4,0xffff
80037058:	b39b000c 	jal	0x80026ecc
8003705c:	2138e002 	move	a3,s7
80037060:	1b004012 	beqz	s2,0x800370d0
80037064:	ffff5026 	addiu	s0,s2,-1
80037068:	ffff3332 	andi	s3,s1,0xffff
8003706c:	1000a327 	addiu	v1,sp,16
80037070:	40101000 	sll	v0,s0,0x1
80037074:	21884300 	addu	s1,v0,v1
80037078:	00002496 	lhu	a0,0(s1)
8003707c:	00000000 	nop
80037080:	03008010 	beqz	a0,0x80037090
80037084:	ff00c232 	andi	v0,s6,0xff
80037088:	21b00000 	move	s6,zero
8003708c:	ff00c232 	andi	v0,s6,0xff
80037090:	0b004014 	bnez	v0,0x800370c0
80037094:	23105002 	subu	v0,s2,s0
80037098:	ffff4224 	addiu	v0,v0,-1
8003709c:	18006202 	mult	s3,v0
800370a0:	02008424 	addiu	a0,a0,2
800370a4:	ffff8430 	andi	a0,a0,0xffff
800370a8:	ffff8632 	andi	a2,s4,0xffff
800370ac:	2138e002 	move	a3,s7
800370b0:	12580000 	mflo	t3
800370b4:	2128ab02 	addu	a1,s5,t3
800370b8:	b39b000c 	jal	0x80026ecc
800370bc:	ffffa530 	andi	a1,a1,0xffff
800370c0:	ffff1026 	addiu	s0,s0,-1
800370c4:	ffff0224 	li	v0,-1
800370c8:	ebff0216 	bne	s0,v0,0x80037078
800370cc:	feff3126 	addiu	s1,s1,-2
800370d0:	4000bf8f 	lw	ra,64(sp)
800370d4:	3c00b78f 	lw	s7,60(sp)
800370d8:	3800b68f 	lw	s6,56(sp)
800370dc:	3400b58f 	lw	s5,52(sp)
800370e0:	3000b48f 	lw	s4,48(sp)
800370e4:	2c00b38f 	lw	s3,44(sp)
800370e8:	2800b28f 	lw	s2,40(sp)
800370ec:	2400b18f 	lw	s1,36(sp)
800370f0:	2000b08f 	lw	s0,32(sp)
800370f4:	4800bd27 	addiu	sp,sp,72
800370f8:	0800e003 	jr	ra
800370fc:	00000000 	nop
80037100:	c0ffbd27 	addiu	sp,sp,-64
80037104:	2800b4af 	sw	s4,40(sp)
80037108:	21a00000 	move	s4,zero
8003710c:	3800beaf 	sw	s8,56(sp)
80037110:	21f08002 	move	s8,s4
80037114:	3000b6af 	sw	s6,48(sp)
80037118:	21b08002 	move	s6,s4
8003711c:	2400b3af 	sw	s3,36(sp)
80037120:	21988002 	move	s3,s4
80037124:	2c00b5af 	sw	s5,44(sp)
80037128:	21a86002 	move	s5,s3
8003712c:	ffffc630 	andi	a2,a2,0xffff
80037130:	00040224 	li	v0,1024
80037134:	3c00bfaf 	sw	ra,60(sp)
80037138:	3400b7af 	sw	s7,52(sp)
8003713c:	2000b2af 	sw	s2,32(sp)
80037140:	1c00b1af 	sw	s1,28(sp)
80037144:	1800b0af 	sw	s0,24(sp)
80037148:	4400a5af 	sw	a1,68(sp)
8003714c:	1300c210 	beq	a2,v0,0x8003719c
80037150:	1000a0a7 	sh	zero,16(sp)
80037154:	0104c228 	slti	v0,a2,1025
80037158:	05004010 	beqz	v0,0x80037170
8003715c:	00080224 	li	v0,2048
80037160:	0900c010 	beqz	a2,0x80037188
80037164:	1680023c 	lui	v0,0x8016
80037168:	8a9e0008 	j	0x80027a28
8003716c:	90d04224 	addiu	v0,v0,-12144
80037170:	1500c210 	beq	a2,v0,0x800371c8
80037174:	000c0224 	li	v0,3072
80037178:	1e00c210 	beq	a2,v0,0x800371f4
8003717c:	1680023c 	lui	v0,0x8016
80037180:	8a9e0008 	j	0x80027a28
80037184:	90d04224 	addiu	v0,v0,-12144
80037188:	00008294 	lhu	v0,0(a0)
8003718c:	00000000 	nop
80037190:	fcff4324 	addiu	v1,v0,-4
80037194:	769e0008 	j	0x800279d8
80037198:	04005424 	addiu	s4,v0,4
8003719c:	00008294 	lhu	v0,0(a0)
800371a0:	00000000 	nop
800371a4:	f8ff4824 	addiu	t0,v0,-8
800371a8:	21a04000 	move	s4,v0
800371ac:	1000a8a7 	sh	t0,16(sp)
800371b0:	02008394 	lhu	v1,2(a0)
800371b4:	08009e26 	addiu	s8,s4,8
800371b8:	fcff6224 	addiu	v0,v1,-4
800371bc:	21b04000 	move	s6,v0
800371c0:	879e0008 	j	0x80027a1c
800371c4:	04007324 	addiu	s3,v1,4
800371c8:	00008294 	lhu	v0,0(a0)
800371cc:	00000000 	nop
800371d0:	04004324 	addiu	v1,v0,4
800371d4:	fcff5424 	addiu	s4,v0,-4
800371d8:	1000a3a7 	sh	v1,16(sp)
800371dc:	02008294 	lhu	v0,2(a0)
800371e0:	21f06000 	move	s8,v1
800371e4:	f8ff5624 	addiu	s6,v0,-8
800371e8:	21984000 	move	s3,v0
800371ec:	889e0008 	j	0x80027a20
800371f0:	08007526 	addiu	s5,s3,8
800371f4:	00008294 	lhu	v0,0(a0)
800371f8:	00000000 	nop
800371fc:	f8ff4824 	addiu	t0,v0,-8
80037200:	21a04000 	move	s4,v0
80037204:	1000a8a7 	sh	t0,16(sp)
80037208:	02008394 	lhu	v1,2(a0)
8003720c:	08009e26 	addiu	s8,s4,8
80037210:	04006224 	addiu	v0,v1,4
80037214:	21b04000 	move	s6,v0
80037218:	fcff7324 	addiu	s3,v1,-4
8003721c:	21a84000 	move	s5,v0
80037220:	1680023c 	lui	v0,0x8016
80037224:	90d04224 	addiu	v0,v0,-12144
80037228:	00800334 	li	v1,0x8000
8003722c:	21904300 	addu	s2,v0,v1
80037230:	0403438e 	lw	v1,772(s2)
80037234:	00000000 	nop
80037238:	0800658c 	lw	a1,8(v1)
8003723c:	0400628c 	lw	v0,4(v1)
80037240:	1400a424 	addiu	a0,a1,20
80037244:	2b104400 	sltu	v0,v0,a0
80037248:	a6004014 	bnez	v0,0x800374e4
8003724c:	04000824 	li	t0,4
80037250:	080064ac 	sw	a0,8(v1)
80037254:	2803428e 	lw	v0,808(s2)
80037258:	00000000 	nop
8003725c:	01004224 	addiu	v0,v0,1
80037260:	280342ae 	sw	v0,808(s2)
80037264:	0300a8a0 	sb	t0,3(a1)
80037268:	22000824 	li	t0,34
8003726c:	0700a8a0 	sb	t0,7(a1)
80037270:	1000a897 	lhu	t0,16(sp)
80037274:	0a00b6a4 	sh	s6,10(a1)
80037278:	0c00b4a4 	sh	s4,12(a1)
8003727c:	0e00b3a4 	sh	s3,14(a1)
80037280:	1000bea4 	sh	s8,16(a1)
80037284:	1200b5a4 	sh	s5,18(a1)
80037288:	0800a8a4 	sh	t0,8(a1)
8003728c:	4400a88f 	lw	t0,68(sp)
80037290:	00000000 	nop
80037294:	00000291 	lbu	v0,0(t0)
80037298:	ff00113c 	lui	s1,0xff
8003729c:	0400a2a0 	sb	v0,4(a1)
800372a0:	01000291 	lbu	v0,1(t0)
800372a4:	ffff3136 	ori	s1,s1,0xffff
800372a8:	0500a2a0 	sb	v0,5(a1)
800372ac:	02000291 	lbu	v0,2(t0)
800372b0:	00ff173c 	lui	s7,0xff00
800372b4:	0600a2a0 	sb	v0,6(a1)
800372b8:	e400428e 	lw	v0,228(s2)
800372bc:	0000a38c 	lw	v1,0(a1)
800372c0:	0400428c 	lw	v0,4(v0)
800372c4:	24187700 	and	v1,v1,s7
800372c8:	24105100 	and	v0,v0,s1
800372cc:	25186200 	or	v1,v1,v0
800372d0:	0000a3ac 	sw	v1,0(a1)
800372d4:	e400448e 	lw	a0,228(s2)
800372d8:	00000000 	nop
800372dc:	0400828c 	lw	v0,4(a0)
800372e0:	2418b100 	and	v1,a1,s1
800372e4:	24105700 	and	v0,v0,s7
800372e8:	25104300 	or	v0,v0,v1
800372ec:	040082ac 	sw	v0,4(a0)
800372f0:	0403438e 	lw	v1,772(s2)
800372f4:	00000000 	nop
800372f8:	0800708c 	lw	s0,8(v1)
800372fc:	0400628c 	lw	v0,4(v1)
80037300:	08000726 	addiu	a3,s0,8
80037304:	2b104700 	sltu	v0,v0,a3
80037308:	76004014 	bnez	v0,0x800374e4
8003730c:	21200000 	move	a0,zero
80037310:	03000524 	li	a1,3
80037314:	21308000 	move	a2,a0
80037318:	080067ac 	sw	a3,8(v1)
8003731c:	2803428e 	lw	v0,808(s2)
80037320:	21388000 	move	a3,a0
80037324:	01004224 	addiu	v0,v0,1
80037328:	c1f1010c 	jal	0x8007c704
8003732c:	280342ae 	sw	v0,808(s2)
80037330:	21200002 	move	a0,s0
80037334:	21280000 	move	a1,zero
80037338:	01000624 	li	a2,1
8003733c:	0df2010c 	jal	0x8007c834
80037340:	ffff4730 	andi	a3,v0,0xffff
80037344:	e400428e 	lw	v0,228(s2)
80037348:	0000038e 	lw	v1,0(s0)
8003734c:	0400428c 	lw	v0,4(v0)
80037350:	24187700 	and	v1,v1,s7
80037354:	24105100 	and	v0,v0,s1
80037358:	25186200 	or	v1,v1,v0
8003735c:	000003ae 	sw	v1,0(s0)
80037360:	e400448e 	lw	a0,228(s2)
80037364:	00000000 	nop
80037368:	0400828c 	lw	v0,4(a0)
8003736c:	24181102 	and	v1,s0,s1
80037370:	24105700 	and	v0,v0,s7
80037374:	25104300 	or	v0,v0,v1
80037378:	040082ac 	sw	v0,4(a0)
8003737c:	0403438e 	lw	v1,772(s2)
80037380:	00000000 	nop
80037384:	0800658c 	lw	a1,8(v1)
80037388:	0400628c 	lw	v0,4(v1)
8003738c:	1400a424 	addiu	a0,a1,20
80037390:	2b104400 	sltu	v0,v0,a0
80037394:	53004014 	bnez	v0,0x800374e4
80037398:	04000824 	li	t0,4
8003739c:	080064ac 	sw	a0,8(v1)
800373a0:	2803428e 	lw	v0,808(s2)
800373a4:	00000000 	nop
800373a8:	01004224 	addiu	v0,v0,1
800373ac:	280342ae 	sw	v0,808(s2)
800373b0:	0300a8a0 	sb	t0,3(a1)
800373b4:	22000824 	li	t0,34
800373b8:	0700a8a0 	sb	t0,7(a1)
800373bc:	1000a897 	lhu	t0,16(sp)
800373c0:	00000000 	nop
800373c4:	01000225 	addiu	v0,t0,1
800373c8:	0800a2a4 	sh	v0,8(a1)
800373cc:	0100c226 	addiu	v0,s6,1
800373d0:	0a00a2a4 	sh	v0,10(a1)
800373d4:	01008226 	addiu	v0,s4,1
800373d8:	0c00a2a4 	sh	v0,12(a1)
800373dc:	01006226 	addiu	v0,s3,1
800373e0:	0e00a2a4 	sh	v0,14(a1)
800373e4:	0100c227 	addiu	v0,s8,1
800373e8:	1000a2a4 	sh	v0,16(a1)
800373ec:	0100a226 	addiu	v0,s5,1
800373f0:	1200a2a4 	sh	v0,18(a1)
800373f4:	4400a88f 	lw	t0,68(sp)
800373f8:	00000000 	nop
800373fc:	00000291 	lbu	v0,0(t0)
80037400:	00000000 	nop
80037404:	0400a2a0 	sb	v0,4(a1)
80037408:	01000291 	lbu	v0,1(t0)
8003740c:	00000000 	nop
80037410:	0500a2a0 	sb	v0,5(a1)
80037414:	02000291 	lbu	v0,2(t0)
80037418:	00000000 	nop
8003741c:	0600a2a0 	sb	v0,6(a1)
80037420:	e400428e 	lw	v0,228(s2)
80037424:	0000a38c 	lw	v1,0(a1)
80037428:	0400428c 	lw	v0,4(v0)
8003742c:	24187700 	and	v1,v1,s7
80037430:	24105100 	and	v0,v0,s1
80037434:	25186200 	or	v1,v1,v0
80037438:	0000a3ac 	sw	v1,0(a1)
8003743c:	e400448e 	lw	a0,228(s2)
80037440:	00000000 	nop
80037444:	0400828c 	lw	v0,4(a0)
80037448:	2418b100 	and	v1,a1,s1
8003744c:	24105700 	and	v0,v0,s7
80037450:	25104300 	or	v0,v0,v1
80037454:	040082ac 	sw	v0,4(a0)
80037458:	0403438e 	lw	v1,772(s2)
8003745c:	00000000 	nop
80037460:	0800708c 	lw	s0,8(v1)
80037464:	0400628c 	lw	v0,4(v1)
80037468:	08000726 	addiu	a3,s0,8
8003746c:	2b104700 	sltu	v0,v0,a3
80037470:	1c004014 	bnez	v0,0x800374e4
80037474:	21200000 	move	a0,zero
80037478:	03000524 	li	a1,3
8003747c:	21308000 	move	a2,a0
80037480:	080067ac 	sw	a3,8(v1)
80037484:	2803428e 	lw	v0,808(s2)
80037488:	21388000 	move	a3,a0
8003748c:	01004224 	addiu	v0,v0,1
80037490:	c1f1010c 	jal	0x8007c704
80037494:	280342ae 	sw	v0,808(s2)
80037498:	21200002 	move	a0,s0
8003749c:	21280000 	move	a1,zero
800374a0:	01000624 	li	a2,1
800374a4:	0df2010c 	jal	0x8007c834
800374a8:	ffff4730 	andi	a3,v0,0xffff
800374ac:	e400428e 	lw	v0,228(s2)
800374b0:	0000038e 	lw	v1,0(s0)
800374b4:	0400428c 	lw	v0,4(v0)
800374b8:	24187700 	and	v1,v1,s7
800374bc:	24105100 	and	v0,v0,s1
800374c0:	25186200 	or	v1,v1,v0
800374c4:	000003ae 	sw	v1,0(s0)
800374c8:	e400448e 	lw	a0,228(s2)
800374cc:	00000000 	nop
800374d0:	0400828c 	lw	v0,4(a0)
800374d4:	24181102 	and	v1,s0,s1
800374d8:	24105700 	and	v0,v0,s7
800374dc:	25104300 	or	v0,v0,v1
800374e0:	040082ac 	sw	v0,4(a0)
800374e4:	3c00bf8f 	lw	ra,60(sp)
800374e8:	3800be8f 	lw	s8,56(sp)
800374ec:	3400b78f 	lw	s7,52(sp)
800374f0:	3000b68f 	lw	s6,48(sp)
800374f4:	2c00b58f 	lw	s5,44(sp)
800374f8:	2800b48f 	lw	s4,40(sp)
800374fc:	2400b38f 	lw	s3,36(sp)
80037500:	2000b28f 	lw	s2,32(sp)
80037504:	1c00b18f 	lw	s1,28(sp)
80037508:	1800b08f 	lw	s0,24(sp)
8003750c:	4000bd27 	addiu	sp,sp,64
80037510:	0800e003 	jr	ra
80037514:	00000000 	nop
80037518:	21488000 	move	t1,a0
8003751c:	2160a000 	move	t4,a1
80037520:	ffffc230 	andi	v0,a2,0xffff
80037524:	025a0200 	srl	t3,v0,0x8
80037528:	1680023c 	lui	v0,0x8016
8003752c:	90d04224 	addiu	v0,v0,-12144
80037530:	00800334 	li	v1,0x8000
80037534:	21284300 	addu	a1,v0,v1
80037538:	0403a38c 	lw	v1,772(a1)
8003753c:	00000000 	nop
80037540:	0800688c 	lw	t0,8(v1)
80037544:	0400628c 	lw	v0,4(v1)
80037548:	18000425 	addiu	a0,t0,24
8003754c:	2b104400 	sltu	v0,v0,a0
80037550:	31014014 	bnez	v0,0x80037a18
80037554:	ff00ca30 	andi	t2,a2,0xff
80037558:	080064ac 	sw	a0,8(v1)
8003755c:	2803a28c 	lw	v0,808(a1)
80037560:	ffffe330 	andi	v1,a3,0xffff
80037564:	01004224 	addiu	v0,v0,1
80037568:	2803a2ac 	sw	v0,808(a1)
8003756c:	01000224 	li	v0,1
80037570:	02006214 	bne	v1,v0,0x8003757c
80037574:	28000224 	li	v0,40
80037578:	2a000224 	li	v0,42
8003757c:	070002a1 	sb	v0,7(t0)
80037580:	1680023c 	lui	v0,0x8016
80037584:	90d04224 	addiu	v0,v0,-12144
80037588:	00800334 	li	v1,0x8000
8003758c:	21284300 	addu	a1,v0,v1
80037590:	ff00043c 	lui	a0,0xff
80037594:	e400a28c 	lw	v0,228(a1)
80037598:	ffff8434 	ori	a0,a0,0xffff
8003759c:	0000428c 	lw	v0,0(v0)
800375a0:	0005033c 	lui	v1,0x500
800375a4:	24104400 	and	v0,v0,a0
800375a8:	25104300 	or	v0,v0,v1
800375ac:	000002ad 	sw	v0,0(t0)
800375b0:	00002295 	lhu	v0,0(t1)
800375b4:	00000000 	nop
800375b8:	080002a5 	sh	v0,8(t0)
800375bc:	02002295 	lhu	v0,2(t1)
800375c0:	00000000 	nop
800375c4:	0a0002a5 	sh	v0,10(t0)
800375c8:	00002295 	lhu	v0,0(t1)
800375cc:	04002395 	lhu	v1,4(t1)
800375d0:	00000000 	nop
800375d4:	21104300 	addu	v0,v0,v1
800375d8:	0c0002a5 	sh	v0,12(t0)
800375dc:	02002295 	lhu	v0,2(t1)
800375e0:	00000000 	nop
800375e4:	0e0002a5 	sh	v0,14(t0)
800375e8:	00002295 	lhu	v0,0(t1)
800375ec:	00000000 	nop
800375f0:	100002a5 	sh	v0,16(t0)
800375f4:	02002295 	lhu	v0,2(t1)
800375f8:	00000000 	nop
800375fc:	21104a00 	addu	v0,v0,t2
80037600:	120002a5 	sh	v0,18(t0)
80037604:	00002295 	lhu	v0,0(t1)
80037608:	04002395 	lhu	v1,4(t1)
8003760c:	00000000 	nop
80037610:	21104300 	addu	v0,v0,v1
80037614:	140002a5 	sh	v0,20(t0)
80037618:	02002295 	lhu	v0,2(t1)
8003761c:	00000000 	nop
80037620:	21104a00 	addu	v0,v0,t2
80037624:	160002a5 	sh	v0,22(t0)
80037628:	00008291 	lbu	v0,0(t4)
8003762c:	00000000 	nop
80037630:	040002a1 	sb	v0,4(t0)
80037634:	01008291 	lbu	v0,1(t4)
80037638:	00000000 	nop
8003763c:	050002a1 	sb	v0,5(t0)
80037640:	02008291 	lbu	v0,2(t4)
80037644:	00000000 	nop
80037648:	060002a1 	sb	v0,6(t0)
8003764c:	e400a28c 	lw	v0,228(a1)
80037650:	24200401 	and	a0,t0,a0
80037654:	000044ac 	sw	a0,0(v0)
80037658:	0403a38c 	lw	v1,772(a1)
8003765c:	00000000 	nop
80037660:	0800688c 	lw	t0,8(v1)
80037664:	0400628c 	lw	v0,4(v1)
80037668:	18000425 	addiu	a0,t0,24
8003766c:	2b104400 	sltu	v0,v0,a0
80037670:	e9004014 	bnez	v0,0x80037a18
80037674:	00000000 	nop
80037678:	080064ac 	sw	a0,8(v1)
8003767c:	2803a28c 	lw	v0,808(a1)
80037680:	ffffe330 	andi	v1,a3,0xffff
80037684:	01004224 	addiu	v0,v0,1
80037688:	2803a2ac 	sw	v0,808(a1)
8003768c:	01000224 	li	v0,1
80037690:	02006214 	bne	v1,v0,0x8003769c
80037694:	28000224 	li	v0,40
80037698:	2a000224 	li	v0,42
8003769c:	070002a1 	sb	v0,7(t0)
800376a0:	1680023c 	lui	v0,0x8016
800376a4:	90d04224 	addiu	v0,v0,-12144
800376a8:	00800334 	li	v1,0x8000
800376ac:	21284300 	addu	a1,v0,v1
800376b0:	ff00043c 	lui	a0,0xff
800376b4:	e400a28c 	lw	v0,228(a1)
800376b8:	ffff8434 	ori	a0,a0,0xffff
800376bc:	0000428c 	lw	v0,0(v0)
800376c0:	0005033c 	lui	v1,0x500
800376c4:	24104400 	and	v0,v0,a0
800376c8:	25104300 	or	v0,v0,v1
800376cc:	000002ad 	sw	v0,0(t0)
800376d0:	00002295 	lhu	v0,0(t1)
800376d4:	00000000 	nop
800376d8:	080002a5 	sh	v0,8(t0)
800376dc:	02002295 	lhu	v0,2(t1)
800376e0:	06002395 	lhu	v1,6(t1)
800376e4:	00000000 	nop
800376e8:	21104300 	addu	v0,v0,v1
800376ec:	23104a00 	subu	v0,v0,t2
800376f0:	0a0002a5 	sh	v0,10(t0)
800376f4:	00002295 	lhu	v0,0(t1)
800376f8:	04002395 	lhu	v1,4(t1)
800376fc:	00000000 	nop
80037700:	21104300 	addu	v0,v0,v1
80037704:	0c0002a5 	sh	v0,12(t0)
80037708:	02002295 	lhu	v0,2(t1)
8003770c:	06002395 	lhu	v1,6(t1)
80037710:	00000000 	nop
80037714:	21104300 	addu	v0,v0,v1
80037718:	23104a00 	subu	v0,v0,t2
8003771c:	0e0002a5 	sh	v0,14(t0)
80037720:	00002295 	lhu	v0,0(t1)
80037724:	00000000 	nop
80037728:	100002a5 	sh	v0,16(t0)
8003772c:	02002395 	lhu	v1,2(t1)
80037730:	06002295 	lhu	v0,6(t1)
80037734:	00000000 	nop
80037738:	21104300 	addu	v0,v0,v1
8003773c:	120002a5 	sh	v0,18(t0)
80037740:	00002295 	lhu	v0,0(t1)
80037744:	04002395 	lhu	v1,4(t1)
80037748:	00000000 	nop
8003774c:	21104300 	addu	v0,v0,v1
80037750:	140002a5 	sh	v0,20(t0)
80037754:	02002395 	lhu	v1,2(t1)
80037758:	06002295 	lhu	v0,6(t1)
8003775c:	00000000 	nop
80037760:	21104300 	addu	v0,v0,v1
80037764:	160002a5 	sh	v0,22(t0)
80037768:	00008291 	lbu	v0,0(t4)
8003776c:	00000000 	nop
80037770:	040002a1 	sb	v0,4(t0)
80037774:	01008291 	lbu	v0,1(t4)
80037778:	00000000 	nop
8003777c:	050002a1 	sb	v0,5(t0)
80037780:	02008291 	lbu	v0,2(t4)
80037784:	00000000 	nop
80037788:	060002a1 	sb	v0,6(t0)
8003778c:	e400a28c 	lw	v0,228(a1)
80037790:	24200401 	and	a0,t0,a0
80037794:	000044ac 	sw	a0,0(v0)
80037798:	0403a38c 	lw	v1,772(a1)
8003779c:	00000000 	nop
800377a0:	0800688c 	lw	t0,8(v1)
800377a4:	0400628c 	lw	v0,4(v1)
800377a8:	18000425 	addiu	a0,t0,24
800377ac:	2b104400 	sltu	v0,v0,a0
800377b0:	99004014 	bnez	v0,0x80037a18
800377b4:	00000000 	nop
800377b8:	080064ac 	sw	a0,8(v1)
800377bc:	2803a28c 	lw	v0,808(a1)
800377c0:	ffffe330 	andi	v1,a3,0xffff
800377c4:	01004224 	addiu	v0,v0,1
800377c8:	2803a2ac 	sw	v0,808(a1)
800377cc:	01000224 	li	v0,1
800377d0:	02006214 	bne	v1,v0,0x800377dc
800377d4:	28000224 	li	v0,40
800377d8:	2a000224 	li	v0,42
800377dc:	070002a1 	sb	v0,7(t0)
800377e0:	1680023c 	lui	v0,0x8016
800377e4:	90d04224 	addiu	v0,v0,-12144
800377e8:	00800334 	li	v1,0x8000
800377ec:	21304300 	addu	a2,v0,v1
800377f0:	ff00053c 	lui	a1,0xff
800377f4:	e400c28c 	lw	v0,228(a2)
800377f8:	ffffa534 	ori	a1,a1,0xffff
800377fc:	0000428c 	lw	v0,0(v0)
80037800:	0005033c 	lui	v1,0x500
80037804:	24104500 	and	v0,v0,a1
80037808:	25104300 	or	v0,v0,v1
8003780c:	000002ad 	sw	v0,0(t0)
80037810:	00002295 	lhu	v0,0(t1)
80037814:	00000000 	nop
80037818:	080002a5 	sh	v0,8(t0)
8003781c:	02002295 	lhu	v0,2(t1)
80037820:	00000000 	nop
80037824:	21104a00 	addu	v0,v0,t2
80037828:	0a0002a5 	sh	v0,10(t0)
8003782c:	00002295 	lhu	v0,0(t1)
80037830:	00000000 	nop
80037834:	21104b00 	addu	v0,v0,t3
80037838:	0c0002a5 	sh	v0,12(t0)
8003783c:	02002295 	lhu	v0,2(t1)
80037840:	00000000 	nop
80037844:	21104a00 	addu	v0,v0,t2
80037848:	0e0002a5 	sh	v0,14(t0)
8003784c:	00002295 	lhu	v0,0(t1)
80037850:	40200a00 	sll	a0,t2,0x1
80037854:	100002a5 	sh	v0,16(t0)
80037858:	02002395 	lhu	v1,2(t1)
8003785c:	06002295 	lhu	v0,6(t1)
80037860:	21186a00 	addu	v1,v1,t2
80037864:	23104400 	subu	v0,v0,a0
80037868:	21186200 	addu	v1,v1,v0
8003786c:	120003a5 	sh	v1,18(t0)
80037870:	00002295 	lhu	v0,0(t1)
80037874:	00000000 	nop
80037878:	21104b00 	addu	v0,v0,t3
8003787c:	140002a5 	sh	v0,20(t0)
80037880:	02002395 	lhu	v1,2(t1)
80037884:	06002295 	lhu	v0,6(t1)
80037888:	21186a00 	addu	v1,v1,t2
8003788c:	23104400 	subu	v0,v0,a0
80037890:	21186200 	addu	v1,v1,v0
80037894:	160003a5 	sh	v1,22(t0)
80037898:	00008291 	lbu	v0,0(t4)
8003789c:	00000000 	nop
800378a0:	040002a1 	sb	v0,4(t0)
800378a4:	01008291 	lbu	v0,1(t4)
800378a8:	00000000 	nop
800378ac:	050002a1 	sb	v0,5(t0)
800378b0:	02008291 	lbu	v0,2(t4)
800378b4:	00000000 	nop
800378b8:	060002a1 	sb	v0,6(t0)
800378bc:	e400c28c 	lw	v0,228(a2)
800378c0:	24280501 	and	a1,t0,a1
800378c4:	000045ac 	sw	a1,0(v0)
800378c8:	0403c38c 	lw	v1,772(a2)
800378cc:	00000000 	nop
800378d0:	0800688c 	lw	t0,8(v1)
800378d4:	0400628c 	lw	v0,4(v1)
800378d8:	18000425 	addiu	a0,t0,24
800378dc:	2b104400 	sltu	v0,v0,a0
800378e0:	4d004014 	bnez	v0,0x80037a18
800378e4:	00000000 	nop
800378e8:	080064ac 	sw	a0,8(v1)
800378ec:	2803c28c 	lw	v0,808(a2)
800378f0:	ffffe330 	andi	v1,a3,0xffff
800378f4:	01004224 	addiu	v0,v0,1
800378f8:	2803c2ac 	sw	v0,808(a2)
800378fc:	01000224 	li	v0,1
80037900:	02006214 	bne	v1,v0,0x8003790c
80037904:	28000224 	li	v0,40
80037908:	2a000224 	li	v0,42
8003790c:	070002a1 	sb	v0,7(t0)
80037910:	1680053c 	lui	a1,0x8016
80037914:	90d0a524 	addiu	a1,a1,-12144
80037918:	00800234 	li	v0,0x8000
8003791c:	2128a200 	addu	a1,a1,v0
80037920:	ff00063c 	lui	a2,0xff
80037924:	e400a28c 	lw	v0,228(a1)
80037928:	ffffc634 	ori	a2,a2,0xffff
8003792c:	0000428c 	lw	v0,0(v0)
80037930:	0005033c 	lui	v1,0x500
80037934:	24104600 	and	v0,v0,a2
80037938:	25104300 	or	v0,v0,v1
8003793c:	000002ad 	sw	v0,0(t0)
80037940:	00002295 	lhu	v0,0(t1)
80037944:	04002395 	lhu	v1,4(t1)
80037948:	00000000 	nop
8003794c:	21104300 	addu	v0,v0,v1
80037950:	23104b00 	subu	v0,v0,t3
80037954:	080002a5 	sh	v0,8(t0)
80037958:	02002295 	lhu	v0,2(t1)
8003795c:	00000000 	nop
80037960:	21104a00 	addu	v0,v0,t2
80037964:	0a0002a5 	sh	v0,10(t0)
80037968:	00002395 	lhu	v1,0(t1)
8003796c:	04002295 	lhu	v0,4(t1)
80037970:	00000000 	nop
80037974:	21104300 	addu	v0,v0,v1
80037978:	0c0002a5 	sh	v0,12(t0)
8003797c:	02002295 	lhu	v0,2(t1)
80037980:	00000000 	nop
80037984:	21104a00 	addu	v0,v0,t2
80037988:	0e0002a5 	sh	v0,14(t0)
8003798c:	00002295 	lhu	v0,0(t1)
80037990:	04002395 	lhu	v1,4(t1)
80037994:	40200a00 	sll	a0,t2,0x1
80037998:	21104300 	addu	v0,v0,v1
8003799c:	23104b00 	subu	v0,v0,t3
800379a0:	100002a5 	sh	v0,16(t0)
800379a4:	02002395 	lhu	v1,2(t1)
800379a8:	06002295 	lhu	v0,6(t1)
800379ac:	21186a00 	addu	v1,v1,t2
800379b0:	23104400 	subu	v0,v0,a0
800379b4:	21186200 	addu	v1,v1,v0
800379b8:	120003a5 	sh	v1,18(t0)
800379bc:	00002395 	lhu	v1,0(t1)
800379c0:	04002295 	lhu	v0,4(t1)
800379c4:	00000000 	nop
800379c8:	21104300 	addu	v0,v0,v1
800379cc:	140002a5 	sh	v0,20(t0)
800379d0:	02002395 	lhu	v1,2(t1)
800379d4:	06002295 	lhu	v0,6(t1)
800379d8:	21186a00 	addu	v1,v1,t2
800379dc:	23104400 	subu	v0,v0,a0
800379e0:	21186200 	addu	v1,v1,v0
800379e4:	160003a5 	sh	v1,22(t0)
800379e8:	00008291 	lbu	v0,0(t4)
800379ec:	00000000 	nop
800379f0:	040002a1 	sb	v0,4(t0)
800379f4:	01008291 	lbu	v0,1(t4)
800379f8:	00000000 	nop
800379fc:	050002a1 	sb	v0,5(t0)
80037a00:	02008291 	lbu	v0,2(t4)
80037a04:	00000000 	nop
80037a08:	060002a1 	sb	v0,6(t0)
80037a0c:	e400a28c 	lw	v0,228(a1)
80037a10:	24300601 	and	a2,t0,a2
80037a14:	000046ac 	sw	a2,0(v0)
80037a18:	0800e003 	jr	ra
80037a1c:	00000000 	nop
80037a20:	21408000 	move	t0,a0
80037a24:	1680023c 	lui	v0,0x8016
80037a28:	90d04224 	addiu	v0,v0,-12144
80037a2c:	00800334 	li	v1,0x8000
80037a30:	21484300 	addu	t1,v0,v1
80037a34:	0403248d 	lw	a0,772(t1)
80037a38:	2150a000 	move	t2,a1
80037a3c:	0800878c 	lw	a3,8(a0)
80037a40:	0400828c 	lw	v0,4(a0)
80037a44:	1800e524 	addiu	a1,a3,24
80037a48:	2b104500 	sltu	v0,v0,a1
80037a4c:	43004014 	bnez	v0,0x80037b5c
80037a50:	ffffc330 	andi	v1,a2,0xffff
80037a54:	080085ac 	sw	a1,8(a0)
80037a58:	2803228d 	lw	v0,808(t1)
80037a5c:	00000000 	nop
80037a60:	01004224 	addiu	v0,v0,1
80037a64:	280322ad 	sw	v0,808(t1)
80037a68:	01000224 	li	v0,1
80037a6c:	02006214 	bne	v1,v0,0x80037a78
80037a70:	28000224 	li	v0,40
80037a74:	2a000224 	li	v0,42
80037a78:	0700e2a0 	sb	v0,7(a3)
80037a7c:	1680043c 	lui	a0,0x8016
80037a80:	90d08424 	addiu	a0,a0,-12144
80037a84:	00800234 	li	v0,0x8000
80037a88:	21208200 	addu	a0,a0,v0
80037a8c:	ff00053c 	lui	a1,0xff
80037a90:	e400828c 	lw	v0,228(a0)
80037a94:	ffffa534 	ori	a1,a1,0xffff
80037a98:	0000428c 	lw	v0,0(v0)
80037a9c:	0005033c 	lui	v1,0x500
80037aa0:	24104500 	and	v0,v0,a1
80037aa4:	25104300 	or	v0,v0,v1
80037aa8:	0000e2ac 	sw	v0,0(a3)
80037aac:	00000295 	lhu	v0,0(t0)
80037ab0:	00000000 	nop
80037ab4:	0800e2a4 	sh	v0,8(a3)
80037ab8:	02000295 	lhu	v0,2(t0)
80037abc:	00000000 	nop
80037ac0:	0a00e2a4 	sh	v0,10(a3)
80037ac4:	00000295 	lhu	v0,0(t0)
80037ac8:	04000395 	lhu	v1,4(t0)
80037acc:	00000000 	nop
80037ad0:	21104300 	addu	v0,v0,v1
80037ad4:	0c00e2a4 	sh	v0,12(a3)
80037ad8:	02000295 	lhu	v0,2(t0)
80037adc:	00000000 	nop
80037ae0:	0e00e2a4 	sh	v0,14(a3)
80037ae4:	00000295 	lhu	v0,0(t0)
80037ae8:	00000000 	nop
80037aec:	1000e2a4 	sh	v0,16(a3)
80037af0:	02000295 	lhu	v0,2(t0)
80037af4:	06000395 	lhu	v1,6(t0)
80037af8:	00000000 	nop
80037afc:	21104300 	addu	v0,v0,v1
80037b00:	1200e2a4 	sh	v0,18(a3)
80037b04:	00000295 	lhu	v0,0(t0)
80037b08:	04000395 	lhu	v1,4(t0)
80037b0c:	00000000 	nop
80037b10:	21104300 	addu	v0,v0,v1
80037b14:	1400e2a4 	sh	v0,20(a3)
80037b18:	02000295 	lhu	v0,2(t0)
80037b1c:	06000395 	lhu	v1,6(t0)
80037b20:	00000000 	nop
80037b24:	21104300 	addu	v0,v0,v1
80037b28:	1600e2a4 	sh	v0,22(a3)
80037b2c:	00004291 	lbu	v0,0(t2)
80037b30:	00000000 	nop
80037b34:	0400e2a0 	sb	v0,4(a3)
80037b38:	01004291 	lbu	v0,1(t2)
80037b3c:	00000000 	nop
80037b40:	0500e2a0 	sb	v0,5(a3)
80037b44:	02004291 	lbu	v0,2(t2)
80037b48:	00000000 	nop
80037b4c:	0600e2a0 	sb	v0,6(a3)
80037b50:	e400828c 	lw	v0,228(a0)
80037b54:	2428e500 	and	a1,a3,a1
80037b58:	000045ac 	sw	a1,0(v0)
80037b5c:	0800e003 	jr	ra
80037b60:	00000000 	nop
80037b64:	c0ffbd27 	addiu	sp,sp,-64
80037b68:	2000b2af 	sw	s2,32(sp)
80037b6c:	21908000 	move	s2,a0
80037b70:	3800beaf 	sw	s8,56(sp)
80037b74:	21f0c000 	move	s8,a2
80037b78:	3000b6af 	sw	s6,48(sp)
80037b7c:	5000a48f 	lw	a0,80(sp)
80037b80:	00800334 	li	v1,0x8000
80037b84:	3c00bfaf 	sw	ra,60(sp)
80037b88:	3400b7af 	sw	s7,52(sp)
80037b8c:	2c00b5af 	sw	s5,44(sp)
80037b90:	2800b4af 	sw	s4,40(sp)
80037b94:	2400b3af 	sw	s3,36(sp)
80037b98:	1c00b1af 	sw	s1,28(sp)
80037b9c:	1800b0af 	sw	s0,24(sp)
80037ba0:	01008a30 	andi	t2,a0,0x1
80037ba4:	43100400 	sra	v0,a0,0x1
80037ba8:	03004930 	andi	t1,v0,0x3
80037bac:	c3100400 	sra	v0,a0,0x3
80037bb0:	03004830 	andi	t0,v0,0x3
80037bb4:	43210400 	sra	a0,a0,0x5
80037bb8:	1680023c 	lui	v0,0x8016
80037bbc:	90d04224 	addiu	v0,v0,-12144
80037bc0:	21304300 	addu	a2,v0,v1
80037bc4:	1000aaaf 	sw	t2,16(sp)
80037bc8:	0403c38c 	lw	v1,772(a2)
80037bcc:	03009730 	andi	s7,a0,0x3
80037bd0:	0800708c 	lw	s0,8(v1)
80037bd4:	0400628c 	lw	v0,4(v1)
80037bd8:	28000426 	addiu	a0,s0,40
80037bdc:	2b104400 	sltu	v0,v0,a0
80037be0:	a4004014 	bnez	v0,0x80037e74
80037be4:	21b0e000 	move	s6,a3
80037be8:	080064ac 	sw	a0,8(v1)
80037bec:	2803c28c 	lw	v0,808(a2)
80037bf0:	00000000 	nop
80037bf4:	01004224 	addiu	v0,v0,1
80037bf8:	2803c2ac 	sw	v0,808(a2)
80037bfc:	0000a294 	lhu	v0,0(a1)
80037c00:	0000a390 	lbu	v1,0(a1)
80037c04:	0200b390 	lbu	s3,2(a1)
80037c08:	c0ff4630 	andi	a2,v0,0xffc0
80037c0c:	0200a294 	lhu	v0,2(a1)
80037c10:	3f007130 	andi	s1,v1,0x3f
80037c14:	07000015 	bnez	t0,0x80037c34
80037c18:	00ff4730 	andi	a3,v0,0xff00
80037c1c:	ff002332 	andi	v1,s1,0xff
80037c20:	4000622c 	sltiu	v0,v1,64
80037c24:	09004010 	beqz	v0,0x80037c4c
80037c28:	80880300 	sll	s1,v1,0x2
80037c2c:	14a10008 	j	0x80028450
80037c30:	00000000 	nop
80037c34:	01000224 	li	v0,1
80037c38:	05000215 	bne	t0,v0,0x80037c50
80037c3c:	ff002332 	andi	v1,s1,0xff
80037c40:	8000622c 	sltiu	v0,v1,128
80037c44:	02004014 	bnez	v0,0x80037c50
80037c48:	40880300 	sll	s1,v1,0x1
80037c4c:	ff001124 	li	s1,255
80037c50:	04004386 	lh	v1,4(s2)
80037c54:	ff002232 	andi	v0,s1,0xff
80037c58:	21104300 	addu	v0,v0,v1
80037c5c:	00014228 	slti	v0,v0,256
80037c60:	04004010 	beqz	v0,0x80037c74
80037c64:	ff001524 	li	s5,255
80037c68:	04004292 	lbu	v0,4(s2)
80037c6c:	00000000 	nop
80037c70:	21a82202 	addu	s5,s1,v0
80037c74:	06004286 	lh	v0,6(s2)
80037c78:	00000000 	nop
80037c7c:	21106202 	addu	v0,s3,v0
80037c80:	00014228 	slti	v0,v0,256
80037c84:	04004010 	beqz	v0,0x80037c98
80037c88:	ff001424 	li	s4,255
80037c8c:	06004292 	lbu	v0,6(s2)
80037c90:	00000000 	nop
80037c94:	21a06202 	addu	s4,s3,v0
80037c98:	21200001 	move	a0,t0
80037c9c:	21282001 	move	a1,t1
80037ca0:	00340600 	sll	a2,a2,0x10
80037ca4:	003c0700 	sll	a3,a3,0x10
80037ca8:	03340600 	sra	a2,a2,0x10
80037cac:	c1f1010c 	jal	0x8007c704
80037cb0:	033c0700 	sra	a3,a3,0x10
80037cb4:	160002a6 	sh	v0,22(s0)
80037cb8:	0000c487 	lh	a0,0(s8)
80037cbc:	0200c587 	lh	a1,2(s8)
80037cc0:	d1f1010c 	jal	0x8007c744
80037cc4:	00000000 	nop
80037cc8:	0500c016 	bnez	s6,0x80037ce0
80037ccc:	0e0002a6 	sh	v0,14(s0)
80037cd0:	80000224 	li	v0,128
80037cd4:	040002a2 	sb	v0,4(s0)
80037cd8:	3fa10008 	j	0x800284fc
80037cdc:	050002a2 	sb	v0,5(s0)
80037ce0:	0000c292 	lbu	v0,0(s6)
80037ce4:	00000000 	nop
80037ce8:	040002a2 	sb	v0,4(s0)
80037cec:	0100c292 	lbu	v0,1(s6)
80037cf0:	00000000 	nop
80037cf4:	050002a2 	sb	v0,5(s0)
80037cf8:	0200c292 	lbu	v0,2(s6)
80037cfc:	00000000 	nop
80037d00:	060002a2 	sb	v0,6(s0)
80037d04:	1680023c 	lui	v0,0x8016
80037d08:	90d04224 	addiu	v0,v0,-12144
80037d0c:	00800334 	li	v1,0x8000
80037d10:	21104300 	addu	v0,v0,v1
80037d14:	e400428c 	lw	v0,228(v0)
80037d18:	ff00033c 	lui	v1,0xff
80037d1c:	0000428c 	lw	v0,0(v0)
80037d20:	ffff6334 	ori	v1,v1,0xffff
80037d24:	24104300 	and	v0,v0,v1
80037d28:	0009033c 	lui	v1,0x900
80037d2c:	25104300 	or	v0,v0,v1
80037d30:	000002ae 	sw	v0,0(s0)
80037d34:	00004296 	lhu	v0,0(s2)
80037d38:	00000000 	nop
80037d3c:	080002a6 	sh	v0,8(s0)
80037d40:	02004296 	lhu	v0,2(s2)
80037d44:	00000000 	nop
80037d48:	0a0002a6 	sh	v0,10(s0)
80037d4c:	00004296 	lhu	v0,0(s2)
80037d50:	04004396 	lhu	v1,4(s2)
80037d54:	00000000 	nop
80037d58:	21104300 	addu	v0,v0,v1
80037d5c:	100002a6 	sh	v0,16(s0)
80037d60:	02004296 	lhu	v0,2(s2)
80037d64:	00000000 	nop
80037d68:	120002a6 	sh	v0,18(s0)
80037d6c:	00004296 	lhu	v0,0(s2)
80037d70:	00000000 	nop
80037d74:	180002a6 	sh	v0,24(s0)
80037d78:	02004296 	lhu	v0,2(s2)
80037d7c:	06004396 	lhu	v1,6(s2)
80037d80:	00000000 	nop
80037d84:	21104300 	addu	v0,v0,v1
80037d88:	1a0002a6 	sh	v0,26(s0)
80037d8c:	00004296 	lhu	v0,0(s2)
80037d90:	04004396 	lhu	v1,4(s2)
80037d94:	00000000 	nop
80037d98:	21104300 	addu	v0,v0,v1
80037d9c:	200002a6 	sh	v0,32(s0)
80037da0:	02004296 	lhu	v0,2(s2)
80037da4:	06004396 	lhu	v1,6(s2)
80037da8:	00000000 	nop
80037dac:	21104300 	addu	v0,v0,v1
80037db0:	220002a6 	sh	v0,34(s0)
80037db4:	01000224 	li	v0,1
80037db8:	0b00e216 	bne	s7,v0,0x80037de8
80037dbc:	02000224 	li	v0,2
80037dc0:	ffffa326 	addiu	v1,s5,-1
80037dc4:	ffff2226 	addiu	v0,s1,-1
80037dc8:	0c0003a2 	sb	v1,12(s0)
80037dcc:	0d0013a2 	sb	s3,13(s0)
80037dd0:	140002a2 	sb	v0,20(s0)
80037dd4:	150013a2 	sb	s3,21(s0)
80037dd8:	1c0003a2 	sb	v1,28(s0)
80037ddc:	1d0014a2 	sb	s4,29(s0)
80037de0:	8da10008 	j	0x80028634
80037de4:	240002a2 	sb	v0,36(s0)
80037de8:	0b00e216 	bne	s7,v0,0x80037e18
80037dec:	ffff8226 	addiu	v0,s4,-1
80037df0:	0d0002a2 	sb	v0,13(s0)
80037df4:	150002a2 	sb	v0,21(s0)
80037df8:	ffff6226 	addiu	v0,s3,-1
80037dfc:	0c0011a2 	sb	s1,12(s0)
80037e00:	140015a2 	sb	s5,20(s0)
80037e04:	1c0011a2 	sb	s1,28(s0)
80037e08:	1d0002a2 	sb	v0,29(s0)
80037e0c:	240015a2 	sb	s5,36(s0)
80037e10:	8ea10008 	j	0x80028638
80037e14:	250002a2 	sb	v0,37(s0)
80037e18:	0c0011a2 	sb	s1,12(s0)
80037e1c:	0d0013a2 	sb	s3,13(s0)
80037e20:	140015a2 	sb	s5,20(s0)
80037e24:	150013a2 	sb	s3,21(s0)
80037e28:	1c0011a2 	sb	s1,28(s0)
80037e2c:	1d0014a2 	sb	s4,29(s0)
80037e30:	240015a2 	sb	s5,36(s0)
80037e34:	250014a2 	sb	s4,37(s0)
80037e38:	1000aa8f 	lw	t2,16(sp)
80037e3c:	00000000 	nop
80037e40:	02004015 	bnez	t2,0x80037e4c
80037e44:	2e000224 	li	v0,46
80037e48:	2c000224 	li	v0,44
80037e4c:	070002a2 	sb	v0,7(s0)
80037e50:	ff00043c 	lui	a0,0xff
80037e54:	ffff8434 	ori	a0,a0,0xffff
80037e58:	1680023c 	lui	v0,0x8016
80037e5c:	90d04224 	addiu	v0,v0,-12144
80037e60:	00800334 	li	v1,0x8000
80037e64:	21104300 	addu	v0,v0,v1
80037e68:	e400428c 	lw	v0,228(v0)
80037e6c:	24200402 	and	a0,s0,a0
80037e70:	000044ac 	sw	a0,0(v0)
80037e74:	3c00bf8f 	lw	ra,60(sp)
80037e78:	3800be8f 	lw	s8,56(sp)
80037e7c:	3400b78f 	lw	s7,52(sp)
80037e80:	3000b68f 	lw	s6,48(sp)
80037e84:	2c00b58f 	lw	s5,44(sp)
80037e88:	2800b48f 	lw	s4,40(sp)
80037e8c:	2400b38f 	lw	s3,36(sp)
80037e90:	2000b28f 	lw	s2,32(sp)
80037e94:	1c00b18f 	lw	s1,28(sp)
80037e98:	1800b08f 	lw	s0,24(sp)
80037e9c:	4000bd27 	addiu	sp,sp,64
80037ea0:	0800e003 	jr	ra
80037ea4:	00000000 	nop
80037ea8:	d8ffbd27 	addiu	sp,sp,-40
80037eac:	21488000 	move	t1,a0
80037eb0:	2150a000 	move	t2,a1
80037eb4:	1680023c 	lui	v0,0x8016
80037eb8:	90d04224 	addiu	v0,v0,-12144
80037ebc:	00800334 	li	v1,0x8000
80037ec0:	1c00b1af 	sw	s1,28(sp)
80037ec4:	21884300 	addu	s1,v0,v1
80037ec8:	2000bfaf 	sw	ra,32(sp)
80037ecc:	1800b0af 	sw	s0,24(sp)
80037ed0:	0403238e 	lw	v1,772(s1)
80037ed4:	00000000 	nop
80037ed8:	0800708c 	lw	s0,8(v1)
80037edc:	0400628c 	lw	v0,4(v1)
80037ee0:	0c000826 	addiu	t0,s0,12
80037ee4:	2b104800 	sltu	v0,v0,t0
80037ee8:	20004014 	bnez	v0,0x80037f6c
80037eec:	2138c000 	move	a3,a2
80037ef0:	21200000 	move	a0,zero
80037ef4:	21282001 	move	a1,t1
80037ef8:	080068ac 	sw	t0,8(v1)
80037efc:	2803228e 	lw	v0,808(s1)
80037f00:	21304001 	move	a2,t2
80037f04:	01004224 	addiu	v0,v0,1
80037f08:	c1f1010c 	jal	0x8007c704
80037f0c:	280322ae 	sw	v0,808(s1)
80037f10:	21200002 	move	a0,s0
80037f14:	21280000 	move	a1,zero
80037f18:	2130a000 	move	a2,a1
80037f1c:	ffff4730 	andi	a3,v0,0xffff
80037f20:	4dea010c 	jal	0x8007a934
80037f24:	1000a0af 	sw	zero,16(sp)
80037f28:	ff00043c 	lui	a0,0xff
80037f2c:	ffff8434 	ori	a0,a0,0xffff
80037f30:	00ff053c 	lui	a1,0xff00
80037f34:	e400228e 	lw	v0,228(s1)
80037f38:	0000038e 	lw	v1,0(s0)
80037f3c:	0000428c 	lw	v0,0(v0)
80037f40:	24186500 	and	v1,v1,a1
80037f44:	24104400 	and	v0,v0,a0
80037f48:	25186200 	or	v1,v1,v0
80037f4c:	000003ae 	sw	v1,0(s0)
80037f50:	e400238e 	lw	v1,228(s1)
80037f54:	00000000 	nop
80037f58:	0000628c 	lw	v0,0(v1)
80037f5c:	24200402 	and	a0,s0,a0
80037f60:	24104500 	and	v0,v0,a1
80037f64:	25104400 	or	v0,v0,a0
80037f68:	000062ac 	sw	v0,0(v1)
80037f6c:	2000bf8f 	lw	ra,32(sp)
80037f70:	1c00b18f 	lw	s1,28(sp)
80037f74:	1800b08f 	lw	s0,24(sp)
80037f78:	2800bd27 	addiu	sp,sp,40
80037f7c:	0800e003 	jr	ra
80037f80:	00000000 	nop
80037f84:	a8ffbd27 	addiu	sp,sp,-88
80037f88:	0880023c 	lui	v0,0x8008
80037f8c:	5000bfaf 	sw	ra,80(sp)
80037f90:	4c00b1af 	sw	s1,76(sp)
80037f94:	4800b0af 	sw	s0,72(sp)
80037f98:	1c7f4624 	addiu	a2,v0,32540
80037f9c:	0300c388 	lwl	v1,3(a2)
80037fa0:	0000c398 	lwr	v1,0(a2)
80037fa4:	0700c488 	lwl	a0,7(a2)
80037fa8:	0400c498 	lwr	a0,4(a2)
80037fac:	1b00a3ab 	swl	v1,27(sp)
80037fb0:	1800a3bb 	swr	v1,24(sp)
80037fb4:	1f00a4ab 	swl	a0,31(sp)
80037fb8:	1c00a4bb 	swr	a0,28(sp)
80037fbc:	0880023c 	lui	v0,0x8008
80037fc0:	247f4624 	addiu	a2,v0,32548
80037fc4:	0300c388 	lwl	v1,3(a2)
80037fc8:	0000c398 	lwr	v1,0(a2)
80037fcc:	0700c488 	lwl	a0,7(a2)
80037fd0:	0400c498 	lwr	a0,4(a2)
80037fd4:	2300a3ab 	swl	v1,35(sp)
80037fd8:	2000a3bb 	swr	v1,32(sp)
80037fdc:	2700a4ab 	swl	a0,39(sp)
80037fe0:	2400a4bb 	swr	a0,36(sp)
80037fe4:	c0030224 	li	v0,960
80037fe8:	3800a2a7 	sh	v0,56(sp)
80037fec:	00010224 	li	v0,256
80037ff0:	3a00a2a7 	sh	v0,58(sp)
80037ff4:	0100033c 	lui	v1,0x1
80037ff8:	00806334 	ori	v1,v1,0x8000
80037ffc:	30020224 	li	v0,560
80038000:	4000a2a7 	sh	v0,64(sp)
80038004:	ef010224 	li	v0,495
80038008:	4200a2a7 	sh	v0,66(sp)
8003800c:	1680023c 	lui	v0,0x8016
80038010:	90d04224 	addiu	v0,v0,-12144
80038014:	21184300 	addu	v1,v0,v1
80038018:	176e6290 	lbu	v0,28183(v1)
8003801c:	01000424 	li	a0,1
80038020:	04004414 	bne	v0,a0,0x80038034
80038024:	ff010224 	li	v0,511
80038028:	3a00a0a7 	sh	zero,58(sp)
8003802c:	4000a0a7 	sh	zero,64(sp)
80038030:	4200a2a7 	sh	v0,66(sp)
80038034:	186e6290 	lbu	v0,28184(v1)
80038038:	00000000 	nop
8003803c:	02004014 	bnez	v0,0x80038048
80038040:	00000000 	nop
80038044:	186e64a0 	sb	a0,28184(v1)
80038048:	166e6290 	lbu	v0,28182(v1)
8003804c:	00000000 	nop
80038050:	ffff4324 	addiu	v1,v0,-1
80038054:	0600622c 	sltiu	v0,v1,6
80038058:	ee004010 	beqz	v0,0x80038414
8003805c:	0180023c 	lui	v0,0x8001
80038060:	90144224 	addiu	v0,v0,5264
80038064:	80180300 	sll	v1,v1,0x2
80038068:	21186200 	addu	v1,v1,v0
8003806c:	0000628c 	lw	v0,0(v1)
80038070:	00000000 	nop
80038074:	08004000 	jr	v0
80038078:	00000000 	nop
8003807c:	0100033c 	lui	v1,0x1
80038080:	00806334 	ori	v1,v1,0x8000
80038084:	1680023c 	lui	v0,0x8016
80038088:	90d04224 	addiu	v0,v0,-12144
8003808c:	21204300 	addu	a0,v0,v1
80038090:	176e8390 	lbu	v1,28183(a0)
80038094:	03000224 	li	v0,3
80038098:	a0006210 	beq	v1,v0,0x8003831c
8003809c:	ff000224 	li	v0,255
800380a0:	196e8290 	lbu	v0,28185(a0)
800380a4:	186e8390 	lbu	v1,28184(a0)
800380a8:	00110200 	sll	v0,v0,0x4
800380ac:	1a004300 	div	zero,v0,v1
800380b0:	02006014 	bnez	v1,0x800380bc
800380b4:	00000000 	nop
800380b8:	0d000700 	break	0x7
800380bc:	ffff0124 	li	at,-1
800380c0:	04006114 	bne	v1,at,0x800380d4
800380c4:	0080013c 	lui	at,0x8000
800380c8:	02004114 	bne	v0,at,0x800380d4
800380cc:	00000000 	nop
800380d0:	0d000600 	break	0x6
800380d4:	12100000 	mflo	v0
800380d8:	c8a20008 	j	0x80028b20
800380dc:	2a00a2a3 	sb	v0,42(sp)
800380e0:	1d80023c 	lui	v0,0x801d
800380e4:	24d14390 	lbu	v1,-11996(v0)
800380e8:	01000224 	li	v0,1
800380ec:	09006210 	beq	v1,v0,0x80038114
800380f0:	0100033c 	lui	v1,0x1
800380f4:	00806334 	ori	v1,v1,0x8000
800380f8:	1680023c 	lui	v0,0x8016
800380fc:	90d04224 	addiu	v0,v0,-12144
80038100:	21204300 	addu	a0,v0,v1
80038104:	176e8390 	lbu	v1,28183(a0)
80038108:	02000224 	li	v0,2
8003810c:	19006214 	bne	v1,v0,0x80038174
80038110:	03000224 	li	v0,3
80038114:	0100033c 	lui	v1,0x1
80038118:	00806334 	ori	v1,v1,0x8000
8003811c:	2000a427 	addiu	a0,sp,32
80038120:	3800a527 	addiu	a1,sp,56
80038124:	4000a627 	addiu	a2,sp,64
80038128:	1680023c 	lui	v0,0x8016
8003812c:	90d04224 	addiu	v0,v0,-12144
80038130:	21804300 	addu	s0,v0,v1
80038134:	3000a727 	addiu	a3,sp,48
80038138:	196e0292 	lbu	v0,28185(s0)
8003813c:	03001124 	li	s1,3
80038140:	c0100200 	sll	v0,v0,0x3
80038144:	3200a2a3 	sb	v0,50(sp)
80038148:	3100a2a3 	sb	v0,49(sp)
8003814c:	3000a2a3 	sb	v0,48(sp)
80038150:	d9a0000c 	jal	0x80028364
80038154:	1000b1af 	sw	s1,16(sp)
80038158:	196e0292 	lbu	v0,28185(s0)
8003815c:	00000000 	nop
80038160:	1000422c 	sltiu	v0,v0,16
80038164:	79004014 	bnez	v0,0x8003834c
80038168:	0100023c 	lui	v0,0x1
8003816c:	d3a20008 	j	0x80028b4c
80038170:	166e11a2 	sb	s1,28182(s0)
80038174:	d2a20008 	j	0x80028b48
80038178:	166e82a0 	sb	v0,28182(a0)
8003817c:	1d80023c 	lui	v0,0x801d
80038180:	24d14390 	lbu	v1,-11996(v0)
80038184:	01000224 	li	v0,1
80038188:	09006210 	beq	v1,v0,0x800381b0
8003818c:	0100033c 	lui	v1,0x1
80038190:	00806334 	ori	v1,v1,0x8000
80038194:	1680023c 	lui	v0,0x8016
80038198:	90d04224 	addiu	v0,v0,-12144
8003819c:	21104300 	addu	v0,v0,v1
800381a0:	176e4390 	lbu	v1,28183(v0)
800381a4:	02000224 	li	v0,2
800381a8:	68006214 	bne	v1,v0,0x8003834c
800381ac:	0100023c 	lui	v0,0x1
800381b0:	0980033c 	lui	v1,0x8009
800381b4:	90816394 	lhu	v1,-32368(v1)
800381b8:	80000224 	li	v0,128
800381bc:	3200a2a3 	sb	v0,50(sp)
800381c0:	3100a2a3 	sb	v0,49(sp)
800381c4:	3000a2a3 	sb	v0,48(sp)
800381c8:	19000224 	li	v0,25
800381cc:	05006210 	beq	v1,v0,0x800381e4
800381d0:	1e000224 	li	v0,30
800381d4:	03006210 	beq	v1,v0,0x800381e4
800381d8:	05000224 	li	v0,5
800381dc:	02006214 	bne	v1,v0,0x800381e8
800381e0:	03000224 	li	v0,3
800381e4:	02000224 	li	v0,2
800381e8:	1000a2af 	sw	v0,16(sp)
800381ec:	2000a427 	addiu	a0,sp,32
800381f0:	3800a527 	addiu	a1,sp,56
800381f4:	4000a627 	addiu	a2,sp,64
800381f8:	d9a0000c 	jal	0x80028364
800381fc:	3000a727 	addiu	a3,sp,48
80038200:	d3a20008 	j	0x80028b4c
80038204:	0100023c 	lui	v0,0x1
80038208:	1d80023c 	lui	v0,0x801d
8003820c:	24d14390 	lbu	v1,-11996(v0)
80038210:	01000224 	li	v0,1
80038214:	09006210 	beq	v1,v0,0x8003823c
80038218:	0100033c 	lui	v1,0x1
8003821c:	00806334 	ori	v1,v1,0x8000
80038220:	1680023c 	lui	v0,0x8016
80038224:	90d04224 	addiu	v0,v0,-12144
80038228:	21204300 	addu	a0,v0,v1
8003822c:	176e8390 	lbu	v1,28183(a0)
80038230:	02000224 	li	v0,2
80038234:	1c006214 	bne	v1,v0,0x800382a8
80038238:	05000224 	li	v0,5
8003823c:	0100033c 	lui	v1,0x1
80038240:	00806334 	ori	v1,v1,0x8000
80038244:	2000a427 	addiu	a0,sp,32
80038248:	3800a527 	addiu	a1,sp,56
8003824c:	4000a627 	addiu	a2,sp,64
80038250:	3000a727 	addiu	a3,sp,48
80038254:	1680023c 	lui	v0,0x8016
80038258:	90d04224 	addiu	v0,v0,-12144
8003825c:	21804300 	addu	s0,v0,v1
80038260:	196e0392 	lbu	v1,28185(s0)
80038264:	10000224 	li	v0,16
80038268:	23104300 	subu	v0,v0,v1
8003826c:	c0100200 	sll	v0,v0,0x3
80038270:	3200a2a3 	sb	v0,50(sp)
80038274:	3100a2a3 	sb	v0,49(sp)
80038278:	3000a2a3 	sb	v0,48(sp)
8003827c:	03000224 	li	v0,3
80038280:	d9a0000c 	jal	0x80028364
80038284:	1000a2af 	sw	v0,16(sp)
80038288:	196e0292 	lbu	v0,28185(s0)
8003828c:	00000000 	nop
80038290:	1000422c 	sltiu	v0,v0,16
80038294:	2d004014 	bnez	v0,0x8003834c
80038298:	0100023c 	lui	v0,0x1
8003829c:	05000224 	li	v0,5
800382a0:	d2a20008 	j	0x80028b48
800382a4:	166e02a2 	sb	v0,28182(s0)
800382a8:	d2a20008 	j	0x80028b48
800382ac:	166e82a0 	sb	v0,28182(a0)
800382b0:	0100033c 	lui	v1,0x1
800382b4:	00806334 	ori	v1,v1,0x8000
800382b8:	1680023c 	lui	v0,0x8016
800382bc:	90d04224 	addiu	v0,v0,-12144
800382c0:	21204300 	addu	a0,v0,v1
800382c4:	176e8390 	lbu	v1,28183(a0)
800382c8:	03000224 	li	v0,3
800382cc:	13006210 	beq	v1,v0,0x8003831c
800382d0:	ff000224 	li	v0,255
800382d4:	186e8390 	lbu	v1,28184(a0)
800382d8:	196e8290 	lbu	v0,28185(a0)
800382dc:	00000000 	nop
800382e0:	23106200 	subu	v0,v1,v0
800382e4:	00110200 	sll	v0,v0,0x4
800382e8:	1a004300 	div	zero,v0,v1
800382ec:	02006014 	bnez	v1,0x800382f8
800382f0:	00000000 	nop
800382f4:	0d000700 	break	0x7
800382f8:	ffff0124 	li	at,-1
800382fc:	04006114 	bne	v1,at,0x80038310
80038300:	0080013c 	lui	at,0x8000
80038304:	02004114 	bne	v0,at,0x80038310
80038308:	00000000 	nop
8003830c:	0d000600 	break	0x6
80038310:	12100000 	mflo	v0
80038314:	c8a20008 	j	0x80028b20
80038318:	2a00a2a3 	sb	v0,42(sp)
8003831c:	2a00a2a3 	sb	v0,42(sp)
80038320:	2900a2a3 	sb	v0,41(sp)
80038324:	2800a2a3 	sb	v0,40(sp)
80038328:	1800a427 	addiu	a0,sp,24
8003832c:	2800a527 	addiu	a1,sp,40
80038330:	88a0000c 	jal	0x80028220
80038334:	01000624 	li	a2,1
80038338:	02000424 	li	a0,2
8003833c:	21280000 	move	a1,zero
80038340:	aaa1000c 	jal	0x800286a8
80038344:	2130a000 	move	a2,a1
80038348:	0100023c 	lui	v0,0x1
8003834c:	00804234 	ori	v0,v0,0x8000
80038350:	1680033c 	lui	v1,0x8016
80038354:	90d06324 	addiu	v1,v1,-12144
80038358:	21186200 	addu	v1,v1,v0
8003835c:	176e6290 	lbu	v0,28183(v1)
80038360:	00000000 	nop
80038364:	13004014 	bnez	v0,0x800383b4
80038368:	00000000 	nop
8003836c:	166e6390 	lbu	v1,28182(v1)
80038370:	00000000 	nop
80038374:	0200622c 	sltiu	v0,v1,2
80038378:	0e004014 	bnez	v0,0x800383b4
8003837c:	0600622c 	sltiu	v0,v1,6
80038380:	0c004010 	beqz	v0,0x800383b4
80038384:	1800a427 	addiu	a0,sp,24
80038388:	2800a527 	addiu	a1,sp,40
8003838c:	01000624 	li	a2,1
80038390:	10000224 	li	v0,16
80038394:	2a00a2a3 	sb	v0,42(sp)
80038398:	2900a2a3 	sb	v0,41(sp)
8003839c:	88a0000c 	jal	0x80028220
800383a0:	2800a2a3 	sb	v0,40(sp)
800383a4:	02000424 	li	a0,2
800383a8:	21280000 	move	a1,zero
800383ac:	aaa1000c 	jal	0x800286a8
800383b0:	2130a000 	move	a2,a1
800383b4:	0100033c 	lui	v1,0x1
800383b8:	00806334 	ori	v1,v1,0x8000
800383bc:	1680023c 	lui	v0,0x8016
800383c0:	90d04224 	addiu	v0,v0,-12144
800383c4:	21804300 	addu	s0,v0,v1
800383c8:	176e0392 	lbu	v1,28183(s0)
800383cc:	03000224 	li	v0,3
800383d0:	0c006214 	bne	v1,v0,0x80038404
800383d4:	1800a427 	addiu	a0,sp,24
800383d8:	2800a527 	addiu	a1,sp,40
800383dc:	01000624 	li	a2,1
800383e0:	ff000224 	li	v0,255
800383e4:	2a00a2a3 	sb	v0,42(sp)
800383e8:	2900a2a3 	sb	v0,41(sp)
800383ec:	88a0000c 	jal	0x80028220
800383f0:	2800a2a3 	sb	v0,40(sp)
800383f4:	02000424 	li	a0,2
800383f8:	21280000 	move	a1,zero
800383fc:	aaa1000c 	jal	0x800286a8
80038400:	2130a000 	move	a2,a1
80038404:	196e0292 	lbu	v0,28185(s0)
80038408:	00000000 	nop
8003840c:	01004224 	addiu	v0,v0,1
80038410:	196e02a2 	sb	v0,28185(s0)
80038414:	5000bf8f 	lw	ra,80(sp)
80038418:	4c00b18f 	lw	s1,76(sp)
8003841c:	4800b08f 	lw	s0,72(sp)
80038420:	5800bd27 	addiu	sp,sp,88
80038424:	0800e003 	jr	ra
80038428:	00000000 	nop
8003842c:	1680023c 	lui	v0,0x8016
80038430:	90d04224 	addiu	v0,v0,-12144
80038434:	00800334 	li	v1,0x8000
80038438:	21484300 	addu	t1,v0,v1
8003843c:	0403238d 	lw	v1,772(t1)
80038440:	00000000 	nop
80038444:	0800678c 	lw	a3,8(v1)
80038448:	0400628c 	lw	v0,4(v1)
8003844c:	2400e824 	addiu	t0,a3,36
80038450:	2b104800 	sltu	v0,v0,t0
80038454:	56004014 	bnez	v0,0x800385b0
80038458:	21508000 	move	t2,a0
8003845c:	ff00043c 	lui	a0,0xff
80038460:	ffff8434 	ori	a0,a0,0xffff
80038464:	080068ac 	sw	t0,8(v1)
80038468:	2803228d 	lw	v0,808(t1)
8003846c:	e400238d 	lw	v1,228(t1)
80038470:	01004224 	addiu	v0,v0,1
80038474:	280322ad 	sw	v0,808(t1)
80038478:	0000628c 	lw	v0,0(v1)
8003847c:	0008033c 	lui	v1,0x800
80038480:	24104400 	and	v0,v0,a0
80038484:	25104300 	or	v0,v0,v1
80038488:	0000e2ac 	sw	v0,0(a3)
8003848c:	0000a290 	lbu	v0,0(a1)
80038490:	00000000 	nop
80038494:	0400e2a0 	sb	v0,4(a3)
80038498:	0100a290 	lbu	v0,1(a1)
8003849c:	00000000 	nop
800384a0:	0500e2a0 	sb	v0,5(a3)
800384a4:	0200a290 	lbu	v0,2(a1)
800384a8:	00000000 	nop
800384ac:	0600e2a0 	sb	v0,6(a3)
800384b0:	0400a290 	lbu	v0,4(a1)
800384b4:	00000000 	nop
800384b8:	0c00e2a0 	sb	v0,12(a3)
800384bc:	0500a290 	lbu	v0,5(a1)
800384c0:	00000000 	nop
800384c4:	0d00e2a0 	sb	v0,13(a3)
800384c8:	0600a290 	lbu	v0,6(a1)
800384cc:	00000000 	nop
800384d0:	0e00e2a0 	sb	v0,14(a3)
800384d4:	0800a290 	lbu	v0,8(a1)
800384d8:	00000000 	nop
800384dc:	1400e2a0 	sb	v0,20(a3)
800384e0:	0900a290 	lbu	v0,9(a1)
800384e4:	00000000 	nop
800384e8:	1500e2a0 	sb	v0,21(a3)
800384ec:	0a00a290 	lbu	v0,10(a1)
800384f0:	00000000 	nop
800384f4:	1600e2a0 	sb	v0,22(a3)
800384f8:	0c00a290 	lbu	v0,12(a1)
800384fc:	00000000 	nop
80038500:	1c00e2a0 	sb	v0,28(a3)
80038504:	0d00a290 	lbu	v0,13(a1)
80038508:	00000000 	nop
8003850c:	1d00e2a0 	sb	v0,29(a3)
80038510:	0e00a290 	lbu	v0,14(a1)
80038514:	00000000 	nop
80038518:	1e00e2a0 	sb	v0,30(a3)
8003851c:	00004295 	lhu	v0,0(t2)
80038520:	00000000 	nop
80038524:	0800e2a4 	sh	v0,8(a3)
80038528:	02004295 	lhu	v0,2(t2)
8003852c:	00000000 	nop
80038530:	0a00e2a4 	sh	v0,10(a3)
80038534:	04004295 	lhu	v0,4(t2)
80038538:	00000000 	nop
8003853c:	1000e2a4 	sh	v0,16(a3)
80038540:	06004295 	lhu	v0,6(t2)
80038544:	00000000 	nop
80038548:	1200e2a4 	sh	v0,18(a3)
8003854c:	08004295 	lhu	v0,8(t2)
80038550:	00000000 	nop
80038554:	1800e2a4 	sh	v0,24(a3)
80038558:	0a004295 	lhu	v0,10(t2)
8003855c:	00000000 	nop
80038560:	1a00e2a4 	sh	v0,26(a3)
80038564:	0c004295 	lhu	v0,12(t2)
80038568:	00000000 	nop
8003856c:	2000e2a4 	sh	v0,32(a3)
80038570:	0e004295 	lhu	v0,14(t2)
80038574:	0300c014 	bnez	a2,0x80038584
80038578:	2200e2a4 	sh	v0,34(a3)
8003857c:	62a30008 	j	0x80028d88
80038580:	38000224 	li	v0,56
80038584:	3a000224 	li	v0,58
80038588:	0700e2a0 	sb	v0,7(a3)
8003858c:	ff00043c 	lui	a0,0xff
80038590:	ffff8434 	ori	a0,a0,0xffff
80038594:	1680023c 	lui	v0,0x8016
80038598:	90d04224 	addiu	v0,v0,-12144
8003859c:	00800334 	li	v1,0x8000
800385a0:	21104300 	addu	v0,v0,v1
800385a4:	e400428c 	lw	v0,228(v0)
800385a8:	2420e400 	and	a0,a3,a0
800385ac:	000044ac 	sw	a0,0(v0)
800385b0:	0800e003 	jr	ra
800385b4:	00000000 	nop
800385b8:	f8ffbd27 	addiu	sp,sp,-8
800385bc:	21588000 	move	t3,a0
800385c0:	2148a000 	move	t1,a1
800385c4:	03006289 	lwl	v0,3(t3)
800385c8:	00006299 	lwr	v0,0(t3)
800385cc:	07006389 	lwl	v1,7(t3)
800385d0:	04006399 	lwr	v1,4(t3)
800385d4:	0300a2ab 	swl	v0,3(sp)
800385d8:	0000a2bb 	swr	v0,0(sp)
800385dc:	0700a3ab 	swl	v1,7(sp)
800385e0:	0400a3bb 	swr	v1,4(sp)
800385e4:	1680023c 	lui	v0,0x8016
800385e8:	90d04224 	addiu	v0,v0,-12144
800385ec:	00800334 	li	v1,0x8000
800385f0:	21284300 	addu	a1,v0,v1
800385f4:	0600a497 	lhu	a0,6(sp)
800385f8:	0403a38c 	lw	v1,772(a1)
800385fc:	00240400 	sll	a0,a0,0x10
80038600:	43240400 	sra	a0,a0,0x11
80038604:	0600a4a7 	sh	a0,6(sp)
80038608:	0800688c 	lw	t0,8(v1)
8003860c:	0400628c 	lw	v0,4(v1)
80038610:	24000425 	addiu	a0,t0,36
80038614:	2b104400 	sltu	v0,v0,a0
80038618:	d1004014 	bnez	v0,0x80038960
8003861c:	00000000 	nop
80038620:	080064ac 	sw	a0,8(v1)
80038624:	2803a28c 	lw	v0,808(a1)
80038628:	00000000 	nop
8003862c:	01004224 	addiu	v0,v0,1
80038630:	0300e014 	bnez	a3,0x80038640
80038634:	2803a2ac 	sw	v0,808(a1)
80038638:	91a30008 	j	0x80028e44
8003863c:	38000224 	li	v0,56
80038640:	3a000224 	li	v0,58
80038644:	070002a1 	sb	v0,7(t0)
80038648:	1680023c 	lui	v0,0x8016
8003864c:	90d04224 	addiu	v0,v0,-12144
80038650:	00800334 	li	v1,0x8000
80038654:	21504300 	addu	t2,v0,v1
80038658:	ff00043c 	lui	a0,0xff
8003865c:	e400428d 	lw	v0,228(t2)
80038660:	ffff8434 	ori	a0,a0,0xffff
80038664:	0000428c 	lw	v0,0(v0)
80038668:	0008033c 	lui	v1,0x800
8003866c:	24104400 	and	v0,v0,a0
80038670:	25104300 	or	v0,v0,v1
80038674:	000002ad 	sw	v0,0(t0)
80038678:	0000c290 	lbu	v0,0(a2)
8003867c:	00000000 	nop
80038680:	040002a1 	sb	v0,4(t0)
80038684:	0100c290 	lbu	v0,1(a2)
80038688:	00000000 	nop
8003868c:	050002a1 	sb	v0,5(t0)
80038690:	0200c290 	lbu	v0,2(a2)
80038694:	00000000 	nop
80038698:	060002a1 	sb	v0,6(t0)
8003869c:	0000c290 	lbu	v0,0(a2)
800386a0:	00000000 	nop
800386a4:	0c0002a1 	sb	v0,12(t0)
800386a8:	0100c290 	lbu	v0,1(a2)
800386ac:	00000000 	nop
800386b0:	0d0002a1 	sb	v0,13(t0)
800386b4:	0200c290 	lbu	v0,2(a2)
800386b8:	00000000 	nop
800386bc:	0e0002a1 	sb	v0,14(t0)
800386c0:	00002291 	lbu	v0,0(t1)
800386c4:	00000000 	nop
800386c8:	140002a1 	sb	v0,20(t0)
800386cc:	01002291 	lbu	v0,1(t1)
800386d0:	00000000 	nop
800386d4:	150002a1 	sb	v0,21(t0)
800386d8:	02002291 	lbu	v0,2(t1)
800386dc:	00000000 	nop
800386e0:	160002a1 	sb	v0,22(t0)
800386e4:	00002291 	lbu	v0,0(t1)
800386e8:	00000000 	nop
800386ec:	1c0002a1 	sb	v0,28(t0)
800386f0:	01002291 	lbu	v0,1(t1)
800386f4:	00000000 	nop
800386f8:	1d0002a1 	sb	v0,29(t0)
800386fc:	02002291 	lbu	v0,2(t1)
80038700:	00000000 	nop
80038704:	1e0002a1 	sb	v0,30(t0)
80038708:	0000a297 	lhu	v0,0(sp)
8003870c:	00000000 	nop
80038710:	080002a5 	sh	v0,8(t0)
80038714:	0200a297 	lhu	v0,2(sp)
80038718:	00000000 	nop
8003871c:	0a0002a5 	sh	v0,10(t0)
80038720:	0000a297 	lhu	v0,0(sp)
80038724:	0400a397 	lhu	v1,4(sp)
80038728:	00000000 	nop
8003872c:	21104300 	addu	v0,v0,v1
80038730:	100002a5 	sh	v0,16(t0)
80038734:	0200a297 	lhu	v0,2(sp)
80038738:	00000000 	nop
8003873c:	120002a5 	sh	v0,18(t0)
80038740:	0000a297 	lhu	v0,0(sp)
80038744:	00000000 	nop
80038748:	180002a5 	sh	v0,24(t0)
8003874c:	0200a297 	lhu	v0,2(sp)
80038750:	0600a397 	lhu	v1,6(sp)
80038754:	00000000 	nop
80038758:	21104300 	addu	v0,v0,v1
8003875c:	1a0002a5 	sh	v0,26(t0)
80038760:	0000a297 	lhu	v0,0(sp)
80038764:	0400a397 	lhu	v1,4(sp)
80038768:	00000000 	nop
8003876c:	21104300 	addu	v0,v0,v1
80038770:	200002a5 	sh	v0,32(t0)
80038774:	0200a297 	lhu	v0,2(sp)
80038778:	0600a397 	lhu	v1,6(sp)
8003877c:	00000000 	nop
80038780:	21104300 	addu	v0,v0,v1
80038784:	220002a5 	sh	v0,34(t0)
80038788:	e400428d 	lw	v0,228(t2)
8003878c:	24200401 	and	a0,t0,a0
80038790:	000044ac 	sw	a0,0(v0)
80038794:	03006289 	lwl	v0,3(t3)
80038798:	00006299 	lwr	v0,0(t3)
8003879c:	07006389 	lwl	v1,7(t3)
800387a0:	04006399 	lwr	v1,4(t3)
800387a4:	0300a2ab 	swl	v0,3(sp)
800387a8:	0000a2bb 	swr	v0,0(sp)
800387ac:	0700a3ab 	swl	v1,7(sp)
800387b0:	0400a3bb 	swr	v1,4(sp)
800387b4:	0600a397 	lhu	v1,6(sp)
800387b8:	0200a297 	lhu	v0,2(sp)
800387bc:	001c0300 	sll	v1,v1,0x10
800387c0:	431c0300 	sra	v1,v1,0x11
800387c4:	0600a3a7 	sh	v1,6(sp)
800387c8:	0403448d 	lw	a0,772(t2)
800387cc:	21104300 	addu	v0,v0,v1
800387d0:	0200a2a7 	sh	v0,2(sp)
800387d4:	0800888c 	lw	t0,8(a0)
800387d8:	0400828c 	lw	v0,4(a0)
800387dc:	24000325 	addiu	v1,t0,36
800387e0:	2b104300 	sltu	v0,v0,v1
800387e4:	5e004014 	bnez	v0,0x80038960
800387e8:	00000000 	nop
800387ec:	080083ac 	sw	v1,8(a0)
800387f0:	2803428d 	lw	v0,808(t2)
800387f4:	00000000 	nop
800387f8:	01004224 	addiu	v0,v0,1
800387fc:	0300e014 	bnez	a3,0x8003880c
80038800:	280342ad 	sw	v0,808(t2)
80038804:	04a40008 	j	0x80029010
80038808:	38000224 	li	v0,56
8003880c:	3a000224 	li	v0,58
80038810:	070002a1 	sb	v0,7(t0)
80038814:	1680043c 	lui	a0,0x8016
80038818:	90d08424 	addiu	a0,a0,-12144
8003881c:	00800234 	li	v0,0x8000
80038820:	21208200 	addu	a0,a0,v0
80038824:	ff00053c 	lui	a1,0xff
80038828:	e400828c 	lw	v0,228(a0)
8003882c:	ffffa534 	ori	a1,a1,0xffff
80038830:	0000428c 	lw	v0,0(v0)
80038834:	0008033c 	lui	v1,0x800
80038838:	24104500 	and	v0,v0,a1
8003883c:	25104300 	or	v0,v0,v1
80038840:	000002ad 	sw	v0,0(t0)
80038844:	00002291 	lbu	v0,0(t1)
80038848:	00000000 	nop
8003884c:	040002a1 	sb	v0,4(t0)
80038850:	01002291 	lbu	v0,1(t1)
80038854:	00000000 	nop
80038858:	050002a1 	sb	v0,5(t0)
8003885c:	02002291 	lbu	v0,2(t1)
80038860:	00000000 	nop
80038864:	060002a1 	sb	v0,6(t0)
80038868:	00002291 	lbu	v0,0(t1)
8003886c:	00000000 	nop
80038870:	0c0002a1 	sb	v0,12(t0)
80038874:	01002291 	lbu	v0,1(t1)
80038878:	00000000 	nop
8003887c:	0d0002a1 	sb	v0,13(t0)
80038880:	02002291 	lbu	v0,2(t1)
80038884:	00000000 	nop
80038888:	0e0002a1 	sb	v0,14(t0)
8003888c:	0000c290 	lbu	v0,0(a2)
80038890:	00000000 	nop
80038894:	140002a1 	sb	v0,20(t0)
80038898:	0100c290 	lbu	v0,1(a2)
8003889c:	00000000 	nop
800388a0:	150002a1 	sb	v0,21(t0)
800388a4:	0200c290 	lbu	v0,2(a2)
800388a8:	00000000 	nop
800388ac:	160002a1 	sb	v0,22(t0)
800388b0:	0000c290 	lbu	v0,0(a2)
800388b4:	00000000 	nop
800388b8:	1c0002a1 	sb	v0,28(t0)
800388bc:	0100c290 	lbu	v0,1(a2)
800388c0:	00000000 	nop
800388c4:	1d0002a1 	sb	v0,29(t0)
800388c8:	0200c290 	lbu	v0,2(a2)
800388cc:	00000000 	nop
800388d0:	1e0002a1 	sb	v0,30(t0)
800388d4:	0000a297 	lhu	v0,0(sp)
800388d8:	00000000 	nop
800388dc:	080002a5 	sh	v0,8(t0)
800388e0:	0200a297 	lhu	v0,2(sp)
800388e4:	00000000 	nop
800388e8:	0a0002a5 	sh	v0,10(t0)
800388ec:	0000a297 	lhu	v0,0(sp)
800388f0:	0400a397 	lhu	v1,4(sp)
800388f4:	00000000 	nop
800388f8:	21104300 	addu	v0,v0,v1
800388fc:	100002a5 	sh	v0,16(t0)
80038900:	0200a297 	lhu	v0,2(sp)
80038904:	00000000 	nop
80038908:	120002a5 	sh	v0,18(t0)
8003890c:	0000a297 	lhu	v0,0(sp)
80038910:	00000000 	nop
80038914:	180002a5 	sh	v0,24(t0)
80038918:	0200a297 	lhu	v0,2(sp)
8003891c:	0600a397 	lhu	v1,6(sp)
80038920:	00000000 	nop
80038924:	21104300 	addu	v0,v0,v1
80038928:	1a0002a5 	sh	v0,26(t0)
8003892c:	0000a297 	lhu	v0,0(sp)
80038930:	0400a397 	lhu	v1,4(sp)
80038934:	00000000 	nop
80038938:	21104300 	addu	v0,v0,v1
8003893c:	200002a5 	sh	v0,32(t0)
80038940:	0200a297 	lhu	v0,2(sp)
80038944:	0600a397 	lhu	v1,6(sp)
80038948:	00000000 	nop
8003894c:	21104300 	addu	v0,v0,v1
80038950:	220002a5 	sh	v0,34(t0)
80038954:	e400828c 	lw	v0,228(a0)
80038958:	24280501 	and	a1,t0,a1
8003895c:	000045ac 	sw	a1,0(v0)
80038960:	0800bd27 	addiu	sp,sp,8
80038964:	0800e003 	jr	ra
80038968:	00000000 	nop
8003896c:	21388000 	move	a3,a0
80038970:	21700000 	move	t6,zero
80038974:	2150c001 	move	t2,t6
80038978:	21684001 	move	t5,t2
8003897c:	21604001 	move	t4,t2
80038980:	21404001 	move	t0,t2
80038984:	ffffc630 	andi	a2,a2,0xffff
80038988:	00040224 	li	v0,1024
8003898c:	1a00c210 	beq	a2,v0,0x800389f8
80038990:	21580001 	move	t3,t0
80038994:	0104c228 	slti	v0,a2,1025
80038998:	05004010 	beqz	v0,0x800389b0
8003899c:	00080224 	li	v0,2048
800389a0:	0900c010 	beqz	a2,0x800389c8
800389a4:	1680023c 	lui	v0,0x8016
800389a8:	c1a40008 	j	0x80029304
800389ac:	90d04224 	addiu	v0,v0,-12144
800389b0:	2600c210 	beq	a2,v0,0x80038a4c
800389b4:	000c0224 	li	v0,3072
800389b8:	3b00c210 	beq	a2,v0,0x80038aa8
800389bc:	1680023c 	lui	v0,0x8016
800389c0:	c1a40008 	j	0x80029304
800389c4:	90d04224 	addiu	v0,v0,-12144
800389c8:	0600e294 	lhu	v0,6(a3)
800389cc:	00000000 	nop
800389d0:	00140200 	sll	v0,v0,0x10
800389d4:	031c0200 	sra	v1,v0,0x10
800389d8:	c2170200 	srl	v0,v0,0x1f
800389dc:	21186200 	addu	v1,v1,v0
800389e0:	0000e294 	lhu	v0,0(a3)
800389e4:	43180300 	sra	v1,v1,0x1
800389e8:	23204300 	subu	a0,v0,v1
800389ec:	21708000 	move	t6,a0
800389f0:	9ea40008 	j	0x80029278
800389f4:	21504300 	addu	t2,v0,v1
800389f8:	0400e294 	lhu	v0,4(a3)
800389fc:	0200e494 	lhu	a0,2(a3)
80038a00:	00140200 	sll	v0,v0,0x10
80038a04:	031c0200 	sra	v1,v0,0x10
80038a08:	c2170200 	srl	v0,v0,0x1f
80038a0c:	21186200 	addu	v1,v1,v0
80038a10:	0000e294 	lhu	v0,0(a3)
80038a14:	43180300 	sra	v1,v1,0x1
80038a18:	23704300 	subu	t6,v0,v1
80038a1c:	21504000 	move	t2,v0
80038a20:	0600e294 	lhu	v0,6(a3)
80038a24:	21684301 	addu	t5,t2,v1
80038a28:	00140200 	sll	v0,v0,0x10
80038a2c:	031c0200 	sra	v1,v0,0x10
80038a30:	c2170200 	srl	v0,v0,0x1f
80038a34:	21186200 	addu	v1,v1,v0
80038a38:	43180300 	sra	v1,v1,0x1
80038a3c:	23108300 	subu	v0,a0,v1
80038a40:	21604000 	move	t4,v0
80038a44:	bea40008 	j	0x800292f8
80038a48:	21408300 	addu	t0,a0,v1
80038a4c:	0600e294 	lhu	v0,6(a3)
80038a50:	00000000 	nop
80038a54:	00140200 	sll	v0,v0,0x10
80038a58:	031c0200 	sra	v1,v0,0x10
80038a5c:	c2170200 	srl	v0,v0,0x1f
80038a60:	21186200 	addu	v1,v1,v0
80038a64:	0000e294 	lhu	v0,0(a3)
80038a68:	43180300 	sra	v1,v1,0x1
80038a6c:	21204300 	addu	a0,v0,v1
80038a70:	21708000 	move	t6,a0
80038a74:	23504300 	subu	t2,v0,v1
80038a78:	0400e294 	lhu	v0,4(a3)
80038a7c:	21688000 	move	t5,a0
80038a80:	00140200 	sll	v0,v0,0x10
80038a84:	031c0200 	sra	v1,v0,0x10
80038a88:	c2170200 	srl	v0,v0,0x1f
80038a8c:	21186200 	addu	v1,v1,v0
80038a90:	0200e294 	lhu	v0,2(a3)
80038a94:	43180300 	sra	v1,v1,0x1
80038a98:	23604300 	subu	t4,v0,v1
80038a9c:	21404000 	move	t0,v0
80038aa0:	bfa40008 	j	0x800292fc
80038aa4:	21580301 	addu	t3,t0,v1
80038aa8:	0400e294 	lhu	v0,4(a3)
80038aac:	0200e494 	lhu	a0,2(a3)
80038ab0:	00140200 	sll	v0,v0,0x10
80038ab4:	031c0200 	sra	v1,v0,0x10
80038ab8:	c2170200 	srl	v0,v0,0x1f
80038abc:	21186200 	addu	v1,v1,v0
80038ac0:	0000e294 	lhu	v0,0(a3)
80038ac4:	43180300 	sra	v1,v1,0x1
80038ac8:	23704300 	subu	t6,v0,v1
80038acc:	21504000 	move	t2,v0
80038ad0:	0600e294 	lhu	v0,6(a3)
80038ad4:	21684301 	addu	t5,t2,v1
80038ad8:	00140200 	sll	v0,v0,0x10
80038adc:	031c0200 	sra	v1,v0,0x10
80038ae0:	c2170200 	srl	v0,v0,0x1f
80038ae4:	21186200 	addu	v1,v1,v0
80038ae8:	43180300 	sra	v1,v1,0x1
80038aec:	21108300 	addu	v0,a0,v1
80038af0:	21604000 	move	t4,v0
80038af4:	23408300 	subu	t0,a0,v1
80038af8:	21584000 	move	t3,v0
80038afc:	1680023c 	lui	v0,0x8016
80038b00:	90d04224 	addiu	v0,v0,-12144
80038b04:	00800334 	li	v1,0x8000
80038b08:	21484300 	addu	t1,v0,v1
80038b0c:	0403238d 	lw	v1,772(t1)
80038b10:	00000000 	nop
80038b14:	0800668c 	lw	a2,8(v1)
80038b18:	0400628c 	lw	v0,4(v1)
80038b1c:	1400c424 	addiu	a0,a2,20
80038b20:	2b104400 	sltu	v0,v0,a0
80038b24:	57004014 	bnez	v0,0x80038c84
80038b28:	04001924 	li	t9,4
80038b2c:	080064ac 	sw	a0,8(v1)
80038b30:	2803228d 	lw	v0,808(t1)
80038b34:	22001824 	li	t8,34
80038b38:	01004224 	addiu	v0,v0,1
80038b3c:	280322ad 	sw	v0,808(t1)
80038b40:	0300d9a0 	sb	t9,3(a2)
80038b44:	0700d8a0 	sb	t8,7(a2)
80038b48:	0800cea4 	sh	t6,8(a2)
80038b4c:	0a00cca4 	sh	t4,10(a2)
80038b50:	0c00caa4 	sh	t2,12(a2)
80038b54:	0e00c8a4 	sh	t0,14(a2)
80038b58:	1000cda4 	sh	t5,16(a2)
80038b5c:	1200cba4 	sh	t3,18(a2)
80038b60:	0000a290 	lbu	v0,0(a1)
80038b64:	ff00073c 	lui	a3,0xff
80038b68:	0400c2a0 	sb	v0,4(a2)
80038b6c:	0100a290 	lbu	v0,1(a1)
80038b70:	ffffe734 	ori	a3,a3,0xffff
80038b74:	0500c2a0 	sb	v0,5(a2)
80038b78:	0200a290 	lbu	v0,2(a1)
80038b7c:	00ff0f3c 	lui	t7,0xff00
80038b80:	0600c2a0 	sb	v0,6(a2)
80038b84:	e400228d 	lw	v0,228(t1)
80038b88:	0000c38c 	lw	v1,0(a2)
80038b8c:	0000428c 	lw	v0,0(v0)
80038b90:	24186f00 	and	v1,v1,t7
80038b94:	24104700 	and	v0,v0,a3
80038b98:	25186200 	or	v1,v1,v0
80038b9c:	0000c3ac 	sw	v1,0(a2)
80038ba0:	e400248d 	lw	a0,228(t1)
80038ba4:	00000000 	nop
80038ba8:	0000828c 	lw	v0,0(a0)
80038bac:	2418c700 	and	v1,a2,a3
80038bb0:	24104f00 	and	v0,v0,t7
80038bb4:	25104300 	or	v0,v0,v1
80038bb8:	000082ac 	sw	v0,0(a0)
80038bbc:	0403238d 	lw	v1,772(t1)
80038bc0:	00000000 	nop
80038bc4:	0800668c 	lw	a2,8(v1)
80038bc8:	0400628c 	lw	v0,4(v1)
80038bcc:	1400c424 	addiu	a0,a2,20
80038bd0:	2b104400 	sltu	v0,v0,a0
80038bd4:	2b004014 	bnez	v0,0x80038c84
80038bd8:	00000000 	nop
80038bdc:	080064ac 	sw	a0,8(v1)
80038be0:	2803228d 	lw	v0,808(t1)
80038be4:	00000000 	nop
80038be8:	01004224 	addiu	v0,v0,1
80038bec:	280322ad 	sw	v0,808(t1)
80038bf0:	0100c225 	addiu	v0,t6,1
80038bf4:	0800c2a4 	sh	v0,8(a2)
80038bf8:	01008225 	addiu	v0,t4,1
80038bfc:	0a00c2a4 	sh	v0,10(a2)
80038c00:	01004225 	addiu	v0,t2,1
80038c04:	0c00c2a4 	sh	v0,12(a2)
80038c08:	01000225 	addiu	v0,t0,1
80038c0c:	0e00c2a4 	sh	v0,14(a2)
80038c10:	0100a225 	addiu	v0,t5,1
80038c14:	1000c2a4 	sh	v0,16(a2)
80038c18:	01006225 	addiu	v0,t3,1
80038c1c:	0300d9a0 	sb	t9,3(a2)
80038c20:	0700d8a0 	sb	t8,7(a2)
80038c24:	1200c2a4 	sh	v0,18(a2)
80038c28:	0000a290 	lbu	v0,0(a1)
80038c2c:	00000000 	nop
80038c30:	0400c2a0 	sb	v0,4(a2)
80038c34:	0100a290 	lbu	v0,1(a1)
80038c38:	00000000 	nop
80038c3c:	0500c2a0 	sb	v0,5(a2)
80038c40:	0200a290 	lbu	v0,2(a1)
80038c44:	00000000 	nop
80038c48:	0600c2a0 	sb	v0,6(a2)
80038c4c:	e400228d 	lw	v0,228(t1)
80038c50:	0000c38c 	lw	v1,0(a2)
80038c54:	0000428c 	lw	v0,0(v0)
80038c58:	24186f00 	and	v1,v1,t7
80038c5c:	24104700 	and	v0,v0,a3
80038c60:	25186200 	or	v1,v1,v0
80038c64:	0000c3ac 	sw	v1,0(a2)
80038c68:	e400248d 	lw	a0,228(t1)
80038c6c:	00000000 	nop
80038c70:	0000828c 	lw	v0,0(a0)
80038c74:	2418c700 	and	v1,a2,a3
80038c78:	24104f00 	and	v0,v0,t7
80038c7c:	25104300 	or	v0,v0,v1
80038c80:	000082ac 	sw	v0,0(a0)
80038c84:	0800e003 	jr	ra
80038c88:	00000000 	nop
80038c8c:	d8ffbd27 	addiu	sp,sp,-40
80038c90:	0880023c 	lui	v0,0x8008
80038c94:	2000bfaf 	sw	ra,32(sp)
80038c98:	1c7f4624 	addiu	a2,v0,32540
80038c9c:	0300c388 	lwl	v1,3(a2)
80038ca0:	0000c398 	lwr	v1,0(a2)
80038ca4:	0700c488 	lwl	a0,7(a2)
80038ca8:	0400c498 	lwr	a0,4(a2)
80038cac:	1300a3ab 	swl	v1,19(sp)
80038cb0:	1000a3bb 	swr	v1,16(sp)
80038cb4:	1700a4ab 	swl	a0,23(sp)
80038cb8:	1400a4bb 	swr	a0,20(sp)
80038cbc:	0880023c 	lui	v0,0x8008
80038cc0:	2c7f4624 	addiu	a2,v0,32556
80038cc4:	0300c388 	lwl	v1,3(a2)
80038cc8:	0000c398 	lwr	v1,0(a2)
80038ccc:	00000000 	nop
80038cd0:	1b00a3ab 	swl	v1,27(sp)
80038cd4:	1800a3bb 	swr	v1,24(sp)
80038cd8:	0100033c 	lui	v1,0x1
80038cdc:	00806334 	ori	v1,v1,0x8000
80038ce0:	1680063c 	lui	a2,0x8016
80038ce4:	90d0c624 	addiu	a2,a2,-12144
80038ce8:	2118c300 	addu	v1,a2,v1
80038cec:	00800234 	li	v0,0x8000
80038cf0:	2110c200 	addu	v0,a2,v0
80038cf4:	c26c6390 	lbu	v1,27842(v1)
80038cf8:	fc02458c 	lw	a1,764(v0)
80038cfc:	40200300 	sll	a0,v1,0x1
80038d00:	21208300 	addu	a0,a0,v1
80038d04:	c0200400 	sll	a0,a0,0x3
80038d08:	23208300 	subu	a0,a0,v1
80038d0c:	80200400 	sll	a0,a0,0x2
80038d10:	43e7010c 	jal	0x80079d0c
80038d14:	21208600 	addu	a0,a0,a2
80038d18:	1000a427 	addiu	a0,sp,16
80038d1c:	1800a527 	addiu	a1,sp,24
80038d20:	88a0000c 	jal	0x80028220
80038d24:	01000624 	li	a2,1
80038d28:	02000424 	li	a0,2
80038d2c:	21280000 	move	a1,zero
80038d30:	aaa1000c 	jal	0x800286a8
80038d34:	2130a000 	move	a2,a1
80038d38:	2000bf8f 	lw	ra,32(sp)
80038d3c:	2800bd27 	addiu	sp,sp,40
80038d40:	0800e003 	jr	ra
80038d44:	00000000 	nop
80038d48:	e8ffbd27 	addiu	sp,sp,-24
80038d4c:	21408000 	move	t0,a0
80038d50:	2148a000 	move	t1,a1
80038d54:	2150c000 	move	t2,a2
80038d58:	801f043c 	lui	a0,0x1f80
80038d5c:	48038434 	ori	a0,a0,0x348
80038d60:	801f053c 	lui	a1,0x1f80
80038d64:	4403a534 	ori	a1,a1,0x344
80038d68:	01000624 	li	a2,1
80038d6c:	801f023c 	lui	v0,0x1f80
80038d70:	50000324 	li	v1,80
80038d74:	1000bfaf 	sw	ra,16(sp)
80038d78:	390343a0 	sb	v1,825(v0)
80038d7c:	380343a0 	sb	v1,824(v0)
80038d80:	60000324 	li	v1,96
80038d84:	3a0343a0 	sb	v1,826(v0)
80038d88:	28000324 	li	v1,40
80038d8c:	450343a0 	sb	v1,837(v0)
80038d90:	440343a0 	sb	v1,836(v0)
80038d94:	30000324 	li	v1,48
80038d98:	3c0348a4 	sh	t0,828(v0)
80038d9c:	02000825 	addiu	t0,t0,2
80038da0:	3e0349a4 	sh	t1,830(v0)
80038da4:	01002925 	addiu	t1,t1,1
80038da8:	40034aa4 	sh	t2,832(v0)
80038dac:	fcff4a25 	addiu	t2,t2,-4
80038db0:	420347a4 	sh	a3,834(v0)
80038db4:	feffe724 	addiu	a3,a3,-2
80038db8:	460343a0 	sb	v1,838(v0)
80038dbc:	480348a4 	sh	t0,840(v0)
80038dc0:	4a0349a4 	sh	t1,842(v0)
80038dc4:	4c034aa4 	sh	t2,844(v0)
80038dc8:	88a0000c 	jal	0x80028220
80038dcc:	4e0347a4 	sh	a3,846(v0)
80038dd0:	02000424 	li	a0,2
80038dd4:	21280000 	move	a1,zero
80038dd8:	aaa1000c 	jal	0x800286a8
80038ddc:	2130a000 	move	a2,a1
80038de0:	801f043c 	lui	a0,0x1f80
80038de4:	3c038434 	ori	a0,a0,0x33c
80038de8:	801f053c 	lui	a1,0x1f80
80038dec:	3803a534 	ori	a1,a1,0x338
80038df0:	88a0000c 	jal	0x80028220
80038df4:	01000624 	li	a2,1
80038df8:	21200000 	move	a0,zero
80038dfc:	21288000 	move	a1,a0
80038e00:	aaa1000c 	jal	0x800286a8
80038e04:	21308000 	move	a2,a0
80038e08:	1000bf8f 	lw	ra,16(sp)
80038e0c:	1800bd27 	addiu	sp,sp,24
80038e10:	0800e003 	jr	ra
80038e14:	00000000 	nop
80038e18:	98ffbd27 	addiu	sp,sp,-104
80038e1c:	5400b5af 	sw	s5,84(sp)
80038e20:	21a88000 	move	s5,a0
80038e24:	5000b4af 	sw	s4,80(sp)
80038e28:	21a0a000 	move	s4,a1
80038e2c:	5c00b7af 	sw	s7,92(sp)
80038e30:	21b8c000 	move	s7,a2
80038e34:	5800b6af 	sw	s6,88(sp)
80038e38:	21b0e000 	move	s6,a3
80038e3c:	0880023c 	lui	v0,0x8008
80038e40:	6400bfaf 	sw	ra,100(sp)
80038e44:	6000beaf 	sw	s8,96(sp)
80038e48:	4c00b3af 	sw	s3,76(sp)
80038e4c:	4800b2af 	sw	s2,72(sp)
80038e50:	4400b1af 	sw	s1,68(sp)
80038e54:	4000b0af 	sw	s0,64(sp)
80038e58:	307f4624 	addiu	a2,v0,32560
80038e5c:	0300c388 	lwl	v1,3(a2)
80038e60:	0000c398 	lwr	v1,0(a2)
80038e64:	00000000 	nop
80038e68:	2300a3ab 	swl	v1,35(sp)
80038e6c:	2000a3bb 	swr	v1,32(sp)
80038e70:	801f043c 	lui	a0,0x1f80
80038e74:	3c038434 	ori	a0,a0,0x33c
80038e78:	801f053c 	lui	a1,0x1f80
80038e7c:	5803a534 	ori	a1,a1,0x358
80038e80:	801f063c 	lui	a2,0x1f80
80038e84:	5c03c634 	ori	a2,a2,0x35c
80038e88:	21380000 	move	a3,zero
80038e8c:	801f1e3c 	lui	s8,0x1f80
80038e90:	10000224 	li	v0,16
80038e94:	4003c2a7 	sh	v0,832(s8)
80038e98:	4203c2a7 	sh	v0,834(s8)
80038e9c:	20020224 	li	v0,544
80038ea0:	5c03c2a7 	sh	v0,860(s8)
80038ea4:	f8010224 	li	v0,504
80038ea8:	5e03c2a7 	sh	v0,862(s8)
80038eac:	64020224 	li	v0,612
80038eb0:	5803c2a7 	sh	v0,856(s8)
80038eb4:	90010224 	li	v0,400
80038eb8:	01001224 	li	s2,1
80038ebc:	3c03d5a7 	sh	s5,828(s8)
80038ec0:	3e03d4a7 	sh	s4,830(s8)
80038ec4:	5a03c2a7 	sh	v0,858(s8)
80038ec8:	d9a0000c 	jal	0x80028364
80038ecc:	1000b2af 	sw	s2,16(sp)
80038ed0:	2120c003 	move	a0,s8
80038ed4:	3c038434 	ori	a0,a0,0x33c
80038ed8:	2128c003 	move	a1,s8
80038edc:	5803a534 	ori	a1,a1,0x358
80038ee0:	2130c003 	move	a2,s8
80038ee4:	5c03c634 	ori	a2,a2,0x35c
80038ee8:	21380000 	move	a3,zero
80038eec:	21809602 	addu	s0,s4,s6
80038ef0:	f0ff1326 	addiu	s3,s0,-16
80038ef4:	41001124 	li	s1,65
80038ef8:	3e03d3a7 	sh	s3,830(s8)
80038efc:	d9a0000c 	jal	0x80028364
80038f00:	1000b1af 	sw	s1,16(sp)
80038f04:	2120c003 	move	a0,s8
80038f08:	3c038434 	ori	a0,a0,0x33c
80038f0c:	2128c003 	move	a1,s8
80038f10:	5803a534 	ori	a1,a1,0x358
80038f14:	2130c003 	move	a2,s8
80038f18:	5c03c634 	ori	a2,a2,0x35c
80038f1c:	21380000 	move	a3,zero
80038f20:	2110b702 	addu	v0,s5,s7
80038f24:	f0ff4224 	addiu	v0,v0,-16
80038f28:	3800a2af 	sw	v0,56(sp)
80038f2c:	3800a897 	lhu	t0,56(sp)
80038f30:	6c020224 	li	v0,620
80038f34:	3e03d4a7 	sh	s4,830(s8)
80038f38:	5803c2a7 	sh	v0,856(s8)
80038f3c:	3c03c8a7 	sh	t0,828(s8)
80038f40:	d9a0000c 	jal	0x80028364
80038f44:	1000b2af 	sw	s2,16(sp)
80038f48:	2120c003 	move	a0,s8
80038f4c:	3c038434 	ori	a0,a0,0x33c
80038f50:	2128c003 	move	a1,s8
80038f54:	5803a534 	ori	a1,a1,0x358
80038f58:	2130c003 	move	a2,s8
80038f5c:	5c03c634 	ori	a2,a2,0x35c
80038f60:	21380000 	move	a3,zero
80038f64:	3e03d3a7 	sh	s3,830(s8)
80038f68:	d9a0000c 	jal	0x80028364
80038f6c:	1000b1af 	sw	s1,16(sp)
80038f70:	2120c003 	move	a0,s8
80038f74:	3c038434 	ori	a0,a0,0x33c
80038f78:	2128c003 	move	a1,s8
80038f7c:	5803a534 	ori	a1,a1,0x358
80038f80:	2130c003 	move	a2,s8
80038f84:	5c03c634 	ori	a2,a2,0x35c
80038f88:	21380000 	move	a3,zero
80038f8c:	10009326 	addiu	s3,s4,16
80038f90:	5c020224 	li	v0,604
80038f94:	3c03d5a7 	sh	s5,828(s8)
80038f98:	3e03d3a7 	sh	s3,830(s8)
80038f9c:	5803c2a7 	sh	v0,856(s8)
80038fa0:	d9a0000c 	jal	0x80028364
80038fa4:	1000b2af 	sw	s2,16(sp)
80038fa8:	2120c003 	move	a0,s8
80038fac:	3c038434 	ori	a0,a0,0x33c
80038fb0:	2128c003 	move	a1,s8
80038fb4:	5803a534 	ori	a1,a1,0x358
80038fb8:	2130c003 	move	a2,s8
80038fbc:	5c03c634 	ori	a2,a2,0x35c
80038fc0:	21380000 	move	a3,zero
80038fc4:	e0ff1026 	addiu	s0,s0,-32
80038fc8:	3e03d0a7 	sh	s0,830(s8)
80038fcc:	d9a0000c 	jal	0x80028364
80038fd0:	1000b1af 	sw	s1,16(sp)
80038fd4:	2120c003 	move	a0,s8
80038fd8:	3c038434 	ori	a0,a0,0x33c
80038fdc:	2128c003 	move	a1,s8
80038fe0:	5803a534 	ori	a1,a1,0x358
80038fe4:	2130c003 	move	a2,s8
80038fe8:	5c03c634 	ori	a2,a2,0x35c
80038fec:	21380000 	move	a3,zero
80038ff0:	3800a897 	lhu	t0,56(sp)
80038ff4:	54020224 	li	v0,596
80038ff8:	3e03d3a7 	sh	s3,830(s8)
80038ffc:	5803c2a7 	sh	v0,856(s8)
80039000:	3c03c8a7 	sh	t0,828(s8)
80039004:	d9a0000c 	jal	0x80028364
80039008:	1000b2af 	sw	s2,16(sp)
8003900c:	2120c003 	move	a0,s8
80039010:	3c038434 	ori	a0,a0,0x33c
80039014:	2128c003 	move	a1,s8
80039018:	5803a534 	ori	a1,a1,0x358
8003901c:	2130c003 	move	a2,s8
80039020:	5c03c634 	ori	a2,a2,0x35c
80039024:	21380000 	move	a3,zero
80039028:	3e03d0a7 	sh	s0,830(s8)
8003902c:	d9a0000c 	jal	0x80028364
80039030:	1000b1af 	sw	s1,16(sp)
80039034:	00141600 	sll	v0,s6,0x10
80039038:	031c0200 	sra	v1,v0,0x10
8003903c:	20008226 	addiu	v0,s4,32
80039040:	3e03c2a7 	sh	v0,830(s8)
80039044:	70020224 	li	v0,624
80039048:	3c03d5a7 	sh	s5,828(s8)
8003904c:	5803c2a7 	sh	v0,856(s8)
80039050:	2800b7a7 	sh	s7,40(sp)
80039054:	02006104 	bgez	v1,0x80039060
80039058:	3000b6a7 	sh	s6,48(sp)
8003905c:	0f006324 	addiu	v1,v1,15
80039060:	03110300 	sra	v0,v1,0x4
80039064:	fbff5124 	addiu	s1,v0,-5
80039068:	ffff0224 	li	v0,-1
8003906c:	1e002212 	beq	s1,v0,0x800390e8
80039070:	801f103c 	lui	s0,0x1f80
80039074:	801f133c 	lui	s3,0x1f80
80039078:	3c037336 	ori	s3,s3,0x33c
8003907c:	801f123c 	lui	s2,0x1f80
80039080:	58035236 	ori	s2,s2,0x358
80039084:	5c031036 	ori	s0,s0,0x35c
80039088:	3800b68f 	lw	s6,56(sp)
8003908c:	21206002 	move	a0,s3
80039090:	21284002 	move	a1,s2
80039094:	21300002 	move	a2,s0
80039098:	21380000 	move	a3,zero
8003909c:	21000224 	li	v0,33
800390a0:	3c03d5a7 	sh	s5,828(s8)
800390a4:	d9a0000c 	jal	0x80028364
800390a8:	1000a2af 	sw	v0,16(sp)
800390ac:	21206002 	move	a0,s3
800390b0:	21284002 	move	a1,s2
800390b4:	21300002 	move	a2,s0
800390b8:	21380000 	move	a3,zero
800390bc:	01000224 	li	v0,1
800390c0:	3c03d6a7 	sh	s6,828(s8)
800390c4:	d9a0000c 	jal	0x80028364
800390c8:	1000a2af 	sw	v0,16(sp)
800390cc:	3e03c297 	lhu	v0,830(s8)
800390d0:	ffff3126 	addiu	s1,s1,-1
800390d4:	10004224 	addiu	v0,v0,16
800390d8:	3e03c2a7 	sh	v0,830(s8)
800390dc:	ffff0224 	li	v0,-1
800390e0:	ebff2216 	bne	s1,v0,0x80039090
800390e4:	21206002 	move	a0,s3
800390e8:	2800a897 	lhu	t0,40(sp)
800390ec:	00000000 	nop
800390f0:	00140800 	sll	v0,t0,0x10
800390f4:	031c0200 	sra	v1,v0,0x10
800390f8:	1000a226 	addiu	v0,s5,16
800390fc:	3c03c2a7 	sh	v0,828(s8)
80039100:	68020224 	li	v0,616
80039104:	02006104 	bgez	v1,0x80039110
80039108:	5803c2a7 	sh	v0,856(s8)
8003910c:	0f006324 	addiu	v1,v1,15
80039110:	03110300 	sra	v0,v1,0x4
80039114:	fdff5024 	addiu	s0,v0,-3
80039118:	ffff0224 	li	v0,-1
8003911c:	1e000212 	beq	s0,v0,0x80039198
80039120:	00000000 	nop
80039124:	3c03d327 	addiu	s3,s8,828
80039128:	5803d227 	addiu	s2,s8,856
8003912c:	3000a897 	lhu	t0,48(sp)
80039130:	5c03d127 	addiu	s1,s8,860
80039134:	21108802 	addu	v0,s4,t0
80039138:	f0ff5624 	addiu	s6,v0,-16
8003913c:	21206002 	move	a0,s3
80039140:	21284002 	move	a1,s2
80039144:	21302002 	move	a2,s1
80039148:	21380000 	move	a3,zero
8003914c:	01000224 	li	v0,1
80039150:	3e03d4a7 	sh	s4,830(s8)
80039154:	d9a0000c 	jal	0x80028364
80039158:	1000a2af 	sw	v0,16(sp)
8003915c:	21206002 	move	a0,s3
80039160:	21284002 	move	a1,s2
80039164:	21302002 	move	a2,s1
80039168:	21380000 	move	a3,zero
8003916c:	41000224 	li	v0,65
80039170:	3e03d6a7 	sh	s6,830(s8)
80039174:	d9a0000c 	jal	0x80028364
80039178:	1000a2af 	sw	v0,16(sp)
8003917c:	3c03c297 	lhu	v0,828(s8)
80039180:	ffff1026 	addiu	s0,s0,-1
80039184:	10004224 	addiu	v0,v0,16
80039188:	3c03c2a7 	sh	v0,828(s8)
8003918c:	ffff0224 	li	v0,-1
80039190:	ebff0216 	bne	s0,v0,0x80039140
80039194:	21206002 	move	a0,s3
80039198:	2800a897 	lhu	t0,40(sp)
8003919c:	00000000 	nop
800391a0:	00140800 	sll	v0,t0,0x10
800391a4:	031c0200 	sra	v1,v0,0x10
800391a8:	1000a226 	addiu	v0,s5,16
800391ac:	3c03c2a7 	sh	v0,828(s8)
800391b0:	60020224 	li	v0,608
800391b4:	02006104 	bgez	v1,0x800391c0
800391b8:	5803c2a7 	sh	v0,856(s8)
800391bc:	0f006324 	addiu	v1,v1,15
800391c0:	03110300 	sra	v0,v1,0x4
800391c4:	fdff5024 	addiu	s0,v0,-3
800391c8:	ffff0224 	li	v0,-1
800391cc:	1f000212 	beq	s0,v0,0x8003924c
800391d0:	5c03d127 	addiu	s1,s8,860
800391d4:	10009726 	addiu	s7,s4,16
800391d8:	3c03d327 	addiu	s3,s8,828
800391dc:	5803d227 	addiu	s2,s8,856
800391e0:	3000a897 	lhu	t0,48(sp)
800391e4:	00000000 	nop
800391e8:	21108802 	addu	v0,s4,t0
800391ec:	e0ff5624 	addiu	s6,v0,-32
800391f0:	21206002 	move	a0,s3
800391f4:	21284002 	move	a1,s2
800391f8:	21302002 	move	a2,s1
800391fc:	21380000 	move	a3,zero
80039200:	01000224 	li	v0,1
80039204:	3e03d7a7 	sh	s7,830(s8)
80039208:	d9a0000c 	jal	0x80028364
8003920c:	1000a2af 	sw	v0,16(sp)
80039210:	21206002 	move	a0,s3
80039214:	21284002 	move	a1,s2
80039218:	21302002 	move	a2,s1
8003921c:	21380000 	move	a3,zero
80039220:	41000224 	li	v0,65
80039224:	3e03d6a7 	sh	s6,830(s8)
80039228:	d9a0000c 	jal	0x80028364
8003922c:	1000a2af 	sw	v0,16(sp)
80039230:	3c03c297 	lhu	v0,828(s8)
80039234:	ffff1026 	addiu	s0,s0,-1
80039238:	10004224 	addiu	v0,v0,16
8003923c:	3c03c2a7 	sh	v0,828(s8)
80039240:	ffff0224 	li	v0,-1
80039244:	ebff0216 	bne	s0,v0,0x800391f4
80039248:	21206002 	move	a0,s3
8003924c:	3000a897 	lhu	t0,48(sp)
80039250:	00000000 	nop
80039254:	00140800 	sll	v0,t0,0x10
80039258:	031c0200 	sra	v1,v0,0x10
8003925c:	20008226 	addiu	v0,s4,32
80039260:	3e03c2a7 	sh	v0,830(s8)
80039264:	58020224 	li	v0,600
80039268:	02006104 	bgez	v1,0x80039274
8003926c:	5803c2a7 	sh	v0,856(s8)
80039270:	0f006324 	addiu	v1,v1,15
80039274:	03110300 	sra	v0,v1,0x4
80039278:	fbff5124 	addiu	s1,v0,-5
8003927c:	ffff0224 	li	v0,-1
80039280:	22002212 	beq	s1,v0,0x8003930c
80039284:	1800a427 	addiu	a0,sp,24
80039288:	21984000 	move	s3,v0
8003928c:	01001624 	li	s6,1
80039290:	1000a226 	addiu	v0,s5,16
80039294:	3c03c2a7 	sh	v0,828(s8)
80039298:	2800a897 	lhu	t0,40(sp)
8003929c:	00000000 	nop
800392a0:	00140800 	sll	v0,t0,0x10
800392a4:	03140200 	sra	v0,v0,0x10
800392a8:	02004104 	bgez	v0,0x800392b4
800392ac:	00000000 	nop
800392b0:	0f004224 	addiu	v0,v0,15
800392b4:	03110200 	sra	v0,v0,0x4
800392b8:	fdff5024 	addiu	s0,v0,-3
800392bc:	0d001312 	beq	s0,s3,0x800392f4
800392c0:	00000000 	nop
800392c4:	ffff1224 	li	s2,-1
800392c8:	3c03c427 	addiu	a0,s8,828
800392cc:	5803c527 	addiu	a1,s8,856
800392d0:	5c03c627 	addiu	a2,s8,860
800392d4:	21380000 	move	a3,zero
800392d8:	d9a0000c 	jal	0x80028364
800392dc:	1000b6af 	sw	s6,16(sp)
800392e0:	3c03c297 	lhu	v0,828(s8)
800392e4:	ffff1026 	addiu	s0,s0,-1
800392e8:	10004224 	addiu	v0,v0,16
800392ec:	f6ff1216 	bne	s0,s2,0x800392c8
800392f0:	3c03c2a7 	sh	v0,828(s8)
800392f4:	3e03c297 	lhu	v0,830(s8)
800392f8:	ffff3126 	addiu	s1,s1,-1
800392fc:	10004224 	addiu	v0,v0,16
80039300:	e3ff3316 	bne	s1,s3,0x80039290
80039304:	3e03c2a7 	sh	v0,830(s8)
80039308:	1800a427 	addiu	a0,sp,24
8003930c:	2800a897 	lhu	t0,40(sp)
80039310:	2000a527 	addiu	a1,sp,32
80039314:	1c00a8a7 	sh	t0,28(sp)
80039318:	3000a897 	lhu	t0,48(sp)
8003931c:	01000624 	li	a2,1
80039320:	1800b5a7 	sh	s5,24(sp)
80039324:	1a00b4a7 	sh	s4,26(sp)
80039328:	88a0000c 	jal	0x80028220
8003932c:	1e00a8a7 	sh	t0,30(sp)
80039330:	02000424 	li	a0,2
80039334:	21280000 	move	a1,zero
80039338:	aaa1000c 	jal	0x800286a8
8003933c:	2130a000 	move	a2,a1
80039340:	6400bf8f 	lw	ra,100(sp)
80039344:	6000be8f 	lw	s8,96(sp)
80039348:	5c00b78f 	lw	s7,92(sp)
8003934c:	5800b68f 	lw	s6,88(sp)
80039350:	5400b58f 	lw	s5,84(sp)
80039354:	5000b48f 	lw	s4,80(sp)
80039358:	4c00b38f 	lw	s3,76(sp)
8003935c:	4800b28f 	lw	s2,72(sp)
80039360:	4400b18f 	lw	s1,68(sp)
80039364:	4000b08f 	lw	s0,64(sp)
80039368:	6800bd27 	addiu	sp,sp,104
8003936c:	0800e003 	jr	ra
80039370:	00000000 	nop
80039374:	88ffbd27 	addiu	sp,sp,-120
80039378:	0180023c 	lui	v0,0x8001
8003937c:	7000bfaf 	sw	ra,112(sp)
80039380:	6c00b5af 	sw	s5,108(sp)
80039384:	6800b4af 	sw	s4,104(sp)
80039388:	6400b3af 	sw	s3,100(sp)
8003938c:	6000b2af 	sw	s2,96(sp)
80039390:	5c00b1af 	sw	s1,92(sp)
80039394:	5800b0af 	sw	s0,88(sp)
80039398:	d0104624 	addiu	a2,v0,4304
8003939c:	0300c388 	lwl	v1,3(a2)
800393a0:	0000c398 	lwr	v1,0(a2)
800393a4:	0700c488 	lwl	a0,7(a2)
800393a8:	0400c498 	lwr	a0,4(a2)
800393ac:	0b00c588 	lwl	a1,11(a2)
800393b0:	0800c598 	lwr	a1,8(a2)
800393b4:	1b00a3ab 	swl	v1,27(sp)
800393b8:	1800a3bb 	swr	v1,24(sp)
800393bc:	1f00a4ab 	swl	a0,31(sp)
800393c0:	1c00a4bb 	swr	a0,28(sp)
800393c4:	2300a5ab 	swl	a1,35(sp)
800393c8:	2000a5bb 	swr	a1,32(sp)
800393cc:	0f00c388 	lwl	v1,15(a2)
800393d0:	0c00c398 	lwr	v1,12(a2)
800393d4:	00000000 	nop
800393d8:	2700a3ab 	swl	v1,39(sp)
800393dc:	2400a3bb 	swr	v1,36(sp)
800393e0:	0180023c 	lui	v0,0x8001
800393e4:	e0104624 	addiu	a2,v0,4320
800393e8:	0300c388 	lwl	v1,3(a2)
800393ec:	0000c398 	lwr	v1,0(a2)
800393f0:	0700c488 	lwl	a0,7(a2)
800393f4:	0400c498 	lwr	a0,4(a2)
800393f8:	0b00c588 	lwl	a1,11(a2)
800393fc:	0800c598 	lwr	a1,8(a2)
80039400:	2b00a3ab 	swl	v1,43(sp)
80039404:	2800a3bb 	swr	v1,40(sp)
80039408:	2f00a4ab 	swl	a0,47(sp)
8003940c:	2c00a4bb 	swr	a0,44(sp)
80039410:	3300a5ab 	swl	a1,51(sp)
80039414:	3000a5bb 	swr	a1,48(sp)
80039418:	0f00c388 	lwl	v1,15(a2)
8003941c:	0c00c398 	lwr	v1,12(a2)
80039420:	00000000 	nop
80039424:	3700a3ab 	swl	v1,55(sp)
80039428:	3400a3bb 	swr	v1,52(sp)
8003942c:	0180023c 	lui	v0,0x8001
80039430:	f0104624 	addiu	a2,v0,4336
80039434:	0300c388 	lwl	v1,3(a2)
80039438:	0000c398 	lwr	v1,0(a2)
8003943c:	0700c488 	lwl	a0,7(a2)
80039440:	0400c498 	lwr	a0,4(a2)
80039444:	0b00c588 	lwl	a1,11(a2)
80039448:	0800c598 	lwr	a1,8(a2)
8003944c:	3b00a3ab 	swl	v1,59(sp)
80039450:	3800a3bb 	swr	v1,56(sp)
80039454:	3f00a4ab 	swl	a0,63(sp)
80039458:	3c00a4bb 	swr	a0,60(sp)
8003945c:	4300a5ab 	swl	a1,67(sp)
80039460:	4000a5bb 	swr	a1,64(sp)
80039464:	0f00c388 	lwl	v1,15(a2)
80039468:	0c00c398 	lwr	v1,12(a2)
8003946c:	00000000 	nop
80039470:	4700a3ab 	swl	v1,71(sp)
80039474:	4400a3bb 	swr	v1,68(sp)
80039478:	0180023c 	lui	v0,0x8001
8003947c:	00114624 	addiu	a2,v0,4352
80039480:	0300c388 	lwl	v1,3(a2)
80039484:	0000c398 	lwr	v1,0(a2)
80039488:	0700c488 	lwl	a0,7(a2)
8003948c:	0400c498 	lwr	a0,4(a2)
80039490:	0b00c588 	lwl	a1,11(a2)
80039494:	0800c598 	lwr	a1,8(a2)
80039498:	4b00a3ab 	swl	v1,75(sp)
8003949c:	4800a3bb 	swr	v1,72(sp)
800394a0:	4f00a4ab 	swl	a0,79(sp)
800394a4:	4c00a4bb 	swr	a0,76(sp)
800394a8:	5300a5ab 	swl	a1,83(sp)
800394ac:	5000a5bb 	swr	a1,80(sp)
800394b0:	0f00c388 	lwl	v1,15(a2)
800394b4:	0c00c398 	lwr	v1,12(a2)
800394b8:	00000000 	nop
800394bc:	5700a3ab 	swl	v1,87(sp)
800394c0:	5400a3bb 	swr	v1,84(sp)
800394c4:	315d000c 	jal	0x800174c4
800394c8:	21a00000 	move	s4,zero
800394cc:	1e80023c 	lui	v0,0x801e
800394d0:	500d4224 	addiu	v0,v0,3408
800394d4:	000c5224 	addiu	s2,v0,3072
800394d8:	30001124 	li	s1,48
800394dc:	21804000 	move	s0,v0
800394e0:	801f153c 	lui	s5,0x1f80
800394e4:	48000224 	li	v0,72
800394e8:	0003a2a2 	sb	v0,768(s5)
800394ec:	0103a2a2 	sb	v0,769(s5)
800394f0:	0203a2a2 	sb	v0,770(s5)
800394f4:	62000224 	li	v0,98
800394f8:	0803a2a2 	sb	v0,776(s5)
800394fc:	42000224 	li	v0,66
80039500:	0903a2a2 	sb	v0,777(s5)
80039504:	21102002 	move	v0,s1
80039508:	0a03a2a2 	sb	v0,778(s5)
8003950c:	39000224 	li	v0,57
80039510:	0b03a2a2 	sb	v0,779(s5)
80039514:	0303a2a2 	sb	v0,771(s5)
80039518:	18000524 	li	a1,24
8003951c:	ffff2632 	andi	a2,s1,0xffff
80039520:	0003a726 	addiu	a3,s5,768
80039524:	10003126 	addiu	s1,s1,16
80039528:	00000496 	lhu	a0,0(s0)
8003952c:	02001026 	addiu	s0,s0,2
80039530:	01009426 	addiu	s4,s4,1
80039534:	cb9c000c 	jal	0x8002732c
80039538:	21209200 	addu	a0,a0,s2
8003953c:	0b00822a 	slti	v0,s4,11
80039540:	f6ff4014 	bnez	v0,0x8003951c
80039544:	18000524 	li	a1,24
80039548:	1a80023c 	lui	v0,0x801a
8003954c:	548f438c 	lw	v1,-28844(v0)
80039550:	00000000 	nop
80039554:	07006230 	andi	v0,v1,0x7
80039558:	07004010 	beqz	v0,0x80039578
8003955c:	6a000524 	li	a1,106
80039560:	70000624 	li	a2,112
80039564:	1e80043c 	lui	a0,0x801e
80039568:	500d8424 	addiu	a0,a0,3408
8003956c:	28008294 	lhu	v0,40(a0)
80039570:	86a70008 	j	0x80029e18
80039574:	0003a736 	ori	a3,s5,0x300
80039578:	18006230 	andi	v0,v1,0x18
8003957c:	07004010 	beqz	v0,0x8003959c
80039580:	5d000524 	li	a1,93
80039584:	70000624 	li	a2,112
80039588:	1e80043c 	lui	a0,0x801e
8003958c:	500d8424 	addiu	a0,a0,3408
80039590:	2a008294 	lhu	v0,42(a0)
80039594:	86a70008 	j	0x80029e18
80039598:	0003a736 	ori	a3,s5,0x300
8003959c:	60006230 	andi	v0,v1,0x60
800395a0:	07004010 	beqz	v0,0x800395c0
800395a4:	77000524 	li	a1,119
800395a8:	70000624 	li	a2,112
800395ac:	1e80043c 	lui	a0,0x801e
800395b0:	500d8424 	addiu	a0,a0,3408
800395b4:	2c008294 	lhu	v0,44(a0)
800395b8:	86a70008 	j	0x80029e18
800395bc:	0003a736 	ori	a3,s5,0x300
800395c0:	80006230 	andi	v0,v1,0x80
800395c4:	06004010 	beqz	v0,0x800395e0
800395c8:	70000624 	li	a2,112
800395cc:	1e80043c 	lui	a0,0x801e
800395d0:	500d8424 	addiu	a0,a0,3408
800395d4:	2e008294 	lhu	v0,46(a0)
800395d8:	86a70008 	j	0x80029e18
800395dc:	0003a736 	ori	a3,s5,0x300
800395e0:	00016230 	andi	v0,v1,0x100
800395e4:	07004010 	beqz	v0,0x80039604
800395e8:	6a000524 	li	a1,106
800395ec:	70000624 	li	a2,112
800395f0:	1e80043c 	lui	a0,0x801e
800395f4:	500d8424 	addiu	a0,a0,3408
800395f8:	30008294 	lhu	v0,48(a0)
800395fc:	86a70008 	j	0x80029e18
80039600:	0003a736 	ori	a3,s5,0x300
80039604:	70000624 	li	a2,112
80039608:	0003a736 	ori	a3,s5,0x300
8003960c:	1e80043c 	lui	a0,0x801e
80039610:	500d8424 	addiu	a0,a0,3408
80039614:	26008294 	lhu	v0,38(a0)
80039618:	000c8424 	addiu	a0,a0,3072
8003961c:	cb9c000c 	jal	0x8002732c
80039620:	21204400 	addu	a0,v0,a0
80039624:	1a80023c 	lui	v0,0x801a
80039628:	288f4524 	addiu	a1,v0,-28888
8003962c:	5800a394 	lhu	v1,88(a1)
80039630:	ffff0234 	li	v0,0xffff
80039634:	1e006210 	beq	v1,v0,0x800396b0
80039638:	40100300 	sll	v0,v1,0x1
8003963c:	1c80043c 	lui	a0,0x801c
80039640:	f8768424 	addiu	a0,a0,30456
80039644:	21104300 	addu	v0,v0,v1
80039648:	80100200 	sll	v0,v0,0x2
8003964c:	23104300 	subu	v0,v0,v1
80039650:	80100200 	sll	v0,v0,0x2
80039654:	21184400 	addu	v1,v0,a0
80039658:	3a016290 	lbu	v0,314(v1)
8003965c:	00000000 	nop
80039660:	0900422c 	sltiu	v0,v0,9
80039664:	12004014 	bnez	v0,0x800396b0
80039668:	02000224 	li	v0,2
8003966c:	3a016890 	lbu	t0,314(v1)
80039670:	00000000 	nop
80039674:	f7ff0325 	addiu	v1,t0,-9
80039678:	02006214 	bne	v1,v0,0x80039684
8003967c:	21200000 	move	a0,zero
80039680:	0e000424 	li	a0,14
80039684:	77000524 	li	a1,119
80039688:	2328a400 	subu	a1,a1,a0
8003968c:	ffffa530 	andi	a1,a1,0xffff
80039690:	d0000624 	li	a2,208
80039694:	1e80043c 	lui	a0,0x801e
80039698:	500d8424 	addiu	a0,a0,3408
8003969c:	40100800 	sll	v0,t0,0x1
800396a0:	21104400 	addu	v0,v0,a0
800396a4:	22004294 	lhu	v0,34(v0)
800396a8:	b2a70008 	j	0x80029ec8
800396ac:	0003a736 	ori	a3,s5,0x300
800396b0:	77000524 	li	a1,119
800396b4:	d0000624 	li	a2,208
800396b8:	0003a736 	ori	a3,s5,0x300
800396bc:	1e80043c 	lui	a0,0x801e
800396c0:	500d8424 	addiu	a0,a0,3408
800396c4:	32008294 	lhu	v0,50(a0)
800396c8:	000c8424 	addiu	a0,a0,3072
800396cc:	cb9c000c 	jal	0x8002732c
800396d0:	21204400 	addu	a0,v0,a0
800396d4:	21a00000 	move	s4,zero
800396d8:	1e80023c 	lui	v0,0x801e
800396dc:	500d4224 	addiu	v0,v0,3408
800396e0:	000c5224 	addiu	s2,v0,3072
800396e4:	5a001124 	li	s1,90
800396e8:	21804000 	move	s0,v0
800396ec:	ffff2632 	andi	a2,s1,0xffff
800396f0:	0803a726 	addiu	a3,s5,776
800396f4:	10003126 	addiu	s1,s1,16
800396f8:	16000496 	lhu	a0,22(s0)
800396fc:	02001026 	addiu	s0,s0,2
80039700:	40101400 	sll	v0,s4,0x1
80039704:	01009426 	addiu	s4,s4,1
80039708:	2110a203 	addu	v0,sp,v0
8003970c:	18004594 	lhu	a1,24(v0)
80039710:	21209200 	addu	a0,a0,s2
80039714:	ac00a524 	addiu	a1,a1,172
80039718:	cb9c000c 	jal	0x8002732c
8003971c:	ffffa530 	andi	a1,a1,0xffff
80039720:	0800822a 	slti	v0,s4,8
80039724:	f2ff4014 	bnez	v0,0x800396f0
80039728:	ffff2632 	andi	a2,s1,0xffff
8003972c:	4e000524 	li	a1,78
80039730:	30000624 	li	a2,48
80039734:	0003b026 	addiu	s0,s5,768
80039738:	21380002 	move	a3,s0
8003973c:	21a00000 	move	s4,zero
80039740:	1a80133c 	lui	s3,0x801a
80039744:	288f7226 	addiu	s2,s3,-28888
80039748:	02004496 	lhu	a0,2(s2)
8003974c:	0004113c 	lui	s1,0x400
80039750:	af9d000c 	jal	0x800276bc
80039754:	25209100 	or	a0,a0,s1
80039758:	0f000424 	li	a0,15
8003975c:	6a000524 	li	a1,106
80039760:	30000624 	li	a2,48
80039764:	b39b000c 	jal	0x80026ecc
80039768:	21380002 	move	a3,s0
8003976c:	78000524 	li	a1,120
80039770:	30000624 	li	a2,48
80039774:	288f6496 	lhu	a0,-28888(s3)
80039778:	21380002 	move	a3,s0
8003977c:	af9d000c 	jal	0x800276bc
80039780:	25209100 	or	a0,a0,s1
80039784:	4e000524 	li	a1,78
80039788:	40000624 	li	a2,64
8003978c:	06004496 	lhu	a0,6(s2)
80039790:	21380002 	move	a3,s0
80039794:	af9d000c 	jal	0x800276bc
80039798:	25209100 	or	a0,a0,s1
8003979c:	0f000424 	li	a0,15
800397a0:	6a000524 	li	a1,106
800397a4:	40000624 	li	a2,64
800397a8:	b39b000c 	jal	0x80026ecc
800397ac:	21380002 	move	a3,s0
800397b0:	78000524 	li	a1,120
800397b4:	40000624 	li	a2,64
800397b8:	04004496 	lhu	a0,4(s2)
800397bc:	21380002 	move	a3,s0
800397c0:	af9d000c 	jal	0x800276bc
800397c4:	25209100 	or	a0,a0,s1
800397c8:	4e000524 	li	a1,78
800397cc:	50000624 	li	a2,80
800397d0:	08004496 	lhu	a0,8(s2)
800397d4:	21380002 	move	a3,s0
800397d8:	af9d000c 	jal	0x800276bc
800397dc:	25209100 	or	a0,a0,s1
800397e0:	0f000424 	li	a0,15
800397e4:	6a000524 	li	a1,106
800397e8:	50000624 	li	a2,80
800397ec:	b39b000c 	jal	0x80026ecc
800397f0:	21380002 	move	a3,s0
800397f4:	21202002 	move	a0,s1
800397f8:	39138434 	ori	a0,a0,0x1339
800397fc:	78000524 	li	a1,120
80039800:	50000624 	li	a2,80
80039804:	af9d000c 	jal	0x800276bc
80039808:	21380002 	move	a3,s0
8003980c:	7f000524 	li	a1,127
80039810:	60000624 	li	a2,96
80039814:	1c80023c 	lui	v0,0x801c
80039818:	21380002 	move	a3,s0
8003981c:	9a764490 	lbu	a0,30362(v0)
80039820:	0003113c 	lui	s1,0x300
80039824:	7f008430 	andi	a0,a0,0x7f
80039828:	af9d000c 	jal	0x800276bc
8003982c:	25209100 	or	a0,a0,s1
80039830:	7f000524 	li	a1,127
80039834:	80000624 	li	a2,128
80039838:	10004496 	lhu	a0,16(s2)
8003983c:	21380002 	move	a3,s0
80039840:	af9d000c 	jal	0x800276bc
80039844:	25209100 	or	a0,a0,s1
80039848:	7f000524 	li	a1,127
8003984c:	90000624 	li	a2,144
80039850:	0e004496 	lhu	a0,14(s2)
80039854:	21380002 	move	a3,s0
80039858:	af9d000c 	jal	0x800276bc
8003985c:	25209100 	or	a0,a0,s1
80039860:	7f000524 	li	a1,127
80039864:	a0000624 	li	a2,160
80039868:	ba004496 	lhu	a0,186(s2)
8003986c:	21380002 	move	a3,s0
80039870:	af9d000c 	jal	0x800276bc
80039874:	25209100 	or	a0,a0,s1
80039878:	7f000524 	li	a1,127
8003987c:	b0000624 	li	a2,176
80039880:	bc004496 	lhu	a0,188(s2)
80039884:	21380002 	move	a3,s0
80039888:	af9d000c 	jal	0x800276bc
8003988c:	25209100 	or	a0,a0,s1
80039890:	7f000524 	li	a1,127
80039894:	c0000624 	li	a2,192
80039898:	be004496 	lhu	a0,190(s2)
8003989c:	21380002 	move	a3,s0
800398a0:	af9d000c 	jal	0x800276bc
800398a4:	25209100 	or	a0,a0,s1
800398a8:	3c03a436 	ori	a0,s5,0x33c
800398ac:	5803a536 	ori	a1,s5,0x358
800398b0:	5c03a636 	ori	a2,s5,0x35c
800398b4:	21388002 	move	a3,s4
800398b8:	6e020224 	li	v0,622
800398bc:	5803a2a6 	sh	v0,856(s5)
800398c0:	a0010224 	li	v0,416
800398c4:	5a03a2a6 	sh	v0,858(s5)
800398c8:	20020224 	li	v0,544
800398cc:	5c03a2a6 	sh	v0,860(s5)
800398d0:	ff010224 	li	v0,511
800398d4:	5e03a2a6 	sh	v0,862(s5)
800398d8:	c4000224 	li	v0,196
800398dc:	3c03a2a6 	sh	v0,828(s5)
800398e0:	36000224 	li	v0,54
800398e4:	3e03a2a6 	sh	v0,830(s5)
800398e8:	48000224 	li	v0,72
800398ec:	4003a2a6 	sh	v0,832(s5)
800398f0:	18000224 	li	v0,24
800398f4:	4203a2a6 	sh	v0,834(s5)
800398f8:	01000224 	li	v0,1
800398fc:	d9a0000c 	jal	0x80028364
80039900:	1000a2af 	sw	v0,16(sp)
80039904:	de02a296 	lhu	v0,734(s5)
80039908:	00000000 	nop
8003990c:	00140200 	sll	v0,v0,0x10
80039910:	03140200 	sra	v0,v0,0x10
80039914:	03008216 	bne	s4,v0,0x80039924
80039918:	2800a427 	addiu	a0,sp,40
8003991c:	4aa80008 	j	0x8002a128
80039920:	3800a527 	addiu	a1,sp,56
80039924:	4800a527 	addiu	a1,sp,72
80039928:	0ba3000c 	jal	0x80028c2c
8003992c:	01000624 	li	a2,1
80039930:	01009426 	addiu	s4,s4,1
80039934:	2a00a297 	lhu	v0,42(sp)
80039938:	2e00a397 	lhu	v1,46(sp)
8003993c:	10004224 	addiu	v0,v0,16
80039940:	2a00a2a7 	sh	v0,42(sp)
80039944:	3200a297 	lhu	v0,50(sp)
80039948:	10006324 	addiu	v1,v1,16
8003994c:	2e00a3a7 	sh	v1,46(sp)
80039950:	3600a397 	lhu	v1,54(sp)
80039954:	10004224 	addiu	v0,v0,16
80039958:	10006324 	addiu	v1,v1,16
8003995c:	3200a2a7 	sh	v0,50(sp)
80039960:	0800822a 	slti	v0,s4,8
80039964:	e7ff4014 	bnez	v0,0x80039904
80039968:	3600a3a7 	sh	v1,54(sp)
8003996c:	21200000 	move	a0,zero
80039970:	21288000 	move	a1,a0
80039974:	aaa1000c 	jal	0x800286a8
80039978:	21308000 	move	a2,a0
8003997c:	10000424 	li	a0,16
80039980:	24000524 	li	a1,36
80039984:	20010624 	li	a2,288
80039988:	86a5000c 	jal	0x80029618
8003998c:	c0000724 	li	a3,192
80039990:	695d000c 	jal	0x800175a4
80039994:	00000000 	nop
80039998:	23a5000c 	jal	0x8002948c
8003999c:	00000000 	nop
800399a0:	8d5d000c 	jal	0x80017634
800399a4:	00000000 	nop
800399a8:	7000bf8f 	lw	ra,112(sp)
800399ac:	6c00b58f 	lw	s5,108(sp)
800399b0:	6800b48f 	lw	s4,104(sp)
800399b4:	6400b38f 	lw	s3,100(sp)
800399b8:	6000b28f 	lw	s2,96(sp)
800399bc:	5c00b18f 	lw	s1,92(sp)
800399c0:	5800b08f 	lw	s0,88(sp)
800399c4:	7800bd27 	addiu	sp,sp,120
800399c8:	0800e003 	jr	ra
800399cc:	00000000 	nop
800399d0:	c8ffbd27 	addiu	sp,sp,-56
800399d4:	2c00b5af 	sw	s5,44(sp)
800399d8:	801f153c 	lui	s5,0x1f80
800399dc:	3400bfaf 	sw	ra,52(sp)
800399e0:	3000b6af 	sw	s6,48(sp)
800399e4:	2800b4af 	sw	s4,40(sp)
800399e8:	2400b3af 	sw	s3,36(sp)
800399ec:	2000b2af 	sw	s2,32(sp)
800399f0:	1c00b1af 	sw	s1,28(sp)
800399f4:	1800b0af 	sw	s0,24(sp)
800399f8:	e202a296 	lhu	v0,738(s5)
800399fc:	e002a396 	lhu	v1,736(s5)
80039a00:	00140200 	sll	v0,v0,0x10
80039a04:	03140200 	sra	v0,v0,0x10
80039a08:	001c0300 	sll	v1,v1,0x10
80039a0c:	031c0300 	sra	v1,v1,0x10
80039a10:	21104300 	addu	v0,v0,v1
80039a14:	1c00a38e 	lw	v1,28(s5)
80039a18:	40100200 	sll	v0,v0,0x1
80039a1c:	21104300 	addu	v0,v0,v1
80039a20:	00005084 	lh	s0,0(v0)
80039a24:	315d000c 	jal	0x800174c4
80039a28:	00000000 	nop
80039a2c:	48000224 	li	v0,72
80039a30:	1003a2a2 	sb	v0,784(s5)
80039a34:	0003a2a2 	sb	v0,768(s5)
80039a38:	1103a2a2 	sb	v0,785(s5)
80039a3c:	0103a2a2 	sb	v0,769(s5)
80039a40:	1203a2a2 	sb	v0,786(s5)
80039a44:	0203a2a2 	sb	v0,770(s5)
80039a48:	62000224 	li	v0,98
80039a4c:	0803a2a2 	sb	v0,776(s5)
80039a50:	42000224 	li	v0,66
80039a54:	0903a2a2 	sb	v0,777(s5)
80039a58:	30000224 	li	v0,48
80039a5c:	0a03a2a2 	sb	v0,778(s5)
80039a60:	39000224 	li	v0,57
80039a64:	0b03a2a2 	sb	v0,779(s5)
80039a68:	0303a2a2 	sb	v0,771(s5)
80039a6c:	e402a292 	lbu	v0,740(s5)
80039a70:	29000324 	li	v1,41
80039a74:	1000422c 	sltiu	v0,v0,16
80039a78:	05004010 	beqz	v0,0x80039a90
80039a7c:	1303a3a2 	sb	v1,787(s5)
80039a80:	e402a392 	lbu	v1,740(s5)
80039a84:	08000224 	li	v0,8
80039a88:	a7a80008 	j	0x8002a29c
80039a8c:	23104300 	subu	v0,v0,v1
80039a90:	e402a292 	lbu	v0,740(s5)
80039a94:	00000000 	nop
80039a98:	e8ff4224 	addiu	v0,v0,-24
80039a9c:	6003a2a6 	sh	v0,864(s5)
80039aa0:	3003a436 	ori	a0,s5,0x330
80039aa4:	2c03a536 	ori	a1,s5,0x32c
80039aa8:	01010624 	li	a2,257
80039aac:	01000724 	li	a3,1
80039ab0:	17000224 	li	v0,23
80039ab4:	3003a2a6 	sh	v0,816(s5)
80039ab8:	14010224 	li	v0,276
80039abc:	3403a2a6 	sh	v0,820(s5)
80039ac0:	6003a292 	lbu	v0,864(s5)
80039ac4:	6003a892 	lbu	t0,864(s5)
80039ac8:	1a000324 	li	v1,26
80039acc:	3603a3a6 	sh	v1,822(s5)
80039ad0:	e002a396 	lhu	v1,736(s5)
80039ad4:	05001424 	li	s4,5
80039ad8:	2e03a0a2 	sb	zero,814(s5)
80039adc:	80100200 	sll	v0,v0,0x2
80039ae0:	60004224 	addiu	v0,v0,96
80039ae4:	40400800 	sll	t0,t0,0x1
80039ae8:	30000825 	addiu	t0,t0,48
80039aec:	001c0300 	sll	v1,v1,0x10
80039af0:	031c0300 	sra	v1,v1,0x10
80039af4:	2c03a2a2 	sb	v0,812(s5)
80039af8:	40100300 	sll	v0,v1,0x1
80039afc:	21104300 	addu	v0,v0,v1
80039b00:	80100200 	sll	v0,v0,0x2
80039b04:	21104300 	addu	v0,v0,v1
80039b08:	40100200 	sll	v0,v0,0x1
80039b0c:	45004224 	addiu	v0,v0,69
80039b10:	2d03a8a2 	sb	t0,813(s5)
80039b14:	469f000c 	jal	0x80027d18
80039b18:	3203a2a6 	sh	v0,818(s5)
80039b1c:	01000424 	li	a0,1
80039b20:	21280000 	move	a1,zero
80039b24:	aaa1000c 	jal	0x800286a8
80039b28:	2130a000 	move	a2,a1
80039b2c:	18000324 	li	v1,24
80039b30:	1800a496 	lhu	a0,24(s5)
80039b34:	46000224 	li	v0,70
80039b38:	5003a3a6 	sh	v1,848(s5)
80039b3c:	5203a2a6 	sh	v0,850(s5)
80039b40:	5403a3a6 	sh	v1,852(s5)
80039b44:	00240400 	sll	a0,a0,0x10
80039b48:	03240400 	sra	a0,a0,0x10
80039b4c:	06008228 	slti	v0,a0,6
80039b50:	02004010 	beqz	v0,0x80039b5c
80039b54:	5603a3a6 	sh	v1,854(s5)
80039b58:	21a08000 	move	s4,a0
80039b5c:	0303a392 	lbu	v1,771(s5)
80039b60:	e002a296 	lhu	v0,736(s5)
80039b64:	80006334 	ori	v1,v1,0x80
80039b68:	00140200 	sll	v0,v0,0x10
80039b6c:	03140200 	sra	v0,v0,0x10
80039b70:	2a105400 	slt	v0,v0,s4
80039b74:	0b004010 	beqz	v0,0x80039ba4
80039b78:	0303a3a2 	sb	v1,771(s5)
80039b7c:	20000524 	li	a1,32
80039b80:	d0000624 	li	a2,208
80039b84:	0000a48e 	lw	a0,0(s5)
80039b88:	40101000 	sll	v0,s0,0x1
80039b8c:	21104400 	addu	v0,v0,a0
80039b90:	ec024294 	lhu	v0,748(v0)
80039b94:	0003a736 	ori	a3,s5,0x300
80039b98:	000c4224 	addiu	v0,v0,3072
80039b9c:	cb9c000c 	jal	0x8002732c
80039ba0:	21208200 	addu	a0,a0,v0
80039ba4:	3f00801a 	blez	s4,0x80039ca4
80039ba8:	21900000 	move	s2,zero
80039bac:	1c80023c 	lui	v0,0x801c
80039bb0:	90755624 	addiu	s6,v0,30096
80039bb4:	4c001324 	li	s3,76
80039bb8:	36000524 	li	a1,54
80039bbc:	ffff7132 	andi	s1,s3,0xffff
80039bc0:	21302002 	move	a2,s1
80039bc4:	e202a296 	lhu	v0,738(s5)
80039bc8:	1c00a38e 	lw	v1,28(s5)
80039bcc:	00140200 	sll	v0,v0,0x10
80039bd0:	03140200 	sra	v0,v0,0x10
80039bd4:	21105200 	addu	v0,v0,s2
80039bd8:	40100200 	sll	v0,v0,0x1
80039bdc:	21104300 	addu	v0,v0,v1
80039be0:	00005084 	lh	s0,0(v0)
80039be4:	0000a38e 	lw	v1,0(s5)
80039be8:	40101000 	sll	v0,s0,0x1
80039bec:	21104300 	addu	v0,v0,v1
80039bf0:	00004494 	lhu	a0,0(v0)
80039bf4:	0003a726 	addiu	a3,s5,768
80039bf8:	000c8424 	addiu	a0,a0,3072
80039bfc:	cb9c000c 	jal	0x8002732c
80039c00:	21206400 	addu	a0,v1,a0
80039c04:	12010524 	li	a1,274
80039c08:	21302002 	move	a2,s1
80039c0c:	21801602 	addu	s0,s0,s6
80039c10:	1003a726 	addiu	a3,s5,784
80039c14:	00000292 	lbu	v0,0(s0)
80039c18:	0002043c 	lui	a0,0x200
80039c1c:	7f004230 	andi	v0,v0,0x7f
80039c20:	109d000c 	jal	0x80027440
80039c24:	25204400 	or	a0,v0,a0
80039c28:	6666023c 	lui	v0,0x6666
80039c2c:	e202a596 	lhu	a1,738(s5)
80039c30:	67664234 	ori	v0,v0,0x6667
80039c34:	002c0500 	sll	a1,a1,0x10
80039c38:	032c0500 	sra	a1,a1,0x10
80039c3c:	2128b200 	addu	a1,a1,s2
80039c40:	1800a200 	mult	a1,v0
80039c44:	1a007326 	addiu	s3,s3,26
80039c48:	5003a426 	addiu	a0,s5,848
80039c4c:	21300000 	move	a2,zero
80039c50:	2138c000 	move	a3,a2
80039c54:	10000224 	li	v0,16
80039c58:	1000a2af 	sw	v0,16(sp)
80039c5c:	c3170500 	sra	v0,a1,0x1f
80039c60:	10480000 	mfhi	t1
80039c64:	43180900 	sra	v1,t1,0x1
80039c68:	23186200 	subu	v1,v1,v0
80039c6c:	80100300 	sll	v0,v1,0x2
80039c70:	21104300 	addu	v0,v0,v1
80039c74:	2328a200 	subu	a1,a1,v0
80039c78:	80280500 	sll	a1,a1,0x2
80039c7c:	0400a524 	addiu	a1,a1,4
80039c80:	d9a0000c 	jal	0x80028364
80039c84:	2128a502 	addu	a1,s5,a1
80039c88:	5203a296 	lhu	v0,850(s5)
80039c8c:	01005226 	addiu	s2,s2,1
80039c90:	1a004224 	addiu	v0,v0,26
80039c94:	5203a2a6 	sh	v0,850(s5)
80039c98:	2a105402 	slt	v0,s2,s4
80039c9c:	c7ff4014 	bnez	v0,0x80039bbc
80039ca0:	36000524 	li	a1,54
80039ca4:	3c03b426 	addiu	s4,s5,828
80039ca8:	21208002 	move	a0,s4
80039cac:	5803b326 	addiu	s3,s5,856
80039cb0:	21286002 	move	a1,s3
80039cb4:	5c03b226 	addiu	s2,s5,860
80039cb8:	21304002 	move	a2,s2
80039cbc:	21380000 	move	a3,zero
80039cc0:	20020224 	li	v0,544
80039cc4:	5c03a2a6 	sh	v0,860(s5)
80039cc8:	ff010224 	li	v0,511
80039ccc:	5e03a2a6 	sh	v0,862(s5)
80039cd0:	46000224 	li	v0,70
80039cd4:	3c03a2a6 	sh	v0,828(s5)
80039cd8:	2c000224 	li	v0,44
80039cdc:	3e03a2a6 	sh	v0,830(s5)
80039ce0:	23000224 	li	v0,35
80039ce4:	4003a2a6 	sh	v0,832(s5)
80039ce8:	10000224 	li	v0,16
80039cec:	4203a2a6 	sh	v0,834(s5)
80039cf0:	70020224 	li	v0,624
80039cf4:	c0011024 	li	s0,448
80039cf8:	5803a2a6 	sh	v0,856(s5)
80039cfc:	0303a292 	lbu	v0,771(s5)
80039d00:	03001124 	li	s1,3
80039d04:	5a03b0a6 	sh	s0,858(s5)
80039d08:	1000b1af 	sw	s1,16(sp)
80039d0c:	7f004230 	andi	v0,v0,0x7f
80039d10:	d9a0000c 	jal	0x80028364
80039d14:	0303a2a2 	sb	v0,771(s5)
80039d18:	21208002 	move	a0,s4
80039d1c:	21286002 	move	a1,s3
80039d20:	21304002 	move	a2,s2
80039d24:	21380000 	move	a3,zero
80039d28:	79020224 	li	v0,633
80039d2c:	5803a2a6 	sh	v0,856(s5)
80039d30:	20000224 	li	v0,32
80039d34:	3c03a2a6 	sh	v0,828(s5)
80039d38:	1e000224 	li	v0,30
80039d3c:	5a03b0a6 	sh	s0,858(s5)
80039d40:	4003a2a6 	sh	v0,832(s5)
80039d44:	d9a0000c 	jal	0x80028364
80039d48:	1000b1af 	sw	s1,16(sp)
80039d4c:	10000424 	li	a0,16
80039d50:	24000524 	li	a1,36
80039d54:	20010624 	li	a2,288
80039d58:	86a5000c 	jal	0x80029618
80039d5c:	c0000724 	li	a3,192
80039d60:	695d000c 	jal	0x800175a4
80039d64:	00000000 	nop
80039d68:	23a5000c 	jal	0x8002948c
80039d6c:	00000000 	nop
80039d70:	8d5d000c 	jal	0x80017634
80039d74:	00000000 	nop
80039d78:	3400bf8f 	lw	ra,52(sp)
80039d7c:	3000b68f 	lw	s6,48(sp)
80039d80:	2c00b58f 	lw	s5,44(sp)
80039d84:	2800b48f 	lw	s4,40(sp)
80039d88:	2400b38f 	lw	s3,36(sp)
80039d8c:	2000b28f 	lw	s2,32(sp)
80039d90:	1c00b18f 	lw	s1,28(sp)
80039d94:	1800b08f 	lw	s0,24(sp)
80039d98:	3800bd27 	addiu	sp,sp,56
80039d9c:	0800e003 	jr	ra
80039da0:	00000000 	nop
80039da4:	b0ffbd27 	addiu	sp,sp,-80
80039da8:	4c00bfaf 	sw	ra,76(sp)
80039dac:	4800beaf 	sw	s8,72(sp)
80039db0:	4400b7af 	sw	s7,68(sp)
80039db4:	4000b6af 	sw	s6,64(sp)
80039db8:	3c00b5af 	sw	s5,60(sp)
80039dbc:	3800b4af 	sw	s4,56(sp)
80039dc0:	3400b3af 	sw	s3,52(sp)
80039dc4:	3000b2af 	sw	s2,48(sp)
80039dc8:	2c00b1af 	sw	s1,44(sp)
80039dcc:	315d000c 	jal	0x800174c4
80039dd0:	2800b0af 	sw	s0,40(sp)
80039dd4:	21b80000 	move	s7,zero
80039dd8:	1e80023c 	lui	v0,0x801e
80039ddc:	500d4224 	addiu	v0,v0,3408
80039de0:	801f083c 	lui	t0,0x1f80
80039de4:	3c030835 	ori	t0,t0,0x33c
80039de8:	1800a8af 	sw	t0,24(sp)
80039dec:	801f083c 	lui	t0,0x1f80
80039df0:	58030835 	ori	t0,t0,0x358
80039df4:	1c00a8af 	sw	t0,28(sp)
80039df8:	801f083c 	lui	t0,0x1f80
80039dfc:	5c030835 	ori	t0,t0,0x35c
80039e00:	801f163c 	lui	s6,0x1f80
80039e04:	2000a8af 	sw	t0,32(sp)
80039e08:	44000824 	li	t0,68
80039e0c:	21f04000 	move	s8,v0
80039e10:	2198c002 	move	s3,s6
80039e14:	2a000224 	li	v0,42
80039e18:	2400a8af 	sw	t0,36(sp)
80039e1c:	100362a2 	sb	v0,784(s3)
80039e20:	000362a2 	sb	v0,768(s3)
80039e24:	110362a2 	sb	v0,785(s3)
80039e28:	010362a2 	sb	v0,769(s3)
80039e2c:	120362a2 	sb	v0,786(s3)
80039e30:	020362a2 	sb	v0,770(s3)
80039e34:	62000224 	li	v0,98
80039e38:	180362a2 	sb	v0,792(s3)
80039e3c:	080362a2 	sb	v0,776(s3)
80039e40:	42000224 	li	v0,66
80039e44:	190362a2 	sb	v0,793(s3)
80039e48:	090362a2 	sb	v0,777(s3)
80039e4c:	30000224 	li	v0,48
80039e50:	1a0362a2 	sb	v0,794(s3)
80039e54:	0a0362a2 	sb	v0,778(s3)
80039e58:	39000224 	li	v0,57
80039e5c:	0b0362a2 	sb	v0,779(s3)
80039e60:	030362a2 	sb	v0,771(s3)
80039e64:	29000224 	li	v0,41
80039e68:	1b0362a2 	sb	v0,795(s3)
80039e6c:	130362a2 	sb	v0,787(s3)
80039e70:	46000224 	li	v0,70
80039e74:	3e0362a6 	sh	v0,830(s3)
80039e78:	0a000224 	li	v0,10
80039e7c:	400362a6 	sh	v0,832(s3)
80039e80:	420362a6 	sh	v0,834(s3)
80039e84:	55020224 	li	v0,597
80039e88:	580362a6 	sh	v0,856(s3)
80039e8c:	b1010224 	li	v0,433
80039e90:	5a0362a6 	sh	v0,858(s3)
80039e94:	20020224 	li	v0,544
80039e98:	5c0362a6 	sh	v0,860(s3)
80039e9c:	f6010224 	li	v0,502
80039ea0:	5e0362a6 	sh	v0,862(s3)
80039ea4:	22006296 	lhu	v0,34(s3)
80039ea8:	00000000 	nop
80039eac:	00140200 	sll	v0,v0,0x10
80039eb0:	03140200 	sra	v0,v0,0x10
80039eb4:	04005714 	bne	v0,s7,0x80039ec8
80039eb8:	00037226 	addiu	s2,s3,768
80039ebc:	08037226 	addiu	s2,s3,776
80039ec0:	b3a90008 	j	0x8002a6cc
80039ec4:	18037526 	addiu	s5,s3,792
80039ec8:	10037526 	addiu	s5,s3,784
80039ecc:	22006296 	lhu	v0,34(s3)
80039ed0:	0700e326 	addiu	v1,s7,7
80039ed4:	00140200 	sll	v0,v0,0x10
80039ed8:	03140200 	sra	v0,v0,0x10
80039edc:	04004314 	bne	v0,v1,0x80039ef0
80039ee0:	00037126 	addiu	s1,s3,768
80039ee4:	08037126 	addiu	s1,s3,776
80039ee8:	bda90008 	j	0x8002a6f4
80039eec:	18037426 	addiu	s4,s3,792
80039ef0:	10037426 	addiu	s4,s3,784
80039ef4:	2e000524 	li	a1,46
80039ef8:	21384002 	move	a3,s2
80039efc:	0100f726 	addiu	s7,s7,1
80039f00:	2400b097 	lhu	s0,36(sp)
80039f04:	2400a88f 	lw	t0,36(sp)
80039f08:	21300002 	move	a2,s0
80039f0c:	14000825 	addiu	t0,t0,20
80039f10:	2400a8af 	sw	t0,36(sp)
80039f14:	1e80083c 	lui	t0,0x801e
80039f18:	2404c497 	lhu	a0,1060(s8)
80039f1c:	50190825 	addiu	t0,t0,6480
80039f20:	cb9c000c 	jal	0x8002732c
80039f24:	21208800 	addu	a0,a0,t0
80039f28:	aa000524 	li	a1,170
80039f2c:	21300002 	move	a2,s0
80039f30:	21382002 	move	a3,s1
80039f34:	3204c497 	lhu	a0,1074(s8)
80039f38:	0200de27 	addiu	s8,s8,2
80039f3c:	1e80083c 	lui	t0,0x801e
80039f40:	50190825 	addiu	t0,t0,6480
80039f44:	cb9c000c 	jal	0x8002732c
80039f48:	21208800 	addu	a0,a0,t0
80039f4c:	6c000524 	li	a1,108
80039f50:	21300002 	move	a2,s0
80039f54:	2138a002 	move	a3,s5
80039f58:	2400c486 	lh	a0,36(s6)
80039f5c:	4000c286 	lh	v0,64(s6)
80039f60:	0003083c 	lui	t0,0x300
80039f64:	21208200 	addu	a0,a0,v0
80039f68:	109d000c 	jal	0x80027440
80039f6c:	25208800 	or	a0,a0,t0
80039f70:	e8000524 	li	a1,232
80039f74:	21300002 	move	a2,s0
80039f78:	21388002 	move	a3,s4
80039f7c:	3200c486 	lh	a0,50(s6)
80039f80:	4e00c286 	lh	v0,78(s6)
80039f84:	0003083c 	lui	t0,0x300
80039f88:	21208200 	addu	a0,a0,v0
80039f8c:	109d000c 	jal	0x80027440
80039f90:	25208800 	or	a0,a0,t0
80039f94:	21384002 	move	a3,s2
80039f98:	8d000224 	li	v0,141
80039f9c:	1800a48f 	lw	a0,24(sp)
80039fa0:	1c00a58f 	lw	a1,28(sp)
80039fa4:	2000a68f 	lw	a2,32(sp)
80039fa8:	03001424 	li	s4,3
80039fac:	3c0362a6 	sh	v0,828(s3)
80039fb0:	d9a0000c 	jal	0x80028364
80039fb4:	1000b4af 	sw	s4,16(sp)
80039fb8:	21382002 	move	a3,s1
80039fbc:	1800a48f 	lw	a0,24(sp)
80039fc0:	1c00a58f 	lw	a1,28(sp)
80039fc4:	2000a68f 	lw	a2,32(sp)
80039fc8:	09010224 	li	v0,265
80039fcc:	3c0362a6 	sh	v0,828(s3)
80039fd0:	d9a0000c 	jal	0x80028364
80039fd4:	1000b4af 	sw	s4,16(sp)
80039fd8:	3e036296 	lhu	v0,830(s3)
80039fdc:	00000000 	nop
80039fe0:	14004224 	addiu	v0,v0,20
80039fe4:	3e0362a6 	sh	v0,830(s3)
80039fe8:	0700e22a 	slti	v0,s7,7
80039fec:	adff4014 	bnez	v0,0x80039ea4
80039ff0:	0200d626 	addiu	s6,s6,2
80039ff4:	38000524 	li	a1,56
80039ff8:	d0000624 	li	a2,208
80039ffc:	00036736 	ori	a3,s3,0x300
8003a000:	48000224 	li	v0,72
8003a004:	1e80043c 	lui	a0,0x801e
8003a008:	500d8424 	addiu	a0,a0,3408
8003a00c:	100362a2 	sb	v0,784(s3)
8003a010:	000362a2 	sb	v0,768(s3)
8003a014:	110362a2 	sb	v0,785(s3)
8003a018:	010362a2 	sb	v0,769(s3)
8003a01c:	120362a2 	sb	v0,786(s3)
8003a020:	020362a2 	sb	v0,770(s3)
8003a024:	40048294 	lhu	v0,1088(a0)
8003a028:	000c8424 	addiu	a0,a0,3072
8003a02c:	cb9c000c 	jal	0x8002732c
8003a030:	21204400 	addu	a0,v0,a0
8003a034:	f2000524 	li	a1,242
8003a038:	d0000624 	li	a2,208
8003a03c:	10036736 	ori	a3,s3,0x310
8003a040:	20006496 	lhu	a0,32(s3)
8003a044:	0002023c 	lui	v0,0x200
8003a048:	00240400 	sll	a0,a0,0x10
8003a04c:	03240400 	sra	a0,a0,0x10
8003a050:	109d000c 	jal	0x80027440
8003a054:	25208200 	or	a0,a0,v0
8003a058:	3c037226 	addiu	s2,s3,828
8003a05c:	21204002 	move	a0,s2
8003a060:	58037126 	addiu	s1,s3,856
8003a064:	21282002 	move	a1,s1
8003a068:	5c037026 	addiu	s0,s3,860
8003a06c:	21300002 	move	a2,s0
8003a070:	21380000 	move	a3,zero
8003a074:	20020224 	li	v0,544
8003a078:	5c0362a6 	sh	v0,860(s3)
8003a07c:	ff010224 	li	v0,511
8003a080:	5e0362a6 	sh	v0,862(s3)
8003a084:	46000224 	li	v0,70
8003a088:	3c0362a6 	sh	v0,828(s3)
8003a08c:	2c000224 	li	v0,44
8003a090:	3e0362a6 	sh	v0,830(s3)
8003a094:	4c000224 	li	v0,76
8003a098:	400362a6 	sh	v0,832(s3)
8003a09c:	10000224 	li	v0,16
8003a0a0:	420362a6 	sh	v0,834(s3)
8003a0a4:	6d020224 	li	v0,621
8003a0a8:	580362a6 	sh	v0,856(s3)
8003a0ac:	e0010224 	li	v0,480
8003a0b0:	5a0362a6 	sh	v0,858(s3)
8003a0b4:	d9a0000c 	jal	0x80028364
8003a0b8:	1000b4af 	sw	s4,16(sp)
8003a0bc:	21204002 	move	a0,s2
8003a0c0:	21282002 	move	a1,s1
8003a0c4:	21300002 	move	a2,s0
8003a0c8:	21380000 	move	a3,zero
8003a0cc:	79020224 	li	v0,633
8003a0d0:	580362a6 	sh	v0,856(s3)
8003a0d4:	c0010224 	li	v0,448
8003a0d8:	5a0362a6 	sh	v0,858(s3)
8003a0dc:	20000224 	li	v0,32
8003a0e0:	3c0362a6 	sh	v0,828(s3)
8003a0e4:	1e000224 	li	v0,30
8003a0e8:	400362a6 	sh	v0,832(s3)
8003a0ec:	d9a0000c 	jal	0x80028364
8003a0f0:	1000b4af 	sw	s4,16(sp)
8003a0f4:	10000424 	li	a0,16
8003a0f8:	24000524 	li	a1,36
8003a0fc:	20010624 	li	a2,288
8003a100:	86a5000c 	jal	0x80029618
8003a104:	c0000724 	li	a3,192
8003a108:	695d000c 	jal	0x800175a4
8003a10c:	00000000 	nop
8003a110:	23a5000c 	jal	0x8002948c
8003a114:	00000000 	nop
8003a118:	8d5d000c 	jal	0x80017634
8003a11c:	00000000 	nop
8003a120:	4c00bf8f 	lw	ra,76(sp)
8003a124:	4800be8f 	lw	s8,72(sp)
8003a128:	4400b78f 	lw	s7,68(sp)
8003a12c:	4000b68f 	lw	s6,64(sp)
8003a130:	3c00b58f 	lw	s5,60(sp)
8003a134:	3800b48f 	lw	s4,56(sp)
8003a138:	3400b38f 	lw	s3,52(sp)
8003a13c:	3000b28f 	lw	s2,48(sp)
8003a140:	2c00b18f 	lw	s1,44(sp)
8003a144:	2800b08f 	lw	s0,40(sp)
8003a148:	5000bd27 	addiu	sp,sp,80
8003a14c:	0800e003 	jr	ra
8003a150:	00000000 	nop
8003a154:	10ffbd27 	addiu	sp,sp,-240
8003a158:	1000a727 	addiu	a3,sp,16
8003a15c:	0180023c 	lui	v0,0x8001
8003a160:	10114624 	addiu	a2,v0,4368
8003a164:	d800b4af 	sw	s4,216(sp)
8003a168:	801f143c 	lui	s4,0x1f80
8003a16c:	0300c230 	andi	v0,a2,0x3
8003a170:	ec00bfaf 	sw	ra,236(sp)
8003a174:	e800beaf 	sw	s8,232(sp)
8003a178:	e400b7af 	sw	s7,228(sp)
8003a17c:	e000b6af 	sw	s6,224(sp)
8003a180:	dc00b5af 	sw	s5,220(sp)
8003a184:	d400b3af 	sw	s3,212(sp)
8003a188:	d000b2af 	sw	s2,208(sp)
8003a18c:	cc00b1af 	sw	s1,204(sp)
8003a190:	17004010 	beqz	v0,0x8003a1f0
8003a194:	c800b0af 	sw	s0,200(sp)
8003a198:	3000c824 	addiu	t0,a2,48
8003a19c:	0300c288 	lwl	v0,3(a2)
8003a1a0:	0000c298 	lwr	v0,0(a2)
8003a1a4:	0700c388 	lwl	v1,7(a2)
8003a1a8:	0400c398 	lwr	v1,4(a2)
8003a1ac:	0b00c488 	lwl	a0,11(a2)
8003a1b0:	0800c498 	lwr	a0,8(a2)
8003a1b4:	0f00c588 	lwl	a1,15(a2)
8003a1b8:	0c00c598 	lwr	a1,12(a2)
8003a1bc:	0300e2a8 	swl	v0,3(a3)
8003a1c0:	0000e2b8 	swr	v0,0(a3)
8003a1c4:	0700e3a8 	swl	v1,7(a3)
8003a1c8:	0400e3b8 	swr	v1,4(a3)
8003a1cc:	0b00e4a8 	swl	a0,11(a3)
8003a1d0:	0800e4b8 	swr	a0,8(a3)
8003a1d4:	0f00e5a8 	swl	a1,15(a3)
8003a1d8:	0c00e5b8 	swr	a1,12(a3)
8003a1dc:	1000c624 	addiu	a2,a2,16
8003a1e0:	eeffc814 	bne	a2,t0,0x8003a19c
8003a1e4:	1000e724 	addiu	a3,a3,16
8003a1e8:	89aa0008 	j	0x8002aa24
8003a1ec:	0880023c 	lui	v0,0x8008
8003a1f0:	3000c824 	addiu	t0,a2,48
8003a1f4:	0000c28c 	lw	v0,0(a2)
8003a1f8:	0400c38c 	lw	v1,4(a2)
8003a1fc:	0800c48c 	lw	a0,8(a2)
8003a200:	0c00c58c 	lw	a1,12(a2)
8003a204:	0000e2ac 	sw	v0,0(a3)
8003a208:	0400e3ac 	sw	v1,4(a3)
8003a20c:	0800e4ac 	sw	a0,8(a3)
8003a210:	0c00e5ac 	sw	a1,12(a3)
8003a214:	1000c624 	addiu	a2,a2,16
8003a218:	f6ffc814 	bne	a2,t0,0x8003a1f4
8003a21c:	1000e724 	addiu	a3,a3,16
8003a220:	0880023c 	lui	v0,0x8008
8003a224:	387f4624 	addiu	a2,v0,32568
8003a228:	0300c388 	lwl	v1,3(a2)
8003a22c:	0000c398 	lwr	v1,0(a2)
8003a230:	0700c488 	lwl	a0,7(a2)
8003a234:	0400c498 	lwr	a0,4(a2)
8003a238:	5300a3ab 	swl	v1,83(sp)
8003a23c:	5000a3bb 	swr	v1,80(sp)
8003a240:	5700a4ab 	swl	a0,87(sp)
8003a244:	5400a4bb 	swr	a0,84(sp)
8003a248:	0880023c 	lui	v0,0x8008
8003a24c:	407f4624 	addiu	a2,v0,32576
8003a250:	0300c388 	lwl	v1,3(a2)
8003a254:	0000c398 	lwr	v1,0(a2)
8003a258:	0700c488 	lwl	a0,7(a2)
8003a25c:	0400c498 	lwr	a0,4(a2)
8003a260:	5b00a3ab 	swl	v1,91(sp)
8003a264:	5800a3bb 	swr	v1,88(sp)
8003a268:	5f00a4ab 	swl	a0,95(sp)
8003a26c:	5c00a4bb 	swr	a0,92(sp)
8003a270:	0880023c 	lui	v0,0x8008
8003a274:	487f4624 	addiu	a2,v0,32584
8003a278:	0300c388 	lwl	v1,3(a2)
8003a27c:	0000c398 	lwr	v1,0(a2)
8003a280:	0700c488 	lwl	a0,7(a2)
8003a284:	0400c498 	lwr	a0,4(a2)
8003a288:	6300a3ab 	swl	v1,99(sp)
8003a28c:	6000a3bb 	swr	v1,96(sp)
8003a290:	6700a4ab 	swl	a0,103(sp)
8003a294:	6400a4bb 	swr	a0,100(sp)
8003a298:	0880023c 	lui	v0,0x8008
8003a29c:	507f4624 	addiu	a2,v0,32592
8003a2a0:	0300c388 	lwl	v1,3(a2)
8003a2a4:	0000c398 	lwr	v1,0(a2)
8003a2a8:	0700c488 	lwl	a0,7(a2)
8003a2ac:	0400c498 	lwr	a0,4(a2)
8003a2b0:	6b00a3ab 	swl	v1,107(sp)
8003a2b4:	6800a3bb 	swr	v1,104(sp)
8003a2b8:	6f00a4ab 	swl	a0,111(sp)
8003a2bc:	6c00a4bb 	swr	a0,108(sp)
8003a2c0:	0180023c 	lui	v0,0x8001
8003a2c4:	40114624 	addiu	a2,v0,4416
8003a2c8:	0300c230 	andi	v0,a2,0x3
8003a2cc:	17004010 	beqz	v0,0x8003a32c
8003a2d0:	7000a727 	addiu	a3,sp,112
8003a2d4:	5000c824 	addiu	t0,a2,80
8003a2d8:	0300c288 	lwl	v0,3(a2)
8003a2dc:	0000c298 	lwr	v0,0(a2)
8003a2e0:	0700c388 	lwl	v1,7(a2)
8003a2e4:	0400c398 	lwr	v1,4(a2)
8003a2e8:	0b00c488 	lwl	a0,11(a2)
8003a2ec:	0800c498 	lwr	a0,8(a2)
8003a2f0:	0f00c588 	lwl	a1,15(a2)
8003a2f4:	0c00c598 	lwr	a1,12(a2)
8003a2f8:	0300e2a8 	swl	v0,3(a3)
8003a2fc:	0000e2b8 	swr	v0,0(a3)
8003a300:	0700e3a8 	swl	v1,7(a3)
8003a304:	0400e3b8 	swr	v1,4(a3)
8003a308:	0b00e4a8 	swl	a0,11(a3)
8003a30c:	0800e4b8 	swr	a0,8(a3)
8003a310:	0f00e5a8 	swl	a1,15(a3)
8003a314:	0c00e5b8 	swr	a1,12(a3)
8003a318:	1000c624 	addiu	a2,a2,16
8003a31c:	eeffc814 	bne	a2,t0,0x8003a2d8
8003a320:	1000e724 	addiu	a3,a3,16
8003a324:	d7aa0008 	j	0x8002ab5c
8003a328:	00000000 	nop
8003a32c:	5000c824 	addiu	t0,a2,80
8003a330:	0000c28c 	lw	v0,0(a2)
8003a334:	0400c38c 	lw	v1,4(a2)
8003a338:	0800c48c 	lw	a0,8(a2)
8003a33c:	0c00c58c 	lw	a1,12(a2)
8003a340:	0000e2ac 	sw	v0,0(a3)
8003a344:	0400e3ac 	sw	v1,4(a3)
8003a348:	0800e4ac 	sw	a0,8(a3)
8003a34c:	0c00e5ac 	sw	a1,12(a3)
8003a350:	1000c624 	addiu	a2,a2,16
8003a354:	f6ffc814 	bne	a2,t0,0x8003a330
8003a358:	1000e724 	addiu	a3,a3,16
8003a35c:	0300c288 	lwl	v0,3(a2)
8003a360:	0000c298 	lwr	v0,0(a2)
8003a364:	00000000 	nop
8003a368:	0300e2a8 	swl	v0,3(a3)
8003a36c:	315d000c 	jal	0x800174c4
8003a370:	0000e2b8 	swr	v0,0(a3)
8003a374:	7400828f 	lw	v0,116(gp)
8003a378:	00000000 	nop
8003a37c:	10004228 	slti	v0,v0,16
8003a380:	04004010 	beqz	v0,0x8003a394
8003a384:	08000224 	li	v0,8
8003a388:	74008397 	lhu	v1,116(gp)
8003a38c:	e8aa0008 	j	0x8002aba0
8003a390:	23104300 	subu	v0,v0,v1
8003a394:	74008297 	lhu	v0,116(gp)
8003a398:	00000000 	nop
8003a39c:	e8ff4224 	addiu	v0,v0,-24
8003a3a0:	600382a6 	sh	v0,864(s4)
8003a3a4:	60038392 	lbu	v1,864(s4)
8003a3a8:	48000224 	li	v0,72
8003a3ac:	100382a2 	sb	v0,784(s4)
8003a3b0:	000382a2 	sb	v0,768(s4)
8003a3b4:	110382a2 	sb	v0,785(s4)
8003a3b8:	010382a2 	sb	v0,769(s4)
8003a3bc:	120382a2 	sb	v0,786(s4)
8003a3c0:	020382a2 	sb	v0,770(s4)
8003a3c4:	62000224 	li	v0,98
8003a3c8:	180382a2 	sb	v0,792(s4)
8003a3cc:	080382a2 	sb	v0,776(s4)
8003a3d0:	42000224 	li	v0,66
8003a3d4:	190382a2 	sb	v0,793(s4)
8003a3d8:	090382a2 	sb	v0,777(s4)
8003a3dc:	30000224 	li	v0,48
8003a3e0:	1a0382a2 	sb	v0,794(s4)
8003a3e4:	0a0382a2 	sb	v0,778(s4)
8003a3e8:	39000224 	li	v0,57
8003a3ec:	0b0382a2 	sb	v0,779(s4)
8003a3f0:	030382a2 	sb	v0,771(s4)
8003a3f4:	29000224 	li	v0,41
8003a3f8:	1b0382a2 	sb	v0,795(s4)
8003a3fc:	130382a2 	sb	v0,787(s4)
8003a400:	60038292 	lbu	v0,864(s4)
8003a404:	2e0380a2 	sb	zero,814(s4)
8003a408:	80180300 	sll	v1,v1,0x2
8003a40c:	60006324 	addiu	v1,v1,96
8003a410:	80100200 	sll	v0,v0,0x2
8003a414:	2c0383a2 	sb	v1,812(s4)
8003a418:	0980033c 	lui	v1,0x8009
8003a41c:	a8816394 	lhu	v1,-32344(v1)
8003a420:	30004224 	addiu	v0,v0,48
8003a424:	8d006010 	beqz	v1,0x8003a65c
8003a428:	2d0382a2 	sb	v0,813(s4)
8003a42c:	21900000 	move	s2,zero
8003a430:	1e80023c 	lui	v0,0x801e
8003a434:	500d5524 	addiu	s5,v0,3408
8003a438:	000cb626 	addiu	s6,s5,3072
8003a43c:	08039e26 	addiu	s8,s4,776
8003a440:	00039726 	addiu	s7,s4,768
8003a444:	36001124 	li	s1,54
8003a448:	21988002 	move	s3,s4
8003a44c:	0800638e 	lw	v1,8(s3)
8003a450:	00000000 	nop
8003a454:	5a006228 	slti	v0,v1,90
8003a458:	15004014 	bnez	v0,0x8003a4b0
8003a45c:	59000224 	li	v0,89
8003a460:	63000224 	li	v0,99
8003a464:	04006214 	bne	v1,v0,0x8003a478
8003a468:	35000524 	li	a1,53
8003a46c:	d204a496 	lhu	a0,1234(s5)
8003a470:	31ab0008 	j	0x8002acc4
8003a474:	ffff2632 	andi	a2,s1,0xffff
8003a478:	0400828e 	lw	v0,4(s4)
8003a47c:	00000000 	nop
8003a480:	07006214 	bne	v1,v0,0x8003a4a0
8003a484:	40100300 	sll	v0,v1,0x1
8003a488:	35000524 	li	a1,53
8003a48c:	ffff2632 	andi	a2,s1,0xffff
8003a490:	21105500 	addu	v0,v0,s5
8003a494:	10044494 	lhu	a0,1040(v0)
8003a498:	32ab0008 	j	0x8002acc8
8003a49c:	08038726 	addiu	a3,s4,776
8003a4a0:	21105500 	addu	v0,v0,s5
8003a4a4:	10044494 	lhu	a0,1040(v0)
8003a4a8:	31ab0008 	j	0x8002acc4
8003a4ac:	ffff2632 	andi	a2,s1,0xffff
8003a4b0:	09006214 	bne	v1,v0,0x8003a4d8
8003a4b4:	1b80023c 	lui	v0,0x801b
8003a4b8:	43000524 	li	a1,67
8003a4bc:	ffff2632 	andi	a2,s1,0xffff
8003a4c0:	d404a496 	lhu	a0,1236(s5)
8003a4c4:	00038726 	addiu	a3,s4,768
8003a4c8:	cb9c000c 	jal	0x8002732c
8003a4cc:	21209600 	addu	a0,a0,s6
8003a4d0:	91ab0008 	j	0x8002ae44
8003a4d4:	10003126 	addiu	s1,s1,16
8003a4d8:	29594290 	lbu	v0,22825(v0)
8003a4dc:	00000000 	nop
8003a4e0:	2c006214 	bne	v1,v0,0x8003a594
8003a4e4:	43000524 	li	a1,67
8003a4e8:	ffff3032 	andi	s0,s1,0xffff
8003a4ec:	21300002 	move	a2,s0
8003a4f0:	40100300 	sll	v0,v1,0x1
8003a4f4:	21105500 	addu	v0,v0,s5
8003a4f8:	78054494 	lhu	a0,1400(v0)
8003a4fc:	2138c003 	move	a3,s8
8003a500:	cb9c000c 	jal	0x8002732c
8003a504:	21209600 	addu	a0,a0,s6
8003a508:	1d80093c 	lui	t1,0x801d
8003a50c:	0800638e 	lw	v1,8(s3)
8003a510:	08ba2925 	addiu	t1,t1,-17912
8003a514:	21106900 	addu	v0,v1,t1
8003a518:	e4164290 	lbu	v0,5860(v0)
8003a51c:	00000000 	nop
8003a520:	40200200 	sll	a0,v0,0x1
8003a524:	21208200 	addu	a0,a0,v0
8003a528:	c0200400 	sll	a0,a0,0x3
8003a52c:	21208200 	addu	a0,a0,v0
8003a530:	2110a303 	addu	v0,sp,v1
8003a534:	10004290 	lbu	v0,16(v0)
8003a538:	80200400 	sll	a0,a0,0x2
8003a53c:	1a008200 	div	zero,a0,v0
8003a540:	02004014 	bnez	v0,0x8003a54c
8003a544:	00000000 	nop
8003a548:	0d000700 	break	0x7
8003a54c:	ffff0124 	li	at,-1
8003a550:	04004114 	bne	v0,at,0x8003a564
8003a554:	0080013c 	lui	at,0x8000
8003a558:	02008114 	bne	a0,at,0x8003a564
8003a55c:	00000000 	nop
8003a560:	0d000600 	break	0x6
8003a564:	12200000 	mflo	a0
8003a568:	df000524 	li	a1,223
8003a56c:	21300002 	move	a2,s0
8003a570:	18038726 	addiu	a3,s4,792
8003a574:	0003023c 	lui	v0,0x300
8003a578:	109d000c 	jal	0x80027440
8003a57c:	25208200 	or	a0,a0,v0
8003a580:	50000424 	li	a0,80
8003a584:	00010524 	li	a1,256
8003a588:	21300002 	move	a2,s0
8003a58c:	8fab0008 	j	0x8002ae3c
8003a590:	2138c003 	move	a3,s8
8003a594:	ffff3032 	andi	s0,s1,0xffff
8003a598:	21300002 	move	a2,s0
8003a59c:	40100300 	sll	v0,v1,0x1
8003a5a0:	21105500 	addu	v0,v0,s5
8003a5a4:	78054494 	lhu	a0,1400(v0)
8003a5a8:	2138e002 	move	a3,s7
8003a5ac:	cb9c000c 	jal	0x8002732c
8003a5b0:	21209600 	addu	a0,a0,s6
8003a5b4:	1d80093c 	lui	t1,0x801d
8003a5b8:	0800638e 	lw	v1,8(s3)
8003a5bc:	08ba2925 	addiu	t1,t1,-17912
8003a5c0:	21106900 	addu	v0,v1,t1
8003a5c4:	e4164290 	lbu	v0,5860(v0)
8003a5c8:	00000000 	nop
8003a5cc:	40200200 	sll	a0,v0,0x1
8003a5d0:	21208200 	addu	a0,a0,v0
8003a5d4:	c0200400 	sll	a0,a0,0x3
8003a5d8:	21208200 	addu	a0,a0,v0
8003a5dc:	2110a303 	addu	v0,sp,v1
8003a5e0:	10004290 	lbu	v0,16(v0)
8003a5e4:	80200400 	sll	a0,a0,0x2
8003a5e8:	1a008200 	div	zero,a0,v0
8003a5ec:	02004014 	bnez	v0,0x8003a5f8
8003a5f0:	00000000 	nop
8003a5f4:	0d000700 	break	0x7
8003a5f8:	ffff0124 	li	at,-1
8003a5fc:	04004114 	bne	v0,at,0x8003a610
8003a600:	0080013c 	lui	at,0x8000
8003a604:	02008114 	bne	a0,at,0x8003a610
8003a608:	00000000 	nop
8003a60c:	0d000600 	break	0x6
8003a610:	12200000 	mflo	a0
8003a614:	df000524 	li	a1,223
8003a618:	21300002 	move	a2,s0
8003a61c:	10038726 	addiu	a3,s4,784
8003a620:	0003023c 	lui	v0,0x300
8003a624:	109d000c 	jal	0x80027440
8003a628:	25208200 	or	a0,a0,v0
8003a62c:	50000424 	li	a0,80
8003a630:	00010524 	li	a1,256
8003a634:	21300002 	move	a2,s0
8003a638:	2138e002 	move	a3,s7
8003a63c:	b39b000c 	jal	0x80026ecc
8003a640:	10003126 	addiu	s1,s1,16
8003a644:	01005226 	addiu	s2,s2,1
8003a648:	0a00422a 	slti	v0,s2,10
8003a64c:	7fff4014 	bnez	v0,0x8003a44c
8003a650:	04007326 	addiu	s3,s3,4
8003a654:	44ac0008 	j	0x8002b110
8003a658:	00000000 	nop
8003a65c:	48000524 	li	a1,72
8003a660:	35000624 	li	a2,53
8003a664:	08038736 	ori	a3,s4,0x308
8003a668:	01001224 	li	s2,1
8003a66c:	1e80023c 	lui	v0,0x801e
8003a670:	500d4224 	addiu	v0,v0,3408
8003a674:	000c4324 	addiu	v1,v0,3072
8003a678:	21986000 	move	s3,v1
8003a67c:	5d001124 	li	s1,93
8003a680:	b0044494 	lhu	a0,1200(v0)
8003a684:	02005024 	addiu	s0,v0,2
8003a688:	cb9c000c 	jal	0x8002732c
8003a68c:	21209300 	addu	a0,a0,s3
8003a690:	48000524 	li	a1,72
8003a694:	ffff2632 	andi	a2,s1,0xffff
8003a698:	08038726 	addiu	a3,s4,776
8003a69c:	1e003126 	addiu	s1,s1,30
8003a6a0:	b0040496 	lhu	a0,1200(s0)
8003a6a4:	02001026 	addiu	s0,s0,2
8003a6a8:	01005226 	addiu	s2,s2,1
8003a6ac:	cb9c000c 	jal	0x8002732c
8003a6b0:	21209300 	addu	a0,a0,s3
8003a6b4:	0500422a 	slti	v0,s2,5
8003a6b8:	f6ff4014 	bnez	v0,0x8003a694
8003a6bc:	48000524 	li	a1,72
8003a6c0:	0400838e 	lw	v1,4(s4)
8003a6c4:	ffff0224 	li	v0,-1
8003a6c8:	19006210 	beq	v1,v0,0x8003a730
8003a6cc:	56000524 	li	a1,86
8003a6d0:	42000624 	li	a2,66
8003a6d4:	00039226 	addiu	s2,s4,768
8003a6d8:	21384002 	move	a3,s2
8003a6dc:	1e80103c 	lui	s0,0x801e
8003a6e0:	500d1026 	addiu	s0,s0,3408
8003a6e4:	40100300 	sll	v0,v1,0x1
8003a6e8:	21105000 	addu	v0,v0,s0
8003a6ec:	10044494 	lhu	a0,1040(v0)
8003a6f0:	000c1126 	addiu	s1,s0,3072
8003a6f4:	cb9c000c 	jal	0x8002732c
8003a6f8:	21209100 	addu	a0,a0,s1
8003a6fc:	4f000624 	li	a2,79
8003a700:	1b80023c 	lui	v0,0x801b
8003a704:	29594290 	lbu	v0,22825(v0)
8003a708:	21384002 	move	a3,s2
8003a70c:	40100200 	sll	v0,v0,0x1
8003a710:	21805000 	addu	s0,v0,s0
8003a714:	2110a203 	addu	v0,sp,v0
8003a718:	78050496 	lhu	a0,1400(s0)
8003a71c:	70004594 	lhu	a1,112(v0)
8003a720:	21209100 	addu	a0,a0,s1
8003a724:	6400a524 	addiu	a1,a1,100
8003a728:	d8ab0008 	j	0x8002af60
8003a72c:	ffffa530 	andi	a1,a1,0xffff
8003a730:	64000524 	li	a1,100
8003a734:	49000624 	li	a2,73
8003a738:	00038736 	ori	a3,s4,0x300
8003a73c:	1e80043c 	lui	a0,0x801e
8003a740:	1b80023c 	lui	v0,0x801b
8003a744:	29594290 	lbu	v0,22825(v0)
8003a748:	500d8424 	addiu	a0,a0,3408
8003a74c:	40100200 	sll	v0,v0,0x1
8003a750:	21104400 	addu	v0,v0,a0
8003a754:	78054294 	lhu	v0,1400(v0)
8003a758:	000c8424 	addiu	a0,a0,3072
8003a75c:	21204400 	addu	a0,v0,a0
8003a760:	cb9c000c 	jal	0x8002732c
8003a764:	10039226 	addiu	s2,s4,784
8003a768:	b3000524 	li	a1,179
8003a76c:	6b000624 	li	a2,107
8003a770:	21384002 	move	a3,s2
8003a774:	1a80103c 	lui	s0,0x801a
8003a778:	288f1026 	addiu	s0,s0,-28888
8003a77c:	27000492 	lbu	a0,39(s0)
8003a780:	0003113c 	lui	s1,0x300
8003a784:	109d000c 	jal	0x80027440
8003a788:	25209100 	or	a0,a0,s1
8003a78c:	0f000424 	li	a0,15
8003a790:	d5000524 	li	a1,213
8003a794:	6b000624 	li	a2,107
8003a798:	00039326 	addiu	s3,s4,768
8003a79c:	b39b000c 	jal	0x80026ecc
8003a7a0:	21386002 	move	a3,s3
8003a7a4:	21202002 	move	a0,s1
8003a7a8:	63008434 	ori	a0,a0,0x63
8003a7ac:	dd000524 	li	a1,221
8003a7b0:	6b000624 	li	a2,107
8003a7b4:	109d000c 	jal	0x80027440
8003a7b8:	21384002 	move	a3,s2
8003a7bc:	b3000524 	li	a1,179
8003a7c0:	8a000624 	li	a2,138
8003a7c4:	28000496 	lhu	a0,40(s0)
8003a7c8:	21384002 	move	a3,s2
8003a7cc:	109d000c 	jal	0x80027440
8003a7d0:	25209100 	or	a0,a0,s1
8003a7d4:	0f000424 	li	a0,15
8003a7d8:	d5000524 	li	a1,213
8003a7dc:	8a000624 	li	a2,138
8003a7e0:	b39b000c 	jal	0x80026ecc
8003a7e4:	21386002 	move	a3,s3
8003a7e8:	21202002 	move	a0,s1
8003a7ec:	09018434 	ori	a0,a0,0x109
8003a7f0:	dd000524 	li	a1,221
8003a7f4:	8a000624 	li	a2,138
8003a7f8:	109d000c 	jal	0x80027440
8003a7fc:	21384002 	move	a3,s2
8003a800:	b3000524 	li	a1,179
8003a804:	a8000624 	li	a2,168
8003a808:	30000496 	lhu	a0,48(s0)
8003a80c:	21384002 	move	a3,s2
8003a810:	109d000c 	jal	0x80027440
8003a814:	25209100 	or	a0,a0,s1
8003a818:	0f000424 	li	a0,15
8003a81c:	d5000524 	li	a1,213
8003a820:	a8000624 	li	a2,168
8003a824:	b39b000c 	jal	0x80026ecc
8003a828:	21386002 	move	a3,s3
8003a82c:	21202002 	move	a0,s1
8003a830:	76028434 	ori	a0,a0,0x276
8003a834:	dd000524 	li	a1,221
8003a838:	a8000624 	li	a2,168
8003a83c:	109d000c 	jal	0x80027440
8003a840:	21384002 	move	a3,s2
8003a844:	3400028e 	lw	v0,52(s0)
8003a848:	8888033c 	lui	v1,0x8888
8003a84c:	89886334 	ori	v1,v1,0x8889
8003a850:	19004300 	multu	v0,v1
8003a854:	10480000 	mfhi	t1
8003a858:	42210900 	srl	a0,t1,0x5
8003a85c:	00000000 	nop
8003a860:	19008300 	multu	a0,v1
8003a864:	c7000524 	li	a1,199
8003a868:	c6000624 	li	a2,198
8003a86c:	21384002 	move	a3,s2
8003a870:	10480000 	mfhi	t1
8003a874:	42a90900 	srl	s5,t1,0x5
8003a878:	2118a002 	move	v1,s5
8003a87c:	00110300 	sll	v0,v1,0x4
8003a880:	23104300 	subu	v0,v0,v1
8003a884:	80100200 	sll	v0,v0,0x2
8003a888:	23a88200 	subu	s5,a0,v0
8003a88c:	ffff6330 	andi	v1,v1,0xffff
8003a890:	0002043c 	lui	a0,0x200
8003a894:	109d000c 	jal	0x80027440
8003a898:	25206400 	or	a0,v1,a0
8003a89c:	1b000424 	li	a0,27
8003a8a0:	e0000524 	li	a1,224
8003a8a4:	c6000624 	li	a2,198
8003a8a8:	b39b000c 	jal	0x80026ecc
8003a8ac:	21386002 	move	a3,s3
8003a8b0:	6666023c 	lui	v0,0x6666
8003a8b4:	67664234 	ori	v0,v0,0x6667
8003a8b8:	1800a202 	mult	s5,v0
8003a8bc:	e7000524 	li	a1,231
8003a8c0:	c6000624 	li	a2,198
8003a8c4:	21384002 	move	a3,s2
8003a8c8:	c3171500 	sra	v0,s5,0x1f
8003a8cc:	0001113c 	lui	s1,0x100
8003a8d0:	10480000 	mfhi	t1
8003a8d4:	83800900 	sra	s0,t1,0x2
8003a8d8:	23800202 	subu	s0,s0,v0
8003a8dc:	ffff0432 	andi	a0,s0,0xffff
8003a8e0:	109d000c 	jal	0x80027440
8003a8e4:	25209100 	or	a0,a0,s1
8003a8e8:	80201000 	sll	a0,s0,0x2
8003a8ec:	21209000 	addu	a0,a0,s0
8003a8f0:	40200400 	sll	a0,a0,0x1
8003a8f4:	2320a402 	subu	a0,s5,a0
8003a8f8:	ffff8430 	andi	a0,a0,0xffff
8003a8fc:	25209100 	or	a0,a0,s1
8003a900:	f1000524 	li	a1,241
8003a904:	c6000624 	li	a2,198
8003a908:	109d000c 	jal	0x80027440
8003a90c:	21384002 	move	a3,s2
8003a910:	7400848f 	lw	a0,116(gp)
8003a914:	00000000 	nop
8003a918:	01008324 	addiu	v1,a0,1
8003a91c:	02006104 	bgez	v1,0x8003a928
8003a920:	21106000 	move	v0,v1
8003a924:	20008224 	addiu	v0,a0,32
8003a928:	43110200 	sra	v0,v0,0x5
8003a92c:	40110200 	sll	v0,v0,0x5
8003a930:	23106200 	subu	v0,v1,v0
8003a934:	740082af 	sw	v0,116(gp)
8003a938:	10004228 	slti	v0,v0,16
8003a93c:	04004010 	beqz	v0,0x8003a950
8003a940:	08000224 	li	v0,8
8003a944:	74008397 	lhu	v1,116(gp)
8003a948:	57ac0008 	j	0x8002b15c
8003a94c:	23104300 	subu	v0,v0,v1
8003a950:	74008297 	lhu	v0,116(gp)
8003a954:	00000000 	nop
8003a958:	e8ff4224 	addiu	v0,v0,-24
8003a95c:	80100200 	sll	v0,v0,0x2
8003a960:	0980033c 	lui	v1,0x8009
8003a964:	a8816394 	lhu	v1,-32344(v1)
8003a968:	60004224 	addiu	v0,v0,96
8003a96c:	4000a2a3 	sb	v0,64(sp)
8003a970:	4100a2a3 	sb	v0,65(sp)
8003a974:	21006010 	beqz	v1,0x8003a9fc
8003a978:	4200a2a3 	sb	v0,66(sp)
8003a97c:	0980023c 	lui	v0,0x8009
8003a980:	8c81428c 	lw	v0,-32372(v0)
8003a984:	00000000 	nop
8003a988:	0c004010 	beqz	v0,0x8003a9bc
8003a98c:	3c038436 	ori	a0,s4,0x33c
8003a990:	2c038536 	ori	a1,s4,0x32c
8003a994:	000c0624 	li	a2,3072
8003a998:	a0000224 	li	v0,160
8003a99c:	3c0382a6 	sh	v0,828(s4)
8003a9a0:	2b000224 	li	v0,43
8003a9a4:	3e0382a6 	sh	v0,830(s4)
8003a9a8:	10000224 	li	v0,16
8003a9ac:	400382a6 	sh	v0,832(s4)
8003a9b0:	08000224 	li	v0,8
8003a9b4:	5ba4000c 	jal	0x8002916c
8003a9b8:	420382a6 	sh	v0,834(s4)
8003a9bc:	0980033c 	lui	v1,0x8009
8003a9c0:	8c81638c 	lw	v1,-32372(v1)
8003a9c4:	19000224 	li	v0,25
8003a9c8:	0c006210 	beq	v1,v0,0x8003a9fc
8003a9cc:	3c038436 	ori	a0,s4,0x33c
8003a9d0:	2c038536 	ori	a1,s4,0x32c
8003a9d4:	00040624 	li	a2,1024
8003a9d8:	a0000224 	li	v0,160
8003a9dc:	3c0382a6 	sh	v0,828(s4)
8003a9e0:	dc000224 	li	v0,220
8003a9e4:	3e0382a6 	sh	v0,830(s4)
8003a9e8:	10000224 	li	v0,16
8003a9ec:	400382a6 	sh	v0,832(s4)
8003a9f0:	08000224 	li	v0,8
8003a9f4:	5ba4000c 	jal	0x8002916c
8003a9f8:	420382a6 	sh	v0,834(s4)
8003a9fc:	1c000224 	li	v0,28
8003aa00:	3c0382a6 	sh	v0,828(s4)
8003aa04:	30000224 	li	v0,48
8003aa08:	3e0382a6 	sh	v0,830(s4)
8003aa0c:	08010224 	li	v0,264
8003aa10:	400382a6 	sh	v0,832(s4)
8003aa14:	a8000224 	li	v0,168
8003aa18:	420382a6 	sh	v0,834(s4)
8003aa1c:	50000224 	li	v0,80
8003aa20:	380382a2 	sb	v0,824(s4)
8003aa24:	58000224 	li	v0,88
8003aa28:	390382a2 	sb	v0,825(s4)
8003aa2c:	0980033c 	lui	v1,0x8009
8003aa30:	a8816394 	lhu	v1,-32344(v1)
8003aa34:	60000224 	li	v0,96
8003aa38:	05006010 	beqz	v1,0x8003aa50
8003aa3c:	3a0382a2 	sb	v0,826(s4)
8003aa40:	6000a427 	addiu	a0,sp,96
8003aa44:	2c038536 	ori	a1,s4,0x32c
8003aa48:	97ac0008 	j	0x8002b25c
8003aa4c:	00080624 	li	a2,2048
8003aa50:	5800a427 	addiu	a0,sp,88
8003aa54:	2c038536 	ori	a1,s4,0x32c
8003aa58:	21300000 	move	a2,zero
8003aa5c:	5ba4000c 	jal	0x8002916c
8003aa60:	00000000 	nop
8003aa64:	01000424 	li	a0,1
8003aa68:	21280000 	move	a1,zero
8003aa6c:	aaa1000c 	jal	0x800286a8
8003aa70:	2130a000 	move	a2,a1
8003aa74:	3c038436 	ori	a0,s4,0x33c
8003aa78:	38038536 	ori	a1,s4,0x338
8003aa7c:	01010624 	li	a2,257
8003aa80:	469f000c 	jal	0x80027d18
8003aa84:	01000724 	li	a3,1
8003aa88:	10000424 	li	a0,16
8003aa8c:	24000524 	li	a1,36
8003aa90:	20010624 	li	a2,288
8003aa94:	86a5000c 	jal	0x80029618
8003aa98:	c0000724 	li	a3,192
8003aa9c:	695d000c 	jal	0x800175a4
8003aaa0:	00000000 	nop
8003aaa4:	23a5000c 	jal	0x8002948c
8003aaa8:	00000000 	nop
8003aaac:	8d5d000c 	jal	0x80017634
8003aab0:	00000000 	nop
8003aab4:	ec00bf8f 	lw	ra,236(sp)
8003aab8:	e800be8f 	lw	s8,232(sp)
8003aabc:	e400b78f 	lw	s7,228(sp)
8003aac0:	e000b68f 	lw	s6,224(sp)
8003aac4:	dc00b58f 	lw	s5,220(sp)
8003aac8:	d800b48f 	lw	s4,216(sp)
8003aacc:	d400b38f 	lw	s3,212(sp)
8003aad0:	d000b28f 	lw	s2,208(sp)
8003aad4:	cc00b18f 	lw	s1,204(sp)
8003aad8:	c800b08f 	lw	s0,200(sp)
8003aadc:	f000bd27 	addiu	sp,sp,240
8003aae0:	0800e003 	jr	ra
8003aae4:	00000000 	nop
8003aae8:	68ffbd27 	addiu	sp,sp,-152
8003aaec:	1800a427 	addiu	a0,sp,24
8003aaf0:	21280000 	move	a1,zero
8003aaf4:	04000624 	li	a2,4
8003aaf8:	9400bfaf 	sw	ra,148(sp)
8003aafc:	9000b6af 	sw	s6,144(sp)
8003ab00:	8c00b5af 	sw	s5,140(sp)
8003ab04:	8800b4af 	sw	s4,136(sp)
8003ab08:	8400b3af 	sw	s3,132(sp)
8003ab0c:	8000b2af 	sw	s2,128(sp)
8003ab10:	7c00b1af 	sw	s1,124(sp)
8003ab14:	ade2010c 	jal	0x80078ab4
8003ab18:	7800b0af 	sw	s0,120(sp)
8003ab1c:	0880023c 	lui	v0,0x8008
8003ab20:	587f4624 	addiu	a2,v0,32600
8003ab24:	0300c388 	lwl	v1,3(a2)
8003ab28:	0000c398 	lwr	v1,0(a2)
8003ab2c:	00000000 	nop
8003ab30:	2300a3ab 	swl	v1,35(sp)
8003ab34:	2000a3bb 	swr	v1,32(sp)
8003ab38:	0880023c 	lui	v0,0x8008
8003ab3c:	5c7f4624 	addiu	a2,v0,32604
8003ab40:	0300c388 	lwl	v1,3(a2)
8003ab44:	0000c398 	lwr	v1,0(a2)
8003ab48:	00000000 	nop
8003ab4c:	2b00a3ab 	swl	v1,43(sp)
8003ab50:	2800a3bb 	swr	v1,40(sp)
8003ab54:	0880023c 	lui	v0,0x8008
8003ab58:	2c7f4624 	addiu	a2,v0,32556
8003ab5c:	0300c388 	lwl	v1,3(a2)
8003ab60:	0000c398 	lwr	v1,0(a2)
8003ab64:	00000000 	nop
8003ab68:	3300a3ab 	swl	v1,51(sp)
8003ab6c:	3000a3bb 	swr	v1,48(sp)
8003ab70:	0180023c 	lui	v0,0x8001
8003ab74:	94114624 	addiu	a2,v0,4500
8003ab78:	0300c388 	lwl	v1,3(a2)
8003ab7c:	0000c398 	lwr	v1,0(a2)
8003ab80:	0700c488 	lwl	a0,7(a2)
8003ab84:	0400c498 	lwr	a0,4(a2)
8003ab88:	0b00c588 	lwl	a1,11(a2)
8003ab8c:	0800c598 	lwr	a1,8(a2)
8003ab90:	3b00a3ab 	swl	v1,59(sp)
8003ab94:	3800a3bb 	swr	v1,56(sp)
8003ab98:	3f00a4ab 	swl	a0,63(sp)
8003ab9c:	3c00a4bb 	swr	a0,60(sp)
8003aba0:	4300a5ab 	swl	a1,67(sp)
8003aba4:	4000a5bb 	swr	a1,64(sp)
8003aba8:	0f00c388 	lwl	v1,15(a2)
8003abac:	0c00c398 	lwr	v1,12(a2)
8003abb0:	00000000 	nop
8003abb4:	4700a3ab 	swl	v1,71(sp)
8003abb8:	4400a3bb 	swr	v1,68(sp)
8003abbc:	0180023c 	lui	v0,0x8001
8003abc0:	f0104624 	addiu	a2,v0,4336
8003abc4:	0300c388 	lwl	v1,3(a2)
8003abc8:	0000c398 	lwr	v1,0(a2)
8003abcc:	0700c488 	lwl	a0,7(a2)
8003abd0:	0400c498 	lwr	a0,4(a2)
8003abd4:	0b00c588 	lwl	a1,11(a2)
8003abd8:	0800c598 	lwr	a1,8(a2)
8003abdc:	4b00a3ab 	swl	v1,75(sp)
8003abe0:	4800a3bb 	swr	v1,72(sp)
8003abe4:	4f00a4ab 	swl	a0,79(sp)
8003abe8:	4c00a4bb 	swr	a0,76(sp)
8003abec:	5300a5ab 	swl	a1,83(sp)
8003abf0:	5000a5bb 	swr	a1,80(sp)
8003abf4:	0f00c388 	lwl	v1,15(a2)
8003abf8:	0c00c398 	lwr	v1,12(a2)
8003abfc:	00000000 	nop
8003ac00:	5700a3ab 	swl	v1,87(sp)
8003ac04:	5400a3bb 	swr	v1,84(sp)
8003ac08:	0180023c 	lui	v0,0x8001
8003ac0c:	00114624 	addiu	a2,v0,4352
8003ac10:	0300c388 	lwl	v1,3(a2)
8003ac14:	0000c398 	lwr	v1,0(a2)
8003ac18:	0700c488 	lwl	a0,7(a2)
8003ac1c:	0400c498 	lwr	a0,4(a2)
8003ac20:	0b00c588 	lwl	a1,11(a2)
8003ac24:	0800c598 	lwr	a1,8(a2)
8003ac28:	5b00a3ab 	swl	v1,91(sp)
8003ac2c:	5800a3bb 	swr	v1,88(sp)
8003ac30:	5f00a4ab 	swl	a0,95(sp)
8003ac34:	5c00a4bb 	swr	a0,92(sp)
8003ac38:	6300a5ab 	swl	a1,99(sp)
8003ac3c:	6000a5bb 	swr	a1,96(sp)
8003ac40:	0f00c388 	lwl	v1,15(a2)
8003ac44:	0c00c398 	lwr	v1,12(a2)
8003ac48:	00000000 	nop
8003ac4c:	6700a3ab 	swl	v1,103(sp)
8003ac50:	6400a3bb 	swr	v1,100(sp)
8003ac54:	0180023c 	lui	v0,0x8001
8003ac58:	a4114624 	addiu	a2,v0,4516
8003ac5c:	0300c388 	lwl	v1,3(a2)
8003ac60:	0000c398 	lwr	v1,0(a2)
8003ac64:	0700c488 	lwl	a0,7(a2)
8003ac68:	0400c498 	lwr	a0,4(a2)
8003ac6c:	0b00c588 	lwl	a1,11(a2)
8003ac70:	0800c598 	lwr	a1,8(a2)
8003ac74:	6b00a3ab 	swl	v1,107(sp)
8003ac78:	6800a3bb 	swr	v1,104(sp)
8003ac7c:	6f00a4ab 	swl	a0,111(sp)
8003ac80:	6c00a4bb 	swr	a0,108(sp)
8003ac84:	7300a5ab 	swl	a1,115(sp)
8003ac88:	7000a5bb 	swr	a1,112(sp)
8003ac8c:	315d000c 	jal	0x800174c4
8003ac90:	50001124 	li	s1,80
8003ac94:	0882083c 	lui	t0,0x8208
8003ac98:	83200835 	ori	t0,t0,0x2083
8003ac9c:	801f043c 	lui	a0,0x1f80
8003aca0:	3c038434 	ori	a0,a0,0x33c
8003aca4:	801f053c 	lui	a1,0x1f80
8003aca8:	5803a534 	ori	a1,a1,0x358
8003acac:	801f063c 	lui	a2,0x1f80
8003acb0:	5c03c634 	ori	a2,a2,0x35c
8003acb4:	21380000 	move	a3,zero
8003acb8:	2198e000 	move	s3,a3
8003acbc:	801f123c 	lui	s2,0x1f80
8003acc0:	48000224 	li	v0,72
8003acc4:	000342a2 	sb	v0,768(s2)
8003acc8:	010342a2 	sb	v0,769(s2)
8003accc:	020342a2 	sb	v0,770(s2)
8003acd0:	62000224 	li	v0,98
8003acd4:	080342a2 	sb	v0,776(s2)
8003acd8:	42000224 	li	v0,66
8003acdc:	090342a2 	sb	v0,777(s2)
8003ace0:	30000224 	li	v0,48
8003ace4:	0a0342a2 	sb	v0,778(s2)
8003ace8:	18000224 	li	v0,24
8003acec:	0c0342a2 	sb	v0,780(s2)
8003acf0:	0d0342a2 	sb	v0,781(s2)
8003acf4:	0e0342a2 	sb	v0,782(s2)
8003acf8:	39000224 	li	v0,57
8003acfc:	0f0342a2 	sb	v0,783(s2)
8003ad00:	0b0342a2 	sb	v0,779(s2)
8003ad04:	030342a2 	sb	v0,771(s2)
8003ad08:	58020224 	li	v0,600
8003ad0c:	580342a6 	sh	v0,856(s2)
8003ad10:	1d80023c 	lui	v0,0x801d
8003ad14:	21d14290 	lbu	v0,-11999(v0)
8003ad18:	a0011024 	li	s0,416
8003ad1c:	80180200 	sll	v1,v0,0x2
8003ad20:	21186200 	addu	v1,v1,v0
8003ad24:	80180300 	sll	v1,v1,0x2
8003ad28:	21186200 	addu	v1,v1,v0
8003ad2c:	80180300 	sll	v1,v1,0x2
8003ad30:	23186200 	subu	v1,v1,v0
8003ad34:	18006800 	mult	v1,t0
8003ad38:	5a0350a6 	sh	s0,858(s2)
8003ad3c:	20020224 	li	v0,544
8003ad40:	5c0342a6 	sh	v0,860(s2)
8003ad44:	ff010224 	li	v0,511
8003ad48:	5e0342a6 	sh	v0,862(s2)
8003ad4c:	53000224 	li	v0,83
8003ad50:	3e0342a6 	sh	v0,830(s2)
8003ad54:	05000224 	li	v0,5
8003ad58:	400342a6 	sh	v0,832(s2)
8003ad5c:	420342a6 	sh	v0,834(s2)
8003ad60:	1000a0af 	sw	zero,16(sp)
8003ad64:	10480000 	mfhi	t1
8003ad68:	21102301 	addu	v0,t1,v1
8003ad6c:	43110200 	sra	v0,v0,0x5
8003ad70:	c31f0300 	sra	v1,v1,0x1f
8003ad74:	23104300 	subu	v0,v0,v1
8003ad78:	b4004224 	addiu	v0,v0,180
8003ad7c:	d9a0000c 	jal	0x80028364
8003ad80:	3c0342a6 	sh	v0,828(s2)
8003ad84:	21204002 	move	a0,s2
8003ad88:	3c038434 	ori	a0,a0,0x33c
8003ad8c:	21284002 	move	a1,s2
8003ad90:	5803a534 	ori	a1,a1,0x358
8003ad94:	21304002 	move	a2,s2
8003ad98:	5c03c634 	ori	a2,a2,0x35c
8003ad9c:	21386002 	move	a3,s3
8003ada0:	40020224 	li	v0,576
8003ada4:	580342a6 	sh	v0,856(s2)
8003ada8:	b0000224 	li	v0,176
8003adac:	3c0342a6 	sh	v0,828(s2)
8003adb0:	4e000224 	li	v0,78
8003adb4:	3e0342a6 	sh	v0,830(s2)
8003adb8:	60000224 	li	v0,96
8003adbc:	400342a6 	sh	v0,832(s2)
8003adc0:	0e000224 	li	v0,14
8003adc4:	420342a6 	sh	v0,834(s2)
8003adc8:	01000224 	li	v0,1
8003adcc:	5a0350a6 	sh	s0,858(s2)
8003add0:	d9a0000c 	jal	0x80028364
8003add4:	1000a2af 	sw	v0,16(sp)
8003add8:	1e80023c 	lui	v0,0x801e
8003addc:	500d4224 	addiu	v0,v0,3408
8003ade0:	000c5424 	addiu	s4,v0,3072
8003ade4:	21804000 	move	s0,v0
8003ade8:	ffff2632 	andi	a2,s1,0xffff
8003adec:	08034726 	addiu	a3,s2,776
8003adf0:	14003126 	addiu	s1,s1,20
8003adf4:	92010496 	lhu	a0,402(s0)
8003adf8:	02001026 	addiu	s0,s0,2
8003adfc:	40101300 	sll	v0,s3,0x1
8003ae00:	01007326 	addiu	s3,s3,1
8003ae04:	2110a203 	addu	v0,sp,v0
8003ae08:	68004594 	lhu	a1,104(v0)
8003ae0c:	21209400 	addu	a0,a0,s4
8003ae10:	2000a524 	addiu	a1,a1,32
8003ae14:	cb9c000c 	jal	0x8002732c
8003ae18:	ffffa530 	andi	a1,a1,0xffff
8003ae1c:	0600622a 	slti	v0,s3,6
8003ae20:	f2ff4014 	bnez	v0,0x8003adec
8003ae24:	ffff2632 	andi	a2,s1,0xffff
8003ae28:	1d80023c 	lui	v0,0x801d
8003ae2c:	22d15624 	addiu	s6,v0,-11998
8003ae30:	01001324 	li	s3,1
8003ae34:	1e80023c 	lui	v0,0x801e
8003ae38:	500d5424 	addiu	s4,v0,3408
8003ae3c:	000c9526 	addiu	s5,s4,3072
8003ae40:	64001124 	li	s1,100
8003ae44:	0000c392 	lbu	v1,0(s6)
8003ae48:	01000224 	li	v0,1
8003ae4c:	0c006214 	bne	v1,v0,0x8003ae80
8003ae50:	c1000524 	li	a1,193
8003ae54:	ffff3032 	andi	s0,s1,0xffff
8003ae58:	21300002 	move	a2,s0
8003ae5c:	9e018496 	lhu	a0,414(s4)
8003ae60:	08034726 	addiu	a3,s2,776
8003ae64:	cb9c000c 	jal	0x8002732c
8003ae68:	21209500 	addu	a0,a0,s5
8003ae6c:	f1000524 	li	a1,241
8003ae70:	21300002 	move	a2,s0
8003ae74:	a0018496 	lhu	a0,416(s4)
8003ae78:	aaad0008 	j	0x8002b6a8
8003ae7c:	0c034726 	addiu	a3,s2,780
8003ae80:	ffff3032 	andi	s0,s1,0xffff
8003ae84:	21300002 	move	a2,s0
8003ae88:	9e018496 	lhu	a0,414(s4)
8003ae8c:	0c034726 	addiu	a3,s2,780
8003ae90:	cb9c000c 	jal	0x8002732c
8003ae94:	21209500 	addu	a0,a0,s5
8003ae98:	f1000524 	li	a1,241
8003ae9c:	21300002 	move	a2,s0
8003aea0:	a0018496 	lhu	a0,416(s4)
8003aea4:	08034726 	addiu	a3,s2,776
8003aea8:	cb9c000c 	jal	0x8002732c
8003aeac:	21209500 	addu	a0,a0,s5
8003aeb0:	0100d626 	addiu	s6,s6,1
8003aeb4:	01007326 	addiu	s3,s3,1
8003aeb8:	0500622a 	slti	v0,s3,5
8003aebc:	e1ff4014 	bnez	v0,0x8003ae44
8003aec0:	14003126 	addiu	s1,s1,20
8003aec4:	18010524 	li	a1,280
8003aec8:	50000624 	li	a2,80
8003aecc:	00035026 	addiu	s0,s2,768
8003aed0:	21380002 	move	a3,s0
8003aed4:	21980000 	move	s3,zero
8003aed8:	1d80023c 	lui	v0,0x801d
8003aedc:	21d14290 	lbu	v0,-11999(v0)
8003aee0:	0002043c 	lui	a0,0x200
8003aee4:	af9d000c 	jal	0x800276bc
8003aee8:	25204400 	or	a0,v0,a0
8003aeec:	40000524 	li	a1,64
8003aef0:	d0000624 	li	a2,208
8003aef4:	21380002 	move	a3,s0
8003aef8:	1e80043c 	lui	a0,0x801e
8003aefc:	e0024296 	lhu	v0,736(s2)
8003af00:	500d8424 	addiu	a0,a0,3408
8003af04:	00140200 	sll	v0,v0,0x10
8003af08:	c3130200 	sra	v0,v0,0xf
8003af0c:	21104400 	addu	v0,v0,a0
8003af10:	c0014294 	lhu	v0,448(v0)
8003af14:	000c8424 	addiu	a0,a0,3072
8003af18:	cb9c000c 	jal	0x8002732c
8003af1c:	21204400 	addu	a0,v0,a0
8003af20:	3c034436 	ori	a0,s2,0x33c
8003af24:	58034536 	ori	a1,s2,0x358
8003af28:	5c034636 	ori	a2,s2,0x35c
8003af2c:	21386002 	move	a3,s3
8003af30:	54020224 	li	v0,596
8003af34:	580342a6 	sh	v0,856(s2)
8003af38:	c0010224 	li	v0,448
8003af3c:	5a0342a6 	sh	v0,858(s2)
8003af40:	20020224 	li	v0,544
8003af44:	5c0342a6 	sh	v0,860(s2)
8003af48:	ff010224 	li	v0,511
8003af4c:	5e0342a6 	sh	v0,862(s2)
8003af50:	20000224 	li	v0,32
8003af54:	3c0342a6 	sh	v0,828(s2)
8003af58:	2c000224 	li	v0,44
8003af5c:	3e0342a6 	sh	v0,830(s2)
8003af60:	46000224 	li	v0,70
8003af64:	400342a6 	sh	v0,832(s2)
8003af68:	10000224 	li	v0,16
8003af6c:	420342a6 	sh	v0,834(s2)
8003af70:	03000224 	li	v0,3
8003af74:	d9a0000c 	jal	0x80028364
8003af78:	1000a2af 	sw	v0,16(sp)
8003af7c:	e0024296 	lhu	v0,736(s2)
8003af80:	00000000 	nop
8003af84:	00140200 	sll	v0,v0,0x10
8003af88:	03140200 	sra	v0,v0,0x10
8003af8c:	03006216 	bne	s3,v0,0x8003af9c
8003af90:	3800a427 	addiu	a0,sp,56
8003af94:	e8ad0008 	j	0x8002b7a0
8003af98:	4800a527 	addiu	a1,sp,72
8003af9c:	5800a527 	addiu	a1,sp,88
8003afa0:	0ba3000c 	jal	0x80028c2c
8003afa4:	01000624 	li	a2,1
8003afa8:	01007326 	addiu	s3,s3,1
8003afac:	3a00a297 	lhu	v0,58(sp)
8003afb0:	3e00a397 	lhu	v1,62(sp)
8003afb4:	14004224 	addiu	v0,v0,20
8003afb8:	3a00a2a7 	sh	v0,58(sp)
8003afbc:	4200a297 	lhu	v0,66(sp)
8003afc0:	14006324 	addiu	v1,v1,20
8003afc4:	3e00a3a7 	sh	v1,62(sp)
8003afc8:	4600a397 	lhu	v1,70(sp)
8003afcc:	14004224 	addiu	v0,v0,20
8003afd0:	14006324 	addiu	v1,v1,20
8003afd4:	4200a2a7 	sh	v0,66(sp)
8003afd8:	0600622a 	slti	v0,s3,6
8003afdc:	e7ff4014 	bnez	v0,0x8003af7c
8003afe0:	4600a3a7 	sh	v1,70(sp)
8003afe4:	21200000 	move	a0,zero
8003afe8:	21288000 	move	a1,a0
8003afec:	aaa1000c 	jal	0x800286a8
8003aff0:	21308000 	move	a2,a0
8003aff4:	10000424 	li	a0,16
8003aff8:	24000524 	li	a1,36
8003affc:	20010624 	li	a2,288
8003b000:	86a5000c 	jal	0x80029618
8003b004:	c0000724 	li	a3,192
8003b008:	695d000c 	jal	0x800175a4
8003b00c:	00000000 	nop
8003b010:	23a5000c 	jal	0x8002948c
8003b014:	00000000 	nop
8003b018:	8d5d000c 	jal	0x80017634
8003b01c:	00000000 	nop
8003b020:	9400bf8f 	lw	ra,148(sp)
8003b024:	9000b68f 	lw	s6,144(sp)
8003b028:	8c00b58f 	lw	s5,140(sp)
8003b02c:	8800b48f 	lw	s4,136(sp)
8003b030:	8400b38f 	lw	s3,132(sp)
8003b034:	8000b28f 	lw	s2,128(sp)
8003b038:	7c00b18f 	lw	s1,124(sp)
8003b03c:	7800b08f 	lw	s0,120(sp)
8003b040:	9800bd27 	addiu	sp,sp,152
8003b044:	0800e003 	jr	ra
8003b048:	00000000 	nop
8003b04c:	70ffbd27 	addiu	sp,sp,-144
8003b050:	0180023c 	lui	v0,0x8001
8003b054:	8c00bfaf 	sw	ra,140(sp)
8003b058:	8800beaf 	sw	s8,136(sp)
8003b05c:	8400b7af 	sw	s7,132(sp)
8003b060:	8000b6af 	sw	s6,128(sp)
8003b064:	7c00b5af 	sw	s5,124(sp)
8003b068:	7800b4af 	sw	s4,120(sp)
8003b06c:	7400b3af 	sw	s3,116(sp)
8003b070:	7000b2af 	sw	s2,112(sp)
8003b074:	6c00b1af 	sw	s1,108(sp)
8003b078:	6800b0af 	sw	s0,104(sp)
8003b07c:	94114624 	addiu	a2,v0,4500
8003b080:	0300c388 	lwl	v1,3(a2)
8003b084:	0000c398 	lwr	v1,0(a2)
8003b088:	0700c488 	lwl	a0,7(a2)
8003b08c:	0400c498 	lwr	a0,4(a2)
8003b090:	0b00c588 	lwl	a1,11(a2)
8003b094:	0800c598 	lwr	a1,8(a2)
8003b098:	1b00a3ab 	swl	v1,27(sp)
8003b09c:	1800a3bb 	swr	v1,24(sp)
8003b0a0:	1f00a4ab 	swl	a0,31(sp)
8003b0a4:	1c00a4bb 	swr	a0,28(sp)
8003b0a8:	2300a5ab 	swl	a1,35(sp)
8003b0ac:	2000a5bb 	swr	a1,32(sp)
8003b0b0:	0f00c388 	lwl	v1,15(a2)
8003b0b4:	0c00c398 	lwr	v1,12(a2)
8003b0b8:	00000000 	nop
8003b0bc:	2700a3ab 	swl	v1,39(sp)
8003b0c0:	2400a3bb 	swr	v1,36(sp)
8003b0c4:	0180023c 	lui	v0,0x8001
8003b0c8:	f0104624 	addiu	a2,v0,4336
8003b0cc:	0300c388 	lwl	v1,3(a2)
8003b0d0:	0000c398 	lwr	v1,0(a2)
8003b0d4:	0700c488 	lwl	a0,7(a2)
8003b0d8:	0400c498 	lwr	a0,4(a2)
8003b0dc:	0b00c588 	lwl	a1,11(a2)
8003b0e0:	0800c598 	lwr	a1,8(a2)
8003b0e4:	2b00a3ab 	swl	v1,43(sp)
8003b0e8:	2800a3bb 	swr	v1,40(sp)
8003b0ec:	2f00a4ab 	swl	a0,47(sp)
8003b0f0:	2c00a4bb 	swr	a0,44(sp)
8003b0f4:	3300a5ab 	swl	a1,51(sp)
8003b0f8:	3000a5bb 	swr	a1,48(sp)
8003b0fc:	0f00c388 	lwl	v1,15(a2)
8003b100:	0c00c398 	lwr	v1,12(a2)
8003b104:	00000000 	nop
8003b108:	3700a3ab 	swl	v1,55(sp)
8003b10c:	3400a3bb 	swr	v1,52(sp)
8003b110:	0180023c 	lui	v0,0x8001
8003b114:	00114624 	addiu	a2,v0,4352
8003b118:	0300c388 	lwl	v1,3(a2)
8003b11c:	0000c398 	lwr	v1,0(a2)
8003b120:	0700c488 	lwl	a0,7(a2)
8003b124:	0400c498 	lwr	a0,4(a2)
8003b128:	0b00c588 	lwl	a1,11(a2)
8003b12c:	0800c598 	lwr	a1,8(a2)
8003b130:	3b00a3ab 	swl	v1,59(sp)
8003b134:	3800a3bb 	swr	v1,56(sp)
8003b138:	3f00a4ab 	swl	a0,63(sp)
8003b13c:	3c00a4bb 	swr	a0,60(sp)
8003b140:	4300a5ab 	swl	a1,67(sp)
8003b144:	4000a5bb 	swr	a1,64(sp)
8003b148:	0f00c388 	lwl	v1,15(a2)
8003b14c:	0c00c398 	lwr	v1,12(a2)
8003b150:	00000000 	nop
8003b154:	4700a3ab 	swl	v1,71(sp)
8003b158:	4400a3bb 	swr	v1,68(sp)
8003b15c:	0180023c 	lui	v0,0x8001
8003b160:	b0114624 	addiu	a2,v0,4528
8003b164:	0300c388 	lwl	v1,3(a2)
8003b168:	0000c398 	lwr	v1,0(a2)
8003b16c:	0700c488 	lwl	a0,7(a2)
8003b170:	0400c498 	lwr	a0,4(a2)
8003b174:	0b00c588 	lwl	a1,11(a2)
8003b178:	0800c598 	lwr	a1,8(a2)
8003b17c:	4b00a3ab 	swl	v1,75(sp)
8003b180:	4800a3bb 	swr	v1,72(sp)
8003b184:	4f00a4ab 	swl	a0,79(sp)
8003b188:	4c00a4bb 	swr	a0,76(sp)
8003b18c:	5300a5ab 	swl	a1,83(sp)
8003b190:	5000a5bb 	swr	a1,80(sp)
8003b194:	0f00c388 	lwl	v1,15(a2)
8003b198:	0c00c398 	lwr	v1,12(a2)
8003b19c:	1300c488 	lwl	a0,19(a2)
8003b1a0:	1000c498 	lwr	a0,16(a2)
8003b1a4:	1700c588 	lwl	a1,23(a2)
8003b1a8:	1400c598 	lwr	a1,20(a2)
8003b1ac:	5700a3ab 	swl	v1,87(sp)
8003b1b0:	5400a3bb 	swr	v1,84(sp)
8003b1b4:	5b00a4ab 	swl	a0,91(sp)
8003b1b8:	5800a4bb 	swr	a0,88(sp)
8003b1bc:	5f00a5ab 	swl	a1,95(sp)
8003b1c0:	5c00a5bb 	swr	a1,92(sp)
8003b1c4:	1b00c388 	lwl	v1,27(a2)
8003b1c8:	1800c398 	lwr	v1,24(a2)
8003b1cc:	00000000 	nop
8003b1d0:	6300a3ab 	swl	v1,99(sp)
8003b1d4:	6000a3bb 	swr	v1,96(sp)
8003b1d8:	315d000c 	jal	0x800174c4
8003b1dc:	801f1e3c 	lui	s8,0x1f80
8003b1e0:	e402c393 	lbu	v1,740(s8)
8003b1e4:	48000224 	li	v0,72
8003b1e8:	0003c2a3 	sb	v0,768(s8)
8003b1ec:	0103c2a3 	sb	v0,769(s8)
8003b1f0:	0203c2a3 	sb	v0,770(s8)
8003b1f4:	62000224 	li	v0,98
8003b1f8:	0803c2a3 	sb	v0,776(s8)
8003b1fc:	42000224 	li	v0,66
8003b200:	0903c2a3 	sb	v0,777(s8)
8003b204:	30000224 	li	v0,48
8003b208:	0a03c2a3 	sb	v0,778(s8)
8003b20c:	60000224 	li	v0,96
8003b210:	0c03c2a3 	sb	v0,780(s8)
8003b214:	20000224 	li	v0,32
8003b218:	0d03c2a3 	sb	v0,781(s8)
8003b21c:	0e03c2a3 	sb	v0,782(s8)
8003b220:	39000224 	li	v0,57
8003b224:	0f03c2a3 	sb	v0,783(s8)
8003b228:	0b03c2a3 	sb	v0,779(s8)
8003b22c:	1000632c 	sltiu	v1,v1,16
8003b230:	05006010 	beqz	v1,0x8003b248
8003b234:	0303c2a3 	sb	v0,771(s8)
8003b238:	e402c393 	lbu	v1,740(s8)
8003b23c:	08000224 	li	v0,8
8003b240:	95ae0008 	j	0x8002ba54
8003b244:	23104300 	subu	v0,v0,v1
8003b248:	e402c293 	lbu	v0,740(s8)
8003b24c:	00000000 	nop
8003b250:	e8ff4224 	addiu	v0,v0,-24
8003b254:	6003c2a7 	sh	v0,864(s8)
8003b258:	e202c297 	lhu	v0,738(s8)
8003b25c:	01000324 	li	v1,1
8003b260:	00140200 	sll	v0,v0,0x10
8003b264:	03140200 	sra	v0,v0,0x10
8003b268:	1f004314 	bne	v0,v1,0x8003b2e8
8003b26c:	00000000 	nop
8003b270:	6003c393 	lbu	v1,864(s8)
8003b274:	2e03c0a3 	sb	zero,814(s8)
8003b278:	3000a293 	lbu	v0,48(sp)
8003b27c:	6003c493 	lbu	a0,864(s8)
8003b280:	c0180300 	sll	v1,v1,0x3
8003b284:	21104300 	addu	v0,v0,v1
8003b288:	80200400 	sll	a0,a0,0x2
8003b28c:	3000a2a3 	sb	v0,48(sp)
8003b290:	3100a293 	lbu	v0,49(sp)
8003b294:	6003c393 	lbu	v1,864(s8)
8003b298:	21104400 	addu	v0,v0,a0
8003b29c:	c0180300 	sll	v1,v1,0x3
8003b2a0:	3100a2a3 	sb	v0,49(sp)
8003b2a4:	3400a293 	lbu	v0,52(sp)
8003b2a8:	6003c493 	lbu	a0,864(s8)
8003b2ac:	21104300 	addu	v0,v0,v1
8003b2b0:	80200400 	sll	a0,a0,0x2
8003b2b4:	3400a2a3 	sb	v0,52(sp)
8003b2b8:	3500a293 	lbu	v0,53(sp)
8003b2bc:	6003c393 	lbu	v1,864(s8)
8003b2c0:	21104400 	addu	v0,v0,a0
8003b2c4:	80180300 	sll	v1,v1,0x2
8003b2c8:	3500a2a3 	sb	v0,53(sp)
8003b2cc:	6003c293 	lbu	v0,864(s8)
8003b2d0:	60006324 	addiu	v1,v1,96
8003b2d4:	2c03c3a3 	sb	v1,812(s8)
8003b2d8:	40100200 	sll	v0,v0,0x1
8003b2dc:	30004224 	addiu	v0,v0,48
8003b2e0:	bfae0008 	j	0x8002bafc
8003b2e4:	2d03c2a3 	sb	v0,813(s8)
8003b2e8:	0b03c28b 	lwl	v0,779(s8)
8003b2ec:	0803c29b 	lwr	v0,776(s8)
8003b2f0:	00000000 	nop
8003b2f4:	2f03c2ab 	swl	v0,815(s8)
8003b2f8:	2c03c2bb 	swr	v0,812(s8)
8003b2fc:	21980000 	move	s3,zero
8003b300:	1e80023c 	lui	v0,0x801e
8003b304:	500d4224 	addiu	v0,v0,3408
8003b308:	000c5524 	addiu	s5,v0,3072
8003b30c:	50001224 	li	s2,80
8003b310:	1800b127 	addiu	s1,sp,24
8003b314:	21804000 	move	s0,v0
8003b318:	1d80023c 	lui	v0,0x801d
8003b31c:	a2d15424 	addiu	s4,v0,-11870
8003b320:	00008296 	lhu	v0,0(s4)
8003b324:	0000c387 	lh	v1,0(s8)
8003b328:	00000000 	nop
8003b32c:	24104300 	and	v0,v0,v1
8003b330:	03004010 	beqz	v0,0x8003b340
8003b334:	ffff4632 	andi	a2,s2,0xffff
8003b338:	d1ae0008 	j	0x8002bb44
8003b33c:	0c03c727 	addiu	a3,s8,780
8003b340:	0803c727 	addiu	a3,s8,776
8003b344:	a2010496 	lhu	a0,418(s0)
8003b348:	30002596 	lhu	a1,48(s1)
8003b34c:	21209500 	addu	a0,a0,s5
8003b350:	2000a524 	addiu	a1,a1,32
8003b354:	cb9c000c 	jal	0x8002732c
8003b358:	ffffa530 	andi	a1,a1,0xffff
8003b35c:	12005226 	addiu	s2,s2,18
8003b360:	02003126 	addiu	s1,s1,2
8003b364:	02001026 	addiu	s0,s0,2
8003b368:	01007326 	addiu	s3,s3,1
8003b36c:	0600622a 	slti	v0,s3,6
8003b370:	ebff4014 	bnez	v0,0x8003b320
8003b374:	02009426 	addiu	s4,s4,2
8003b378:	21980000 	move	s3,zero
8003b37c:	1e80023c 	lui	v0,0x801e
8003b380:	500d4224 	addiu	v0,v0,3408
8003b384:	000c5524 	addiu	s5,v0,3072
8003b388:	50001224 	li	s2,80
8003b38c:	5400b127 	addiu	s1,sp,84
8003b390:	21804000 	move	s0,v0
8003b394:	1d80023c 	lui	v0,0x801d
8003b398:	aed15424 	addiu	s4,v0,-11858
8003b39c:	00008296 	lhu	v0,0(s4)
8003b3a0:	0000c387 	lh	v1,0(s8)
8003b3a4:	00000000 	nop
8003b3a8:	24104300 	and	v0,v0,v1
8003b3ac:	03004010 	beqz	v0,0x8003b3bc
8003b3b0:	ffff4632 	andi	a2,s2,0xffff
8003b3b4:	f0ae0008 	j	0x8002bbc0
8003b3b8:	0c03c727 	addiu	a3,s8,780
8003b3bc:	0803c727 	addiu	a3,s8,776
8003b3c0:	ae010496 	lhu	a0,430(s0)
8003b3c4:	00002596 	lhu	a1,0(s1)
8003b3c8:	21209500 	addu	a0,a0,s5
8003b3cc:	a800a524 	addiu	a1,a1,168
8003b3d0:	cb9c000c 	jal	0x8002732c
8003b3d4:	ffffa530 	andi	a1,a1,0xffff
8003b3d8:	12005226 	addiu	s2,s2,18
8003b3dc:	02003126 	addiu	s1,s1,2
8003b3e0:	02001026 	addiu	s0,s0,2
8003b3e4:	01007326 	addiu	s3,s3,1
8003b3e8:	0600622a 	slti	v0,s3,6
8003b3ec:	ebff4014 	bnez	v0,0x8003b39c
8003b3f0:	02009426 	addiu	s4,s4,2
8003b3f4:	21980000 	move	s3,zero
8003b3f8:	fa011024 	li	s0,506
8003b3fc:	80010224 	li	v0,384
8003b400:	5a03c2a7 	sh	v0,858(s8)
8003b404:	20020224 	li	v0,544
8003b408:	5c03c2a7 	sh	v0,860(s8)
8003b40c:	0600622a 	slti	v0,s3,6
8003b410:	02004014 	bnez	v0,0x8003b41c
8003b414:	8a000224 	li	v0,138
8003b418:	12010224 	li	v0,274
8003b41c:	3c03c2a7 	sh	v0,828(s8)
8003b420:	aa2a023c 	lui	v0,0x2aaa
8003b424:	abaa4234 	ori	v0,v0,0xaaab
8003b428:	18006202 	mult	s3,v0
8003b42c:	c3171300 	sra	v0,s3,0x1f
8003b430:	2120d303 	addu	a0,s8,s3
8003b434:	10400000 	mfhi	t0
8003b438:	23100201 	subu	v0,t0,v0
8003b43c:	40180200 	sll	v1,v0,0x1
8003b440:	21186200 	addu	v1,v1,v0
8003b444:	40180300 	sll	v1,v1,0x1
8003b448:	23186302 	subu	v1,s3,v1
8003b44c:	c0100300 	sll	v0,v1,0x3
8003b450:	21104300 	addu	v0,v0,v1
8003b454:	40100200 	sll	v0,v0,0x1
8003b458:	4f004224 	addiu	v0,v0,79
8003b45c:	3e03c2a7 	sh	v0,830(s8)
8003b460:	02008290 	lbu	v0,2(a0)
8003b464:	00000000 	nop
8003b468:	0800422c 	sltiu	v0,v0,8
8003b46c:	0c004014 	bnez	v0,0x8003b4a0
8003b470:	10000224 	li	v0,16
8003b474:	02008290 	lbu	v0,2(a0)
8003b478:	20000324 	li	v1,32
8003b47c:	4003c3a7 	sh	v1,832(s8)
8003b480:	3c03c397 	lhu	v1,828(s8)
8003b484:	5e03d0a7 	sh	s0,862(s8)
8003b488:	c0100200 	sll	v0,v0,0x3
8003b48c:	20024224 	addiu	v0,v0,544
8003b490:	f8ff6324 	addiu	v1,v1,-8
8003b494:	5803c2a7 	sh	v0,856(s8)
8003b498:	38af0008 	j	0x8002bce0
8003b49c:	3c03c3a7 	sh	v1,828(s8)
8003b4a0:	02008390 	lbu	v1,2(a0)
8003b4a4:	4003c2a7 	sh	v0,832(s8)
8003b4a8:	80180300 	sll	v1,v1,0x2
8003b4ac:	40026324 	addiu	v1,v1,576
8003b4b0:	5803c3a7 	sh	v1,856(s8)
8003b4b4:	02008290 	lbu	v0,2(a0)
8003b4b8:	00000000 	nop
8003b4bc:	0400422c 	sltiu	v0,v0,4
8003b4c0:	06004010 	beqz	v0,0x8003b4dc
8003b4c4:	fe010224 	li	v0,510
8003b4c8:	02008390 	lbu	v1,2(a0)
8003b4cc:	00000000 	nop
8003b4d0:	23104300 	subu	v0,v0,v1
8003b4d4:	38af0008 	j	0x8002bce0
8003b4d8:	5e03c2a7 	sh	v0,862(s8)
8003b4dc:	5e03d0a7 	sh	s0,862(s8)
8003b4e0:	6003c293 	lbu	v0,864(s8)
8003b4e4:	e002c397 	lhu	v1,736(s8)
8003b4e8:	80100200 	sll	v0,v0,0x2
8003b4ec:	80ff4224 	addiu	v0,v0,-128
8003b4f0:	001c0300 	sll	v1,v1,0x10
8003b4f4:	031c0300 	sra	v1,v1,0x10
8003b4f8:	3a03c2a3 	sb	v0,826(s8)
8003b4fc:	3903c2a3 	sb	v0,825(s8)
8003b500:	0c006316 	bne	s3,v1,0x8003b534
8003b504:	3803c2a3 	sb	v0,824(s8)
8003b508:	e202c297 	lhu	v0,738(s8)
8003b50c:	01000324 	li	v1,1
8003b510:	00140200 	sll	v0,v0,0x10
8003b514:	03140200 	sra	v0,v0,0x10
8003b518:	06004314 	bne	v0,v1,0x8003b534
8003b51c:	3c03c427 	addiu	a0,s8,828
8003b520:	1000a0af 	sw	zero,16(sp)
8003b524:	5803c527 	addiu	a1,s8,856
8003b528:	5c03c627 	addiu	a2,s8,860
8003b52c:	52af0008 	j	0x8002bd48
8003b530:	3803c727 	addiu	a3,s8,824
8003b534:	1000a0af 	sw	zero,16(sp)
8003b538:	3c03c427 	addiu	a0,s8,828
8003b53c:	5803c527 	addiu	a1,s8,856
8003b540:	5c03c627 	addiu	a2,s8,860
8003b544:	21380000 	move	a3,zero
8003b548:	d9a0000c 	jal	0x80028364
8003b54c:	01007326 	addiu	s3,s3,1
8003b550:	0c00622a 	slti	v0,s3,12
8003b554:	aeff4014 	bnez	v0,0x8003b410
8003b558:	0600622a 	slti	v0,s3,6
8003b55c:	3c03d727 	addiu	s7,s8,828
8003b560:	2120e002 	move	a0,s7
8003b564:	5803d627 	addiu	s6,s8,856
8003b568:	2128c002 	move	a1,s6
8003b56c:	5c03d527 	addiu	s5,s8,860
8003b570:	2130a002 	move	a2,s5
8003b574:	21380000 	move	a3,zero
8003b578:	40020224 	li	v0,576
8003b57c:	5803c2a7 	sh	v0,856(s8)
8003b580:	b0010224 	li	v0,432
8003b584:	20021424 	li	s4,544
8003b588:	ff011324 	li	s3,511
8003b58c:	5a03c2a7 	sh	v0,858(s8)
8003b590:	20000224 	li	v0,32
8003b594:	2c001224 	li	s2,44
8003b598:	3c03c2a7 	sh	v0,828(s8)
8003b59c:	3c000224 	li	v0,60
8003b5a0:	10001124 	li	s1,16
8003b5a4:	03001024 	li	s0,3
8003b5a8:	5c03d4a7 	sh	s4,860(s8)
8003b5ac:	5e03d3a7 	sh	s3,862(s8)
8003b5b0:	3e03d2a7 	sh	s2,830(s8)
8003b5b4:	4003c2a7 	sh	v0,832(s8)
8003b5b8:	4203d1a7 	sh	s1,834(s8)
8003b5bc:	d9a0000c 	jal	0x80028364
8003b5c0:	1000b0af 	sw	s0,16(sp)
8003b5c4:	2120e002 	move	a0,s7
8003b5c8:	2128c002 	move	a1,s6
8003b5cc:	2130a002 	move	a2,s5
8003b5d0:	21380000 	move	a3,zero
8003b5d4:	4e020224 	li	v0,590
8003b5d8:	5803c2a7 	sh	v0,856(s8)
8003b5dc:	e0010224 	li	v0,480
8003b5e0:	5a03c2a7 	sh	v0,858(s8)
8003b5e4:	60000224 	li	v0,96
8003b5e8:	3c03c2a7 	sh	v0,828(s8)
8003b5ec:	78000224 	li	v0,120
8003b5f0:	5c03d4a7 	sh	s4,860(s8)
8003b5f4:	5e03d3a7 	sh	s3,862(s8)
8003b5f8:	3e03d2a7 	sh	s2,830(s8)
8003b5fc:	4003c2a7 	sh	v0,832(s8)
8003b600:	4203d1a7 	sh	s1,834(s8)
8003b604:	d9a0000c 	jal	0x80028364
8003b608:	1000b0af 	sw	s0,16(sp)
8003b60c:	cc000624 	li	a2,204
8003b610:	0803d227 	addiu	s2,s8,776
8003b614:	21384002 	move	a3,s2
8003b618:	21980000 	move	s3,zero
8003b61c:	54001524 	li	s5,84
8003b620:	5e001424 	li	s4,94
8003b624:	1e80103c 	lui	s0,0x801e
8003b628:	500d1026 	addiu	s0,s0,3408
8003b62c:	000c1126 	addiu	s1,s0,3072
8003b630:	ba010496 	lhu	a0,442(s0)
8003b634:	6000a597 	lhu	a1,96(sp)
8003b638:	21209100 	addu	a0,a0,s1
8003b63c:	3000a524 	addiu	a1,a1,48
8003b640:	cb9c000c 	jal	0x8002732c
8003b644:	ffffa530 	andi	a1,a1,0xffff
8003b648:	cc000624 	li	a2,204
8003b64c:	21384002 	move	a3,s2
8003b650:	bc010496 	lhu	a0,444(s0)
8003b654:	6200a597 	lhu	a1,98(sp)
8003b658:	21209100 	addu	a0,a0,s1
8003b65c:	9800a524 	addiu	a1,a1,152
8003b660:	cb9c000c 	jal	0x8002732c
8003b664:	ffffa530 	andi	a1,a1,0xffff
8003b668:	06000224 	li	v0,6
8003b66c:	0c006216 	bne	s3,v0,0x8003b6a0
8003b670:	b8000224 	li	v0,184
8003b674:	1800a2a7 	sh	v0,24(sp)
8003b678:	fa000224 	li	v0,250
8003b67c:	1c00a2a7 	sh	v0,28(sp)
8003b680:	a8000224 	li	v0,168
8003b684:	2000a2a7 	sh	v0,32(sp)
8003b688:	0a010224 	li	v0,266
8003b68c:	1e00b5a7 	sh	s5,30(sp)
8003b690:	1a00b5a7 	sh	s5,26(sp)
8003b694:	2400a2a7 	sh	v0,36(sp)
8003b698:	2600b4a7 	sh	s4,38(sp)
8003b69c:	2200b4a7 	sh	s4,34(sp)
8003b6a0:	e002c297 	lhu	v0,736(s8)
8003b6a4:	00000000 	nop
8003b6a8:	00140200 	sll	v0,v0,0x10
8003b6ac:	03140200 	sra	v0,v0,0x10
8003b6b0:	03006216 	bne	s3,v0,0x8003b6c0
8003b6b4:	1800a427 	addiu	a0,sp,24
8003b6b8:	b1af0008 	j	0x8002bec4
8003b6bc:	2800a527 	addiu	a1,sp,40
8003b6c0:	3800a527 	addiu	a1,sp,56
8003b6c4:	0ba3000c 	jal	0x80028c2c
8003b6c8:	01000624 	li	a2,1
8003b6cc:	01007326 	addiu	s3,s3,1
8003b6d0:	1a00a297 	lhu	v0,26(sp)
8003b6d4:	1e00a397 	lhu	v1,30(sp)
8003b6d8:	12004224 	addiu	v0,v0,18
8003b6dc:	1a00a2a7 	sh	v0,26(sp)
8003b6e0:	2200a297 	lhu	v0,34(sp)
8003b6e4:	12006324 	addiu	v1,v1,18
8003b6e8:	1e00a3a7 	sh	v1,30(sp)
8003b6ec:	2600a397 	lhu	v1,38(sp)
8003b6f0:	12004224 	addiu	v0,v0,18
8003b6f4:	12006324 	addiu	v1,v1,18
8003b6f8:	2200a2a7 	sh	v0,34(sp)
8003b6fc:	0c00622a 	slti	v0,s3,12
8003b700:	d9ff4014 	bnez	v0,0x8003b668
8003b704:	2600a3a7 	sh	v1,38(sp)
8003b708:	40000224 	li	v0,64
8003b70c:	1800a2a7 	sh	v0,24(sp)
8003b710:	82000224 	li	v0,130
8003b714:	1c00a2a7 	sh	v0,28(sp)
8003b718:	d0000224 	li	v0,208
8003b71c:	1e00a2a7 	sh	v0,30(sp)
8003b720:	1a00a2a7 	sh	v0,26(sp)
8003b724:	30000224 	li	v0,48
8003b728:	2000a2a7 	sh	v0,32(sp)
8003b72c:	92000224 	li	v0,146
8003b730:	2400a2a7 	sh	v0,36(sp)
8003b734:	e002c397 	lhu	v1,736(s8)
8003b738:	da000224 	li	v0,218
8003b73c:	2600a2a7 	sh	v0,38(sp)
8003b740:	2200a2a7 	sh	v0,34(sp)
8003b744:	0c000224 	li	v0,12
8003b748:	001c0300 	sll	v1,v1,0x10
8003b74c:	031c0300 	sra	v1,v1,0x10
8003b750:	03006214 	bne	v1,v0,0x8003b760
8003b754:	1800a427 	addiu	a0,sp,24
8003b758:	d9af0008 	j	0x8002bf64
8003b75c:	2800a527 	addiu	a1,sp,40
8003b760:	3800a527 	addiu	a1,sp,56
8003b764:	0ba3000c 	jal	0x80028c2c
8003b768:	01000624 	li	a2,1
8003b76c:	21200000 	move	a0,zero
8003b770:	21288000 	move	a1,a0
8003b774:	aaa1000c 	jal	0x800286a8
8003b778:	21308000 	move	a2,a0
8003b77c:	a8000224 	li	v0,168
8003b780:	1800a2a7 	sh	v0,24(sp)
8003b784:	ea000224 	li	v0,234
8003b788:	1c00a2a7 	sh	v0,28(sp)
8003b78c:	d0000224 	li	v0,208
8003b790:	1e00a2a7 	sh	v0,30(sp)
8003b794:	1a00a2a7 	sh	v0,26(sp)
8003b798:	98000224 	li	v0,152
8003b79c:	2000a2a7 	sh	v0,32(sp)
8003b7a0:	fa000224 	li	v0,250
8003b7a4:	2400a2a7 	sh	v0,36(sp)
8003b7a8:	e002c397 	lhu	v1,736(s8)
8003b7ac:	da000224 	li	v0,218
8003b7b0:	2600a2a7 	sh	v0,38(sp)
8003b7b4:	2200a2a7 	sh	v0,34(sp)
8003b7b8:	0d000224 	li	v0,13
8003b7bc:	001c0300 	sll	v1,v1,0x10
8003b7c0:	031c0300 	sra	v1,v1,0x10
8003b7c4:	03006214 	bne	v1,v0,0x8003b7d4
8003b7c8:	1800a427 	addiu	a0,sp,24
8003b7cc:	f6af0008 	j	0x8002bfd8
8003b7d0:	2800a527 	addiu	a1,sp,40
8003b7d4:	3800a527 	addiu	a1,sp,56
8003b7d8:	0ba3000c 	jal	0x80028c2c
8003b7dc:	01000624 	li	a2,1
8003b7e0:	21200000 	move	a0,zero
8003b7e4:	21288000 	move	a1,a0
8003b7e8:	aaa1000c 	jal	0x800286a8
8003b7ec:	21308000 	move	a2,a0
8003b7f0:	10000424 	li	a0,16
8003b7f4:	24000524 	li	a1,36
8003b7f8:	20010624 	li	a2,288
8003b7fc:	86a5000c 	jal	0x80029618
8003b800:	c0000724 	li	a3,192
8003b804:	695d000c 	jal	0x800175a4
8003b808:	00000000 	nop
8003b80c:	23a5000c 	jal	0x8002948c
8003b810:	00000000 	nop
8003b814:	8d5d000c 	jal	0x80017634
8003b818:	00000000 	nop
8003b81c:	8c00bf8f 	lw	ra,140(sp)
8003b820:	8800be8f 	lw	s8,136(sp)
8003b824:	8400b78f 	lw	s7,132(sp)
8003b828:	8000b68f 	lw	s6,128(sp)
8003b82c:	7c00b58f 	lw	s5,124(sp)
8003b830:	7800b48f 	lw	s4,120(sp)
8003b834:	7400b38f 	lw	s3,116(sp)
8003b838:	7000b28f 	lw	s2,112(sp)
8003b83c:	6c00b18f 	lw	s1,108(sp)
8003b840:	6800b08f 	lw	s0,104(sp)
8003b844:	9000bd27 	addiu	sp,sp,144
8003b848:	0800e003 	jr	ra
8003b84c:	00000000 	nop
8003b850:	e8ffbd27 	addiu	sp,sp,-24
8003b854:	801f073c 	lui	a3,0x1f80
8003b858:	0003e734 	ori	a3,a3,0x300
8003b85c:	1e80043c 	lui	a0,0x801e
8003b860:	500d8424 	addiu	a0,a0,3408
8003b864:	1000bfaf 	sw	ra,16(sp)
8003b868:	6c028294 	lhu	v0,620(a0)
8003b86c:	000c8424 	addiu	a0,a0,3072
8003b870:	20000524 	li	a1,32
8003b874:	4a000624 	li	a2,74
8003b878:	cb9c000c 	jal	0x8002732c
8003b87c:	21204400 	addu	a0,v0,a0
8003b880:	1000bf8f 	lw	ra,16(sp)
8003b884:	1800bd27 	addiu	sp,sp,24
8003b888:	0800e003 	jr	ra
8003b88c:	00000000 	nop
8003b890:	e0ffbd27 	addiu	sp,sp,-32
8003b894:	1800b2af 	sw	s2,24(sp)
8003b898:	801f123c 	lui	s2,0x1f80
8003b89c:	1c00bfaf 	sw	ra,28(sp)
8003b8a0:	1400b1af 	sw	s1,20(sp)
8003b8a4:	1000b0af 	sw	s0,16(sp)
8003b8a8:	f8014396 	lhu	v1,504(s2)
8003b8ac:	5e000224 	li	v0,94
8003b8b0:	300342a6 	sh	v0,816(s2)
8003b8b4:	8a000224 	li	v0,138
8003b8b8:	340342a6 	sh	v0,820(s2)
8003b8bc:	11000224 	li	v0,17
8003b8c0:	03006014 	bnez	v1,0x8003b8d0
8003b8c4:	360342a6 	sh	v0,822(s2)
8003b8c8:	35b00008 	j	0x8002c0d4
8003b8cc:	6c000224 	li	v0,108
8003b8d0:	84000224 	li	v0,132
8003b8d4:	320342a6 	sh	v0,818(s2)
8003b8d8:	30034436 	ori	a0,s2,0x330
8003b8dc:	2c034536 	ori	a1,s2,0x32c
8003b8e0:	01010624 	li	a2,257
8003b8e4:	469f000c 	jal	0x80027d18
8003b8e8:	01000724 	li	a3,1
8003b8ec:	01000424 	li	a0,1
8003b8f0:	21280000 	move	a1,zero
8003b8f4:	aaa1000c 	jal	0x800286a8
8003b8f8:	2130a000 	move	a2,a1
8003b8fc:	21280000 	move	a1,zero
8003b900:	1880023c 	lui	v0,0x8018
8003b904:	b0be4724 	addiu	a3,v0,-16720
8003b908:	0980023c 	lui	v0,0x8009
8003b90c:	f0814624 	addiu	a2,v0,-32272
8003b910:	00140500 	sll	v0,a1,0x10
8003b914:	0100a424 	addiu	a0,a1,1
8003b918:	21288000 	move	a1,a0
8003b91c:	03140200 	sra	v0,v0,0x10
8003b920:	80180200 	sll	v1,v0,0x2
8003b924:	21186700 	addu	v1,v1,a3
8003b928:	40100200 	sll	v0,v0,0x1
8003b92c:	21104600 	addu	v0,v0,a2
8003b930:	00240400 	sll	a0,a0,0x10
8003b934:	03240400 	sra	a0,a0,0x10
8003b938:	07008428 	slti	a0,a0,7
8003b93c:	000060ac 	sw	zero,0(v1)
8003b940:	f3ff8014 	bnez	a0,0x8003b910
8003b944:	000040a4 	sh	zero,0(v0)
8003b948:	66000524 	li	a1,102
8003b94c:	6e000624 	li	a2,110
8003b950:	00035226 	addiu	s2,s2,768
8003b954:	21384002 	move	a3,s2
8003b958:	1e80103c 	lui	s0,0x801e
8003b95c:	500d1026 	addiu	s0,s0,3408
8003b960:	80020496 	lhu	a0,640(s0)
8003b964:	000c1126 	addiu	s1,s0,3072
8003b968:	cb9c000c 	jal	0x8002732c
8003b96c:	21209100 	addu	a0,a0,s1
8003b970:	66000524 	li	a1,102
8003b974:	86000624 	li	a2,134
8003b978:	82020496 	lhu	a0,642(s0)
8003b97c:	21384002 	move	a3,s2
8003b980:	cb9c000c 	jal	0x8002732c
8003b984:	21209100 	addu	a0,a0,s1
8003b988:	1c00bf8f 	lw	ra,28(sp)
8003b98c:	1800b28f 	lw	s2,24(sp)
8003b990:	1400b18f 	lw	s1,20(sp)
8003b994:	1000b08f 	lw	s0,16(sp)
8003b998:	2000bd27 	addiu	sp,sp,32
8003b99c:	0800e003 	jr	ra
8003b9a0:	00000000 	nop
8003b9a4:	e0ffbd27 	addiu	sp,sp,-32
8003b9a8:	1800b2af 	sw	s2,24(sp)
8003b9ac:	801f123c 	lui	s2,0x1f80
8003b9b0:	1c00bfaf 	sw	ra,28(sp)
8003b9b4:	1400b1af 	sw	s1,20(sp)
8003b9b8:	1000b0af 	sw	s0,16(sp)
8003b9bc:	02004296 	lhu	v0,2(s2)
8003b9c0:	00000000 	nop
8003b9c4:	25004014 	bnez	v0,0x8003ba5c
8003b9c8:	20000524 	li	a1,32
8003b9cc:	4a000624 	li	a2,74
8003b9d0:	21384002 	move	a3,s2
8003b9d4:	0003e734 	ori	a3,a3,0x300
8003b9d8:	1e80023c 	lui	v0,0x801e
8003b9dc:	500d5024 	addiu	s0,v0,3408
8003b9e0:	6e020496 	lhu	a0,622(s0)
8003b9e4:	000c1126 	addiu	s1,s0,3072
8003b9e8:	cb9c000c 	jal	0x8002732c
8003b9ec:	21209100 	addu	a0,a0,s1
8003b9f0:	02024296 	lhu	v0,514(s2)
8003b9f4:	00000000 	nop
8003b9f8:	0c004010 	beqz	v0,0x8003ba2c
8003b9fc:	79000524 	li	a1,121
8003ba00:	a0000624 	li	a2,160
8003ba04:	21384002 	move	a3,s2
8003ba08:	8a020496 	lhu	a0,650(s0)
8003ba0c:	0803e734 	ori	a3,a3,0x308
8003ba10:	cb9c000c 	jal	0x8002732c
8003ba14:	21209100 	addu	a0,a0,s1
8003ba18:	bf000524 	li	a1,191
8003ba1c:	a0000624 	li	a2,160
8003ba20:	8c020496 	lhu	a0,652(s0)
8003ba24:	a4b00008 	j	0x8002c290
8003ba28:	21384002 	move	a3,s2
8003ba2c:	a0000624 	li	a2,160
8003ba30:	801f073c 	lui	a3,0x1f80
8003ba34:	8a020496 	lhu	a0,650(s0)
8003ba38:	0003e734 	ori	a3,a3,0x300
8003ba3c:	cb9c000c 	jal	0x8002732c
8003ba40:	21209100 	addu	a0,a0,s1
8003ba44:	bf000524 	li	a1,191
8003ba48:	a0000624 	li	a2,160
8003ba4c:	801f073c 	lui	a3,0x1f80
8003ba50:	8c020496 	lhu	a0,652(s0)
8003ba54:	a5b00008 	j	0x8002c294
8003ba58:	0803e734 	ori	a3,a3,0x308
8003ba5c:	4a000624 	li	a2,74
8003ba60:	801f073c 	lui	a3,0x1f80
8003ba64:	0003e734 	ori	a3,a3,0x300
8003ba68:	1e80103c 	lui	s0,0x801e
8003ba6c:	500d1026 	addiu	s0,s0,3408
8003ba70:	70020496 	lhu	a0,624(s0)
8003ba74:	000c1126 	addiu	s1,s0,3072
8003ba78:	cb9c000c 	jal	0x8002732c
8003ba7c:	21209100 	addu	a0,a0,s1
8003ba80:	28000524 	li	a1,40
8003ba84:	64000624 	li	a2,100
8003ba88:	801f073c 	lui	a3,0x1f80
8003ba8c:	98020496 	lhu	a0,664(s0)
8003ba90:	0003e734 	ori	a3,a3,0x300
8003ba94:	cb9c000c 	jal	0x8002732c
8003ba98:	21209100 	addu	a0,a0,s1
8003ba9c:	1c00bf8f 	lw	ra,28(sp)
8003baa0:	1800b28f 	lw	s2,24(sp)
8003baa4:	1400b18f 	lw	s1,20(sp)
8003baa8:	1000b08f 	lw	s0,16(sp)
8003baac:	2000bd27 	addiu	sp,sp,32
8003bab0:	0800e003 	jr	ra
8003bab4:	00000000 	nop
8003bab8:	00ffbd27 	addiu	sp,sp,-256
8003babc:	d800b0af 	sw	s0,216(sp)
8003bac0:	801f103c 	lui	s0,0x1f80
8003bac4:	1000a727 	addiu	a3,sp,16
8003bac8:	0180023c 	lui	v0,0x8001
8003bacc:	cc114624 	addiu	a2,v0,4556
8003bad0:	c000c824 	addiu	t0,a2,192
8003bad4:	f800bfaf 	sw	ra,248(sp)
8003bad8:	f400b7af 	sw	s7,244(sp)
8003badc:	f000b6af 	sw	s6,240(sp)
8003bae0:	ec00b5af 	sw	s5,236(sp)
8003bae4:	e800b4af 	sw	s4,232(sp)
8003bae8:	e400b3af 	sw	s3,228(sp)
8003baec:	e000b2af 	sw	s2,224(sp)
8003baf0:	dc00b1af 	sw	s1,220(sp)
8003baf4:	0000c28c 	lw	v0,0(a2)
8003baf8:	0400c38c 	lw	v1,4(a2)
8003bafc:	0800c48c 	lw	a0,8(a2)
8003bb00:	0c00c58c 	lw	a1,12(a2)
8003bb04:	0000e2ac 	sw	v0,0(a3)
8003bb08:	0400e3ac 	sw	v1,4(a3)
8003bb0c:	0800e4ac 	sw	a0,8(a3)
8003bb10:	0c00e5ac 	sw	a1,12(a3)
8003bb14:	1000c624 	addiu	a2,a2,16
8003bb18:	f6ffc814 	bne	a2,t0,0x8003baf4
8003bb1c:	1000e724 	addiu	a3,a3,16
8003bb20:	02000296 	lhu	v0,2(s0)
8003bb24:	40000324 	li	v1,64
8003bb28:	3a0303a2 	sb	v1,826(s0)
8003bb2c:	390303a2 	sb	v1,825(s0)
8003bb30:	380303a2 	sb	v1,824(s0)
8003bb34:	01000324 	li	v1,1
8003bb38:	00140200 	sll	v0,v0,0x10
8003bb3c:	03140200 	sra	v0,v0,0x10
8003bb40:	54004314 	bne	v0,v1,0x8003bc94
8003bb44:	00000000 	nop
8003bb48:	dc020296 	lhu	v0,732(s0)
8003bb4c:	00000000 	nop
8003bb50:	ff004230 	andi	v0,v0,0xff
8003bb54:	02004010 	beqz	v0,0x8003bb60
8003bb58:	44010324 	li	v1,324
8003bb5c:	43010324 	li	v1,323
8003bb60:	44000524 	li	a1,68
8003bb64:	80000624 	li	a2,128
8003bb68:	00031126 	addiu	s1,s0,768
8003bb6c:	21382002 	move	a3,s1
8003bb70:	1e80023c 	lui	v0,0x801e
8003bb74:	500d5224 	addiu	s2,v0,3408
8003bb78:	40100300 	sll	v0,v1,0x1
8003bb7c:	21105200 	addu	v0,v0,s2
8003bb80:	00004494 	lhu	a0,0(v0)
8003bb84:	000c5326 	addiu	s3,s2,3072
8003bb88:	cb9c000c 	jal	0x8002732c
8003bb8c:	21209300 	addu	a0,a0,s3
8003bb90:	02020396 	lhu	v1,514(s0)
8003bb94:	18000224 	li	v0,24
8003bb98:	000302a2 	sb	v0,768(s0)
8003bb9c:	010302a2 	sb	v0,769(s0)
8003bba0:	0c006010 	beqz	v1,0x8003bbd4
8003bba4:	020302a2 	sb	v0,770(s0)
8003bba8:	78000524 	li	a1,120
8003bbac:	96000624 	li	a2,150
8003bbb0:	8a024496 	lhu	a0,650(s2)
8003bbb4:	08030736 	ori	a3,s0,0x308
8003bbb8:	cb9c000c 	jal	0x8002732c
8003bbbc:	21209300 	addu	a0,a0,s3
8003bbc0:	be000524 	li	a1,190
8003bbc4:	96000624 	li	a2,150
8003bbc8:	8c024496 	lhu	a0,652(s2)
8003bbcc:	ffb00008 	j	0x8002c3fc
8003bbd0:	21382002 	move	a3,s1
8003bbd4:	78000524 	li	a1,120
8003bbd8:	96000624 	li	a2,150
8003bbdc:	8a024496 	lhu	a0,650(s2)
8003bbe0:	21382002 	move	a3,s1
8003bbe4:	cb9c000c 	jal	0x8002732c
8003bbe8:	21209300 	addu	a0,a0,s3
8003bbec:	be000524 	li	a1,190
8003bbf0:	96000624 	li	a2,150
8003bbf4:	8c024496 	lhu	a0,652(s2)
8003bbf8:	08030736 	ori	a3,s0,0x308
8003bbfc:	cb9c000c 	jal	0x8002732c
8003bc00:	21209300 	addu	a0,a0,s3
8003bc04:	48030436 	ori	a0,s0,0x348
8003bc08:	44030536 	ori	a1,s0,0x344
8003bc0c:	01000624 	li	a2,1
8003bc10:	48000224 	li	v0,72
8003bc14:	000302a2 	sb	v0,768(s0)
8003bc18:	010302a2 	sb	v0,769(s0)
8003bc1c:	020302a2 	sb	v0,770(s0)
8003bc20:	3c000224 	li	v0,60
8003bc24:	3c0302a6 	sh	v0,828(s0)
8003bc28:	78000224 	li	v0,120
8003bc2c:	3e0302a6 	sh	v0,830(s0)
8003bc30:	c8000224 	li	v0,200
8003bc34:	400302a6 	sh	v0,832(s0)
8003bc38:	32000224 	li	v0,50
8003bc3c:	420302a6 	sh	v0,834(s0)
8003bc40:	3d000224 	li	v0,61
8003bc44:	480302a6 	sh	v0,840(s0)
8003bc48:	79000224 	li	v0,121
8003bc4c:	4a0302a6 	sh	v0,842(s0)
8003bc50:	c6000224 	li	v0,198
8003bc54:	4c0302a6 	sh	v0,844(s0)
8003bc58:	30000224 	li	v0,48
8003bc5c:	4e0302a6 	sh	v0,846(s0)
8003bc60:	20000224 	li	v0,32
8003bc64:	460302a2 	sb	v0,838(s0)
8003bc68:	450302a2 	sb	v0,837(s0)
8003bc6c:	88a0000c 	jal	0x80028220
8003bc70:	440302a2 	sb	v0,836(s0)
8003bc74:	02000424 	li	a0,2
8003bc78:	21280000 	move	a1,zero
8003bc7c:	aaa1000c 	jal	0x800286a8
8003bc80:	2130a000 	move	a2,a1
8003bc84:	3c030436 	ori	a0,s0,0x33c
8003bc88:	38030536 	ori	a1,s0,0x338
8003bc8c:	88a0000c 	jal	0x80028220
8003bc90:	21300000 	move	a2,zero
8003bc94:	fa010296 	lhu	v0,506(s0)
8003bc98:	00000000 	nop
8003bc9c:	00140200 	sll	v0,v0,0x10
8003bca0:	03140200 	sra	v0,v0,0x10
8003bca4:	04004228 	slti	v0,v0,4
8003bca8:	2f004014 	bnez	v0,0x8003bd68
8003bcac:	30030436 	ori	a0,s0,0x330
8003bcb0:	00020296 	lhu	v0,512(s0)
8003bcb4:	00000000 	nop
8003bcb8:	00140200 	sll	v0,v0,0x10
8003bcbc:	10004018 	blez	v0,0x8003bd00
8003bcc0:	3c030436 	ori	a0,s0,0x33c
8003bcc4:	2c030536 	ori	a1,s0,0x32c
8003bcc8:	000c0624 	li	a2,3072
8003bccc:	9c000224 	li	v0,156
8003bcd0:	3c0302a6 	sh	v0,828(s0)
8003bcd4:	44000224 	li	v0,68
8003bcd8:	3e0302a6 	sh	v0,830(s0)
8003bcdc:	10000224 	li	v0,16
8003bce0:	400302a6 	sh	v0,832(s0)
8003bce4:	08000224 	li	v0,8
8003bce8:	5ba4000c 	jal	0x8002916c
8003bcec:	420302a6 	sh	v0,834(s0)
8003bcf0:	01000424 	li	a0,1
8003bcf4:	21280000 	move	a1,zero
8003bcf8:	aaa1000c 	jal	0x800286a8
8003bcfc:	2130a000 	move	a2,a1
8003bd00:	00020396 	lhu	v1,512(s0)
8003bd04:	fa010296 	lhu	v0,506(s0)
8003bd08:	001c0300 	sll	v1,v1,0x10
8003bd0c:	031c0300 	sra	v1,v1,0x10
8003bd10:	00140200 	sll	v0,v0,0x10
8003bd14:	03140200 	sra	v0,v0,0x10
8003bd18:	fdff4224 	addiu	v0,v0,-3
8003bd1c:	2a186200 	slt	v1,v1,v0
8003bd20:	10006010 	beqz	v1,0x8003bd64
8003bd24:	3c030436 	ori	a0,s0,0x33c
8003bd28:	2c030536 	ori	a1,s0,0x32c
8003bd2c:	00040624 	li	a2,1024
8003bd30:	9c000224 	li	v0,156
8003bd34:	3c0302a6 	sh	v0,828(s0)
8003bd38:	d7000224 	li	v0,215
8003bd3c:	3e0302a6 	sh	v0,830(s0)
8003bd40:	10000224 	li	v0,16
8003bd44:	400302a6 	sh	v0,832(s0)
8003bd48:	08000224 	li	v0,8
8003bd4c:	5ba4000c 	jal	0x8002916c
8003bd50:	420302a6 	sh	v0,834(s0)
8003bd54:	01000424 	li	a0,1
8003bd58:	21280000 	move	a1,zero
8003bd5c:	aaa1000c 	jal	0x800286a8
8003bd60:	2130a000 	move	a2,a1
8003bd64:	30030436 	ori	a0,s0,0x330
8003bd68:	2c030536 	ori	a1,s0,0x32c
8003bd6c:	01010624 	li	a2,257
8003bd70:	01000724 	li	a3,1
8003bd74:	03001624 	li	s6,3
8003bd78:	fe010396 	lhu	v1,510(s0)
8003bd7c:	20000224 	li	v0,32
8003bd80:	300302a6 	sh	v0,816(s0)
8003bd84:	00010224 	li	v0,256
8003bd88:	340302a6 	sh	v0,820(s0)
8003bd8c:	28000224 	li	v0,40
8003bd90:	360302a6 	sh	v0,822(s0)
8003bd94:	001c0300 	sll	v1,v1,0x10
8003bd98:	031c0300 	sra	v1,v1,0x10
8003bd9c:	40100300 	sll	v0,v1,0x1
8003bda0:	21104300 	addu	v0,v0,v1
8003bda4:	00110200 	sll	v0,v0,0x4
8003bda8:	4a004224 	addiu	v0,v0,74
8003bdac:	469f000c 	jal	0x80027d18
8003bdb0:	320302a6 	sh	v0,818(s0)
8003bdb4:	01000424 	li	a0,1
8003bdb8:	21280000 	move	a1,zero
8003bdbc:	aaa1000c 	jal	0x800286a8
8003bdc0:	2130a000 	move	a2,a1
8003bdc4:	fa010296 	lhu	v0,506(s0)
8003bdc8:	4a000324 	li	v1,74
8003bdcc:	320303a6 	sh	v1,818(s0)
8003bdd0:	00140200 	sll	v0,v0,0x10
8003bdd4:	031c0200 	sra	v1,v0,0x10
8003bdd8:	03006228 	slti	v0,v1,3
8003bddc:	02004010 	beqz	v0,0x8003bde8
8003bde0:	00000000 	nop
8003bde4:	21b06000 	move	s6,v1
8003bde8:	a400c01a 	blez	s6,0x8003c07c
8003bdec:	21880000 	move	s1,zero
8003bdf0:	1e80023c 	lui	v0,0x801e
8003bdf4:	500d5324 	addiu	s3,v0,3408
8003bdf8:	000c7426 	addiu	s4,s3,3072
8003bdfc:	00031226 	addiu	s2,s0,768
8003be00:	1000b527 	addiu	s5,sp,16
8003be04:	ffff1724 	li	s7,-1
8003be08:	fc010296 	lhu	v0,508(s0)
8003be0c:	01000324 	li	v1,1
8003be10:	00140200 	sll	v0,v0,0x10
8003be14:	03140200 	sra	v0,v0,0x10
8003be18:	15004314 	bne	v0,v1,0x8003be70
8003be1c:	26000524 	li	a1,38
8003be20:	00020396 	lhu	v1,512(s0)
8003be24:	fa010296 	lhu	v0,506(s0)
8003be28:	001c0300 	sll	v1,v1,0x10
8003be2c:	031c0300 	sra	v1,v1,0x10
8003be30:	21182302 	addu	v1,s1,v1
8003be34:	00140200 	sll	v0,v0,0x10
8003be38:	03140200 	sra	v0,v0,0x10
8003be3c:	ffff4224 	addiu	v0,v0,-1
8003be40:	0c006214 	bne	v1,v0,0x8003be74
8003be44:	21384002 	move	a3,s2
8003be48:	40000524 	li	a1,64
8003be4c:	00030726 	addiu	a3,s0,768
8003be50:	84026496 	lhu	a0,644(s3)
8003be54:	32030696 	lhu	a2,818(s0)
8003be58:	21209400 	addu	a0,a0,s4
8003be5c:	0600c624 	addiu	a2,a2,6
8003be60:	cb9c000c 	jal	0x8002732c
8003be64:	ffffc630 	andi	a2,a2,0xffff
8003be68:	0ab20008 	j	0x8002c828
8003be6c:	30030426 	addiu	a0,s0,816
8003be70:	21384002 	move	a3,s2
8003be74:	0002023c 	lui	v0,0x200
8003be78:	00020496 	lhu	a0,512(s0)
8003be7c:	32030696 	lhu	a2,818(s0)
8003be80:	21209100 	addu	a0,a0,s1
8003be84:	01008424 	addiu	a0,a0,1
8003be88:	ffff8430 	andi	a0,a0,0xffff
8003be8c:	25208200 	or	a0,a0,v0
8003be90:	0600c624 	addiu	a2,a2,6
8003be94:	af9d000c 	jal	0x800276bc
8003be98:	ffffc630 	andi	a2,a2,0xffff
8003be9c:	da000524 	li	a1,218
8003bea0:	21384002 	move	a3,s2
8003bea4:	90026496 	lhu	a0,656(s3)
8003bea8:	32030696 	lhu	a2,818(s0)
8003beac:	21209400 	addu	a0,a0,s4
8003beb0:	0600c624 	addiu	a2,a2,6
8003beb4:	cb9c000c 	jal	0x8002732c
8003beb8:	ffffc630 	andi	a2,a2,0xffff
8003bebc:	01000224 	li	v0,1
8003bec0:	0980013c 	lui	at,0x8009
8003bec4:	ac8122a4 	sh	v0,-32340(at)
8003bec8:	00020296 	lhu	v0,512(s0)
8003becc:	18010324 	li	v1,280
8003bed0:	fc0283a7 	sh	v1,764(gp)
8003bed4:	f401038e 	lw	v1,500(s0)
8003bed8:	040380af 	sw	zero,772(gp)
8003bedc:	fa0280a7 	sh	zero,762(gp)
8003bee0:	00140200 	sll	v0,v0,0x10
8003bee4:	03140200 	sra	v0,v0,0x10
8003bee8:	21102202 	addu	v0,s1,v0
8003beec:	40110200 	sll	v0,v0,0x5
8003bef0:	21186200 	addu	v1,v1,v0
8003bef4:	19006290 	lbu	v0,25(v1)
8003bef8:	00000000 	nop
8003befc:	80100200 	sll	v0,v0,0x2
8003bf00:	21105500 	addu	v0,v0,s5
8003bf04:	0000428c 	lw	v0,0(v0)
8003bf08:	00000000 	nop
8003bf0c:	22005710 	beq	v0,s7,0x8003bf98
8003bf10:	40000524 	li	a1,64
8003bf14:	21384002 	move	a3,s2
8003bf18:	40100200 	sll	v0,v0,0x1
8003bf1c:	21105300 	addu	v0,v0,s3
8003bf20:	c4044494 	lhu	a0,1220(v0)
8003bf24:	32030696 	lhu	a2,818(s0)
8003bf28:	21209400 	addu	a0,a0,s4
8003bf2c:	0600c624 	addiu	a2,a2,6
8003bf30:	cb9c000c 	jal	0x8002732c
8003bf34:	ffffc630 	andi	a2,a2,0xffff
8003bf38:	00020296 	lhu	v0,512(s0)
8003bf3c:	f401038e 	lw	v1,500(s0)
8003bf40:	00140200 	sll	v0,v0,0x10
8003bf44:	03140200 	sra	v0,v0,0x10
8003bf48:	21102202 	addu	v0,s1,v0
8003bf4c:	40110200 	sll	v0,v0,0x5
8003bf50:	21186200 	addu	v1,v1,v0
8003bf54:	19006390 	lbu	v1,25(v1)
8003bf58:	00000000 	nop
8003bf5c:	80100300 	sll	v0,v1,0x2
8003bf60:	21105500 	addu	v0,v0,s5
8003bf64:	0000428c 	lw	v0,0(v0)
8003bf68:	00000000 	nop
8003bf6c:	0a005710 	beq	v0,s7,0x8003bf98
8003bf70:	40000524 	li	a1,64
8003bf74:	21384002 	move	a3,s2
8003bf78:	40100300 	sll	v0,v1,0x1
8003bf7c:	21105300 	addu	v0,v0,s3
8003bf80:	78054494 	lhu	a0,1400(v0)
8003bf84:	32030696 	lhu	a2,818(s0)
8003bf88:	21209400 	addu	a0,a0,s4
8003bf8c:	1600c624 	addiu	a2,a2,22
8003bf90:	f7b10008 	j	0x8002c7dc
8003bf94:	ffffc630 	andi	a2,a2,0xffff
8003bf98:	40000524 	li	a1,64
8003bf9c:	00030726 	addiu	a3,s0,768
8003bfa0:	00020296 	lhu	v0,512(s0)
8003bfa4:	f401038e 	lw	v1,500(s0)
8003bfa8:	32030696 	lhu	a2,818(s0)
8003bfac:	00140200 	sll	v0,v0,0x10
8003bfb0:	03140200 	sra	v0,v0,0x10
8003bfb4:	21102202 	addu	v0,s1,v0
8003bfb8:	40110200 	sll	v0,v0,0x5
8003bfbc:	21186200 	addu	v1,v1,v0
8003bfc0:	19006290 	lbu	v0,25(v1)
8003bfc4:	0600c624 	addiu	a2,a2,6
8003bfc8:	40100200 	sll	v0,v0,0x1
8003bfcc:	21105300 	addu	v0,v0,s3
8003bfd0:	78054494 	lhu	a0,1400(v0)
8003bfd4:	ffffc630 	andi	a2,a2,0xffff
8003bfd8:	21209400 	addu	a0,a0,s4
8003bfdc:	cb9c000c 	jal	0x8002732c
8003bfe0:	00000000 	nop
8003bfe4:	f8000524 	li	a1,248
8003bfe8:	00030726 	addiu	a3,s0,768
8003bfec:	0004043c 	lui	a0,0x400
8003bff0:	32030696 	lhu	a2,818(s0)
8003bff4:	00020296 	lhu	v0,512(s0)
8003bff8:	f401038e 	lw	v1,500(s0)
8003bffc:	0600c624 	addiu	a2,a2,6
8003c000:	00140200 	sll	v0,v0,0x10
8003c004:	03140200 	sra	v0,v0,0x10
8003c008:	21102202 	addu	v0,s1,v0
8003c00c:	40110200 	sll	v0,v0,0x5
8003c010:	21186200 	addu	v1,v1,v0
8003c014:	1a006294 	lhu	v0,26(v1)
8003c018:	ffffc630 	andi	a2,a2,0xffff
8003c01c:	af9d000c 	jal	0x800276bc
8003c020:	25204400 	or	a0,v0,a0
8003c024:	30030426 	addiu	a0,s0,816
8003c028:	38030526 	addiu	a1,s0,824
8003c02c:	01010624 	li	a2,257
8003c030:	01000724 	li	a3,1
8003c034:	1880033c 	lui	v1,0x8018
8003c038:	b0be6324 	addiu	v1,v1,-16720
8003c03c:	00020296 	lhu	v0,512(s0)
8003c040:	0803888f 	lw	t0,776(gp)
8003c044:	00140200 	sll	v0,v0,0x10
8003c048:	03140200 	sra	v0,v0,0x10
8003c04c:	21102202 	addu	v0,s1,v0
8003c050:	80100200 	sll	v0,v0,0x2
8003c054:	21104300 	addu	v0,v0,v1
8003c058:	469f000c 	jal	0x80027d18
8003c05c:	000048ac 	sw	t0,0(v0)
8003c060:	32030296 	lhu	v0,818(s0)
8003c064:	01003126 	addiu	s1,s1,1
8003c068:	30004224 	addiu	v0,v0,48
8003c06c:	320302a6 	sh	v0,818(s0)
8003c070:	2a103602 	slt	v0,s1,s6
8003c074:	64ff4014 	bnez	v0,0x8003be08
8003c078:	00000000 	nop
8003c07c:	01000424 	li	a0,1
8003c080:	21280000 	move	a1,zero
8003c084:	aaa1000c 	jal	0x800286a8
8003c088:	2130a000 	move	a2,a1
8003c08c:	f800bf8f 	lw	ra,248(sp)
8003c090:	f400b78f 	lw	s7,244(sp)
8003c094:	f000b68f 	lw	s6,240(sp)
8003c098:	ec00b58f 	lw	s5,236(sp)
8003c09c:	e800b48f 	lw	s4,232(sp)
8003c0a0:	e400b38f 	lw	s3,228(sp)
8003c0a4:	e000b28f 	lw	s2,224(sp)
8003c0a8:	dc00b18f 	lw	s1,220(sp)
8003c0ac:	d800b08f 	lw	s0,216(sp)
8003c0b0:	0001bd27 	addiu	sp,sp,256
8003c0b4:	0800e003 	jr	ra
8003c0b8:	00000000 	nop
8003c0bc:	801f023c 	lui	v0,0x1f80
8003c0c0:	dc024290 	lbu	v0,732(v0)
8003c0c4:	e8ffbd27 	addiu	sp,sp,-24
8003c0c8:	1000b0af 	sw	s0,16(sp)
8003c0cc:	801f103c 	lui	s0,0x1f80
8003c0d0:	09004010 	beqz	v0,0x8003c0f8
8003c0d4:	1400bfaf 	sw	ra,20(sp)
8003c0d8:	20000524 	li	a1,32
8003c0dc:	4a000624 	li	a2,74
8003c0e0:	21380002 	move	a3,s0
8003c0e4:	1e80043c 	lui	a0,0x801e
8003c0e8:	500d8424 	addiu	a0,a0,3408
8003c0ec:	94028294 	lhu	v0,660(a0)
8003c0f0:	45b20008 	j	0x8002c914
8003c0f4:	0003e734 	ori	a3,a3,0x300
8003c0f8:	20000524 	li	a1,32
8003c0fc:	4a000624 	li	a2,74
8003c100:	801f073c 	lui	a3,0x1f80
8003c104:	0003e734 	ori	a3,a3,0x300
8003c108:	1e80043c 	lui	a0,0x801e
8003c10c:	500d8424 	addiu	a0,a0,3408
8003c110:	96028294 	lhu	v0,662(a0)
8003c114:	000c8424 	addiu	a0,a0,3072
8003c118:	cb9c000c 	jal	0x8002732c
8003c11c:	21204400 	addu	a0,v0,a0
8003c120:	28000524 	li	a1,40
8003c124:	64000624 	li	a2,100
8003c128:	00030736 	ori	a3,s0,0x300
8003c12c:	1e80043c 	lui	a0,0x801e
8003c130:	500d8424 	addiu	a0,a0,3408
8003c134:	98028294 	lhu	v0,664(a0)
8003c138:	000c8424 	addiu	a0,a0,3072
8003c13c:	cb9c000c 	jal	0x8002732c
8003c140:	21204400 	addu	a0,v0,a0
8003c144:	1400bf8f 	lw	ra,20(sp)
8003c148:	1000b08f 	lw	s0,16(sp)
8003c14c:	1800bd27 	addiu	sp,sp,24
8003c150:	0800e003 	jr	ra
8003c154:	00000000 	nop
8003c158:	e8ffbd27 	addiu	sp,sp,-24
8003c15c:	801f073c 	lui	a3,0x1f80
8003c160:	0003e734 	ori	a3,a3,0x300
8003c164:	1e80043c 	lui	a0,0x801e
8003c168:	500d8424 	addiu	a0,a0,3408
8003c16c:	1000bfaf 	sw	ra,16(sp)
8003c170:	a8028294 	lhu	v0,680(a0)
8003c174:	000c8424 	addiu	a0,a0,3072
8003c178:	20000524 	li	a1,32
8003c17c:	4a000624 	li	a2,74
8003c180:	cb9c000c 	jal	0x8002732c
8003c184:	21204400 	addu	a0,v0,a0
8003c188:	1000bf8f 	lw	ra,16(sp)
8003c18c:	1800bd27 	addiu	sp,sp,24
8003c190:	0800e003 	jr	ra
8003c194:	00000000 	nop
8003c198:	e8ffbd27 	addiu	sp,sp,-24
8003c19c:	801f073c 	lui	a3,0x1f80
8003c1a0:	0003e734 	ori	a3,a3,0x300
8003c1a4:	1e80043c 	lui	a0,0x801e
8003c1a8:	500d8424 	addiu	a0,a0,3408
8003c1ac:	3c000524 	li	a1,60
8003c1b0:	801f023c 	lui	v0,0x1f80
8003c1b4:	00004284 	lh	v0,0(v0)
8003c1b8:	72000624 	li	a2,114
8003c1bc:	1000bfaf 	sw	ra,16(sp)
8003c1c0:	40100200 	sll	v0,v0,0x1
8003c1c4:	21104400 	addu	v0,v0,a0
8003c1c8:	00004294 	lhu	v0,0(v0)
8003c1cc:	000c8424 	addiu	a0,a0,3072
8003c1d0:	cb9c000c 	jal	0x8002732c
8003c1d4:	21204400 	addu	a0,v0,a0
8003c1d8:	1000bf8f 	lw	ra,16(sp)
8003c1dc:	1800bd27 	addiu	sp,sp,24
8003c1e0:	0800e003 	jr	ra
8003c1e4:	00000000 	nop
8003c1e8:	d0ffbd27 	addiu	sp,sp,-48
8003c1ec:	1c00b1af 	sw	s1,28(sp)
8003c1f0:	04001124 	li	s1,4
8003c1f4:	2400b3af 	sw	s3,36(sp)
8003c1f8:	10001324 	li	s3,16
8003c1fc:	2000b2af 	sw	s2,32(sp)
8003c200:	ffff1224 	li	s2,-1
8003c204:	1800b0af 	sw	s0,24(sp)
8003c208:	801f103c 	lui	s0,0x1f80
8003c20c:	80000224 	li	v0,128
8003c210:	2800bfaf 	sw	ra,40(sp)
8003c214:	540302a6 	sh	v0,852(s0)
8003c218:	f0000224 	li	v0,240
8003c21c:	560302a6 	sh	v0,854(s0)
8003c220:	00030224 	li	v0,768
8003c224:	580302a6 	sh	v0,856(s0)
8003c228:	00010224 	li	v0,256
8003c22c:	520300a6 	sh	zero,850(s0)
8003c230:	500300a6 	sh	zero,848(s0)
8003c234:	5a0302a6 	sh	v0,858(s0)
8003c238:	50030426 	addiu	a0,s0,848
8003c23c:	58030526 	addiu	a1,s0,856
8003c240:	21300000 	move	a2,zero
8003c244:	2138c000 	move	a3,a2
8003c248:	d9a0000c 	jal	0x80028364
8003c24c:	1000b3af 	sw	s3,16(sp)
8003c250:	50030296 	lhu	v0,848(s0)
8003c254:	ffff3126 	addiu	s1,s1,-1
8003c258:	80004224 	addiu	v0,v0,128
8003c25c:	f6ff3216 	bne	s1,s2,0x8003c238
8003c260:	500302a6 	sh	v0,848(s0)
8003c264:	2800bf8f 	lw	ra,40(sp)
8003c268:	2400b38f 	lw	s3,36(sp)
8003c26c:	2000b28f 	lw	s2,32(sp)
8003c270:	1c00b18f 	lw	s1,28(sp)
8003c274:	1800b08f 	lw	s0,24(sp)
8003c278:	3000bd27 	addiu	sp,sp,48
8003c27c:	0800e003 	jr	ra
8003c280:	00000000 	nop
8003c284:	e0ffbd27 	addiu	sp,sp,-32
8003c288:	1c00bfaf 	sw	ra,28(sp)
8003c28c:	315d000c 	jal	0x800174c4
8003c290:	1800b0af 	sw	s0,24(sp)
8003c294:	801f103c 	lui	s0,0x1f80
8003c298:	e4020392 	lbu	v1,740(s0)
8003c29c:	48000224 	li	v0,72
8003c2a0:	000302a2 	sb	v0,768(s0)
8003c2a4:	010302a2 	sb	v0,769(s0)
8003c2a8:	020302a2 	sb	v0,770(s0)
8003c2ac:	62000224 	li	v0,98
8003c2b0:	080302a2 	sb	v0,776(s0)
8003c2b4:	42000224 	li	v0,66
8003c2b8:	090302a2 	sb	v0,777(s0)
8003c2bc:	30000224 	li	v0,48
8003c2c0:	0a0302a2 	sb	v0,778(s0)
8003c2c4:	60000224 	li	v0,96
8003c2c8:	0c0302a2 	sb	v0,780(s0)
8003c2cc:	20000224 	li	v0,32
8003c2d0:	0d0302a2 	sb	v0,781(s0)
8003c2d4:	0e0302a2 	sb	v0,782(s0)
8003c2d8:	39000224 	li	v0,57
8003c2dc:	0f0302a2 	sb	v0,783(s0)
8003c2e0:	0b0302a2 	sb	v0,779(s0)
8003c2e4:	1000632c 	sltiu	v1,v1,16
8003c2e8:	05006010 	beqz	v1,0x8003c300
8003c2ec:	030302a2 	sb	v0,771(s0)
8003c2f0:	e4020392 	lbu	v1,740(s0)
8003c2f4:	08000224 	li	v0,8
8003c2f8:	c3b20008 	j	0x8002cb0c
8003c2fc:	23104300 	subu	v0,v0,v1
8003c300:	e4020292 	lbu	v0,740(s0)
8003c304:	00000000 	nop
8003c308:	e8ff4224 	addiu	v0,v0,-24
8003c30c:	600302a6 	sh	v0,864(s0)
8003c310:	3c030436 	ori	a0,s0,0x33c
8003c314:	58030536 	ori	a1,s0,0x358
8003c318:	5c030636 	ori	a2,s0,0x35c
8003c31c:	21380000 	move	a3,zero
8003c320:	60030392 	lbu	v1,864(s0)
8003c324:	40020224 	li	v0,576
8003c328:	580302a6 	sh	v0,856(s0)
8003c32c:	c0010224 	li	v0,448
8003c330:	5a0302a6 	sh	v0,858(s0)
8003c334:	20020224 	li	v0,544
8003c338:	5c0302a6 	sh	v0,860(s0)
8003c33c:	ff010224 	li	v0,511
8003c340:	5e0302a6 	sh	v0,862(s0)
8003c344:	51000224 	li	v0,81
8003c348:	3c0302a6 	sh	v0,828(s0)
8003c34c:	2d000224 	li	v0,45
8003c350:	3e0302a6 	sh	v0,830(s0)
8003c354:	28000224 	li	v0,40
8003c358:	400302a6 	sh	v0,832(s0)
8003c35c:	10000224 	li	v0,16
8003c360:	420302a6 	sh	v0,834(s0)
8003c364:	03000224 	li	v0,3
8003c368:	2e0300a2 	sb	zero,814(s0)
8003c36c:	1000a2af 	sw	v0,16(sp)
8003c370:	60030292 	lbu	v0,864(s0)
8003c374:	80180300 	sll	v1,v1,0x2
8003c378:	60006324 	addiu	v1,v1,96
8003c37c:	40100200 	sll	v0,v0,0x1
8003c380:	30004224 	addiu	v0,v0,48
8003c384:	2c0303a2 	sb	v1,812(s0)
8003c388:	d9a0000c 	jal	0x80028364
8003c38c:	2d0302a2 	sb	v0,813(s0)
8003c390:	dc020296 	lhu	v0,732(s0)
8003c394:	2c000324 	li	v1,44
8003c398:	ff004230 	andi	v0,v0,0xff
8003c39c:	03004010 	beqz	v0,0x8003c3ac
8003c3a0:	3e0303a6 	sh	v1,830(s0)
8003c3a4:	ecb20008 	j	0x8002cbb0
8003c3a8:	4a020224 	li	v0,586
8003c3ac:	65020224 	li	v0,613
8003c3b0:	580302a6 	sh	v0,856(s0)
8003c3b4:	3c030436 	ori	a0,s0,0x33c
8003c3b8:	58030536 	ori	a1,s0,0x358
8003c3bc:	5c030636 	ori	a2,s0,0x35c
8003c3c0:	21380000 	move	a3,zero
8003c3c4:	20000224 	li	v0,32
8003c3c8:	3c0302a6 	sh	v0,828(s0)
8003c3cc:	28000224 	li	v0,40
8003c3d0:	400302a6 	sh	v0,832(s0)
8003c3d4:	03000224 	li	v0,3
8003c3d8:	d9a0000c 	jal	0x80028364
8003c3dc:	1000a2af 	sw	v0,16(sp)
8003c3e0:	dc020396 	lhu	v1,732(s0)
8003c3e4:	80000224 	li	v0,128
8003c3e8:	53006210 	beq	v1,v0,0x8003c538
8003c3ec:	81006228 	slti	v0,v1,129
8003c3f0:	19004010 	beqz	v0,0x8003c458
8003c3f4:	08000224 	li	v0,8
8003c3f8:	3f006210 	beq	v1,v0,0x8003c4f8
8003c3fc:	09006228 	slti	v0,v1,9
8003c400:	07004010 	beqz	v0,0x8003c420
8003c404:	02000224 	li	v0,2
8003c408:	33006210 	beq	v1,v0,0x8003c4d8
8003c40c:	04000224 	li	v0,4
8003c410:	35006210 	beq	v1,v0,0x8003c4e8
8003c414:	10000424 	li	a0,16
8003c418:	52b30008 	j	0x8002cd48
8003c41c:	24000524 	li	a1,36
8003c420:	20000224 	li	v0,32
8003c424:	3c006210 	beq	v1,v0,0x8003c518
8003c428:	21006228 	slti	v0,v1,33
8003c42c:	05004010 	beqz	v0,0x8003c444
8003c430:	10000224 	li	v0,16
8003c434:	34006210 	beq	v1,v0,0x8003c508
8003c438:	10000424 	li	a0,16
8003c43c:	52b30008 	j	0x8002cd48
8003c440:	24000524 	li	a1,36
8003c444:	40000224 	li	v0,64
8003c448:	37006210 	beq	v1,v0,0x8003c528
8003c44c:	10000424 	li	a0,16
8003c450:	52b30008 	j	0x8002cd48
8003c454:	24000524 	li	a1,36
8003c458:	00100224 	li	v0,4096
8003c45c:	2a006210 	beq	v1,v0,0x8003c508
8003c460:	01106228 	slti	v0,v1,4097
8003c464:	0e004010 	beqz	v0,0x8003c4a0
8003c468:	00040224 	li	v0,1024
8003c46c:	1e006210 	beq	v1,v0,0x8003c4e8
8003c470:	01046228 	slti	v0,v1,1025
8003c474:	05004010 	beqz	v0,0x8003c48c
8003c478:	00020224 	li	v0,512
8003c47c:	16006210 	beq	v1,v0,0x8003c4d8
8003c480:	10000424 	li	a0,16
8003c484:	52b30008 	j	0x8002cd48
8003c488:	24000524 	li	a1,36
8003c48c:	00080224 	li	v0,2048
8003c490:	19006210 	beq	v1,v0,0x8003c4f8
8003c494:	10000424 	li	a0,16
8003c498:	52b30008 	j	0x8002cd48
8003c49c:	24000524 	li	a1,36
8003c4a0:	00400224 	li	v0,16384
8003c4a4:	20006210 	beq	v1,v0,0x8003c528
8003c4a8:	01406228 	slti	v0,v1,16385
8003c4ac:	05004010 	beqz	v0,0x8003c4c4
8003c4b0:	00200224 	li	v0,8192
8003c4b4:	18006210 	beq	v1,v0,0x8003c518
8003c4b8:	10000424 	li	a0,16
8003c4bc:	52b30008 	j	0x8002cd48
8003c4c0:	24000524 	li	a1,36
8003c4c4:	00800234 	li	v0,0x8000
8003c4c8:	1b006210 	beq	v1,v0,0x8003c538
8003c4cc:	10000424 	li	a0,16
8003c4d0:	52b30008 	j	0x8002cd48
8003c4d4:	24000524 	li	a1,36
8003c4d8:	24b0000c 	jal	0x8002c090
8003c4dc:	00000000 	nop
8003c4e0:	51b30008 	j	0x8002cd44
8003c4e4:	10000424 	li	a0,16
8003c4e8:	14b0000c 	jal	0x8002c050
8003c4ec:	00000000 	nop
8003c4f0:	51b30008 	j	0x8002cd44
8003c4f4:	10000424 	li	a0,16
8003c4f8:	69b0000c 	jal	0x8002c1a4
8003c4fc:	00000000 	nop
8003c500:	51b30008 	j	0x8002cd44
8003c504:	10000424 	li	a0,16
8003c508:	aeb0000c 	jal	0x8002c2b8
8003c50c:	00000000 	nop
8003c510:	51b30008 	j	0x8002cd44
8003c514:	10000424 	li	a0,16
8003c518:	2fb2000c 	jal	0x8002c8bc
8003c51c:	00000000 	nop
8003c520:	51b30008 	j	0x8002cd44
8003c524:	10000424 	li	a0,16
8003c528:	56b2000c 	jal	0x8002c958
8003c52c:	00000000 	nop
8003c530:	51b30008 	j	0x8002cd44
8003c534:	10000424 	li	a0,16
8003c538:	66b2000c 	jal	0x8002c998
8003c53c:	00000000 	nop
8003c540:	10000424 	li	a0,16
8003c544:	24000524 	li	a1,36
8003c548:	20010624 	li	a2,288
8003c54c:	52a5000c 	jal	0x80029548
8003c550:	c0000724 	li	a3,192
8003c554:	695d000c 	jal	0x800175a4
8003c558:	00000000 	nop
8003c55c:	06020296 	lhu	v0,518(s0)
8003c560:	01000324 	li	v1,1
8003c564:	00140200 	sll	v0,v0,0x10
8003c568:	03140200 	sra	v0,v0,0x10
8003c56c:	03004314 	bne	v0,v1,0x8003c57c
8003c570:	00000000 	nop
8003c574:	23a5000c 	jal	0x8002948c
8003c578:	00000000 	nop
8003c57c:	8d5d000c 	jal	0x80017634
8003c580:	00000000 	nop
8003c584:	1c00bf8f 	lw	ra,28(sp)
8003c588:	1800b08f 	lw	s0,24(sp)
8003c58c:	2000bd27 	addiu	sp,sp,32
8003c590:	0800e003 	jr	ra
8003c594:	00000000 	nop
8003c598:	e0ffbd27 	addiu	sp,sp,-32
8003c59c:	4c000524 	li	a1,76
8003c5a0:	5c000624 	li	a2,92
8003c5a4:	801f073c 	lui	a3,0x1f80
8003c5a8:	0003e734 	ori	a3,a3,0x300
8003c5ac:	1e80023c 	lui	v0,0x801e
8003c5b0:	1000b0af 	sw	s0,16(sp)
8003c5b4:	500d5024 	addiu	s0,v0,3408
8003c5b8:	1800bfaf 	sw	ra,24(sp)
8003c5bc:	1400b1af 	sw	s1,20(sp)
8003c5c0:	20030496 	lhu	a0,800(s0)
8003c5c4:	000c1126 	addiu	s1,s0,3072
8003c5c8:	cb9c000c 	jal	0x8002732c
8003c5cc:	21209100 	addu	a0,a0,s1
8003c5d0:	801f033c 	lui	v1,0x1f80
8003c5d4:	e0026494 	lhu	a0,736(v1)
8003c5d8:	18000224 	li	v0,24
8003c5dc:	000362a0 	sb	v0,768(v1)
8003c5e0:	010362a0 	sb	v0,769(v1)
8003c5e4:	0e008014 	bnez	a0,0x8003c620
8003c5e8:	020362a0 	sb	v0,770(v1)
8003c5ec:	79000524 	li	a1,121
8003c5f0:	88000624 	li	a2,136
8003c5f4:	21386000 	move	a3,v1
8003c5f8:	22030496 	lhu	a0,802(s0)
8003c5fc:	0803e734 	ori	a3,a3,0x308
8003c600:	cb9c000c 	jal	0x8002732c
8003c604:	21209100 	addu	a0,a0,s1
8003c608:	bd000524 	li	a1,189
8003c60c:	88000624 	li	a2,136
8003c610:	801f073c 	lui	a3,0x1f80
8003c614:	24030496 	lhu	a0,804(s0)
8003c618:	94b30008 	j	0x8002ce50
8003c61c:	0003e734 	ori	a3,a3,0x300
8003c620:	79000524 	li	a1,121
8003c624:	88000624 	li	a2,136
8003c628:	801f073c 	lui	a3,0x1f80
8003c62c:	22030496 	lhu	a0,802(s0)
8003c630:	0003e734 	ori	a3,a3,0x300
8003c634:	cb9c000c 	jal	0x8002732c
8003c638:	21209100 	addu	a0,a0,s1
8003c63c:	bd000524 	li	a1,189
8003c640:	88000624 	li	a2,136
8003c644:	801f073c 	lui	a3,0x1f80
8003c648:	24030496 	lhu	a0,804(s0)
8003c64c:	0803e734 	ori	a3,a3,0x308
8003c650:	cb9c000c 	jal	0x8002732c
8003c654:	21209100 	addu	a0,a0,s1
8003c658:	28000424 	li	a0,40
8003c65c:	50000524 	li	a1,80
8003c660:	f0000624 	li	a2,240
8003c664:	86a5000c 	jal	0x80029618
8003c668:	2138a000 	move	a3,a1
8003c66c:	1800bf8f 	lw	ra,24(sp)
8003c670:	1400b18f 	lw	s1,20(sp)
8003c674:	1000b08f 	lw	s0,16(sp)
8003c678:	2000bd27 	addiu	sp,sp,32
8003c67c:	0800e003 	jr	ra
8003c680:	00000000 	nop
8003c684:	e8ffbd27 	addiu	sp,sp,-24
8003c688:	1000bfaf 	sw	ra,16(sp)
8003c68c:	315d000c 	jal	0x800174c4
8003c690:	00000000 	nop
8003c694:	801f033c 	lui	v1,0x1f80
8003c698:	60000224 	li	v0,96
8003c69c:	000362a0 	sb	v0,768(v1)
8003c6a0:	010362a0 	sb	v0,769(v1)
8003c6a4:	020362a0 	sb	v0,770(v1)
8003c6a8:	62000224 	li	v0,98
8003c6ac:	080362a0 	sb	v0,776(v1)
8003c6b0:	42000224 	li	v0,66
8003c6b4:	090362a0 	sb	v0,777(v1)
8003c6b8:	30000224 	li	v0,48
8003c6bc:	0a0362a0 	sb	v0,778(v1)
8003c6c0:	39000224 	li	v0,57
8003c6c4:	0b0362a0 	sb	v0,779(v1)
8003c6c8:	66b3000c 	jal	0x8002cd98
8003c6cc:	030362a0 	sb	v0,771(v1)
8003c6d0:	695d000c 	jal	0x800175a4
8003c6d4:	00000000 	nop
8003c6d8:	23a5000c 	jal	0x8002948c
8003c6dc:	00000000 	nop
8003c6e0:	8d5d000c 	jal	0x80017634
8003c6e4:	00000000 	nop
8003c6e8:	1000bf8f 	lw	ra,16(sp)
8003c6ec:	1800bd27 	addiu	sp,sp,24
8003c6f0:	0800e003 	jr	ra
8003c6f4:	00000000 	nop
8003c6f8:	d8ffbd27 	addiu	sp,sp,-40
8003c6fc:	2400bfaf 	sw	ra,36(sp)
8003c700:	2000b2af 	sw	s2,32(sp)
8003c704:	1c00b1af 	sw	s1,28(sp)
8003c708:	1800b0af 	sw	s0,24(sp)
8003c70c:	10000224 	li	v0,16
8003c710:	1000a2a7 	sh	v0,16(sp)
8003c714:	0a000224 	li	v0,10
8003c718:	315d000c 	jal	0x800174c4
8003c71c:	1200a2a7 	sh	v0,18(sp)
8003c720:	801f123c 	lui	s2,0x1f80
8003c724:	60000224 	li	v0,96
8003c728:	000342a2 	sb	v0,768(s2)
8003c72c:	010342a2 	sb	v0,769(s2)
8003c730:	020342a2 	sb	v0,770(s2)
8003c734:	e4024292 	lbu	v0,740(s2)
8003c738:	31000324 	li	v1,49
8003c73c:	1000422c 	sltiu	v0,v0,16
8003c740:	05004010 	beqz	v0,0x8003c758
8003c744:	030343a2 	sb	v1,771(s2)
8003c748:	e4024392 	lbu	v1,740(s2)
8003c74c:	08000224 	li	v0,8
8003c750:	d9b30008 	j	0x8002cf64
8003c754:	23104300 	subu	v0,v0,v1
8003c758:	e4024292 	lbu	v0,740(s2)
8003c75c:	00000000 	nop
8003c760:	e8ff4224 	addiu	v0,v0,-24
8003c764:	600342a6 	sh	v0,864(s2)
8003c768:	30034436 	ori	a0,s2,0x330
8003c76c:	2c034536 	ori	a1,s2,0x32c
8003c770:	01010624 	li	a2,257
8003c774:	5d000224 	li	v0,93
8003c778:	300342a6 	sh	v0,816(s2)
8003c77c:	86000224 	li	v0,134
8003c780:	340342a6 	sh	v0,820(s2)
8003c784:	60034292 	lbu	v0,864(s2)
8003c788:	10000324 	li	v1,16
8003c78c:	360343a6 	sh	v1,822(s2)
8003c790:	60034392 	lbu	v1,864(s2)
8003c794:	0000488e 	lw	t0,0(s2)
8003c798:	01000724 	li	a3,1
8003c79c:	2e0340a2 	sb	zero,814(s2)
8003c7a0:	80100200 	sll	v0,v0,0x2
8003c7a4:	60004224 	addiu	v0,v0,96
8003c7a8:	40180300 	sll	v1,v1,0x1
8003c7ac:	30006324 	addiu	v1,v1,48
8003c7b0:	2c0342a2 	sb	v0,812(s2)
8003c7b4:	40100800 	sll	v0,t0,0x1
8003c7b8:	21104800 	addu	v0,v0,t0
8003c7bc:	c0100200 	sll	v0,v0,0x3
8003c7c0:	76004224 	addiu	v0,v0,118
8003c7c4:	2d0343a2 	sb	v1,813(s2)
8003c7c8:	469f000c 	jal	0x80027d18
8003c7cc:	320342a6 	sh	v0,818(s2)
8003c7d0:	01000424 	li	a0,1
8003c7d4:	21280000 	move	a1,zero
8003c7d8:	aaa1000c 	jal	0x800286a8
8003c7dc:	2130a000 	move	a2,a1
8003c7e0:	78000624 	li	a2,120
8003c7e4:	00035226 	addiu	s2,s2,768
8003c7e8:	21384002 	move	a3,s2
8003c7ec:	1e80103c 	lui	s0,0x801e
8003c7f0:	500d1026 	addiu	s0,s0,3408
8003c7f4:	000c1126 	addiu	s1,s0,3072
8003c7f8:	40060496 	lhu	a0,1600(s0)
8003c7fc:	1000a597 	lhu	a1,16(sp)
8003c800:	21209100 	addu	a0,a0,s1
8003c804:	6100a524 	addiu	a1,a1,97
8003c808:	cb9c000c 	jal	0x8002732c
8003c80c:	ffffa530 	andi	a1,a1,0xffff
8003c810:	90000624 	li	a2,144
8003c814:	21384002 	move	a3,s2
8003c818:	42060496 	lhu	a0,1602(s0)
8003c81c:	1200a597 	lhu	a1,18(sp)
8003c820:	21209100 	addu	a0,a0,s1
8003c824:	6100a524 	addiu	a1,a1,97
8003c828:	cb9c000c 	jal	0x8002732c
8003c82c:	ffffa530 	andi	a1,a1,0xffff
8003c830:	48000424 	li	a0,72
8003c834:	64000524 	li	a1,100
8003c838:	b0000624 	li	a2,176
8003c83c:	86a5000c 	jal	0x80029618
8003c840:	50000724 	li	a3,80
8003c844:	695d000c 	jal	0x800175a4
8003c848:	00000000 	nop
8003c84c:	0100023c 	lui	v0,0x1
8003c850:	00804234 	ori	v0,v0,0x8000
8003c854:	21280000 	move	a1,zero
8003c858:	2130a000 	move	a2,a1
8003c85c:	1680033c 	lui	v1,0x8016
8003c860:	90d06324 	addiu	v1,v1,-12144
8003c864:	21106200 	addu	v0,v1,v0
8003c868:	c26c4290 	lbu	v0,27842(v0)
8003c86c:	2138a000 	move	a3,a1
8003c870:	40200200 	sll	a0,v0,0x1
8003c874:	21208200 	addu	a0,a0,v0
8003c878:	c0200400 	sll	a0,a0,0x3
8003c87c:	23208200 	subu	a0,a0,v0
8003c880:	80200400 	sll	a0,a0,0x2
8003c884:	f9e6010c 	jal	0x80079be4
8003c888:	21208300 	addu	a0,a0,v1
8003c88c:	8d5d000c 	jal	0x80017634
8003c890:	00000000 	nop
8003c894:	2400bf8f 	lw	ra,36(sp)
8003c898:	2000b28f 	lw	s2,32(sp)
8003c89c:	1c00b18f 	lw	s1,28(sp)
8003c8a0:	1800b08f 	lw	s0,24(sp)
8003c8a4:	2800bd27 	addiu	sp,sp,40
8003c8a8:	0800e003 	jr	ra
8003c8ac:	00000000 	nop
8003c8b0:	e0ffbd27 	addiu	sp,sp,-32
8003c8b4:	1c00bfaf 	sw	ra,28(sp)
8003c8b8:	1800b2af 	sw	s2,24(sp)
8003c8bc:	1400b1af 	sw	s1,20(sp)
8003c8c0:	315d000c 	jal	0x800174c4
8003c8c4:	1000b0af 	sw	s0,16(sp)
8003c8c8:	5c000524 	li	a1,92
8003c8cc:	78000624 	li	a2,120
8003c8d0:	801f073c 	lui	a3,0x1f80
8003c8d4:	0003e734 	ori	a3,a3,0x300
8003c8d8:	801f103c 	lui	s0,0x1f80
8003c8dc:	60000224 	li	v0,96
8003c8e0:	000302a2 	sb	v0,768(s0)
8003c8e4:	010302a2 	sb	v0,769(s0)
8003c8e8:	020302a2 	sb	v0,770(s0)
8003c8ec:	62000224 	li	v0,98
8003c8f0:	080302a2 	sb	v0,776(s0)
8003c8f4:	42000224 	li	v0,66
8003c8f8:	090302a2 	sb	v0,777(s0)
8003c8fc:	30000224 	li	v0,48
8003c900:	0a0302a2 	sb	v0,778(s0)
8003c904:	39000224 	li	v0,57
8003c908:	0b0302a2 	sb	v0,779(s0)
8003c90c:	030302a2 	sb	v0,771(s0)
8003c910:	1e80023c 	lui	v0,0x801e
8003c914:	500d5124 	addiu	s1,v0,3408
8003c918:	a4062496 	lhu	a0,1700(s1)
8003c91c:	000c3226 	addiu	s2,s1,3072
8003c920:	cb9c000c 	jal	0x8002732c
8003c924:	21209200 	addu	a0,a0,s2
8003c928:	de020296 	lhu	v0,734(s0)
8003c92c:	00000000 	nop
8003c930:	0d004014 	bnez	v0,0x8003c968
8003c934:	7f000524 	li	a1,127
8003c938:	98000624 	li	a2,152
8003c93c:	21380002 	move	a3,s0
8003c940:	a6062496 	lhu	a0,1702(s1)
8003c944:	0803e734 	ori	a3,a3,0x308
8003c948:	cb9c000c 	jal	0x8002732c
8003c94c:	21209200 	addu	a0,a0,s2
8003c950:	b7000524 	li	a1,183
8003c954:	98000624 	li	a2,152
8003c958:	21380002 	move	a3,s0
8003c95c:	a8062496 	lhu	a0,1704(s1)
8003c960:	65b40008 	j	0x8002d194
8003c964:	0003e734 	ori	a3,a3,0x300
8003c968:	98000624 	li	a2,152
8003c96c:	801f073c 	lui	a3,0x1f80
8003c970:	a6062496 	lhu	a0,1702(s1)
8003c974:	0003e734 	ori	a3,a3,0x300
8003c978:	cb9c000c 	jal	0x8002732c
8003c97c:	21209200 	addu	a0,a0,s2
8003c980:	b7000524 	li	a1,183
8003c984:	98000624 	li	a2,152
8003c988:	801f073c 	lui	a3,0x1f80
8003c98c:	a8062496 	lhu	a0,1704(s1)
8003c990:	0803e734 	ori	a3,a3,0x308
8003c994:	cb9c000c 	jal	0x8002732c
8003c998:	21209200 	addu	a0,a0,s2
8003c99c:	48000424 	li	a0,72
8003c9a0:	64000524 	li	a1,100
8003c9a4:	b0000624 	li	a2,176
8003c9a8:	86a5000c 	jal	0x80029618
8003c9ac:	50000724 	li	a3,80
8003c9b0:	695d000c 	jal	0x800175a4
8003c9b4:	00000000 	nop
8003c9b8:	8d5d000c 	jal	0x80017634
8003c9bc:	00000000 	nop
8003c9c0:	1c00bf8f 	lw	ra,28(sp)
8003c9c4:	1800b28f 	lw	s2,24(sp)
8003c9c8:	1400b18f 	lw	s1,20(sp)
8003c9cc:	1000b08f 	lw	s0,16(sp)
8003c9d0:	2000bd27 	addiu	sp,sp,32
8003c9d4:	0800e003 	jr	ra
8003c9d8:	00000000 	nop
8003c9dc:	c8ffbd27 	addiu	sp,sp,-56
8003c9e0:	3000b2af 	sw	s2,48(sp)
8003c9e4:	801f123c 	lui	s2,0x1f80
8003c9e8:	3400bfaf 	sw	ra,52(sp)
8003c9ec:	2c00b1af 	sw	s1,44(sp)
8003c9f0:	2800b0af 	sw	s0,40(sp)
8003c9f4:	dc024396 	lhu	v1,732(s2)
8003c9f8:	22000224 	li	v0,34
8003c9fc:	3c0342a6 	sh	v0,828(s2)
8003ca00:	18000224 	li	v0,24
8003ca04:	3e0342a6 	sh	v0,830(s2)
8003ca08:	10000224 	li	v0,16
8003ca0c:	420342a6 	sh	v0,834(s2)
8003ca10:	20020224 	li	v0,544
8003ca14:	5c0342a6 	sh	v0,860(s2)
8003ca18:	ff010224 	li	v0,511
8003ca1c:	5e0342a6 	sh	v0,862(s2)
8003ca20:	01006230 	andi	v0,v1,0x1
8003ca24:	21004010 	beqz	v0,0x8003caac
8003ca28:	21204002 	move	a0,s2
8003ca2c:	3c038434 	ori	a0,a0,0x33c
8003ca30:	21284002 	move	a1,s2
8003ca34:	5803a534 	ori	a1,a1,0x358
8003ca38:	21304002 	move	a2,s2
8003ca3c:	5c03c634 	ori	a2,a2,0x35c
8003ca40:	21380000 	move	a3,zero
8003ca44:	1e000224 	li	v0,30
8003ca48:	400342a6 	sh	v0,832(s2)
8003ca4c:	77020224 	li	v0,631
8003ca50:	580342a6 	sh	v0,856(s2)
8003ca54:	d0010224 	li	v0,464
8003ca58:	03001024 	li	s0,3
8003ca5c:	5a0342a6 	sh	v0,858(s2)
8003ca60:	d9a0000c 	jal	0x80028364
8003ca64:	1000b0af 	sw	s0,16(sp)
8003ca68:	21204002 	move	a0,s2
8003ca6c:	3c038434 	ori	a0,a0,0x33c
8003ca70:	21284002 	move	a1,s2
8003ca74:	5803a534 	ori	a1,a1,0x358
8003ca78:	21304002 	move	a2,s2
8003ca7c:	5c03c634 	ori	a2,a2,0x35c
8003ca80:	21380000 	move	a3,zero
8003ca84:	3c034396 	lhu	v1,828(s2)
8003ca88:	23000224 	li	v0,35
8003ca8c:	400342a6 	sh	v0,832(s2)
8003ca90:	70020224 	li	v0,624
8003ca94:	580342a6 	sh	v0,856(s2)
8003ca98:	c0010224 	li	v0,448
8003ca9c:	5a0342a6 	sh	v0,858(s2)
8003caa0:	1000b0af 	sw	s0,16(sp)
8003caa4:	31b50008 	j	0x8002d4c4
8003caa8:	25006324 	addiu	v1,v1,37
8003caac:	02006230 	andi	v0,v1,0x2
8003cab0:	30004010 	beqz	v0,0x8003cb74
8003cab4:	801f043c 	lui	a0,0x1f80
8003cab8:	3c038434 	ori	a0,a0,0x33c
8003cabc:	801f053c 	lui	a1,0x1f80
8003cac0:	5803a534 	ori	a1,a1,0x358
8003cac4:	801f063c 	lui	a2,0x1f80
8003cac8:	5c03c634 	ori	a2,a2,0x35c
8003cacc:	21380000 	move	a3,zero
8003cad0:	5a000224 	li	v0,90
8003cad4:	400342a6 	sh	v0,832(s2)
8003cad8:	4c020224 	li	v0,588
8003cadc:	d0011124 	li	s1,464
8003cae0:	03001024 	li	s0,3
8003cae4:	580342a6 	sh	v0,856(s2)
8003cae8:	5a0351a6 	sh	s1,858(s2)
8003caec:	d9a0000c 	jal	0x80028364
8003caf0:	1000b0af 	sw	s0,16(sp)
8003caf4:	801f043c 	lui	a0,0x1f80
8003caf8:	3c038434 	ori	a0,a0,0x33c
8003cafc:	801f053c 	lui	a1,0x1f80
8003cb00:	5803a534 	ori	a1,a1,0x358
8003cb04:	801f063c 	lui	a2,0x1f80
8003cb08:	5c03c634 	ori	a2,a2,0x35c
8003cb0c:	21380000 	move	a3,zero
8003cb10:	99000224 	li	v0,153
8003cb14:	3c0342a6 	sh	v0,828(s2)
8003cb18:	36000224 	li	v0,54
8003cb1c:	400342a6 	sh	v0,832(s2)
8003cb20:	69020224 	li	v0,617
8003cb24:	580342a6 	sh	v0,856(s2)
8003cb28:	5a0351a6 	sh	s1,858(s2)
8003cb2c:	d9a0000c 	jal	0x80028364
8003cb30:	1000b0af 	sw	s0,16(sp)
8003cb34:	801f043c 	lui	a0,0x1f80
8003cb38:	3c038434 	ori	a0,a0,0x33c
8003cb3c:	801f053c 	lui	a1,0x1f80
8003cb40:	5803a534 	ori	a1,a1,0x358
8003cb44:	801f063c 	lui	a2,0x1f80
8003cb48:	5c03c634 	ori	a2,a2,0x35c
8003cb4c:	21380000 	move	a3,zero
8003cb50:	83000224 	li	v0,131
8003cb54:	3c0342a6 	sh	v0,828(s2)
8003cb58:	14000224 	li	v0,20
8003cb5c:	400342a6 	sh	v0,832(s2)
8003cb60:	64020224 	li	v0,612
8003cb64:	580342a6 	sh	v0,856(s2)
8003cb68:	5a0351a6 	sh	s1,858(s2)
8003cb6c:	32b50008 	j	0x8002d4c8
8003cb70:	1000b0af 	sw	s0,16(sp)
8003cb74:	04006230 	andi	v0,v1,0x4
8003cb78:	30004010 	beqz	v0,0x8003cc3c
8003cb7c:	3c038434 	ori	a0,a0,0x33c
8003cb80:	801f053c 	lui	a1,0x1f80
8003cb84:	5803a534 	ori	a1,a1,0x358
8003cb88:	801f063c 	lui	a2,0x1f80
8003cb8c:	5c03c634 	ori	a2,a2,0x35c
8003cb90:	21380000 	move	a3,zero
8003cb94:	5a000224 	li	v0,90
8003cb98:	400342a6 	sh	v0,832(s2)
8003cb9c:	4c020224 	li	v0,588
8003cba0:	d0011124 	li	s1,464
8003cba4:	03001024 	li	s0,3
8003cba8:	580342a6 	sh	v0,856(s2)
8003cbac:	5a0351a6 	sh	s1,858(s2)
8003cbb0:	d9a0000c 	jal	0x80028364
8003cbb4:	1000b0af 	sw	s0,16(sp)
8003cbb8:	801f043c 	lui	a0,0x1f80
8003cbbc:	3c038434 	ori	a0,a0,0x33c
8003cbc0:	801f053c 	lui	a1,0x1f80
8003cbc4:	5803a534 	ori	a1,a1,0x358
8003cbc8:	801f063c 	lui	a2,0x1f80
8003cbcc:	5c03c634 	ori	a2,a2,0x35c
8003cbd0:	21380000 	move	a3,zero
8003cbd4:	99000224 	li	v0,153
8003cbd8:	3c0342a6 	sh	v0,828(s2)
8003cbdc:	36000224 	li	v0,54
8003cbe0:	400342a6 	sh	v0,832(s2)
8003cbe4:	69020224 	li	v0,617
8003cbe8:	580342a6 	sh	v0,856(s2)
8003cbec:	5a0351a6 	sh	s1,858(s2)
8003cbf0:	d9a0000c 	jal	0x80028364
8003cbf4:	1000b0af 	sw	s0,16(sp)
8003cbf8:	801f043c 	lui	a0,0x1f80
8003cbfc:	3c038434 	ori	a0,a0,0x33c
8003cc00:	801f053c 	lui	a1,0x1f80
8003cc04:	5803a534 	ori	a1,a1,0x358
8003cc08:	801f063c 	lui	a2,0x1f80
8003cc0c:	5c03c634 	ori	a2,a2,0x35c
8003cc10:	21380000 	move	a3,zero
8003cc14:	82000224 	li	v0,130
8003cc18:	3c0342a6 	sh	v0,828(s2)
8003cc1c:	14000224 	li	v0,20
8003cc20:	400342a6 	sh	v0,832(s2)
8003cc24:	4f020224 	li	v0,591
8003cc28:	580342a6 	sh	v0,856(s2)
8003cc2c:	b0010224 	li	v0,432
8003cc30:	5a0342a6 	sh	v0,858(s2)
8003cc34:	32b50008 	j	0x8002d4c8
8003cc38:	1000b0af 	sw	s0,16(sp)
8003cc3c:	08006230 	andi	v0,v1,0x8
8003cc40:	23004010 	beqz	v0,0x8003ccd0
8003cc44:	801f043c 	lui	a0,0x1f80
8003cc48:	3c038434 	ori	a0,a0,0x33c
8003cc4c:	801f053c 	lui	a1,0x1f80
8003cc50:	5803a534 	ori	a1,a1,0x358
8003cc54:	801f063c 	lui	a2,0x1f80
8003cc58:	5c03c634 	ori	a2,a2,0x35c
8003cc5c:	21380000 	move	a3,zero
8003cc60:	3c000224 	li	v0,60
8003cc64:	400342a6 	sh	v0,832(s2)
8003cc68:	40020224 	li	v0,576
8003cc6c:	580342a6 	sh	v0,856(s2)
8003cc70:	e0010224 	li	v0,480
8003cc74:	03001024 	li	s0,3
8003cc78:	5a0342a6 	sh	v0,858(s2)
8003cc7c:	d9a0000c 	jal	0x80028364
8003cc80:	1000b0af 	sw	s0,16(sp)
8003cc84:	801f043c 	lui	a0,0x1f80
8003cc88:	3c038434 	ori	a0,a0,0x33c
8003cc8c:	801f053c 	lui	a1,0x1f80
8003cc90:	5803a534 	ori	a1,a1,0x358
8003cc94:	801f063c 	lui	a2,0x1f80
8003cc98:	5c03c634 	ori	a2,a2,0x35c
8003cc9c:	21380000 	move	a3,zero
8003cca0:	3c034396 	lhu	v1,828(s2)
8003cca4:	24000224 	li	v0,36
8003cca8:	400342a6 	sh	v0,832(s2)
8003ccac:	70020224 	li	v0,624
8003ccb0:	580342a6 	sh	v0,856(s2)
8003ccb4:	c0010224 	li	v0,448
8003ccb8:	5a0342a6 	sh	v0,858(s2)
8003ccbc:	1000b0af 	sw	s0,16(sp)
8003ccc0:	3f006324 	addiu	v1,v1,63
8003ccc4:	3c0343a6 	sh	v1,828(s2)
8003ccc8:	d9a0000c 	jal	0x80028364
8003cccc:	00000000 	nop
8003ccd0:	10000424 	li	a0,16
8003ccd4:	21288000 	move	a1,a0
8003ccd8:	20010624 	li	a2,288
8003ccdc:	86a5000c 	jal	0x80029618
8003cce0:	d0000724 	li	a3,208
8003cce4:	dc024296 	lhu	v0,732(s2)
8003cce8:	00000000 	nop
8003ccec:	01004230 	andi	v0,v0,0x1
8003ccf0:	19004010 	beqz	v0,0x8003cd58
8003ccf4:	0880023c 	lui	v0,0x8008
8003ccf8:	1c7f4624 	addiu	a2,v0,32540
8003ccfc:	0300c388 	lwl	v1,3(a2)
8003cd00:	0000c398 	lwr	v1,0(a2)
8003cd04:	0700c488 	lwl	a0,7(a2)
8003cd08:	0400c498 	lwr	a0,4(a2)
8003cd0c:	1b00a3ab 	swl	v1,27(sp)
8003cd10:	1800a3bb 	swr	v1,24(sp)
8003cd14:	1f00a4ab 	swl	a0,31(sp)
8003cd18:	1c00a4bb 	swr	a0,28(sp)
8003cd1c:	0880023c 	lui	v0,0x8008
8003cd20:	607f4624 	addiu	a2,v0,32608
8003cd24:	0300c388 	lwl	v1,3(a2)
8003cd28:	0000c398 	lwr	v1,0(a2)
8003cd2c:	00000000 	nop
8003cd30:	2300a3ab 	swl	v1,35(sp)
8003cd34:	2000a3bb 	swr	v1,32(sp)
8003cd38:	1800a427 	addiu	a0,sp,24
8003cd3c:	2000a527 	addiu	a1,sp,32
8003cd40:	88a0000c 	jal	0x80028220
8003cd44:	01000624 	li	a2,1
8003cd48:	02000424 	li	a0,2
8003cd4c:	21280000 	move	a1,zero
8003cd50:	aaa1000c 	jal	0x800286a8
8003cd54:	2130a000 	move	a2,a1
8003cd58:	3400bf8f 	lw	ra,52(sp)
8003cd5c:	3000b28f 	lw	s2,48(sp)
8003cd60:	2c00b18f 	lw	s1,44(sp)
8003cd64:	2800b08f 	lw	s0,40(sp)
8003cd68:	3800bd27 	addiu	sp,sp,56
8003cd6c:	0800e003 	jr	ra
8003cd70:	00000000 	nop
8003cd74:	e8ffbd27 	addiu	sp,sp,-24
8003cd78:	801f073c 	lui	a3,0x1f80
8003cd7c:	1000bfaf 	sw	ra,16(sp)
8003cd80:	dc02e294 	lhu	v0,732(a3)
8003cd84:	00000000 	nop
8003cd88:	06004230 	andi	v0,v0,0x6
8003cd8c:	03004010 	beqz	v0,0x8003cd9c
8003cd90:	36000324 	li	v1,54
8003cd94:	69b50008 	j	0x8002d5a4
8003cd98:	da000224 	li	v0,218
8003cd9c:	1c000324 	li	v1,28
8003cda0:	10010224 	li	v0,272
8003cda4:	3403e2a4 	sh	v0,820(a3)
8003cda8:	3003e434 	ori	a0,a3,0x330
8003cdac:	2c03e534 	ori	a1,a3,0x32c
8003cdb0:	fcff6224 	addiu	v0,v1,-4
8003cdb4:	e002e394 	lhu	v1,736(a3)
8003cdb8:	01010624 	li	a2,257
8003cdbc:	3003e2a4 	sh	v0,816(a3)
8003cdc0:	22000224 	li	v0,34
8003cdc4:	3603e2a4 	sh	v0,822(a3)
8003cdc8:	001c0300 	sll	v1,v1,0x10
8003cdcc:	031c0300 	sra	v1,v1,0x10
8003cdd0:	c0100300 	sll	v0,v1,0x3
8003cdd4:	21104300 	addu	v0,v0,v1
8003cdd8:	80100200 	sll	v0,v0,0x2
8003cddc:	2c004224 	addiu	v0,v0,44
8003cde0:	3203e2a4 	sh	v0,818(a3)
8003cde4:	469f000c 	jal	0x80027d18
8003cde8:	01000724 	li	a3,1
8003cdec:	01000424 	li	a0,1
8003cdf0:	21280000 	move	a1,zero
8003cdf4:	aaa1000c 	jal	0x800286a8
8003cdf8:	2130a000 	move	a2,a1
8003cdfc:	1000bf8f 	lw	ra,16(sp)
8003ce00:	1800bd27 	addiu	sp,sp,24
8003ce04:	0800e003 	jr	ra
8003ce08:	00000000 	nop
8003ce0c:	c0ffbd27 	addiu	sp,sp,-64
8003ce10:	2000b2af 	sw	s2,32(sp)
8003ce14:	801f123c 	lui	s2,0x1f80
8003ce18:	3c00bfaf 	sw	ra,60(sp)
8003ce1c:	3800beaf 	sw	s8,56(sp)
8003ce20:	3400b7af 	sw	s7,52(sp)
8003ce24:	3000b6af 	sw	s6,48(sp)
8003ce28:	2c00b5af 	sw	s5,44(sp)
8003ce2c:	2800b4af 	sw	s4,40(sp)
8003ce30:	2400b3af 	sw	s3,36(sp)
8003ce34:	1c00b1af 	sw	s1,28(sp)
8003ce38:	1800b0af 	sw	s0,24(sp)
8003ce3c:	08004296 	lhu	v0,8(s2)
8003ce40:	05000824 	li	t0,5
8003ce44:	00140200 	sll	v0,v0,0x10
8003ce48:	031c0200 	sra	v1,v0,0x10
8003ce4c:	06006228 	slti	v0,v1,6
8003ce50:	02004010 	beqz	v0,0x8003ce5c
8003ce54:	1000a8af 	sw	t0,16(sp)
8003ce58:	1000a3af 	sw	v1,16(sp)
8003ce5c:	f4000524 	li	a1,244
8003ce60:	1b000624 	li	a2,27
8003ce64:	801f073c 	lui	a3,0x1f80
8003ce68:	1803e734 	ori	a3,a3,0x318
8003ce6c:	1c80023c 	lui	v0,0x801c
8003ce70:	90755324 	addiu	s3,v0,30096
8003ce74:	0a016492 	lbu	a0,266(s3)
8003ce78:	0003023c 	lui	v0,0x300
8003ce7c:	7f008430 	andi	a0,a0,0x7f
8003ce80:	109d000c 	jal	0x80027440
8003ce84:	25208200 	or	a0,a0,v0
8003ce88:	a0000524 	li	a1,160
8003ce8c:	1b000624 	li	a2,27
8003ce90:	801f073c 	lui	a3,0x1f80
8003ce94:	0803e734 	ori	a3,a3,0x308
8003ce98:	1e80023c 	lui	v0,0x801e
8003ce9c:	500d5024 	addiu	s0,v0,3408
8003cea0:	c8000496 	lhu	a0,200(s0)
8003cea4:	000c1126 	addiu	s1,s0,3072
8003cea8:	cb9c000c 	jal	0x8002732c
8003ceac:	21209100 	addu	a0,a0,s1
8003ceb0:	1000a88f 	lw	t0,16(sp)
8003ceb4:	00000000 	nop
8003ceb8:	7e000019 	blez	t0,0x8003d0b4
8003cebc:	21a80000 	move	s5,zero
8003cec0:	3e001e24 	li	s8,62
8003cec4:	30001724 	li	s7,48
8003cec8:	21b0a002 	move	s6,s5
8003cecc:	1c80083c 	lui	t0,0x801c
8003ced0:	e2024296 	lhu	v0,738(s2)
8003ced4:	0400438e 	lw	v1,4(s2)
8003ced8:	00140200 	sll	v0,v0,0x10
8003cedc:	03140200 	sra	v0,v0,0x10
8003cee0:	21105500 	addu	v0,v0,s5
8003cee4:	40100200 	sll	v0,v0,0x1
8003cee8:	21104300 	addu	v0,v0,v1
8003ceec:	00004284 	lh	v0,0(v0)
8003cef0:	90750825 	addiu	t0,t0,30096
8003cef4:	40100200 	sll	v0,v0,0x1
8003cef8:	21104800 	addu	v0,v0,t0
8003cefc:	1c80083c 	lui	t0,0x801c
8003cf00:	3a015194 	lhu	s1,314(v0)
8003cf04:	f8760825 	addiu	t0,t0,30456
8003cf08:	40101100 	sll	v0,s1,0x1
8003cf0c:	21105100 	addu	v0,v0,s1
8003cf10:	80100200 	sll	v0,v0,0x2
8003cf14:	23105100 	subu	v0,v0,s1
8003cf18:	80100200 	sll	v0,v0,0x2
8003cf1c:	21104800 	addu	v0,v0,t0
8003cf20:	1c80083c 	lui	t0,0x801c
8003cf24:	90750825 	addiu	t0,t0,30096
8003cf28:	0a010391 	lbu	v1,266(t0)
8003cf2c:	1a014290 	lbu	v0,282(v0)
8003cf30:	7f006330 	andi	v1,v1,0x7f
8003cf34:	2b186200 	sltu	v1,v1,v0
8003cf38:	04006014 	bnez	v1,0x8003cf4c
8003cf3c:	0c035426 	addiu	s4,s2,780
8003cf40:	00035426 	addiu	s4,s2,768
8003cf44:	d4b50008 	j	0x8002d750
8003cf48:	10035326 	addiu	s3,s2,784
8003cf4c:	1c035326 	addiu	s3,s2,796
8003cf50:	1c000524 	li	a1,28
8003cf54:	ffffe632 	andi	a2,s7,0xffff
8003cf58:	40801100 	sll	s0,s1,0x1
8003cf5c:	0f034392 	lbu	v1,783(s2)
8003cf60:	03034292 	lbu	v0,771(s2)
8003cf64:	80006334 	ori	v1,v1,0x80
8003cf68:	0f0343a2 	sb	v1,783(s2)
8003cf6c:	0000438e 	lw	v1,0(s2)
8003cf70:	80004234 	ori	v0,v0,0x80
8003cf74:	030342a2 	sb	v0,771(s2)
8003cf78:	21100302 	addu	v0,s0,v1
8003cf7c:	00004494 	lhu	a0,0(v0)
8003cf80:	21388002 	move	a3,s4
8003cf84:	000c8424 	addiu	a0,a0,3072
8003cf88:	cb9c000c 	jal	0x8002732c
8003cf8c:	21206400 	addu	a0,v1,a0
8003cf90:	21801102 	addu	s0,s0,s1
8003cf94:	80801000 	sll	s0,s0,0x2
8003cf98:	23801102 	subu	s0,s0,s1
8003cf9c:	80801000 	sll	s0,s0,0x2
8003cfa0:	1c80083c 	lui	t0,0x801c
8003cfa4:	f8760825 	addiu	t0,t0,30456
8003cfa8:	21880802 	addu	s1,s0,t0
8003cfac:	03034292 	lbu	v0,771(s2)
8003cfb0:	0f034392 	lbu	v1,783(s2)
8003cfb4:	7f004230 	andi	v0,v0,0x7f
8003cfb8:	7f006330 	andi	v1,v1,0x7f
8003cfbc:	030342a2 	sb	v0,771(s2)
8003cfc0:	0f0343a2 	sb	v1,783(s2)
8003cfc4:	3f012292 	lbu	v0,319(s1)
8003cfc8:	00000000 	nop
8003cfcc:	1e004010 	beqz	v0,0x8003d048
8003cfd0:	48000524 	li	a1,72
8003cfd4:	ffffd033 	andi	s0,s8,0xffff
8003cfd8:	21300002 	move	a2,s0
8003cfdc:	1e80083c 	lui	t0,0x801e
8003cfe0:	500d0825 	addiu	t0,t0,3408
8003cfe4:	21388002 	move	a3,s4
8003cfe8:	da000495 	lhu	a0,218(t0)
8003cfec:	1e80083c 	lui	t0,0x801e
8003cff0:	50190825 	addiu	t0,t0,6480
8003cff4:	cb9c000c 	jal	0x8002732c
8003cff8:	21208800 	addu	a0,a0,t0
8003cffc:	80000524 	li	a1,128
8003d000:	21300002 	move	a2,s0
8003d004:	21386002 	move	a3,s3
8003d008:	40012492 	lbu	a0,320(s1)
8003d00c:	0003083c 	lui	t0,0x300
8003d010:	109d000c 	jal	0x80027440
8003d014:	25208800 	or	a0,a0,t0
8003d018:	4a000424 	li	a0,74
8003d01c:	a0000524 	li	a1,160
8003d020:	21300002 	move	a2,s0
8003d024:	b39b000c 	jal	0x80026ecc
8003d028:	21388002 	move	a3,s4
8003d02c:	ac000524 	li	a1,172
8003d030:	21300002 	move	a2,s0
8003d034:	21386002 	move	a3,s3
8003d038:	3f012492 	lbu	a0,319(s1)
8003d03c:	0003083c 	lui	t0,0x300
8003d040:	109d000c 	jal	0x80027440
8003d044:	25208800 	or	a0,a0,t0
8003d048:	f4000524 	li	a1,244
8003d04c:	3e00d026 	addiu	s0,s6,62
8003d050:	ffff1032 	andi	s0,s0,0xffff
8003d054:	21300002 	move	a2,s0
8003d058:	21386002 	move	a3,s3
8003d05c:	2400de27 	addiu	s8,s8,36
8003d060:	2400f726 	addiu	s7,s7,36
8003d064:	2400d626 	addiu	s6,s6,36
8003d068:	1a012492 	lbu	a0,282(s1)
8003d06c:	0003083c 	lui	t0,0x300
8003d070:	109d000c 	jal	0x80027440
8003d074:	25208800 	or	a0,a0,t0
8003d078:	d8000524 	li	a1,216
8003d07c:	21300002 	move	a2,s0
8003d080:	1e80083c 	lui	t0,0x801e
8003d084:	500d0825 	addiu	t0,t0,3408
8003d088:	21388002 	move	a3,s4
8003d08c:	cc000495 	lhu	a0,204(t0)
8003d090:	1e80083c 	lui	t0,0x801e
8003d094:	50190825 	addiu	t0,t0,6480
8003d098:	cb9c000c 	jal	0x8002732c
8003d09c:	21208800 	addu	a0,a0,t0
8003d0a0:	1000a88f 	lw	t0,16(sp)
8003d0a4:	0100b526 	addiu	s5,s5,1
8003d0a8:	2a10a802 	slt	v0,s5,t0
8003d0ac:	88ff4014 	bnez	v0,0x8003ced0
8003d0b0:	1c80083c 	lui	t0,0x801c
8003d0b4:	3c00bf8f 	lw	ra,60(sp)
8003d0b8:	3800be8f 	lw	s8,56(sp)
8003d0bc:	3400b78f 	lw	s7,52(sp)
8003d0c0:	3000b68f 	lw	s6,48(sp)
8003d0c4:	2c00b58f 	lw	s5,44(sp)
8003d0c8:	2800b48f 	lw	s4,40(sp)
8003d0cc:	2400b38f 	lw	s3,36(sp)
8003d0d0:	2000b28f 	lw	s2,32(sp)
8003d0d4:	1c00b18f 	lw	s1,28(sp)
8003d0d8:	1800b08f 	lw	s0,24(sp)
8003d0dc:	4000bd27 	addiu	sp,sp,64
8003d0e0:	0800e003 	jr	ra
8003d0e4:	00000000 	nop
8003d0e8:	c8ffbd27 	addiu	sp,sp,-56
8003d0ec:	1c00b3af 	sw	s3,28(sp)
8003d0f0:	801f133c 	lui	s3,0x1f80
8003d0f4:	3400bfaf 	sw	ra,52(sp)
8003d0f8:	3000beaf 	sw	s8,48(sp)
8003d0fc:	2c00b7af 	sw	s7,44(sp)
8003d100:	2800b6af 	sw	s6,40(sp)
8003d104:	2400b5af 	sw	s5,36(sp)
8003d108:	2000b4af 	sw	s4,32(sp)
8003d10c:	1800b2af 	sw	s2,24(sp)
8003d110:	1400b1af 	sw	s1,20(sp)
8003d114:	1000b0af 	sw	s0,16(sp)
8003d118:	08006296 	lhu	v0,8(s3)
8003d11c:	00000000 	nop
8003d120:	00140200 	sll	v0,v0,0x10
8003d124:	031c0200 	sra	v1,v0,0x10
8003d128:	06006228 	slti	v0,v1,6
8003d12c:	02004010 	beqz	v0,0x8003d138
8003d130:	05001e24 	li	s8,5
8003d134:	21f06000 	move	s8,v1
8003d138:	4c00c01b 	blez	s8,0x8003d26c
8003d13c:	21900000 	move	s2,zero
8003d140:	801f163c 	lui	s6,0x1f80
8003d144:	0003d636 	ori	s6,s6,0x300
8003d148:	801f173c 	lui	s7,0x1f80
8003d14c:	1003f736 	ori	s7,s7,0x310
8003d150:	3e001524 	li	s5,62
8003d154:	30001424 	li	s4,48
8003d158:	36000524 	li	a1,54
8003d15c:	ffff8632 	andi	a2,s4,0xffff
8003d160:	e2026296 	lhu	v0,738(s3)
8003d164:	0400638e 	lw	v1,4(s3)
8003d168:	00140200 	sll	v0,v0,0x10
8003d16c:	03140200 	sra	v0,v0,0x10
8003d170:	21105200 	addu	v0,v0,s2
8003d174:	40100200 	sll	v0,v0,0x1
8003d178:	21104300 	addu	v0,v0,v1
8003d17c:	03036392 	lbu	v1,771(s3)
8003d180:	00005184 	lh	s1,0(v0)
8003d184:	80006334 	ori	v1,v1,0x80
8003d188:	030363a2 	sb	v1,771(s3)
8003d18c:	0000638e 	lw	v1,0(s3)
8003d190:	40801100 	sll	s0,s1,0x1
8003d194:	21100302 	addu	v0,s0,v1
8003d198:	00004494 	lhu	a0,0(v0)
8003d19c:	2138c002 	move	a3,s6
8003d1a0:	000c8424 	addiu	a0,a0,3072
8003d1a4:	cb9c000c 	jal	0x8002732c
8003d1a8:	21206400 	addu	a0,v1,a0
8003d1ac:	21801102 	addu	s0,s0,s1
8003d1b0:	80801000 	sll	s0,s0,0x2
8003d1b4:	23801102 	subu	s0,s0,s1
8003d1b8:	80801000 	sll	s0,s0,0x2
8003d1bc:	1c80083c 	lui	t0,0x801c
8003d1c0:	f8760825 	addiu	t0,t0,30456
8003d1c4:	03036292 	lbu	v0,771(s3)
8003d1c8:	21880802 	addu	s1,s0,t0
8003d1cc:	7f004230 	andi	v0,v0,0x7f
8003d1d0:	030362a2 	sb	v0,771(s3)
8003d1d4:	3f012292 	lbu	v0,319(s1)
8003d1d8:	00000000 	nop
8003d1dc:	1e004010 	beqz	v0,0x8003d258
8003d1e0:	83000524 	li	a1,131
8003d1e4:	ffffb032 	andi	s0,s5,0xffff
8003d1e8:	21300002 	move	a2,s0
8003d1ec:	1e80083c 	lui	t0,0x801e
8003d1f0:	500d0825 	addiu	t0,t0,3408
8003d1f4:	2138c002 	move	a3,s6
8003d1f8:	da000495 	lhu	a0,218(t0)
8003d1fc:	1e80083c 	lui	t0,0x801e
8003d200:	50190825 	addiu	t0,t0,6480
8003d204:	cb9c000c 	jal	0x8002732c
8003d208:	21208800 	addu	a0,a0,t0
8003d20c:	bb000524 	li	a1,187
8003d210:	21300002 	move	a2,s0
8003d214:	2138e002 	move	a3,s7
8003d218:	40012492 	lbu	a0,320(s1)
8003d21c:	0003083c 	lui	t0,0x300
8003d220:	109d000c 	jal	0x80027440
8003d224:	25208800 	or	a0,a0,t0
8003d228:	4a000424 	li	a0,74
8003d22c:	db000524 	li	a1,219
8003d230:	21300002 	move	a2,s0
8003d234:	b39b000c 	jal	0x80026ecc
8003d238:	2138c002 	move	a3,s6
8003d23c:	e7000524 	li	a1,231
8003d240:	21300002 	move	a2,s0
8003d244:	2138e002 	move	a3,s7
8003d248:	3f012492 	lbu	a0,319(s1)
8003d24c:	0003083c 	lui	t0,0x300
8003d250:	109d000c 	jal	0x80027440
8003d254:	25208800 	or	a0,a0,t0
8003d258:	2400b526 	addiu	s5,s5,36
8003d25c:	01005226 	addiu	s2,s2,1
8003d260:	2a105e02 	slt	v0,s2,s8
8003d264:	bcff4014 	bnez	v0,0x8003d158
8003d268:	24009426 	addiu	s4,s4,36
8003d26c:	3400bf8f 	lw	ra,52(sp)
8003d270:	3000be8f 	lw	s8,48(sp)
8003d274:	2c00b78f 	lw	s7,44(sp)
8003d278:	2800b68f 	lw	s6,40(sp)
8003d27c:	2400b58f 	lw	s5,36(sp)
8003d280:	2000b48f 	lw	s4,32(sp)
8003d284:	1c00b38f 	lw	s3,28(sp)
8003d288:	1800b28f 	lw	s2,24(sp)
8003d28c:	1400b18f 	lw	s1,20(sp)
8003d290:	1000b08f 	lw	s0,16(sp)
8003d294:	3800bd27 	addiu	sp,sp,56
8003d298:	0800e003 	jr	ra
8003d29c:	00000000 	nop
8003d2a0:	c0ffbd27 	addiu	sp,sp,-64
8003d2a4:	f4000524 	li	a1,244
8003d2a8:	1b000624 	li	a2,27
8003d2ac:	801f073c 	lui	a3,0x1f80
8003d2b0:	1803e734 	ori	a3,a3,0x318
8003d2b4:	1a80023c 	lui	v0,0x801a
8003d2b8:	2a8f4294 	lhu	v0,-28886(v0)
8003d2bc:	0004043c 	lui	a0,0x400
8003d2c0:	3c00bfaf 	sw	ra,60(sp)
8003d2c4:	3800beaf 	sw	s8,56(sp)
8003d2c8:	3400b7af 	sw	s7,52(sp)
8003d2cc:	3000b6af 	sw	s6,48(sp)
8003d2d0:	2c00b5af 	sw	s5,44(sp)
8003d2d4:	2800b4af 	sw	s4,40(sp)
8003d2d8:	2400b3af 	sw	s3,36(sp)
8003d2dc:	2000b2af 	sw	s2,32(sp)
8003d2e0:	1c00b1af 	sw	s1,28(sp)
8003d2e4:	1800b0af 	sw	s0,24(sp)
8003d2e8:	109d000c 	jal	0x80027440
8003d2ec:	25204400 	or	a0,v0,a0
8003d2f0:	b0000524 	li	a1,176
8003d2f4:	1b000624 	li	a2,27
8003d2f8:	801f073c 	lui	a3,0x1f80
8003d2fc:	0803e734 	ori	a3,a3,0x308
8003d300:	1e80023c 	lui	v0,0x801e
8003d304:	500d5024 	addiu	s0,v0,3408
8003d308:	ca000496 	lhu	a0,202(s0)
8003d30c:	000c1126 	addiu	s1,s0,3072
8003d310:	cb9c000c 	jal	0x8002732c
8003d314:	21209100 	addu	a0,a0,s1
8003d318:	801f123c 	lui	s2,0x1f80
8003d31c:	08004296 	lhu	v0,8(s2)
8003d320:	05000824 	li	t0,5
8003d324:	00140200 	sll	v0,v0,0x10
8003d328:	031c0200 	sra	v1,v0,0x10
8003d32c:	06006228 	slti	v0,v1,6
8003d330:	02004010 	beqz	v0,0x8003d33c
8003d334:	1000a8af 	sw	t0,16(sp)
8003d338:	1000a3af 	sw	v1,16(sp)
8003d33c:	1000a88f 	lw	t0,16(sp)
8003d340:	00000000 	nop
8003d344:	7d000019 	blez	t0,0x8003d53c
8003d348:	21b00000 	move	s6,zero
8003d34c:	3e000824 	li	t0,62
8003d350:	1400a8af 	sw	t0,20(sp)
8003d354:	30001e24 	li	s8,48
8003d358:	21b8c002 	move	s7,s6
8003d35c:	5555043c 	lui	a0,0x5555
8003d360:	1c80083c 	lui	t0,0x801c
8003d364:	e2024296 	lhu	v0,738(s2)
8003d368:	0400438e 	lw	v1,4(s2)
8003d36c:	00140200 	sll	v0,v0,0x10
8003d370:	03140200 	sra	v0,v0,0x10
8003d374:	21105600 	addu	v0,v0,s6
8003d378:	40100200 	sll	v0,v0,0x1
8003d37c:	21104300 	addu	v0,v0,v1
8003d380:	00005184 	lh	s1,0(v0)
8003d384:	f8760825 	addiu	t0,t0,30456
8003d388:	40101100 	sll	v0,s1,0x1
8003d38c:	21105100 	addu	v0,v0,s1
8003d390:	80100200 	sll	v0,v0,0x2
8003d394:	23105100 	subu	v0,v0,s1
8003d398:	80100200 	sll	v0,v0,0x2
8003d39c:	21104800 	addu	v0,v0,t0
8003d3a0:	1b014390 	lbu	v1,283(v0)
8003d3a4:	56558434 	ori	a0,a0,0x5556
8003d3a8:	40180300 	sll	v1,v1,0x1
8003d3ac:	18006400 	mult	v1,a0
8003d3b0:	3f014390 	lbu	v1,319(v0)
8003d3b4:	40014290 	lbu	v0,320(v0)
8003d3b8:	10200000 	mfhi	a0
8003d3bc:	23186200 	subu	v1,v1,v0
8003d3c0:	00000000 	nop
8003d3c4:	18008300 	mult	a0,v1
8003d3c8:	12a80000 	mflo	s5
8003d3cc:	02004014 	bnez	v0,0x8003d3d8
8003d3d0:	1a80023c 	lui	v0,0x801a
8003d3d4:	40a81500 	sll	s5,s5,0x1
8003d3d8:	2a8f4294 	lhu	v0,-28886(v0)
8003d3dc:	00000000 	nop
8003d3e0:	2a10a202 	slt	v0,s5,v0
8003d3e4:	03004010 	beqz	v0,0x8003d3f4
8003d3e8:	00035326 	addiu	s3,s2,768
8003d3ec:	ffb60008 	j	0x8002dbfc
8003d3f0:	10035426 	addiu	s4,s2,784
8003d3f4:	0c035326 	addiu	s3,s2,780
8003d3f8:	1c035426 	addiu	s4,s2,796
8003d3fc:	1c000524 	li	a1,28
8003d400:	ffffc633 	andi	a2,s8,0xffff
8003d404:	40801100 	sll	s0,s1,0x1
8003d408:	0f034392 	lbu	v1,783(s2)
8003d40c:	03034292 	lbu	v0,771(s2)
8003d410:	80006334 	ori	v1,v1,0x80
8003d414:	0f0343a2 	sb	v1,783(s2)
8003d418:	0000438e 	lw	v1,0(s2)
8003d41c:	80004234 	ori	v0,v0,0x80
8003d420:	030342a2 	sb	v0,771(s2)
8003d424:	21100302 	addu	v0,s0,v1
8003d428:	00004494 	lhu	a0,0(v0)
8003d42c:	21386002 	move	a3,s3
8003d430:	000c8424 	addiu	a0,a0,3072
8003d434:	cb9c000c 	jal	0x8002732c
8003d438:	21206400 	addu	a0,v1,a0
8003d43c:	21801102 	addu	s0,s0,s1
8003d440:	80801000 	sll	s0,s0,0x2
8003d444:	23801102 	subu	s0,s0,s1
8003d448:	80801000 	sll	s0,s0,0x2
8003d44c:	1c80083c 	lui	t0,0x801c
8003d450:	f8760825 	addiu	t0,t0,30456
8003d454:	21880802 	addu	s1,s0,t0
8003d458:	03034292 	lbu	v0,771(s2)
8003d45c:	0f034392 	lbu	v1,783(s2)
8003d460:	7f004230 	andi	v0,v0,0x7f
8003d464:	7f006330 	andi	v1,v1,0x7f
8003d468:	030342a2 	sb	v0,771(s2)
8003d46c:	0f0343a2 	sb	v1,783(s2)
8003d470:	3f012292 	lbu	v0,319(s1)
8003d474:	00000000 	nop
8003d478:	1e004010 	beqz	v0,0x8003d4f4
8003d47c:	4d000524 	li	a1,77
8003d480:	1e80083c 	lui	t0,0x801e
8003d484:	500d0825 	addiu	t0,t0,3408
8003d488:	21386002 	move	a3,s3
8003d48c:	da000495 	lhu	a0,218(t0)
8003d490:	1e80083c 	lui	t0,0x801e
8003d494:	1400b097 	lhu	s0,20(sp)
8003d498:	50190825 	addiu	t0,t0,6480
8003d49c:	21300002 	move	a2,s0
8003d4a0:	cb9c000c 	jal	0x8002732c
8003d4a4:	21208800 	addu	a0,a0,t0
8003d4a8:	85000524 	li	a1,133
8003d4ac:	21300002 	move	a2,s0
8003d4b0:	21388002 	move	a3,s4
8003d4b4:	40012492 	lbu	a0,320(s1)
8003d4b8:	0003083c 	lui	t0,0x300
8003d4bc:	109d000c 	jal	0x80027440
8003d4c0:	25208800 	or	a0,a0,t0
8003d4c4:	4a000424 	li	a0,74
8003d4c8:	a5000524 	li	a1,165
8003d4cc:	21300002 	move	a2,s0
8003d4d0:	b39b000c 	jal	0x80026ecc
8003d4d4:	21386002 	move	a3,s3
8003d4d8:	b1000524 	li	a1,177
8003d4dc:	21300002 	move	a2,s0
8003d4e0:	21388002 	move	a3,s4
8003d4e4:	3f012492 	lbu	a0,319(s1)
8003d4e8:	0003083c 	lui	t0,0x300
8003d4ec:	109d000c 	jal	0x80027440
8003d4f0:	25208800 	or	a0,a0,t0
8003d4f4:	ffffa232 	andi	v0,s5,0xffff
8003d4f8:	0004043c 	lui	a0,0x400
8003d4fc:	25204400 	or	a0,v0,a0
8003d500:	f4000524 	li	a1,244
8003d504:	3e00e626 	addiu	a2,s7,62
8003d508:	ffffc630 	andi	a2,a2,0xffff
8003d50c:	109d000c 	jal	0x80027440
8003d510:	21388002 	move	a3,s4
8003d514:	2400de27 	addiu	s8,s8,36
8003d518:	1400a88f 	lw	t0,20(sp)
8003d51c:	00000000 	nop
8003d520:	24000825 	addiu	t0,t0,36
8003d524:	1400a8af 	sw	t0,20(sp)
8003d528:	1000a88f 	lw	t0,16(sp)
8003d52c:	0100d626 	addiu	s6,s6,1
8003d530:	2a10c802 	slt	v0,s6,t0
8003d534:	89ff4014 	bnez	v0,0x8003d35c
8003d538:	2400f726 	addiu	s7,s7,36
8003d53c:	3c00bf8f 	lw	ra,60(sp)
8003d540:	3800be8f 	lw	s8,56(sp)
8003d544:	3400b78f 	lw	s7,52(sp)
8003d548:	3000b68f 	lw	s6,48(sp)
8003d54c:	2c00b58f 	lw	s5,44(sp)
8003d550:	2800b48f 	lw	s4,40(sp)
8003d554:	2400b38f 	lw	s3,36(sp)
8003d558:	2000b28f 	lw	s2,32(sp)
8003d55c:	1c00b18f 	lw	s1,28(sp)
8003d560:	1800b08f 	lw	s0,24(sp)
8003d564:	4000bd27 	addiu	sp,sp,64
8003d568:	0800e003 	jr	ra
8003d56c:	00000000 	nop
8003d570:	b8ffbd27 	addiu	sp,sp,-72
8003d574:	3000b4af 	sw	s4,48(sp)
8003d578:	801f143c 	lui	s4,0x1f80
8003d57c:	4400bfaf 	sw	ra,68(sp)
8003d580:	4000beaf 	sw	s8,64(sp)
8003d584:	3c00b7af 	sw	s7,60(sp)
8003d588:	3800b6af 	sw	s6,56(sp)
8003d58c:	3400b5af 	sw	s5,52(sp)
8003d590:	2c00b3af 	sw	s3,44(sp)
8003d594:	2800b2af 	sw	s2,40(sp)
8003d598:	2400b1af 	sw	s1,36(sp)
8003d59c:	2000b0af 	sw	s0,32(sp)
8003d5a0:	0a008296 	lhu	v0,10(s4)
8003d5a4:	00000000 	nop
8003d5a8:	02004014 	bnez	v0,0x8003d5b4
8003d5ac:	69000224 	li	v0,105
8003d5b0:	a7000224 	li	v0,167
8003d5b4:	3c0382a6 	sh	v0,828(s4)
8003d5b8:	3c038436 	ori	a0,s4,0x33c
8003d5bc:	2c038536 	ori	a1,s4,0x32c
8003d5c0:	01010624 	li	a2,257
8003d5c4:	01000724 	li	a3,1
8003d5c8:	ce000224 	li	v0,206
8003d5cc:	3e0382a6 	sh	v0,830(s4)
8003d5d0:	32000224 	li	v0,50
8003d5d4:	400382a6 	sh	v0,832(s4)
8003d5d8:	10000224 	li	v0,16
8003d5dc:	469f000c 	jal	0x80027d18
8003d5e0:	420382a6 	sh	v0,834(s4)
8003d5e4:	01000424 	li	a0,1
8003d5e8:	21280000 	move	a1,zero
8003d5ec:	aaa1000c 	jal	0x800286a8
8003d5f0:	2130a000 	move	a2,a1
8003d5f4:	dc028396 	lhu	v1,732(s4)
8003d5f8:	00000000 	nop
8003d5fc:	01006230 	andi	v0,v1,0x1
8003d600:	19004010 	beqz	v0,0x8003d668
8003d604:	78000524 	li	a1,120
8003d608:	d0000624 	li	a2,208
8003d60c:	1e80043c 	lui	a0,0x801e
8003d610:	500d8424 	addiu	a0,a0,3408
8003d614:	d2008294 	lhu	v0,210(a0)
8003d618:	000c8424 	addiu	a0,a0,3072
8003d61c:	1c80083c 	lui	t0,0x801c
8003d620:	e0028396 	lhu	v1,736(s4)
8003d624:	21204400 	addu	a0,v0,a0
8003d628:	001c0300 	sll	v1,v1,0x10
8003d62c:	e2028296 	lhu	v0,738(s4)
8003d630:	031c0300 	sra	v1,v1,0x10
8003d634:	00140200 	sll	v0,v0,0x10
8003d638:	03140200 	sra	v0,v0,0x10
8003d63c:	21104300 	addu	v0,v0,v1
8003d640:	0400838e 	lw	v1,4(s4)
8003d644:	40100200 	sll	v0,v0,0x1
8003d648:	21104300 	addu	v0,v0,v1
8003d64c:	00004284 	lh	v0,0(v0)
8003d650:	90750825 	addiu	t0,t0,30096
8003d654:	40100200 	sll	v0,v0,0x1
8003d658:	21104800 	addu	v0,v0,t0
8003d65c:	3a015e94 	lhu	s8,314(v0)
8003d660:	b7b70008 	j	0x8002dedc
8003d664:	00038736 	ori	a3,s4,0x300
8003d668:	08006230 	andi	v0,v1,0x8
8003d66c:	08004010 	beqz	v0,0x8003d690
8003d670:	6e000524 	li	a1,110
8003d674:	d0000624 	li	a2,208
8003d678:	00038736 	ori	a3,s4,0x300
8003d67c:	1e80023c 	lui	v0,0x801e
8003d680:	500d4224 	addiu	v0,v0,3408
8003d684:	d4004494 	lhu	a0,212(v0)
8003d688:	abb70008 	j	0x8002deac
8003d68c:	000c4324 	addiu	v1,v0,3072
8003d690:	71000524 	li	a1,113
8003d694:	d0000624 	li	a2,208
8003d698:	00038736 	ori	a3,s4,0x300
8003d69c:	1e80023c 	lui	v0,0x801e
8003d6a0:	500d4224 	addiu	v0,v0,3408
8003d6a4:	000c4324 	addiu	v1,v0,3072
8003d6a8:	d6004494 	lhu	a0,214(v0)
8003d6ac:	e2028296 	lhu	v0,738(s4)
8003d6b0:	21208300 	addu	a0,a0,v1
8003d6b4:	00140200 	sll	v0,v0,0x10
8003d6b8:	e0028396 	lhu	v1,736(s4)
8003d6bc:	03140200 	sra	v0,v0,0x10
8003d6c0:	001c0300 	sll	v1,v1,0x10
8003d6c4:	031c0300 	sra	v1,v1,0x10
8003d6c8:	21104300 	addu	v0,v0,v1
8003d6cc:	0400838e 	lw	v1,4(s4)
8003d6d0:	40100200 	sll	v0,v0,0x1
8003d6d4:	21104300 	addu	v0,v0,v1
8003d6d8:	00005e94 	lhu	s8,0(v0)
8003d6dc:	cb9c000c 	jal	0x8002732c
8003d6e0:	00039326 	addiu	s3,s4,768
8003d6e4:	ac000524 	li	a1,172
8003d6e8:	d0000624 	li	a2,208
8003d6ec:	21386002 	move	a3,s3
8003d6f0:	1e80023c 	lui	v0,0x801e
8003d6f4:	500d5524 	addiu	s5,v0,3408
8003d6f8:	d800a496 	lhu	a0,216(s5)
8003d6fc:	000cb626 	addiu	s6,s5,3072
8003d700:	cb9c000c 	jal	0x8002732c
8003d704:	21209600 	addu	a0,a0,s6
8003d708:	18000524 	li	a1,24
8003d70c:	b0000624 	li	a2,176
8003d710:	008c1e00 	sll	s1,s8,0x10
8003d714:	038c1100 	sra	s1,s1,0x10
8003d718:	40801100 	sll	s0,s1,0x1
8003d71c:	03038292 	lbu	v0,771(s4)
8003d720:	0000838e 	lw	v1,0(s4)
8003d724:	80004234 	ori	v0,v0,0x80
8003d728:	030382a2 	sb	v0,771(s4)
8003d72c:	21100302 	addu	v0,s0,v1
8003d730:	00004494 	lhu	a0,0(v0)
8003d734:	21386002 	move	a3,s3
8003d738:	000c8424 	addiu	a0,a0,3072
8003d73c:	cb9c000c 	jal	0x8002732c
8003d740:	21206400 	addu	a0,v1,a0
8003d744:	21801102 	addu	s0,s0,s1
8003d748:	80801000 	sll	s0,s0,0x2
8003d74c:	23801102 	subu	s0,s0,s1
8003d750:	03038292 	lbu	v0,771(s4)
8003d754:	80801000 	sll	s0,s0,0x2
8003d758:	7f004230 	andi	v0,v0,0x7f
8003d75c:	030382a2 	sb	v0,771(s4)
8003d760:	1c80023c 	lui	v0,0x801c
8003d764:	f8764224 	addiu	v0,v0,30456
8003d768:	21900202 	addu	s2,s0,v0
8003d76c:	3f014292 	lbu	v0,319(s2)
8003d770:	00000000 	nop
8003d774:	19004010 	beqz	v0,0x8003d7dc
8003d778:	30000524 	li	a1,48
8003d77c:	be000624 	li	a2,190
8003d780:	da00a496 	lhu	a0,218(s5)
8003d784:	21386002 	move	a3,s3
8003d788:	cb9c000c 	jal	0x8002732c
8003d78c:	21209600 	addu	a0,a0,s6
8003d790:	68000524 	li	a1,104
8003d794:	be000624 	li	a2,190
8003d798:	10039126 	addiu	s1,s4,784
8003d79c:	21382002 	move	a3,s1
8003d7a0:	40014492 	lbu	a0,320(s2)
8003d7a4:	0003103c 	lui	s0,0x300
8003d7a8:	109d000c 	jal	0x80027440
8003d7ac:	25209000 	or	a0,a0,s0
8003d7b0:	4a000424 	li	a0,74
8003d7b4:	88000524 	li	a1,136
8003d7b8:	be000624 	li	a2,190
8003d7bc:	b39b000c 	jal	0x80026ecc
8003d7c0:	21386002 	move	a3,s3
8003d7c4:	94000524 	li	a1,148
8003d7c8:	be000624 	li	a2,190
8003d7cc:	3f014492 	lbu	a0,319(s2)
8003d7d0:	21382002 	move	a3,s1
8003d7d4:	109d000c 	jal	0x80027440
8003d7d8:	25209000 	or	a0,a0,s0
8003d7dc:	dc028396 	lhu	v1,732(s4)
8003d7e0:	00000000 	nop
8003d7e4:	01006230 	andi	v0,v1,0x1
8003d7e8:	0f004010 	beqz	v0,0x8003d828
8003d7ec:	f4000524 	li	a1,244
8003d7f0:	be000624 	li	a2,190
8003d7f4:	10038736 	ori	a3,s4,0x310
8003d7f8:	1a014492 	lbu	a0,282(s2)
8003d7fc:	0003023c 	lui	v0,0x300
8003d800:	109d000c 	jal	0x80027440
8003d804:	25208200 	or	a0,a0,v0
8003d808:	d8000524 	li	a1,216
8003d80c:	be000624 	li	a2,190
8003d810:	cc00a496 	lhu	a0,204(s5)
8003d814:	21386002 	move	a3,s3
8003d818:	cb9c000c 	jal	0x8002732c
8003d81c:	21209600 	addu	a0,a0,s6
8003d820:	23b80008 	j	0x8002e08c
8003d824:	a5000524 	li	a1,165
8003d828:	08006230 	andi	v0,v1,0x8
8003d82c:	16004010 	beqz	v0,0x8003d888
8003d830:	5555033c 	lui	v1,0x5555
8003d834:	1b014292 	lbu	v0,283(s2)
8003d838:	56556334 	ori	v1,v1,0x5556
8003d83c:	40100200 	sll	v0,v0,0x1
8003d840:	18004300 	mult	v0,v1
8003d844:	3f014292 	lbu	v0,319(s2)
8003d848:	40014392 	lbu	v1,320(s2)
8003d84c:	10200000 	mfhi	a0
8003d850:	23104300 	subu	v0,v0,v1
8003d854:	00000000 	nop
8003d858:	18008200 	mult	a0,v0
8003d85c:	12100000 	mflo	v0
8003d860:	02006014 	bnez	v1,0x8003d86c
8003d864:	00000000 	nop
8003d868:	40100200 	sll	v0,v0,0x1
8003d86c:	ffff4230 	andi	v0,v0,0xffff
8003d870:	0004043c 	lui	a0,0x400
8003d874:	25204400 	or	a0,v0,a0
8003d878:	f4000524 	li	a1,244
8003d87c:	be000624 	li	a2,190
8003d880:	109d000c 	jal	0x80027440
8003d884:	10038736 	ori	a3,s4,0x310
8003d888:	a5000524 	li	a1,165
8003d88c:	2e000624 	li	a2,46
8003d890:	00039226 	addiu	s2,s4,768
8003d894:	21384002 	move	a3,s2
8003d898:	21a8c000 	move	s5,a2
8003d89c:	21980000 	move	s3,zero
8003d8a0:	1e80103c 	lui	s0,0x801e
8003d8a4:	500d1026 	addiu	s0,s0,3408
8003d8a8:	ce000496 	lhu	a0,206(s0)
8003d8ac:	000c1126 	addiu	s1,s0,3072
8003d8b0:	cb9c000c 	jal	0x8002732c
8003d8b4:	21209100 	addu	a0,a0,s1
8003d8b8:	a5000524 	li	a1,165
8003d8bc:	2130a002 	move	a2,s5
8003d8c0:	ce000496 	lhu	a0,206(s0)
8003d8c4:	21384002 	move	a3,s2
8003d8c8:	cb9c000c 	jal	0x8002732c
8003d8cc:	21209100 	addu	a0,a0,s1
8003d8d0:	1c80043c 	lui	a0,0x801c
8003d8d4:	f8768424 	addiu	a0,a0,30456
8003d8d8:	001c1e00 	sll	v1,s8,0x10
8003d8dc:	031c0300 	sra	v1,v1,0x10
8003d8e0:	40100300 	sll	v0,v1,0x1
8003d8e4:	21104300 	addu	v0,v0,v1
8003d8e8:	80100200 	sll	v0,v0,0x2
8003d8ec:	23104300 	subu	v0,v0,v1
8003d8f0:	80100200 	sll	v0,v0,0x2
8003d8f4:	21b84400 	addu	s7,v0,a0
8003d8f8:	cf000524 	li	a1,207
8003d8fc:	ffffb232 	andi	s2,s5,0xffff
8003d900:	21304002 	move	a2,s2
8003d904:	10039626 	addiu	s6,s4,784
8003d908:	2138c002 	move	a3,s6
8003d90c:	0e00b526 	addiu	s5,s5,14
8003d910:	2188f302 	addu	s1,s7,s3
8003d914:	01007326 	addiu	s3,s3,1
8003d918:	28012492 	lbu	a0,296(s1)
8003d91c:	0013103c 	lui	s0,0x1300
8003d920:	af9d000c 	jal	0x800276bc
8003d924:	25209000 	or	a0,a0,s0
8003d928:	11010524 	li	a1,273
8003d92c:	21304002 	move	a2,s2
8003d930:	2f012492 	lbu	a0,303(s1)
8003d934:	2138c002 	move	a3,s6
8003d938:	af9d000c 	jal	0x800276bc
8003d93c:	25209000 	or	a0,a0,s0
8003d940:	0700622a 	slti	v0,s3,7
8003d944:	edff4014 	bnez	v0,0x8003d8fc
8003d948:	cf000524 	li	a1,207
8003d94c:	1c80043c 	lui	a0,0x801c
8003d950:	f8768424 	addiu	a0,a0,30456
8003d954:	001c1e00 	sll	v1,s8,0x10
8003d958:	031c0300 	sra	v1,v1,0x10
8003d95c:	40100300 	sll	v0,v1,0x1
8003d960:	21104300 	addu	v0,v0,v1
8003d964:	80100200 	sll	v0,v0,0x2
8003d968:	23104300 	subu	v0,v0,v1
8003d96c:	80100200 	sll	v0,v0,0x2
8003d970:	21284400 	addu	a1,v0,a0
8003d974:	3c01a294 	lhu	v0,316(a1)
8003d978:	00000000 	nop
8003d97c:	45004010 	beqz	v0,0x8003da94
8003d980:	1624043c 	lui	a0,0x2416
8003d984:	21184000 	move	v1,v0
8003d988:	198e8434 	ori	a0,a0,0x8e19
8003d98c:	40100300 	sll	v0,v1,0x1
8003d990:	21104300 	addu	v0,v0,v1
8003d994:	c0100200 	sll	v0,v0,0x3
8003d998:	21104300 	addu	v0,v0,v1
8003d99c:	80100200 	sll	v0,v0,0x2
8003d9a0:	18004400 	mult	v0,a0
8003d9a4:	21106000 	move	v0,v1
8003d9a8:	40190200 	sll	v1,v0,0x5
8003d9ac:	23186200 	subu	v1,v1,v0
8003d9b0:	80180300 	sll	v1,v1,0x2
8003d9b4:	21186200 	addu	v1,v1,v0
8003d9b8:	10400000 	mfhi	t0
8003d9bc:	c0180300 	sll	v1,v1,0x3
8003d9c0:	dc000524 	li	a1,220
8003d9c4:	18006400 	mult	v1,a0
8003d9c8:	9c000624 	li	a2,156
8003d9cc:	00039026 	addiu	s0,s4,768
8003d9d0:	1e80043c 	lui	a0,0x801e
8003d9d4:	500d8424 	addiu	a0,a0,3408
8003d9d8:	d0008294 	lhu	v0,208(a0)
8003d9dc:	000c8424 	addiu	a0,a0,3072
8003d9e0:	c31f0300 	sra	v1,v1,0x1f
8003d9e4:	21204400 	addu	a0,v0,a0
8003d9e8:	83110800 	sra	v0,t0,0x6
8003d9ec:	0980013c 	lui	at,0x8009
8003d9f0:	9e8122a4 	sh	v0,-32354(at)
8003d9f4:	10500000 	mfhi	t2
8003d9f8:	83110a00 	sra	v0,t2,0x6
8003d9fc:	23104300 	subu	v0,v0,v1
8003da00:	0980013c 	lui	at,0x8009
8003da04:	888122a4 	sh	v0,-32376(at)
8003da08:	cb9c000c 	jal	0x8002732c
8003da0c:	21380002 	move	a3,s0
8003da10:	f8000524 	li	a1,248
8003da14:	9c000624 	li	a2,156
8003da18:	2138c002 	move	a3,s6
8003da1c:	0980023c 	lui	v0,0x8009
8003da20:	9e814294 	lhu	v0,-32354(v0)
8003da24:	0003043c 	lui	a0,0x300
8003da28:	af9d000c 	jal	0x800276bc
8003da2c:	25204400 	or	a0,v0,a0
8003da30:	4e000424 	li	a0,78
8003da34:	0d010524 	li	a1,269
8003da38:	9c000624 	li	a2,156
8003da3c:	b39b000c 	jal	0x80026ecc
8003da40:	21380002 	move	a3,s0
8003da44:	13010524 	li	a1,275
8003da48:	9c000624 	li	a2,156
8003da4c:	2138c002 	move	a3,s6
8003da50:	0980033c 	lui	v1,0x8009
8003da54:	9e816394 	lhu	v1,-32354(v1)
8003da58:	0980043c 	lui	a0,0x8009
8003da5c:	88818494 	lhu	a0,-32376(a0)
8003da60:	80100300 	sll	v0,v1,0x2
8003da64:	21104300 	addu	v0,v0,v1
8003da68:	40100200 	sll	v0,v0,0x1
8003da6c:	23208200 	subu	a0,a0,v0
8003da70:	ffff8430 	andi	a0,a0,0xffff
8003da74:	0001023c 	lui	v0,0x100
8003da78:	af9d000c 	jal	0x800276bc
8003da7c:	25208200 	or	a0,a0,v0
8003da80:	6c000424 	li	a0,108
8003da84:	19010524 	li	a1,281
8003da88:	9c000624 	li	a2,156
8003da8c:	b39b000c 	jal	0x80026ecc
8003da90:	21380002 	move	a3,s0
8003da94:	50038436 	ori	a0,s4,0x350
8003da98:	58038536 	ori	a1,s4,0x358
8003da9c:	21300000 	move	a2,zero
8003daa0:	2138c000 	move	a3,a2
8003daa4:	14000224 	li	v0,20
8003daa8:	500382a6 	sh	v0,848(s4)
8003daac:	28000224 	li	v0,40
8003dab0:	520382a6 	sh	v0,850(s4)
8003dab4:	80000224 	li	v0,128
8003dab8:	540382a6 	sh	v0,852(s4)
8003dabc:	560382a6 	sh	v0,854(s4)
8003dac0:	c0010224 	li	v0,448
8003dac4:	580382a6 	sh	v0,856(s4)
8003dac8:	00010224 	li	v0,256
8003dacc:	5a0382a6 	sh	v0,858(s4)
8003dad0:	10000224 	li	v0,16
8003dad4:	d9a0000c 	jal	0x80028364
8003dad8:	1000a2af 	sw	v0,16(sp)
8003dadc:	4400bf8f 	lw	ra,68(sp)
8003dae0:	4000be8f 	lw	s8,64(sp)
8003dae4:	3c00b78f 	lw	s7,60(sp)
8003dae8:	3800b68f 	lw	s6,56(sp)
8003daec:	3400b58f 	lw	s5,52(sp)
8003daf0:	3000b48f 	lw	s4,48(sp)
8003daf4:	2c00b38f 	lw	s3,44(sp)
8003daf8:	2800b28f 	lw	s2,40(sp)
8003dafc:	2400b18f 	lw	s1,36(sp)
8003db00:	2000b08f 	lw	s0,32(sp)
8003db04:	4800bd27 	addiu	sp,sp,72
8003db08:	0800e003 	jr	ra
8003db0c:	00000000 	nop
8003db10:	e8ffbd27 	addiu	sp,sp,-24
8003db14:	1400bfaf 	sw	ra,20(sp)
8003db18:	315d000c 	jal	0x800174c4
8003db1c:	1000b0af 	sw	s0,16(sp)
8003db20:	801f103c 	lui	s0,0x1f80
8003db24:	30000324 	li	v1,48
8003db28:	1e0303a2 	sb	v1,798(s0)
8003db2c:	0e0303a2 	sb	v1,782(s0)
8003db30:	1d0303a2 	sb	v1,797(s0)
8003db34:	0d0303a2 	sb	v1,781(s0)
8003db38:	1a0303a2 	sb	v1,794(s0)
8003db3c:	0a0303a2 	sb	v1,778(s0)
8003db40:	e4020392 	lbu	v1,740(s0)
8003db44:	60000224 	li	v0,96
8003db48:	1c0302a2 	sb	v0,796(s0)
8003db4c:	0c0302a2 	sb	v0,780(s0)
8003db50:	100302a2 	sb	v0,784(s0)
8003db54:	000302a2 	sb	v0,768(s0)
8003db58:	110302a2 	sb	v0,785(s0)
8003db5c:	010302a2 	sb	v0,769(s0)
8003db60:	120302a2 	sb	v0,786(s0)
8003db64:	020302a2 	sb	v0,770(s0)
8003db68:	62000224 	li	v0,98
8003db6c:	180302a2 	sb	v0,792(s0)
8003db70:	080302a2 	sb	v0,776(s0)
8003db74:	42000224 	li	v0,66
8003db78:	190302a2 	sb	v0,793(s0)
8003db7c:	090302a2 	sb	v0,777(s0)
8003db80:	39000224 	li	v0,57
8003db84:	0f0302a2 	sb	v0,783(s0)
8003db88:	0b0302a2 	sb	v0,779(s0)
8003db8c:	030302a2 	sb	v0,771(s0)
8003db90:	29000224 	li	v0,41
8003db94:	1f0302a2 	sb	v0,799(s0)
8003db98:	1b0302a2 	sb	v0,795(s0)
8003db9c:	1000632c 	sltiu	v1,v1,16
8003dba0:	05006010 	beqz	v1,0x8003dbb8
8003dba4:	130302a2 	sb	v0,787(s0)
8003dba8:	e4020392 	lbu	v1,740(s0)
8003dbac:	08000224 	li	v0,8
8003dbb0:	f1b80008 	j	0x8002e3c4
8003dbb4:	23104300 	subu	v0,v0,v1
8003dbb8:	e4020292 	lbu	v0,740(s0)
8003dbbc:	00000000 	nop
8003dbc0:	e8ff4224 	addiu	v0,v0,-24
8003dbc4:	600302a6 	sh	v0,864(s0)
8003dbc8:	60030292 	lbu	v0,864(s0)
8003dbcc:	60030392 	lbu	v1,864(s0)
8003dbd0:	2e0300a2 	sb	zero,814(s0)
8003dbd4:	80100200 	sll	v0,v0,0x2
8003dbd8:	60004224 	addiu	v0,v0,96
8003dbdc:	40180300 	sll	v1,v1,0x1
8003dbe0:	2c0302a2 	sb	v0,812(s0)
8003dbe4:	dc020296 	lhu	v0,732(s0)
8003dbe8:	30006324 	addiu	v1,v1,48
8003dbec:	00804230 	andi	v0,v0,0x8000
8003dbf0:	08004014 	bnez	v0,0x8003dc14
8003dbf4:	2d0303a2 	sb	v1,813(s0)
8003dbf8:	5db5000c 	jal	0x8002d574
8003dbfc:	00000000 	nop
8003dc00:	dc020396 	lhu	v1,732(s0)
8003dc04:	00000000 	nop
8003dc08:	00806230 	andi	v0,v1,0x8000
8003dc0c:	05004010 	beqz	v0,0x8003dc24
8003dc10:	01006230 	andi	v0,v1,0x1
8003dc14:	5cb7000c 	jal	0x8002dd70
8003dc18:	00000000 	nop
8003dc1c:	17b90008 	j	0x8002e45c
8003dc20:	00000000 	nop
8003dc24:	05004010 	beqz	v0,0x8003dc3c
8003dc28:	08006230 	andi	v0,v1,0x8
8003dc2c:	83b5000c 	jal	0x8002d60c
8003dc30:	00000000 	nop
8003dc34:	17b90008 	j	0x8002e45c
8003dc38:	00000000 	nop
8003dc3c:	05004010 	beqz	v0,0x8003dc54
8003dc40:	00000000 	nop
8003dc44:	a8b6000c 	jal	0x8002daa0
8003dc48:	00000000 	nop
8003dc4c:	17b90008 	j	0x8002e45c
8003dc50:	00000000 	nop
8003dc54:	3ab6000c 	jal	0x8002d8e8
8003dc58:	00000000 	nop
8003dc5c:	77b4000c 	jal	0x8002d1dc
8003dc60:	00000000 	nop
8003dc64:	695d000c 	jal	0x800175a4
8003dc68:	00000000 	nop
8003dc6c:	23a5000c 	jal	0x8002948c
8003dc70:	00000000 	nop
8003dc74:	8d5d000c 	jal	0x80017634
8003dc78:	00000000 	nop
8003dc7c:	1400bf8f 	lw	ra,20(sp)
8003dc80:	1000b08f 	lw	s0,16(sp)
8003dc84:	1800bd27 	addiu	sp,sp,24
8003dc88:	0800e003 	jr	ra
8003dc8c:	00000000 	nop
8003dc90:	e8ffbd27 	addiu	sp,sp,-24
8003dc94:	1000bfaf 	sw	ra,16(sp)
8003dc98:	08000424 	li	a0,8
8003dc9c:	21288000 	move	a1,a0
8003dca0:	2c010624 	li	a2,300
8003dca4:	52a5000c 	jal	0x80029548
8003dca8:	e0000724 	li	a3,224
8003dcac:	34010424 	li	a0,308
8003dcb0:	08000524 	li	a1,8
8003dcb4:	44010624 	li	a2,324
8003dcb8:	52a5000c 	jal	0x80029548
8003dcbc:	e0000724 	li	a3,224
8003dcc0:	1000bf8f 	lw	ra,16(sp)
8003dcc4:	1800bd27 	addiu	sp,sp,24
8003dcc8:	0800e003 	jr	ra
8003dccc:	00000000 	nop
8003dcd0:	a8febd27 	addiu	sp,sp,-344
8003dcd4:	1800a727 	addiu	a3,sp,24
8003dcd8:	0180023c 	lui	v0,0x8001
8003dcdc:	8c124624 	addiu	a2,v0,4748
8003dce0:	0300c230 	andi	v0,a2,0x3
8003dce4:	5401bfaf 	sw	ra,340(sp)
8003dce8:	5001beaf 	sw	s8,336(sp)
8003dcec:	4c01b7af 	sw	s7,332(sp)
8003dcf0:	4801b6af 	sw	s6,328(sp)
8003dcf4:	4401b5af 	sw	s5,324(sp)
8003dcf8:	4001b4af 	sw	s4,320(sp)
8003dcfc:	3c01b3af 	sw	s3,316(sp)
8003dd00:	3801b2af 	sw	s2,312(sp)
8003dd04:	3401b1af 	sw	s1,308(sp)
8003dd08:	17004010 	beqz	v0,0x8003dd68
8003dd0c:	3001b0af 	sw	s0,304(sp)
8003dd10:	a000c824 	addiu	t0,a2,160
8003dd14:	0300c288 	lwl	v0,3(a2)
8003dd18:	0000c298 	lwr	v0,0(a2)
8003dd1c:	0700c388 	lwl	v1,7(a2)
8003dd20:	0400c398 	lwr	v1,4(a2)
8003dd24:	0b00c488 	lwl	a0,11(a2)
8003dd28:	0800c498 	lwr	a0,8(a2)
8003dd2c:	0f00c588 	lwl	a1,15(a2)
8003dd30:	0c00c598 	lwr	a1,12(a2)
8003dd34:	0300e2a8 	swl	v0,3(a3)
8003dd38:	0000e2b8 	swr	v0,0(a3)
8003dd3c:	0700e3a8 	swl	v1,7(a3)
8003dd40:	0400e3b8 	swr	v1,4(a3)
8003dd44:	0b00e4a8 	swl	a0,11(a3)
8003dd48:	0800e4b8 	swr	a0,8(a3)
8003dd4c:	0f00e5a8 	swl	a1,15(a3)
8003dd50:	0c00e5b8 	swr	a1,12(a3)
8003dd54:	1000c624 	addiu	a2,a2,16
8003dd58:	eeffc814 	bne	a2,t0,0x8003dd14
8003dd5c:	1000e724 	addiu	a3,a3,16
8003dd60:	66b90008 	j	0x8002e598
8003dd64:	00000000 	nop
8003dd68:	a000c824 	addiu	t0,a2,160
8003dd6c:	0000c28c 	lw	v0,0(a2)
8003dd70:	0400c38c 	lw	v1,4(a2)
8003dd74:	0800c48c 	lw	a0,8(a2)
8003dd78:	0c00c58c 	lw	a1,12(a2)
8003dd7c:	0000e2ac 	sw	v0,0(a3)
8003dd80:	0400e3ac 	sw	v1,4(a3)
8003dd84:	0800e4ac 	sw	a0,8(a3)
8003dd88:	0c00e5ac 	sw	a1,12(a3)
8003dd8c:	1000c624 	addiu	a2,a2,16
8003dd90:	f6ffc814 	bne	a2,t0,0x8003dd6c
8003dd94:	1000e724 	addiu	a3,a3,16
8003dd98:	0300c288 	lwl	v0,3(a2)
8003dd9c:	0000c298 	lwr	v0,0(a2)
8003dda0:	0700c388 	lwl	v1,7(a2)
8003dda4:	0400c398 	lwr	v1,4(a2)
8003dda8:	0300e2a8 	swl	v0,3(a3)
8003ddac:	0000e2b8 	swr	v0,0(a3)
8003ddb0:	0700e3a8 	swl	v1,7(a3)
8003ddb4:	0400e3b8 	swr	v1,4(a3)
8003ddb8:	0180023c 	lui	v0,0x8001
8003ddbc:	34134624 	addiu	a2,v0,4916
8003ddc0:	0300c230 	andi	v0,a2,0x3
8003ddc4:	17004010 	beqz	v0,0x8003de24
8003ddc8:	c000a727 	addiu	a3,sp,192
8003ddcc:	5000c824 	addiu	t0,a2,80
8003ddd0:	0300c288 	lwl	v0,3(a2)
8003ddd4:	0000c298 	lwr	v0,0(a2)
8003ddd8:	0700c388 	lwl	v1,7(a2)
8003dddc:	0400c398 	lwr	v1,4(a2)
8003dde0:	0b00c488 	lwl	a0,11(a2)
8003dde4:	0800c498 	lwr	a0,8(a2)
8003dde8:	0f00c588 	lwl	a1,15(a2)
8003ddec:	0c00c598 	lwr	a1,12(a2)
8003ddf0:	0300e2a8 	swl	v0,3(a3)
8003ddf4:	0000e2b8 	swr	v0,0(a3)
8003ddf8:	0700e3a8 	swl	v1,7(a3)
8003ddfc:	0400e3b8 	swr	v1,4(a3)
8003de00:	0b00e4a8 	swl	a0,11(a3)
8003de04:	0800e4b8 	swr	a0,8(a3)
8003de08:	0f00e5a8 	swl	a1,15(a3)
8003de0c:	0c00e5b8 	swr	a1,12(a3)
8003de10:	1000c624 	addiu	a2,a2,16
8003de14:	eeffc814 	bne	a2,t0,0x8003ddd0
8003de18:	1000e724 	addiu	a3,a3,16
8003de1c:	95b90008 	j	0x8002e654
8003de20:	00000000 	nop
8003de24:	5000c824 	addiu	t0,a2,80
8003de28:	0000c28c 	lw	v0,0(a2)
8003de2c:	0400c38c 	lw	v1,4(a2)
8003de30:	0800c48c 	lw	a0,8(a2)
8003de34:	0c00c58c 	lw	a1,12(a2)
8003de38:	0000e2ac 	sw	v0,0(a3)
8003de3c:	0400e3ac 	sw	v1,4(a3)
8003de40:	0800e4ac 	sw	a0,8(a3)
8003de44:	0c00e5ac 	sw	a1,12(a3)
8003de48:	1000c624 	addiu	a2,a2,16
8003de4c:	f6ffc814 	bne	a2,t0,0x8003de28
8003de50:	1000e724 	addiu	a3,a3,16
8003de54:	0300c288 	lwl	v0,3(a2)
8003de58:	0000c298 	lwr	v0,0(a2)
8003de5c:	00000000 	nop
8003de60:	0300e2a8 	swl	v0,3(a3)
8003de64:	0000e2b8 	swr	v0,0(a3)
8003de68:	2001a427 	addiu	a0,sp,288
8003de6c:	21280000 	move	a1,zero
8003de70:	04000624 	li	a2,4
8003de74:	ff010224 	li	v0,511
8003de78:	1801a0a7 	sh	zero,280(sp)
8003de7c:	ade2010c 	jal	0x80078ab4
8003de80:	1a01a2a7 	sh	v0,282(sp)
8003de84:	801f143c 	lui	s4,0x1f80
8003de88:	e0028296 	lhu	v0,736(s4)
8003de8c:	00000000 	nop
8003de90:	00140200 	sll	v0,v0,0x10
8003de94:	031c0200 	sra	v1,v0,0x10
8003de98:	0a006228 	slti	v0,v1,10
8003de9c:	02004014 	bnez	v0,0x8003dea8
8003dea0:	21106000 	move	v0,v1
8003dea4:	ffff6224 	addiu	v0,v1,-1
8003dea8:	30038436 	ori	a0,s4,0x330
8003deac:	2c038536 	ori	a1,s4,0x32c
8003deb0:	01020624 	li	a2,513
8003deb4:	c0100200 	sll	v0,v0,0x3
8003deb8:	1800a327 	addiu	v1,sp,24
8003debc:	21186200 	addu	v1,v1,v0
8003dec0:	00006294 	lhu	v0,0(v1)
8003dec4:	01000724 	li	a3,1
8003dec8:	feff4224 	addiu	v0,v0,-2
8003decc:	300382a6 	sh	v0,816(s4)
8003ded0:	02006294 	lhu	v0,2(v1)
8003ded4:	21880000 	move	s1,zero
8003ded8:	ffff4224 	addiu	v0,v0,-1
8003dedc:	320382a6 	sh	v0,818(s4)
8003dee0:	04006294 	lhu	v0,4(v1)
8003dee4:	1c039726 	addiu	s7,s4,796
8003dee8:	04004224 	addiu	v0,v0,4
8003deec:	340382a6 	sh	v0,820(s4)
8003def0:	06006294 	lhu	v0,6(v1)
8003def4:	21a82002 	move	s5,s1
8003def8:	02004224 	addiu	v0,v0,2
8003defc:	469f000c 	jal	0x80027d18
8003df00:	360382a6 	sh	v0,822(s4)
8003df04:	01000424 	li	a0,1
8003df08:	21282002 	move	a1,s1
8003df0c:	aaa1000c 	jal	0x800286a8
8003df10:	2130a000 	move	a2,a1
8003df14:	1a80023c 	lui	v0,0x801a
8003df18:	608f5224 	addiu	s2,v0,-28832
8003df1c:	1c80023c 	lui	v0,0x801c
8003df20:	f8765624 	addiu	s6,v0,30456
8003df24:	c8ff5e26 	addiu	s8,s2,-56
8003df28:	c0000224 	li	v0,192
8003df2c:	1c0382a2 	sb	v0,796(s4)
8003df30:	9e000224 	li	v0,158
8003df34:	1d0382a2 	sb	v0,797(s4)
8003df38:	60000224 	li	v0,96
8003df3c:	1e0382a2 	sb	v0,798(s4)
8003df40:	30000224 	li	v0,48
8003df44:	1f0382a2 	sb	v0,799(s4)
8003df48:	02000224 	li	v0,2
8003df4c:	1d002212 	beq	s1,v0,0x8003dfc4
8003df50:	03000224 	li	v0,3
8003df54:	0d002216 	bne	s1,v0,0x8003df8c
8003df58:	04000224 	li	v0,4
8003df5c:	5800c397 	lhu	v1,88(s8)
8003df60:	00000000 	nop
8003df64:	40100300 	sll	v0,v1,0x1
8003df68:	21104300 	addu	v0,v0,v1
8003df6c:	80100200 	sll	v0,v0,0x2
8003df70:	23104300 	subu	v0,v0,v1
8003df74:	80100200 	sll	v0,v0,0x2
8003df78:	21105600 	addu	v0,v0,s6
8003df7c:	3e014390 	lbu	v1,318(v0)
8003df80:	09000224 	li	v0,9
8003df84:	0f006210 	beq	v1,v0,0x8003dfc4
8003df88:	04000224 	li	v0,4
8003df8c:	0e002216 	bne	s1,v0,0x8003dfc8
8003df90:	10001324 	li	s3,16
8003df94:	5a00c397 	lhu	v1,90(s8)
8003df98:	00000000 	nop
8003df9c:	40100300 	sll	v0,v1,0x1
8003dfa0:	21104300 	addu	v0,v0,v1
8003dfa4:	80100200 	sll	v0,v0,0x2
8003dfa8:	23104300 	subu	v0,v0,v1
8003dfac:	80100200 	sll	v0,v0,0x2
8003dfb0:	21105600 	addu	v0,v0,s6
8003dfb4:	3e014390 	lbu	v1,318(v0)
8003dfb8:	09000224 	li	v0,9
8003dfbc:	03006214 	bne	v1,v0,0x8003dfcc
8003dfc0:	06000224 	li	v0,6
8003dfc4:	30001324 	li	s3,48
8003dfc8:	06000224 	li	v0,6
8003dfcc:	44002212 	beq	s1,v0,0x8003e0e0
8003dfd0:	0c000224 	li	v0,12
8003dfd4:	42002212 	beq	s1,v0,0x8003e0e0
8003dfd8:	01000224 	li	v0,1
8003dfdc:	c6028392 	lbu	v1,710(s4)
8003dfe0:	00000000 	nop
8003dfe4:	3e006214 	bne	v1,v0,0x8003e0e0
8003dfe8:	ffff0234 	li	v0,0xffff
8003dfec:	00004396 	lhu	v1,0(s2)
8003dff0:	00000000 	nop
8003dff4:	3a006210 	beq	v1,v0,0x8003e0e0
8003dff8:	21106000 	move	v0,v1
8003dffc:	40180200 	sll	v1,v0,0x1
8003e000:	21186200 	addu	v1,v1,v0
8003e004:	80180300 	sll	v1,v1,0x2
8003e008:	23186200 	subu	v1,v1,v0
8003e00c:	80180300 	sll	v1,v1,0x2
8003e010:	21187600 	addu	v1,v1,s6
8003e014:	3f016290 	lbu	v0,319(v1)
8003e018:	00000000 	nop
8003e01c:	30004010 	beqz	v0,0x8003e0e0
8003e020:	c8000224 	li	v0,200
8003e024:	1c0382a2 	sb	v0,796(s4)
8003e028:	a4000224 	li	v0,164
8003e02c:	1d0382a2 	sb	v0,797(s4)
8003e030:	60000224 	li	v0,96
8003e034:	1800b027 	addiu	s0,sp,24
8003e038:	21801502 	addu	s0,s0,s5
8003e03c:	2138e002 	move	a3,s7
8003e040:	0002093c 	lui	t1,0x200
8003e044:	1e0382a2 	sb	v0,798(s4)
8003e048:	00000596 	lhu	a1,0(s0)
8003e04c:	00004396 	lhu	v1,0(s2)
8003e050:	02000696 	lhu	a2,2(s0)
8003e054:	0800a524 	addiu	a1,a1,8
8003e058:	ffffa530 	andi	a1,a1,0xffff
8003e05c:	40100300 	sll	v0,v1,0x1
8003e060:	21104300 	addu	v0,v0,v1
8003e064:	80100200 	sll	v0,v0,0x2
8003e068:	23104300 	subu	v0,v0,v1
8003e06c:	80100200 	sll	v0,v0,0x2
8003e070:	21105600 	addu	v0,v0,s6
8003e074:	0400c624 	addiu	a2,a2,4
8003e078:	40014490 	lbu	a0,320(v0)
8003e07c:	ffffc630 	andi	a2,a2,0xffff
8003e080:	109d000c 	jal	0x80027440
8003e084:	25208900 	or	a0,a0,t1
8003e088:	08000224 	li	v0,8
8003e08c:	2138e002 	move	a3,s7
8003e090:	0002093c 	lui	t1,0x200
8003e094:	1c0382a2 	sb	v0,796(s4)
8003e098:	1d0382a2 	sb	v0,797(s4)
8003e09c:	1e0380a2 	sb	zero,798(s4)
8003e0a0:	00000596 	lhu	a1,0(s0)
8003e0a4:	00004396 	lhu	v1,0(s2)
8003e0a8:	02000696 	lhu	a2,2(s0)
8003e0ac:	0900a524 	addiu	a1,a1,9
8003e0b0:	ffffa530 	andi	a1,a1,0xffff
8003e0b4:	40100300 	sll	v0,v1,0x1
8003e0b8:	21104300 	addu	v0,v0,v1
8003e0bc:	80100200 	sll	v0,v0,0x2
8003e0c0:	23104300 	subu	v0,v0,v1
8003e0c4:	80100200 	sll	v0,v0,0x2
8003e0c8:	21105600 	addu	v0,v0,s6
8003e0cc:	0500c624 	addiu	a2,a2,5
8003e0d0:	40014490 	lbu	a0,320(v0)
8003e0d4:	ffffc630 	andi	a2,a2,0xffff
8003e0d8:	109d000c 	jal	0x80027440
8003e0dc:	25208900 	or	a0,a0,t1
8003e0e0:	1000b3af 	sw	s3,16(sp)
8003e0e4:	1800a427 	addiu	a0,sp,24
8003e0e8:	21209500 	addu	a0,a0,s5
8003e0ec:	c000a227 	addiu	v0,sp,192
8003e0f0:	80281100 	sll	a1,s1,0x2
8003e0f4:	21284500 	addu	a1,v0,a1
8003e0f8:	1801a627 	addiu	a2,sp,280
8003e0fc:	d9a0000c 	jal	0x80028364
8003e100:	21380000 	move	a3,zero
8003e104:	02005226 	addiu	s2,s2,2
8003e108:	01003126 	addiu	s1,s1,1
8003e10c:	1500222a 	slti	v0,s1,21
8003e110:	8dff4014 	bnez	v0,0x8003df48
8003e114:	0800b526 	addiu	s5,s5,8
8003e118:	5401bf8f 	lw	ra,340(sp)
8003e11c:	5001be8f 	lw	s8,336(sp)
8003e120:	4c01b78f 	lw	s7,332(sp)
8003e124:	4801b68f 	lw	s6,328(sp)
8003e128:	4401b58f 	lw	s5,324(sp)
8003e12c:	4001b48f 	lw	s4,320(sp)
8003e130:	3c01b38f 	lw	s3,316(sp)
8003e134:	3801b28f 	lw	s2,312(sp)
8003e138:	3401b18f 	lw	s1,308(sp)
8003e13c:	3001b08f 	lw	s0,304(sp)
8003e140:	5801bd27 	addiu	sp,sp,344
8003e144:	0800e003 	jr	ra
8003e148:	00000000 	nop
8003e14c:	90ffbd27 	addiu	sp,sp,-112
8003e150:	0880023c 	lui	v0,0x8008
8003e154:	6c00bfaf 	sw	ra,108(sp)
8003e158:	6800b6af 	sw	s6,104(sp)
8003e15c:	6400b5af 	sw	s5,100(sp)
8003e160:	6000b4af 	sw	s4,96(sp)
8003e164:	5c00b3af 	sw	s3,92(sp)
8003e168:	5800b2af 	sw	s2,88(sp)
8003e16c:	5400b1af 	sw	s1,84(sp)
8003e170:	5000b0af 	sw	s0,80(sp)
8003e174:	647f4624 	addiu	a2,v0,32612
8003e178:	0300c388 	lwl	v1,3(a2)
8003e17c:	0000c398 	lwr	v1,0(a2)
8003e180:	00000000 	nop
8003e184:	1300a3ab 	swl	v1,19(sp)
8003e188:	1000a3bb 	swr	v1,16(sp)
8003e18c:	1800a427 	addiu	a0,sp,24
8003e190:	21280000 	move	a1,zero
8003e194:	ade2010c 	jal	0x80078ab4
8003e198:	04000624 	li	a2,4
8003e19c:	3000a427 	addiu	a0,sp,48
8003e1a0:	21280000 	move	a1,zero
8003e1a4:	ade2010c 	jal	0x80078ab4
8003e1a8:	1c000624 	li	a2,28
8003e1ac:	801f123c 	lui	s2,0x1f80
8003e1b0:	28000424 	li	a0,40
8003e1b4:	78000324 	li	v1,120
8003e1b8:	3c000524 	li	a1,60
8003e1bc:	0c0343a2 	sb	v1,780(s2)
8003e1c0:	090343a2 	sb	v1,777(s2)
8003e1c4:	1c0343a2 	sb	v1,796(s2)
8003e1c8:	190343a2 	sb	v1,793(s2)
8003e1cc:	dc024396 	lhu	v1,732(s2)
8003e1d0:	49000224 	li	v0,73
8003e1d4:	0f0342a2 	sb	v0,783(s2)
8003e1d8:	0b0342a2 	sb	v0,779(s2)
8003e1dc:	31000224 	li	v0,49
8003e1e0:	1f0342a2 	sb	v0,799(s2)
8003e1e4:	1b0342a2 	sb	v0,795(s2)
8003e1e8:	01000224 	li	v0,1
8003e1ec:	080344a2 	sb	a0,776(s2)
8003e1f0:	0d0345a2 	sb	a1,781(s2)
8003e1f4:	0a0344a2 	sb	a0,778(s2)
8003e1f8:	0e0344a2 	sb	a0,782(s2)
8003e1fc:	180344a2 	sb	a0,792(s2)
8003e200:	1d0345a2 	sb	a1,797(s2)
8003e204:	1a0344a2 	sb	a0,794(s2)
8003e208:	07006214 	bne	v1,v0,0x8003e228
8003e20c:	1e0344a2 	sb	a0,798(s2)
8003e210:	21104002 	move	v0,s2
8003e214:	00034234 	ori	v0,v0,0x300
8003e218:	280342ae 	sw	v0,808(s2)
8003e21c:	240342ae 	sw	v0,804(s2)
8003e220:	93ba0008 	j	0x8002ea4c
8003e224:	200342ae 	sw	v0,800(s2)
8003e228:	801f043c 	lui	a0,0x1f80
8003e22c:	00038434 	ori	a0,a0,0x300
8003e230:	801f033c 	lui	v1,0x1f80
8003e234:	08036334 	ori	v1,v1,0x308
8003e238:	801f023c 	lui	v0,0x1f80
8003e23c:	0c034234 	ori	v0,v0,0x30c
8003e240:	200344ae 	sw	a0,800(s2)
8003e244:	240343ae 	sw	v1,804(s2)
8003e248:	280342ae 	sw	v0,808(s2)
8003e24c:	21980000 	move	s3,zero
8003e250:	1e80023c 	lui	v0,0x801e
8003e254:	500d4224 	addiu	v0,v0,3408
8003e258:	000c5424 	addiu	s4,v0,3072
8003e25c:	10001124 	li	s1,16
8003e260:	21804000 	move	s0,v0
8003e264:	ffff2632 	andi	a2,s1,0xffff
8003e268:	0f003126 	addiu	s1,s1,15
8003e26c:	1c000496 	lhu	a0,28(s0)
8003e270:	02001026 	addiu	s0,s0,2
8003e274:	40101300 	sll	v0,s3,0x1
8003e278:	01007326 	addiu	s3,s3,1
8003e27c:	2110a203 	addu	v0,sp,v0
8003e280:	2003478e 	lw	a3,800(s2)
8003e284:	30004594 	lhu	a1,48(v0)
8003e288:	21209400 	addu	a0,a0,s4
8003e28c:	3c01a524 	addiu	a1,a1,316
8003e290:	cb9c000c 	jal	0x8002732c
8003e294:	ffffa530 	andi	a1,a1,0xffff
8003e298:	0e00622a 	slti	v0,s3,14
8003e29c:	f2ff4014 	bnez	v0,0x8003e268
8003e2a0:	ffff2632 	andi	a2,s1,0xffff
8003e2a4:	dc024396 	lhu	v1,732(s2)
8003e2a8:	01000224 	li	v0,1
8003e2ac:	05006214 	bne	v1,v0,0x8003e2c4
8003e2b0:	10034226 	addiu	v0,s2,784
8003e2b4:	280342ae 	sw	v0,808(s2)
8003e2b8:	240342ae 	sw	v0,804(s2)
8003e2bc:	b6ba0008 	j	0x8002ead8
8003e2c0:	200342ae 	sw	v0,800(s2)
8003e2c4:	200342ae 	sw	v0,800(s2)
8003e2c8:	18034226 	addiu	v0,s2,792
8003e2cc:	240342ae 	sw	v0,804(s2)
8003e2d0:	1c034226 	addiu	v0,s2,796
8003e2d4:	280342ae 	sw	v0,808(s2)
8003e2d8:	dc024396 	lhu	v1,732(s2)
8003e2dc:	02000224 	li	v0,2
8003e2e0:	27006214 	bne	v1,v0,0x8003e380
8003e2e4:	1a80023c 	lui	v0,0x801a
8003e2e8:	c6024292 	lbu	v0,710(s2)
8003e2ec:	00000000 	nop
8003e2f0:	22004010 	beqz	v0,0x8003e37c
8003e2f4:	ffff0324 	li	v1,-1
8003e2f8:	be024296 	lhu	v0,702(s2)
8003e2fc:	00000000 	nop
8003e300:	00140200 	sll	v0,v0,0x10
8003e304:	03140200 	sra	v0,v0,0x10
8003e308:	98004310 	beq	v0,v1,0x8003e56c
8003e30c:	21980000 	move	s3,zero
8003e310:	0013143c 	lui	s4,0x1300
8003e314:	c0024296 	lhu	v0,704(s2)
8003e318:	10001124 	li	s1,16
8003e31c:	00140200 	sll	v0,v0,0x10
8003e320:	03140200 	sra	v0,v0,0x10
8003e324:	40180200 	sll	v1,v0,0x1
8003e328:	21186200 	addu	v1,v1,v0
8003e32c:	80180300 	sll	v1,v1,0x2
8003e330:	23186200 	subu	v1,v1,v0
8003e334:	80180300 	sll	v1,v1,0x2
8003e338:	1c80023c 	lui	v0,0x801c
8003e33c:	20784224 	addiu	v0,v0,30752
8003e340:	21806200 	addu	s0,v1,v0
8003e344:	4e020524 	li	a1,590
8003e348:	ffff2632 	andi	a2,s1,0xffff
8003e34c:	00000492 	lbu	a0,0(s0)
8003e350:	01001026 	addiu	s0,s0,1
8003e354:	0f003126 	addiu	s1,s1,15
8003e358:	01007326 	addiu	s3,s3,1
8003e35c:	2003478e 	lw	a3,800(s2)
8003e360:	109d000c 	jal	0x80027440
8003e364:	25209400 	or	a0,a0,s4
8003e368:	0e00622a 	slti	v0,s3,14
8003e36c:	f6ff4014 	bnez	v0,0x8003e348
8003e370:	4e020524 	li	a1,590
8003e374:	5bbb0008 	j	0x8002ed6c
8003e378:	00000000 	nop
8003e37c:	1a80023c 	lui	v0,0x801a
8003e380:	8a8f5524 	addiu	s5,v0,-28790
8003e384:	21980000 	move	s3,zero
8003e388:	0003163c 	lui	s6,0x300
8003e38c:	10001424 	li	s4,16
8003e390:	21884002 	move	s1,s2
8003e394:	dc024396 	lhu	v1,732(s2)
8003e398:	02000224 	li	v0,2
8003e39c:	2b006214 	bne	v1,v0,0x8003e44c
8003e3a0:	00000000 	nop
8003e3a4:	5c022286 	lh	v0,604(s1)
8003e3a8:	00000000 	nop
8003e3ac:	11004018 	blez	v0,0x8003e3f4
8003e3b0:	4e020524 	li	a1,590
8003e3b4:	ffff9032 	andi	s0,s4,0xffff
8003e3b8:	21300002 	move	a2,s0
8003e3bc:	b4012486 	lh	a0,436(s1)
8003e3c0:	2003478e 	lw	a3,800(s2)
8003e3c4:	109d000c 	jal	0x80027440
8003e3c8:	25209600 	or	a0,a0,s6
8003e3cc:	13000424 	li	a0,19
8003e3d0:	20020524 	li	a1,544
8003e3d4:	2403478e 	lw	a3,804(s2)
8003e3d8:	b39b000c 	jal	0x80026ecc
8003e3dc:	21300002 	move	a2,s0
8003e3e0:	fc010524 	li	a1,508
8003e3e4:	5c022486 	lh	a0,604(s1)
8003e3e8:	2403478e 	lw	a3,804(s2)
8003e3ec:	1ebb0008 	j	0x8002ec78
8003e3f0:	21300002 	move	a2,s0
8003e3f4:	12004104 	bgez	v0,0x8003e440
8003e3f8:	ffff9032 	andi	s0,s4,0xffff
8003e3fc:	4e020524 	li	a1,590
8003e400:	21300002 	move	a2,s0
8003e404:	b4012486 	lh	a0,436(s1)
8003e408:	2003478e 	lw	a3,800(s2)
8003e40c:	109d000c 	jal	0x80027440
8003e410:	25209600 	or	a0,a0,s6
8003e414:	14000424 	li	a0,20
8003e418:	20020524 	li	a1,544
8003e41c:	2803478e 	lw	a3,808(s2)
8003e420:	b39b000c 	jal	0x80026ecc
8003e424:	21300002 	move	a2,s0
8003e428:	fc010524 	li	a1,508
8003e42c:	21300002 	move	a2,s0
8003e430:	5c022486 	lh	a0,604(s1)
8003e434:	2803478e 	lw	a3,808(s2)
8003e438:	1ebb0008 	j	0x8002ec78
8003e43c:	23200400 	negu	a0,a0
8003e440:	b4012486 	lh	a0,436(s1)
8003e444:	1dbb0008 	j	0x8002ec74
8003e448:	ffff8632 	andi	a2,s4,0xffff
8003e44c:	0000a286 	lh	v0,0(s5)
8003e450:	00000000 	nop
8003e454:	05004104 	bgez	v0,0x8003e46c
8003e458:	4e020524 	li	a1,590
8003e45c:	0003043c 	lui	a0,0x300
8003e460:	2003478e 	lw	a3,800(s2)
8003e464:	1fbb0008 	j	0x8002ec7c
8003e468:	ffff8632 	andi	a2,s4,0xffff
8003e46c:	ffff8632 	andi	a2,s4,0xffff
8003e470:	0000a496 	lhu	a0,0(s5)
8003e474:	2003478e 	lw	a3,800(s2)
8003e478:	25209600 	or	a0,a0,s6
8003e47c:	109d000c 	jal	0x80027440
8003e480:	0200b526 	addiu	s5,s5,2
8003e484:	0f009426 	addiu	s4,s4,15
8003e488:	01007326 	addiu	s3,s3,1
8003e48c:	0e00622a 	slti	v0,s3,14
8003e490:	c0ff4014 	bnez	v0,0x8003e394
8003e494:	02003126 	addiu	s1,s1,2
8003e498:	04000224 	li	v0,4
8003e49c:	2e00a2a7 	sh	v0,46(sp)
8003e4a0:	21980000 	move	s3,zero
8003e4a4:	1b001124 	li	s1,27
8003e4a8:	21804002 	move	s0,s2
8003e4ac:	b4010386 	lh	v1,436(s0)
8003e4b0:	00000000 	nop
8003e4b4:	40100300 	sll	v0,v1,0x1
8003e4b8:	21104300 	addu	v0,v0,v1
8003e4bc:	c0100200 	sll	v0,v0,0x3
8003e4c0:	21104300 	addu	v0,v0,v1
8003e4c4:	c4024396 	lhu	v1,708(s2)
8003e4c8:	40100200 	sll	v0,v0,0x1
8003e4cc:	001c0300 	sll	v1,v1,0x10
8003e4d0:	031c0300 	sra	v1,v1,0x10
8003e4d4:	1a004300 	div	zero,v0,v1
8003e4d8:	02006014 	bnez	v1,0x8003e4e4
8003e4dc:	00000000 	nop
8003e4e0:	0d000700 	break	0x7
8003e4e4:	ffff0124 	li	at,-1
8003e4e8:	04006114 	bne	v1,at,0x8003e4fc
8003e4ec:	0080013c 	lui	at,0x8000
8003e4f0:	02004114 	bne	v0,at,0x8003e4fc
8003e4f4:	00000000 	nop
8003e4f8:	0d000600 	break	0x6
8003e4fc:	12100000 	mflo	v0
8003e500:	00000000 	nop
8003e504:	2c00a2a7 	sh	v0,44(sp)
8003e508:	00140200 	sll	v0,v0,0x10
8003e50c:	03140200 	sra	v0,v0,0x10
8003e510:	65004228 	slti	v0,v0,101
8003e514:	03004014 	bnez	v0,0x8003e524
8003e518:	2800a427 	addiu	a0,sp,40
8003e51c:	64000224 	li	v0,100
8003e520:	2c00a2a7 	sh	v0,44(sp)
8003e524:	1000a527 	addiu	a1,sp,16
8003e528:	1800a627 	addiu	a2,sp,24
8003e52c:	01000724 	li	a3,1
8003e530:	2a00b1a7 	sh	s1,42(sp)
8003e534:	0f003126 	addiu	s1,s1,15
8003e538:	02001026 	addiu	s0,s0,2
8003e53c:	01007326 	addiu	s3,s3,1
8003e540:	2c00a297 	lhu	v0,44(sp)
8003e544:	72020324 	li	v1,626
8003e548:	23186200 	subu	v1,v1,v0
8003e54c:	6ea3000c 	jal	0x80028db8
8003e550:	2800a3a7 	sh	v1,40(sp)
8003e554:	0e00622a 	slti	v0,s3,14
8003e558:	d4ff4014 	bnez	v0,0x8003e4ac
8003e55c:	01000424 	li	a0,1
8003e560:	40030524 	li	a1,832
8003e564:	aaa1000c 	jal	0x800286a8
8003e568:	00010624 	li	a2,256
8003e56c:	6c00bf8f 	lw	ra,108(sp)
8003e570:	6800b68f 	lw	s6,104(sp)
8003e574:	6400b58f 	lw	s5,100(sp)
8003e578:	6000b48f 	lw	s4,96(sp)
8003e57c:	5c00b38f 	lw	s3,92(sp)
8003e580:	5800b28f 	lw	s2,88(sp)
8003e584:	5400b18f 	lw	s1,84(sp)
8003e588:	5000b08f 	lw	s0,80(sp)
8003e58c:	7000bd27 	addiu	sp,sp,112
8003e590:	0800e003 	jr	ra
8003e594:	00000000 	nop
8003e598:	d0ffbd27 	addiu	sp,sp,-48
8003e59c:	1800b2af 	sw	s2,24(sp)
8003e5a0:	21900000 	move	s2,zero
8003e5a4:	1e80023c 	lui	v0,0x801e
8003e5a8:	500d4224 	addiu	v0,v0,3408
8003e5ac:	1c00b3af 	sw	s3,28(sp)
8003e5b0:	000c5324 	addiu	s3,v0,3072
8003e5b4:	1400b1af 	sw	s1,20(sp)
8003e5b8:	10001124 	li	s1,16
8003e5bc:	1000b0af 	sw	s0,16(sp)
8003e5c0:	21804000 	move	s0,v0
8003e5c4:	2400b5af 	sw	s5,36(sp)
8003e5c8:	801f153c 	lui	s5,0x1f80
8003e5cc:	60000224 	li	v0,96
8003e5d0:	30000324 	li	v1,48
8003e5d4:	2c00bfaf 	sw	ra,44(sp)
8003e5d8:	2800b6af 	sw	s6,40(sp)
8003e5dc:	2000b4af 	sw	s4,32(sp)
8003e5e0:	1803a2a2 	sb	v0,792(s5)
8003e5e4:	1c03a2a2 	sb	v0,796(s5)
8003e5e8:	1d03a2a2 	sb	v0,797(s5)
8003e5ec:	20000224 	li	v0,32
8003e5f0:	1e03a2a2 	sb	v0,798(s5)
8003e5f4:	31000224 	li	v0,49
8003e5f8:	1903a3a2 	sb	v1,793(s5)
8003e5fc:	1a03a3a2 	sb	v1,794(s5)
8003e600:	1f03a2a2 	sb	v0,799(s5)
8003e604:	1b03a2a2 	sb	v0,795(s5)
8003e608:	3c010524 	li	a1,316
8003e60c:	ffff2632 	andi	a2,s1,0xffff
8003e610:	0003a726 	addiu	a3,s5,768
8003e614:	0f003126 	addiu	s1,s1,15
8003e618:	00000496 	lhu	a0,0(s0)
8003e61c:	02001026 	addiu	s0,s0,2
8003e620:	01005226 	addiu	s2,s2,1
8003e624:	cb9c000c 	jal	0x8002732c
8003e628:	21209300 	addu	a0,a0,s3
8003e62c:	0e00422a 	slti	v0,s2,14
8003e630:	f6ff4014 	bnez	v0,0x8003e60c
8003e634:	3c010524 	li	a1,316
8003e638:	1a80023c 	lui	v0,0x801a
8003e63c:	288f5324 	addiu	s3,v0,-28888
8003e640:	21900000 	move	s2,zero
8003e644:	0005143c 	lui	s4,0x500
8003e648:	10001124 	li	s1,16
8003e64c:	00006296 	lhu	v0,0(s3)
8003e650:	02006586 	lh	a1,2(s3)
8003e654:	00140200 	sll	v0,v0,0x10
8003e658:	031c0200 	sra	v1,v0,0x10
8003e65c:	c3270200 	sra	a0,v0,0x1f
8003e660:	23106400 	subu	v0,v1,a0
8003e664:	43100200 	sra	v0,v0,0x1
8003e668:	2a10a200 	slt	v0,a1,v0
8003e66c:	0d004014 	bnez	v0,0x8003e6a4
8003e670:	1c03a226 	addiu	v0,s5,796
8003e674:	6666023c 	lui	v0,0x6666
8003e678:	67664234 	ori	v0,v0,0x6667
8003e67c:	18006200 	mult	v1,v0
8003e680:	10480000 	mfhi	t1
8003e684:	43100900 	sra	v0,t1,0x1
8003e688:	23104400 	subu	v0,v0,a0
8003e68c:	00140200 	sll	v0,v0,0x10
8003e690:	03140200 	sra	v0,v0,0x10
8003e694:	2a10a200 	slt	v0,a1,v0
8003e698:	02004014 	bnez	v0,0x8003e6a4
8003e69c:	1803a226 	addiu	v0,s5,792
8003e6a0:	1003a226 	addiu	v0,s5,784
8003e6a4:	2003a2ae 	sw	v0,800(s5)
8003e6a8:	00006496 	lhu	a0,0(s3)
8003e6ac:	02007326 	addiu	s3,s3,2
8003e6b0:	36020524 	li	a1,566
8003e6b4:	ffff3032 	andi	s0,s1,0xffff
8003e6b8:	21300002 	move	a2,s0
8003e6bc:	0f003126 	addiu	s1,s1,15
8003e6c0:	01005226 	addiu	s2,s2,1
8003e6c4:	2003a78e 	lw	a3,800(s5)
8003e6c8:	109d000c 	jal	0x80027440
8003e6cc:	25209400 	or	a0,a0,s4
8003e6d0:	0e000424 	li	a0,14
8003e6d4:	2a020524 	li	a1,554
8003e6d8:	2003a78e 	lw	a3,800(s5)
8003e6dc:	b39b000c 	jal	0x80026ecc
8003e6e0:	21300002 	move	a2,s0
8003e6e4:	00006496 	lhu	a0,0(s3)
8003e6e8:	02007326 	addiu	s3,s3,2
8003e6ec:	ee010524 	li	a1,494
8003e6f0:	21300002 	move	a2,s0
8003e6f4:	2003a78e 	lw	a3,800(s5)
8003e6f8:	109d000c 	jal	0x80027440
8003e6fc:	25209400 	or	a0,a0,s4
8003e700:	0200422a 	slti	v0,s2,2
8003e704:	d1ff4014 	bnez	v0,0x8003e64c
8003e708:	1e020524 	li	a1,542
8003e70c:	02007326 	addiu	s3,s3,2
8003e710:	00006496 	lhu	a0,0(s3)
8003e714:	02007326 	addiu	s3,s3,2
8003e718:	2e000624 	li	a2,46
8003e71c:	1003b026 	addiu	s0,s5,784
8003e720:	21380002 	move	a3,s0
8003e724:	03001224 	li	s2,3
8003e728:	0003163c 	lui	s6,0x300
8003e72c:	3d001424 	li	s4,61
8003e730:	2188c002 	move	s1,s6
8003e734:	109d000c 	jal	0x80027440
8003e738:	25209100 	or	a0,a0,s1
8003e73c:	0f000424 	li	a0,15
8003e740:	42020524 	li	a1,578
8003e744:	2e000624 	li	a2,46
8003e748:	b39b000c 	jal	0x80026ecc
8003e74c:	21380002 	move	a3,s0
8003e750:	00006496 	lhu	a0,0(s3)
8003e754:	02007326 	addiu	s3,s3,2
8003e758:	4e020524 	li	a1,590
8003e75c:	2e000624 	li	a2,46
8003e760:	21380002 	move	a3,s0
8003e764:	109d000c 	jal	0x80027440
8003e768:	25209100 	or	a0,a0,s1
8003e76c:	00006496 	lhu	a0,0(s3)
8003e770:	02007326 	addiu	s3,s3,2
8003e774:	4e020524 	li	a1,590
8003e778:	ffff8632 	andi	a2,s4,0xffff
8003e77c:	1003a726 	addiu	a3,s5,784
8003e780:	0f009426 	addiu	s4,s4,15
8003e784:	01005226 	addiu	s2,s2,1
8003e788:	109d000c 	jal	0x80027440
8003e78c:	25209600 	or	a0,a0,s6
8003e790:	0d00422a 	slti	v0,s2,13
8003e794:	f5ff4014 	bnez	v0,0x8003e76c
8003e798:	00000000 	nop
8003e79c:	6666043c 	lui	a0,0x6666
8003e7a0:	00006596 	lhu	a1,0(s3)
8003e7a4:	67668434 	ori	a0,a0,0x6667
8003e7a8:	002c0500 	sll	a1,a1,0x10
8003e7ac:	03140500 	sra	v0,a1,0x10
8003e7b0:	18004400 	mult	v0,a0
8003e7b4:	02006396 	lhu	v1,2(s3)
8003e7b8:	10300000 	mfhi	a2
8003e7bc:	001c0300 	sll	v1,v1,0x10
8003e7c0:	03140300 	sra	v0,v1,0x10
8003e7c4:	18004400 	mult	v0,a0
8003e7c8:	c32f0500 	sra	a1,a1,0x1f
8003e7cc:	c31f0300 	sra	v1,v1,0x1f
8003e7d0:	83200600 	sra	a0,a2,0x2
8003e7d4:	23208500 	subu	a0,a0,a1
8003e7d8:	00240400 	sll	a0,a0,0x10
8003e7dc:	10100000 	mfhi	v0
8003e7e0:	83100200 	sra	v0,v0,0x2
8003e7e4:	23104300 	subu	v0,v0,v1
8003e7e8:	00140200 	sll	v0,v0,0x10
8003e7ec:	2a104400 	slt	v0,v0,a0
8003e7f0:	02004014 	bnez	v0,0x8003e7fc
8003e7f4:	1803a226 	addiu	v0,s5,792
8003e7f8:	1003a226 	addiu	v0,s5,784
8003e7fc:	2003a2ae 	sw	v0,800(s5)
8003e800:	1624103c 	lui	s0,0x2416
8003e804:	00006296 	lhu	v0,0(s3)
8003e808:	198e1036 	ori	s0,s0,0x8e19
8003e80c:	00140200 	sll	v0,v0,0x10
8003e810:	03140200 	sra	v0,v0,0x10
8003e814:	40200200 	sll	a0,v0,0x1
8003e818:	21208200 	addu	a0,a0,v0
8003e81c:	c0200400 	sll	a0,a0,0x3
8003e820:	21208200 	addu	a0,a0,v0
8003e824:	80200400 	sll	a0,a0,0x2
8003e828:	18009000 	mult	a0,s0
8003e82c:	02007326 	addiu	s3,s3,2
8003e830:	40190200 	sll	v1,v0,0x5
8003e834:	23186200 	subu	v1,v1,v0
8003e838:	80180300 	sll	v1,v1,0x2
8003e83c:	10400000 	mfhi	t0
8003e840:	21186200 	addu	v1,v1,v0
8003e844:	c0180300 	sll	v1,v1,0x3
8003e848:	18007000 	mult	v1,s0
8003e84c:	ee010524 	li	a1,494
8003e850:	d3000624 	li	a2,211
8003e854:	0003123c 	lui	s2,0x300
8003e858:	2003a78e 	lw	a3,800(s5)
8003e85c:	c3270400 	sra	a0,a0,0x1f
8003e860:	83110800 	sra	v0,t0,0x6
8003e864:	23104400 	subu	v0,v0,a0
8003e868:	0980013c 	lui	at,0x8009
8003e86c:	9e8122a4 	sh	v0,-32354(at)
8003e870:	0980043c 	lui	a0,0x8009
8003e874:	9e818494 	lhu	a0,-32354(a0)
8003e878:	c31f0300 	sra	v1,v1,0x1f
8003e87c:	10500000 	mfhi	t2
8003e880:	83110a00 	sra	v0,t2,0x6
8003e884:	23104300 	subu	v0,v0,v1
8003e888:	0980013c 	lui	at,0x8009
8003e88c:	888122a4 	sh	v0,-32376(at)
8003e890:	109d000c 	jal	0x80027440
8003e894:	25209200 	or	a0,a0,s2
8003e898:	12000424 	li	a0,18
8003e89c:	16020524 	li	a1,534
8003e8a0:	2003a78e 	lw	a3,800(s5)
8003e8a4:	b39b000c 	jal	0x80026ecc
8003e8a8:	d3000624 	li	a2,211
8003e8ac:	1e020524 	li	a1,542
8003e8b0:	d3000624 	li	a2,211
8003e8b4:	0001113c 	lui	s1,0x100
8003e8b8:	0980033c 	lui	v1,0x8009
8003e8bc:	9e816394 	lhu	v1,-32354(v1)
8003e8c0:	2003a78e 	lw	a3,800(s5)
8003e8c4:	0980043c 	lui	a0,0x8009
8003e8c8:	88818494 	lhu	a0,-32376(a0)
8003e8cc:	80100300 	sll	v0,v1,0x2
8003e8d0:	21104300 	addu	v0,v0,v1
8003e8d4:	40100200 	sll	v0,v0,0x1
8003e8d8:	23208200 	subu	a0,a0,v0
8003e8dc:	ffff8430 	andi	a0,a0,0xffff
8003e8e0:	109d000c 	jal	0x80027440
8003e8e4:	25209100 	or	a0,a0,s1
8003e8e8:	0e000424 	li	a0,14
8003e8ec:	2a020524 	li	a1,554
8003e8f0:	2003a78e 	lw	a3,800(s5)
8003e8f4:	b39b000c 	jal	0x80026ecc
8003e8f8:	d3000624 	li	a2,211
8003e8fc:	00006286 	lh	v0,0(s3)
8003e900:	00000000 	nop
8003e904:	40200200 	sll	a0,v0,0x1
8003e908:	21208200 	addu	a0,a0,v0
8003e90c:	c0200400 	sll	a0,a0,0x3
8003e910:	21208200 	addu	a0,a0,v0
8003e914:	80200400 	sll	a0,a0,0x2
8003e918:	18009000 	mult	a0,s0
8003e91c:	40190200 	sll	v1,v0,0x5
8003e920:	23186200 	subu	v1,v1,v0
8003e924:	80180300 	sll	v1,v1,0x2
8003e928:	10400000 	mfhi	t0
8003e92c:	21186200 	addu	v1,v1,v0
8003e930:	c0180300 	sll	v1,v1,0x3
8003e934:	18007000 	mult	v1,s0
8003e938:	36020524 	li	a1,566
8003e93c:	d3000624 	li	a2,211
8003e940:	2003a78e 	lw	a3,800(s5)
8003e944:	c3270400 	sra	a0,a0,0x1f
8003e948:	83110800 	sra	v0,t0,0x6
8003e94c:	23104400 	subu	v0,v0,a0
8003e950:	0980013c 	lui	at,0x8009
8003e954:	9e8122a4 	sh	v0,-32354(at)
8003e958:	0980043c 	lui	a0,0x8009
8003e95c:	9e818494 	lhu	a0,-32354(a0)
8003e960:	c31f0300 	sra	v1,v1,0x1f
8003e964:	10500000 	mfhi	t2
8003e968:	83110a00 	sra	v0,t2,0x6
8003e96c:	23104300 	subu	v0,v0,v1
8003e970:	0980013c 	lui	at,0x8009
8003e974:	888122a4 	sh	v0,-32376(at)
8003e978:	109d000c 	jal	0x80027440
8003e97c:	25209200 	or	a0,a0,s2
8003e980:	12000424 	li	a0,18
8003e984:	5e020524 	li	a1,606
8003e988:	2003a78e 	lw	a3,800(s5)
8003e98c:	b39b000c 	jal	0x80026ecc
8003e990:	d3000624 	li	a2,211
8003e994:	66020524 	li	a1,614
8003e998:	d3000624 	li	a2,211
8003e99c:	0980033c 	lui	v1,0x8009
8003e9a0:	9e816394 	lhu	v1,-32354(v1)
8003e9a4:	2003a78e 	lw	a3,800(s5)
8003e9a8:	0980043c 	lui	a0,0x8009
8003e9ac:	88818494 	lhu	a0,-32376(a0)
8003e9b0:	80100300 	sll	v0,v1,0x2
8003e9b4:	21104300 	addu	v0,v0,v1
8003e9b8:	40100200 	sll	v0,v0,0x1
8003e9bc:	23208200 	subu	a0,a0,v0
8003e9c0:	ffff8430 	andi	a0,a0,0xffff
8003e9c4:	109d000c 	jal	0x80027440
8003e9c8:	25209100 	or	a0,a0,s1
8003e9cc:	2c00bf8f 	lw	ra,44(sp)
8003e9d0:	2800b68f 	lw	s6,40(sp)
8003e9d4:	2400b58f 	lw	s5,36(sp)
8003e9d8:	2000b48f 	lw	s4,32(sp)
8003e9dc:	1c00b38f 	lw	s3,28(sp)
8003e9e0:	1800b28f 	lw	s2,24(sp)
8003e9e4:	1400b18f 	lw	s1,20(sp)
8003e9e8:	1000b08f 	lw	s0,16(sp)
8003e9ec:	3000bd27 	addiu	sp,sp,48
8003e9f0:	0800e003 	jr	ra
8003e9f4:	00000000 	nop
8003e9f8:	b0ffbd27 	addiu	sp,sp,-80
8003e9fc:	21408000 	move	t0,a0
8003ea00:	2148a000 	move	t1,a1
8003ea04:	4c00bfaf 	sw	ra,76(sp)
8003ea08:	4800beaf 	sw	s8,72(sp)
8003ea0c:	4400b7af 	sw	s7,68(sp)
8003ea10:	4000b6af 	sw	s6,64(sp)
8003ea14:	3c00b5af 	sw	s5,60(sp)
8003ea18:	3800b4af 	sw	s4,56(sp)
8003ea1c:	3400b3af 	sw	s3,52(sp)
8003ea20:	3000b2af 	sw	s2,48(sp)
8003ea24:	2c00b1af 	sw	s1,44(sp)
8003ea28:	2800b0af 	sw	s0,40(sp)
8003ea2c:	5800a6af 	sw	a2,88(sp)
8003ea30:	5c00a7af 	sw	a3,92(sp)
8003ea34:	00002485 	lh	a0,0(t1)
8003ea38:	00000000 	nop
8003ea3c:	02008104 	bgez	a0,0x8003ea48
8003ea40:	21108000 	move	v0,a0
8003ea44:	3f008224 	addiu	v0,a0,63
8003ea48:	83110200 	sra	v0,v0,0x6
8003ea4c:	80110200 	sll	v0,v0,0x6
8003ea50:	23108200 	subu	v0,a0,v0
8003ea54:	00140200 	sll	v0,v0,0x10
8003ea58:	02002385 	lh	v1,2(t1)
8003ea5c:	83130200 	sra	v0,v0,0xe
8003ea60:	1c00a2af 	sw	v0,28(sp)
8003ea64:	02006104 	bgez	v1,0x8003ea70
8003ea68:	21286000 	move	a1,v1
8003ea6c:	ff006524 	addiu	a1,v1,255
8003ea70:	1800a0af 	sw	zero,24(sp)
8003ea74:	1680023c 	lui	v0,0x8016
8003ea78:	90505524 	addiu	s5,v0,20624
8003ea7c:	21a00000 	move	s4,zero
8003ea80:	03120500 	sra	v0,a1,0x8
8003ea84:	00120200 	sll	v0,v0,0x8
8003ea88:	23106200 	subu	v0,v1,v0
8003ea8c:	00140200 	sll	v0,v0,0x10
8003ea90:	03b40200 	sra	s6,v0,0x10
8003ea94:	19000a24 	li	t2,25
8003ea98:	6b004011 	beqz	t2,0x8003ec48
8003ea9c:	21980000 	move	s3,zero
8003eaa0:	21f0c002 	move	s8,s6
8003eaa4:	0a00d726 	addiu	s7,s6,10
8003eaa8:	21906002 	move	s2,s3
8003eaac:	1c00a68f 	lw	a2,28(sp)
8003eab0:	0403a48e 	lw	a0,772(s5)
8003eab4:	00000000 	nop
8003eab8:	0800918c 	lw	s1,8(a0)
8003eabc:	0400828c 	lw	v0,4(a0)
8003eac0:	28002326 	addiu	v1,s1,40
8003eac4:	2b104300 	sltu	v0,v0,v1
8003eac8:	66004014 	bnez	v0,0x8003ec64
8003eacc:	0a00d024 	addiu	s0,a2,10
8003ead0:	080083ac 	sw	v1,8(a0)
8003ead4:	2803a28e 	lw	v0,808(s5)
8003ead8:	00000000 	nop
8003eadc:	01004224 	addiu	v0,v0,1
8003eae0:	2803a2ae 	sw	v0,808(s5)
8003eae4:	0c0026a2 	sb	a2,12(s1)
8003eae8:	0d003ea2 	sb	s8,13(s1)
8003eaec:	140030a2 	sb	s0,20(s1)
8003eaf0:	15003ea2 	sb	s8,21(s1)
8003eaf4:	1c0026a2 	sb	a2,28(s1)
8003eaf8:	1d0037a2 	sb	s7,29(s1)
8003eafc:	240030a2 	sb	s0,36(s1)
8003eb00:	250037a2 	sb	s7,37(s1)
8003eb04:	00000295 	lhu	v0,0(t0)
8003eb08:	00000000 	nop
8003eb0c:	21105200 	addu	v0,v0,s2
8003eb10:	180022a6 	sh	v0,24(s1)
8003eb14:	080022a6 	sh	v0,8(s1)
8003eb18:	00000295 	lhu	v0,0(t0)
8003eb1c:	00000000 	nop
8003eb20:	21105200 	addu	v0,v0,s2
8003eb24:	0a004224 	addiu	v0,v0,10
8003eb28:	200022a6 	sh	v0,32(s1)
8003eb2c:	100022a6 	sh	v0,16(s1)
8003eb30:	02000295 	lhu	v0,2(t0)
8003eb34:	00000000 	nop
8003eb38:	21105400 	addu	v0,v0,s4
8003eb3c:	120022a6 	sh	v0,18(s1)
8003eb40:	0a0022a6 	sh	v0,10(s1)
8003eb44:	02000295 	lhu	v0,2(t0)
8003eb48:	00000000 	nop
8003eb4c:	21105400 	addu	v0,v0,s4
8003eb50:	0a004224 	addiu	v0,v0,10
8003eb54:	220022a6 	sh	v0,34(s1)
8003eb58:	1a0022a6 	sh	v0,26(s1)
8003eb5c:	5c00aa8f 	lw	t2,92(sp)
8003eb60:	00000000 	nop
8003eb64:	03004289 	lwl	v0,3(t2)
8003eb68:	00004299 	lwr	v0,0(t2)
8003eb6c:	00000000 	nop
8003eb70:	1300a2ab 	swl	v0,19(sp)
8003eb74:	1000a2bb 	swr	v0,16(sp)
8003eb78:	1000a293 	lbu	v0,16(sp)
8003eb7c:	00000000 	nop
8003eb80:	040022a2 	sb	v0,4(s1)
8003eb84:	1100a293 	lbu	v0,17(sp)
8003eb88:	00000000 	nop
8003eb8c:	050022a2 	sb	v0,5(s1)
8003eb90:	1200a293 	lbu	v0,18(sp)
8003eb94:	00000000 	nop
8003eb98:	060022a2 	sb	v0,6(s1)
8003eb9c:	03004591 	lbu	a1,3(t2)
8003eba0:	00002685 	lh	a2,0(t1)
8003eba4:	02002785 	lh	a3,2(t1)
8003eba8:	21200000 	move	a0,zero
8003ebac:	2000a8af 	sw	t0,32(sp)
8003ebb0:	2400a9af 	sw	t1,36(sp)
8003ebb4:	c1f1010c 	jal	0x8007c704
8003ebb8:	0300a530 	andi	a1,a1,0x3
8003ebbc:	160022a6 	sh	v0,22(s1)
8003ebc0:	5800aa8f 	lw	t2,88(sp)
8003ebc4:	00000000 	nop
8003ebc8:	00004485 	lh	a0,0(t2)
8003ebcc:	02004585 	lh	a1,2(t2)
8003ebd0:	d1f1010c 	jal	0x8007c744
8003ebd4:	01007326 	addiu	s3,s3,1
8003ebd8:	ff00043c 	lui	a0,0xff
8003ebdc:	ffff8434 	ori	a0,a0,0xffff
8003ebe0:	0e0022a6 	sh	v0,14(s1)
8003ebe4:	09000224 	li	v0,9
8003ebe8:	030022a2 	sb	v0,3(s1)
8003ebec:	2e000224 	li	v0,46
8003ebf0:	00ff053c 	lui	a1,0xff00
8003ebf4:	0b005226 	addiu	s2,s2,11
8003ebf8:	070022a2 	sb	v0,7(s1)
8003ebfc:	e400a38e 	lw	v1,228(s5)
8003ec00:	0000228e 	lw	v0,0(s1)
8003ec04:	0000638c 	lw	v1,0(v1)
8003ec08:	24104500 	and	v0,v0,a1
8003ec0c:	24186400 	and	v1,v1,a0
8003ec10:	25104300 	or	v0,v0,v1
8003ec14:	000022ae 	sw	v0,0(s1)
8003ec18:	e400a38e 	lw	v1,228(s5)
8003ec1c:	00000000 	nop
8003ec20:	0000628c 	lw	v0,0(v1)
8003ec24:	24202402 	and	a0,s1,a0
8003ec28:	24104500 	and	v0,v0,a1
8003ec2c:	25104400 	or	v0,v0,a0
8003ec30:	000062ac 	sw	v0,0(v1)
8003ec34:	1900622a 	slti	v0,s3,25
8003ec38:	2000a88f 	lw	t0,32(sp)
8003ec3c:	2400a98f 	lw	t1,36(sp)
8003ec40:	9bff4014 	bnez	v0,0x8003eab0
8003ec44:	21300002 	move	a2,s0
8003ec48:	0c009426 	addiu	s4,s4,12
8003ec4c:	1800aa8f 	lw	t2,24(sp)
8003ec50:	0a00d626 	addiu	s6,s6,10
8003ec54:	01004a25 	addiu	t2,t2,1
8003ec58:	05004229 	slti	v0,t2,5
8003ec5c:	8dff4014 	bnez	v0,0x8003ea94
8003ec60:	1800aaaf 	sw	t2,24(sp)
8003ec64:	4c00bf8f 	lw	ra,76(sp)
8003ec68:	4800be8f 	lw	s8,72(sp)
8003ec6c:	4400b78f 	lw	s7,68(sp)
8003ec70:	4000b68f 	lw	s6,64(sp)
8003ec74:	3c00b58f 	lw	s5,60(sp)
8003ec78:	3800b48f 	lw	s4,56(sp)
8003ec7c:	3400b38f 	lw	s3,52(sp)
8003ec80:	3000b28f 	lw	s2,48(sp)
8003ec84:	2c00b18f 	lw	s1,44(sp)
8003ec88:	2800b08f 	lw	s0,40(sp)
8003ec8c:	5000bd27 	addiu	sp,sp,80
8003ec90:	0800e003 	jr	ra
8003ec94:	00000000 	nop
8003ec98:	b8ffbd27 	addiu	sp,sp,-72
8003ec9c:	4400bfaf 	sw	ra,68(sp)
8003eca0:	4000b2af 	sw	s2,64(sp)
8003eca4:	3c00b1af 	sw	s1,60(sp)
8003eca8:	3800b0af 	sw	s0,56(sp)
8003ecac:	14000224 	li	v0,20
8003ecb0:	1800a2a7 	sh	v0,24(sp)
8003ecb4:	98000224 	li	v0,152
8003ecb8:	1a00a2a7 	sh	v0,26(sp)
8003ecbc:	0880023c 	lui	v0,0x8008
8003ecc0:	707f4624 	addiu	a2,v0,32624
8003ecc4:	0300c388 	lwl	v1,3(a2)
8003ecc8:	0000c398 	lwr	v1,0(a2)
8003eccc:	0700c488 	lwl	a0,7(a2)
8003ecd0:	0400c498 	lwr	a0,4(a2)
8003ecd4:	2300a3ab 	swl	v1,35(sp)
8003ecd8:	2000a3bb 	swr	v1,32(sp)
8003ecdc:	2700a4ab 	swl	a0,39(sp)
8003ece0:	2400a4bb 	swr	a0,36(sp)
8003ece4:	0880023c 	lui	v0,0x8008
8003ece8:	787f4624 	addiu	a2,v0,32632
8003ecec:	0300c388 	lwl	v1,3(a2)
8003ecf0:	0000c398 	lwr	v1,0(a2)
8003ecf4:	0700c488 	lwl	a0,7(a2)
8003ecf8:	0400c498 	lwr	a0,4(a2)
8003ecfc:	2b00a3ab 	swl	v1,43(sp)
8003ed00:	2800a3bb 	swr	v1,40(sp)
8003ed04:	2f00a4ab 	swl	a0,47(sp)
8003ed08:	2c00a4bb 	swr	a0,44(sp)
8003ed0c:	2800a427 	addiu	a0,sp,40
8003ed10:	801f053c 	lui	a1,0x1f80
8003ed14:	2c03a534 	ori	a1,a1,0x32c
8003ed18:	21300000 	move	a2,zero
8003ed1c:	801f113c 	lui	s1,0x1f80
8003ed20:	60000224 	li	v0,96
8003ed24:	180322a2 	sb	v0,792(s1)
8003ed28:	080322a2 	sb	v0,776(s1)
8003ed2c:	30000224 	li	v0,48
8003ed30:	1a0322a2 	sb	v0,794(s1)
8003ed34:	0a0322a2 	sb	v0,778(s1)
8003ed38:	190322a2 	sb	v0,793(s1)
8003ed3c:	090322a2 	sb	v0,777(s1)
8003ed40:	49000224 	li	v0,73
8003ed44:	0b0322a2 	sb	v0,779(s1)
8003ed48:	31000224 	li	v0,49
8003ed4c:	5ba4000c 	jal	0x8002916c
8003ed50:	1b0322a2 	sb	v0,795(s1)
8003ed54:	2000a427 	addiu	a0,sp,32
8003ed58:	21282002 	move	a1,s1
8003ed5c:	2c03a534 	ori	a1,a1,0x32c
8003ed60:	5ba4000c 	jal	0x8002916c
8003ed64:	00080624 	li	a2,2048
8003ed68:	01000424 	li	a0,1
8003ed6c:	21280000 	move	a1,zero
8003ed70:	aaa1000c 	jal	0x800286a8
8003ed74:	2130a000 	move	a2,a1
8003ed78:	21202002 	move	a0,s1
8003ed7c:	50038434 	ori	a0,a0,0x350
8003ed80:	21282002 	move	a1,s1
8003ed84:	5803a534 	ori	a1,a1,0x358
8003ed88:	21300000 	move	a2,zero
8003ed8c:	2138c000 	move	a3,a2
8003ed90:	0c000224 	li	v0,12
8003ed94:	500322a6 	sh	v0,848(s1)
8003ed98:	0a000224 	li	v0,10
8003ed9c:	520322a6 	sh	v0,850(s1)
8003eda0:	c0000224 	li	v0,192
8003eda4:	540322a6 	sh	v0,852(s1)
8003eda8:	7c000224 	li	v0,124
8003edac:	560322a6 	sh	v0,854(s1)
8003edb0:	80020224 	li	v0,640
8003edb4:	10001024 	li	s0,16
8003edb8:	580322a6 	sh	v0,856(s1)
8003edbc:	5a0320a6 	sh	zero,858(s1)
8003edc0:	d9a0000c 	jal	0x80028364
8003edc4:	1000b0af 	sw	s0,16(sp)
8003edc8:	21202002 	move	a0,s1
8003edcc:	50038434 	ori	a0,a0,0x350
8003edd0:	21282002 	move	a1,s1
8003edd4:	5803a534 	ori	a1,a1,0x358
8003edd8:	21300000 	move	a2,zero
8003eddc:	2138c000 	move	a3,a2
8003ede0:	cc000224 	li	v0,204
8003ede4:	500322a6 	sh	v0,848(s1)
8003ede8:	64000224 	li	v0,100
8003edec:	540322a6 	sh	v0,852(s1)
8003edf0:	40030224 	li	v0,832
8003edf4:	580322a6 	sh	v0,856(s1)
8003edf8:	d9a0000c 	jal	0x80028364
8003edfc:	1000b0af 	sw	s0,16(sp)
8003ee00:	be022296 	lhu	v0,702(s1)
8003ee04:	ffff0324 	li	v1,-1
8003ee08:	00140200 	sll	v0,v0,0x10
8003ee0c:	03140200 	sra	v0,v0,0x10
8003ee10:	d3004310 	beq	v0,v1,0x8003f160
8003ee14:	0e000524 	li	a1,14
8003ee18:	88000624 	li	a2,136
8003ee1c:	21382002 	move	a3,s1
8003ee20:	03032392 	lbu	v1,771(s1)
8003ee24:	c0022296 	lhu	v0,704(s1)
8003ee28:	80006334 	ori	v1,v1,0x80
8003ee2c:	00140200 	sll	v0,v0,0x10
8003ee30:	030323a2 	sb	v1,771(s1)
8003ee34:	cc02238e 	lw	v1,716(s1)
8003ee38:	c3130200 	sra	v0,v0,0xf
8003ee3c:	21104300 	addu	v0,v0,v1
8003ee40:	00004494 	lhu	a0,0(v0)
8003ee44:	0003e734 	ori	a3,a3,0x300
8003ee48:	000c8424 	addiu	a0,a0,3072
8003ee4c:	cb9c000c 	jal	0x8002732c
8003ee50:	21206400 	addu	a0,v1,a0
8003ee54:	0f00033c 	lui	v1,0xf
8003ee58:	04006334 	ori	v1,v1,0x4
8003ee5c:	1800a427 	addiu	a0,sp,24
8003ee60:	21282002 	move	a1,s1
8003ee64:	2130a000 	move	a2,a1
8003ee68:	0400c634 	ori	a2,a2,0x4
8003ee6c:	2138a000 	move	a3,a1
8003ee70:	03032292 	lbu	v0,771(s1)
8003ee74:	0003e734 	ori	a3,a3,0x300
8003ee78:	1000a3af 	sw	v1,16(sp)
8003ee7c:	7f004230 	andi	v0,v0,0x7f
8003ee80:	7ebc000c 	jal	0x8002f1f8
8003ee84:	030322a2 	sb	v0,771(s1)
8003ee88:	1c80023c 	lui	v0,0x801c
8003ee8c:	c0022396 	lhu	v1,704(s1)
8003ee90:	f8765224 	addiu	s2,v0,30456
8003ee94:	001c0300 	sll	v1,v1,0x10
8003ee98:	031c0300 	sra	v1,v1,0x10
8003ee9c:	40100300 	sll	v0,v1,0x1
8003eea0:	21104300 	addu	v0,v0,v1
8003eea4:	80100200 	sll	v0,v0,0x2
8003eea8:	23104300 	subu	v0,v0,v1
8003eeac:	80100200 	sll	v0,v0,0x2
8003eeb0:	21285200 	addu	a1,v0,s2
8003eeb4:	3c01a294 	lhu	v0,316(a1)
8003eeb8:	00000000 	nop
8003eebc:	49004010 	beqz	v0,0x8003efe4
8003eec0:	1624043c 	lui	a0,0x2416
8003eec4:	21184000 	move	v1,v0
8003eec8:	198e8434 	ori	a0,a0,0x8e19
8003eecc:	40100300 	sll	v0,v1,0x1
8003eed0:	21104300 	addu	v0,v0,v1
8003eed4:	c0100200 	sll	v0,v0,0x3
8003eed8:	21104300 	addu	v0,v0,v1
8003eedc:	80100200 	sll	v0,v0,0x2
8003eee0:	18004400 	mult	v0,a0
8003eee4:	21106000 	move	v0,v1
8003eee8:	40190200 	sll	v1,v0,0x5
8003eeec:	23186200 	subu	v1,v1,v0
8003eef0:	80180300 	sll	v1,v1,0x2
8003eef4:	21186200 	addu	v1,v1,v0
8003eef8:	10400000 	mfhi	t0
8003eefc:	c0180300 	sll	v1,v1,0x3
8003ef00:	bc000524 	li	a1,188
8003ef04:	18006400 	mult	v1,a0
8003ef08:	d9000624 	li	a2,217
8003ef0c:	21382002 	move	a3,s1
8003ef10:	1e80043c 	lui	a0,0x801e
8003ef14:	500d8424 	addiu	a0,a0,3408
8003ef18:	38008294 	lhu	v0,56(a0)
8003ef1c:	000c8424 	addiu	a0,a0,3072
8003ef20:	c31f0300 	sra	v1,v1,0x1f
8003ef24:	21204400 	addu	a0,v0,a0
8003ef28:	83110800 	sra	v0,t0,0x6
8003ef2c:	0980013c 	lui	at,0x8009
8003ef30:	9e8122a4 	sh	v0,-32354(at)
8003ef34:	10500000 	mfhi	t2
8003ef38:	83110a00 	sra	v0,t2,0x6
8003ef3c:	23104300 	subu	v0,v0,v1
8003ef40:	0980013c 	lui	at,0x8009
8003ef44:	888122a4 	sh	v0,-32376(at)
8003ef48:	cb9c000c 	jal	0x8002732c
8003ef4c:	0003e734 	ori	a3,a3,0x300
8003ef50:	e0000524 	li	a1,224
8003ef54:	d9000624 	li	a2,217
8003ef58:	21382002 	move	a3,s1
8003ef5c:	1003e734 	ori	a3,a3,0x310
8003ef60:	0980023c 	lui	v0,0x8009
8003ef64:	9e814294 	lhu	v0,-32354(v0)
8003ef68:	0003043c 	lui	a0,0x300
8003ef6c:	109d000c 	jal	0x80027440
8003ef70:	25204400 	or	a0,v0,a0
8003ef74:	12000424 	li	a0,18
8003ef78:	08010524 	li	a1,264
8003ef7c:	d9000624 	li	a2,217
8003ef80:	21382002 	move	a3,s1
8003ef84:	b39b000c 	jal	0x80026ecc
8003ef88:	0003e734 	ori	a3,a3,0x300
8003ef8c:	10010524 	li	a1,272
8003ef90:	d9000624 	li	a2,217
8003ef94:	21382002 	move	a3,s1
8003ef98:	1003e734 	ori	a3,a3,0x310
8003ef9c:	0980033c 	lui	v1,0x8009
8003efa0:	9e816394 	lhu	v1,-32354(v1)
8003efa4:	0980043c 	lui	a0,0x8009
8003efa8:	88818494 	lhu	a0,-32376(a0)
8003efac:	80100300 	sll	v0,v1,0x2
8003efb0:	21104300 	addu	v0,v0,v1
8003efb4:	40100200 	sll	v0,v0,0x1
8003efb8:	23208200 	subu	a0,a0,v0
8003efbc:	ffff8430 	andi	a0,a0,0xffff
8003efc0:	0001023c 	lui	v0,0x100
8003efc4:	109d000c 	jal	0x80027440
8003efc8:	25208200 	or	a0,a0,v0
8003efcc:	35000424 	li	a0,53
8003efd0:	1f010524 	li	a1,287
8003efd4:	d9000624 	li	a2,217
8003efd8:	21382002 	move	a3,s1
8003efdc:	b39b000c 	jal	0x80026ecc
8003efe0:	0003e734 	ori	a3,a3,0x300
8003efe4:	c0022296 	lhu	v0,704(s1)
8003efe8:	00000000 	nop
8003efec:	00140200 	sll	v0,v0,0x10
8003eff0:	03140200 	sra	v0,v0,0x10
8003eff4:	40180200 	sll	v1,v0,0x1
8003eff8:	21186200 	addu	v1,v1,v0
8003effc:	80180300 	sll	v1,v1,0x2
8003f000:	23186200 	subu	v1,v1,v0
8003f004:	80180300 	sll	v1,v1,0x2
8003f008:	21187200 	addu	v1,v1,s2
8003f00c:	3f016290 	lbu	v0,319(v1)
8003f010:	00000000 	nop
8003f014:	52004010 	beqz	v0,0x8003f160
8003f018:	10000524 	li	a1,16
8003f01c:	d8000624 	li	a2,216
8003f020:	801f073c 	lui	a3,0x1f80
8003f024:	0003e734 	ori	a3,a3,0x300
8003f028:	1e80043c 	lui	a0,0x801e
8003f02c:	500d8424 	addiu	a0,a0,3408
8003f030:	3a008294 	lhu	v0,58(a0)
8003f034:	000c8424 	addiu	a0,a0,3072
8003f038:	cb9c000c 	jal	0x8002732c
8003f03c:	21204400 	addu	a0,v0,a0
8003f040:	c0022396 	lhu	v1,704(s1)
8003f044:	00000000 	nop
8003f048:	001c0300 	sll	v1,v1,0x10
8003f04c:	031c0300 	sra	v1,v1,0x10
8003f050:	40100300 	sll	v0,v1,0x1
8003f054:	21104300 	addu	v0,v0,v1
8003f058:	80100200 	sll	v0,v0,0x2
8003f05c:	23104300 	subu	v0,v0,v1
8003f060:	80100200 	sll	v0,v0,0x2
8003f064:	21185200 	addu	v1,v0,s2
8003f068:	40016290 	lbu	v0,320(v1)
8003f06c:	00000000 	nop
8003f070:	0400422c 	sltiu	v0,v0,4
8003f074:	1d004010 	beqz	v0,0x8003f0ec
8003f078:	50000524 	li	a1,80
8003f07c:	d9000624 	li	a2,217
8003f080:	801f073c 	lui	a3,0x1f80
8003f084:	1803e734 	ori	a3,a3,0x318
8003f088:	40016490 	lbu	a0,320(v1)
8003f08c:	0003103c 	lui	s0,0x300
8003f090:	109d000c 	jal	0x80027440
8003f094:	25209000 	or	a0,a0,s0
8003f098:	0e000424 	li	a0,14
8003f09c:	78000524 	li	a1,120
8003f0a0:	d9000624 	li	a2,217
8003f0a4:	801f073c 	lui	a3,0x1f80
8003f0a8:	b39b000c 	jal	0x80026ecc
8003f0ac:	0803e734 	ori	a3,a3,0x308
8003f0b0:	88000524 	li	a1,136
8003f0b4:	d9000624 	li	a2,217
8003f0b8:	c0022396 	lhu	v1,704(s1)
8003f0bc:	801f073c 	lui	a3,0x1f80
8003f0c0:	001c0300 	sll	v1,v1,0x10
8003f0c4:	031c0300 	sra	v1,v1,0x10
8003f0c8:	40100300 	sll	v0,v1,0x1
8003f0cc:	21104300 	addu	v0,v0,v1
8003f0d0:	80100200 	sll	v0,v0,0x2
8003f0d4:	23104300 	subu	v0,v0,v1
8003f0d8:	80100200 	sll	v0,v0,0x2
8003f0dc:	21105200 	addu	v0,v0,s2
8003f0e0:	3f014490 	lbu	a0,319(v0)
8003f0e4:	56be0008 	j	0x8002f958
8003f0e8:	1803e734 	ori	a3,a3,0x318
8003f0ec:	d9000624 	li	a2,217
8003f0f0:	801f073c 	lui	a3,0x1f80
8003f0f4:	1003e734 	ori	a3,a3,0x310
8003f0f8:	40016490 	lbu	a0,320(v1)
8003f0fc:	0003103c 	lui	s0,0x300
8003f100:	109d000c 	jal	0x80027440
8003f104:	25209000 	or	a0,a0,s0
8003f108:	0e000424 	li	a0,14
8003f10c:	78000524 	li	a1,120
8003f110:	d9000624 	li	a2,217
8003f114:	801f073c 	lui	a3,0x1f80
8003f118:	b39b000c 	jal	0x80026ecc
8003f11c:	0003e734 	ori	a3,a3,0x300
8003f120:	88000524 	li	a1,136
8003f124:	d9000624 	li	a2,217
8003f128:	c0022396 	lhu	v1,704(s1)
8003f12c:	801f073c 	lui	a3,0x1f80
8003f130:	001c0300 	sll	v1,v1,0x10
8003f134:	031c0300 	sra	v1,v1,0x10
8003f138:	40100300 	sll	v0,v1,0x1
8003f13c:	21104300 	addu	v0,v0,v1
8003f140:	80100200 	sll	v0,v0,0x2
8003f144:	23104300 	subu	v0,v0,v1
8003f148:	80100200 	sll	v0,v0,0x2
8003f14c:	21105200 	addu	v0,v0,s2
8003f150:	3f014490 	lbu	a0,319(v0)
8003f154:	1003e734 	ori	a3,a3,0x310
8003f158:	109d000c 	jal	0x80027440
8003f15c:	25209000 	or	a0,a0,s0
8003f160:	4400bf8f 	lw	ra,68(sp)
8003f164:	4000b28f 	lw	s2,64(sp)
8003f168:	3c00b18f 	lw	s1,60(sp)
8003f16c:	3800b08f 	lw	s0,56(sp)
8003f170:	4800bd27 	addiu	sp,sp,72
8003f174:	0800e003 	jr	ra
8003f178:	00000000 	nop
8003f17c:	b8ffbd27 	addiu	sp,sp,-72
8003f180:	0880023c 	lui	v0,0x8008
8003f184:	4400bfaf 	sw	ra,68(sp)
8003f188:	4000b4af 	sw	s4,64(sp)
8003f18c:	3c00b3af 	sw	s3,60(sp)
8003f190:	3800b2af 	sw	s2,56(sp)
8003f194:	3400b1af 	sw	s1,52(sp)
8003f198:	3000b0af 	sw	s0,48(sp)
8003f19c:	807f4624 	addiu	a2,v0,32640
8003f1a0:	0300c388 	lwl	v1,3(a2)
8003f1a4:	0000c398 	lwr	v1,0(a2)
8003f1a8:	00000000 	nop
8003f1ac:	1b00a3ab 	swl	v1,27(sp)
8003f1b0:	1800a3bb 	swr	v1,24(sp)
8003f1b4:	0e000524 	li	a1,14
8003f1b8:	88000624 	li	a2,136
8003f1bc:	801f073c 	lui	a3,0x1f80
8003f1c0:	0003e734 	ori	a3,a3,0x300
8003f1c4:	14000224 	li	v0,20
8003f1c8:	2000a2a7 	sh	v0,32(sp)
8003f1cc:	98000224 	li	v0,152
8003f1d0:	801f133c 	lui	s3,0x1f80
8003f1d4:	2200a2a7 	sh	v0,34(sp)
8003f1d8:	03036392 	lbu	v1,771(s3)
8003f1dc:	be026296 	lhu	v0,702(s3)
8003f1e0:	80006334 	ori	v1,v1,0x80
8003f1e4:	00140200 	sll	v0,v0,0x10
8003f1e8:	030363a2 	sb	v1,771(s3)
8003f1ec:	cc02638e 	lw	v1,716(s3)
8003f1f0:	c3130200 	sra	v0,v0,0xf
8003f1f4:	21104300 	addu	v0,v0,v1
8003f1f8:	00044494 	lhu	a0,1024(v0)
8003f1fc:	21a00000 	move	s4,zero
8003f200:	000c8424 	addiu	a0,a0,3072
8003f204:	cb9c000c 	jal	0x8002732c
8003f208:	21206400 	addu	a0,v1,a0
8003f20c:	0f00033c 	lui	v1,0xf
8003f210:	04006334 	ori	v1,v1,0x4
8003f214:	2000a427 	addiu	a0,sp,32
8003f218:	21286002 	move	a1,s3
8003f21c:	2130a000 	move	a2,a1
8003f220:	0400c634 	ori	a2,a2,0x4
8003f224:	2138a000 	move	a3,a1
8003f228:	03036292 	lbu	v0,771(s3)
8003f22c:	0003e734 	ori	a3,a3,0x300
8003f230:	1000a3af 	sw	v1,16(sp)
8003f234:	7f004230 	andi	v0,v0,0x7f
8003f238:	7ebc000c 	jal	0x8002f1f8
8003f23c:	030362a2 	sb	v0,771(s3)
8003f240:	5555023c 	lui	v0,0x5555
8003f244:	be026896 	lhu	t0,702(s3)
8003f248:	56554234 	ori	v0,v0,0x5556
8003f24c:	00440800 	sll	t0,t0,0x10
8003f250:	034c0800 	sra	t1,t0,0x10
8003f254:	18002201 	mult	t1,v0
8003f258:	21206002 	move	a0,s3
8003f25c:	30038434 	ori	a0,a0,0x330
8003f260:	1800b027 	addiu	s0,sp,24
8003f264:	21280002 	move	a1,s0
8003f268:	01020624 	li	a2,513
8003f26c:	21388002 	move	a3,s4
8003f270:	30001224 	li	s2,48
8003f274:	18001124 	li	s1,24
8003f278:	340372a6 	sh	s2,820(s3)
8003f27c:	360371a6 	sh	s1,822(s3)
8003f280:	c3470800 	sra	t0,t0,0x1f
8003f284:	10500000 	mfhi	t2
8003f288:	23404801 	subu	t0,t2,t0
8003f28c:	001c0800 	sll	v1,t0,0x10
8003f290:	031c0300 	sra	v1,v1,0x10
8003f294:	40100300 	sll	v0,v1,0x1
8003f298:	21104300 	addu	v0,v0,v1
8003f29c:	00110200 	sll	v0,v0,0x4
8003f2a0:	21104300 	addu	v0,v0,v1
8003f2a4:	0b004224 	addiu	v0,v0,11
8003f2a8:	300362a6 	sh	v0,816(s3)
8003f2ac:	40100800 	sll	v0,t0,0x1
8003f2b0:	21104800 	addu	v0,v0,t0
8003f2b4:	23482201 	subu	t1,t1,v0
8003f2b8:	004c0900 	sll	t1,t1,0x10
8003f2bc:	034c0900 	sra	t1,t1,0x10
8003f2c0:	40100900 	sll	v0,t1,0x1
8003f2c4:	21104900 	addu	v0,v0,t1
8003f2c8:	c0100200 	sll	v0,v0,0x3
8003f2cc:	21104900 	addu	v0,v0,t1
8003f2d0:	0c004224 	addiu	v0,v0,12
8003f2d4:	469f000c 	jal	0x80027d18
8003f2d8:	320362a6 	sh	v0,818(s3)
8003f2dc:	21206002 	move	a0,s3
8003f2e0:	30038434 	ori	a0,a0,0x330
8003f2e4:	21280002 	move	a1,s0
8003f2e8:	01000624 	li	a2,1
8003f2ec:	30036296 	lhu	v0,816(s3)
8003f2f0:	32036396 	lhu	v1,818(s3)
8003f2f4:	02004224 	addiu	v0,v0,2
8003f2f8:	300362a6 	sh	v0,816(s3)
8003f2fc:	34036296 	lhu	v0,820(s3)
8003f300:	01006324 	addiu	v1,v1,1
8003f304:	320363a6 	sh	v1,818(s3)
8003f308:	36036396 	lhu	v1,822(s3)
8003f30c:	fcff4224 	addiu	v0,v0,-4
8003f310:	feff6324 	addiu	v1,v1,-2
8003f314:	340362a6 	sh	v0,820(s3)
8003f318:	88a0000c 	jal	0x80028220
8003f31c:	360363a6 	sh	v1,822(s3)
8003f320:	01000424 	li	a0,1
8003f324:	21288002 	move	a1,s4
8003f328:	aaa1000c 	jal	0x800286a8
8003f32c:	2130a000 	move	a2,a1
8003f330:	0c000224 	li	v0,12
8003f334:	540372a6 	sh	s2,852(s3)
8003f338:	560371a6 	sh	s1,854(s3)
8003f33c:	520362a6 	sh	v0,850(s3)
8003f340:	5a0360a6 	sh	zero,858(s3)
8003f344:	0880023c 	lui	v0,0x8008
8003f348:	807f4624 	addiu	a2,v0,32640
8003f34c:	0300c388 	lwl	v1,3(a2)
8003f350:	0000c398 	lwr	v1,0(a2)
8003f354:	00000000 	nop
8003f358:	2b00a3ab 	swl	v1,43(sp)
8003f35c:	2800a3bb 	swr	v1,40(sp)
8003f360:	21880000 	move	s1,zero
8003f364:	21808002 	move	s0,s4
8003f368:	0b000224 	li	v0,11
8003f36c:	500362a6 	sh	v0,848(s3)
8003f370:	80020224 	li	v0,640
8003f374:	580362a6 	sh	v0,856(s3)
8003f378:	d402628e 	lw	v0,724(s3)
8003f37c:	01000324 	li	v1,1
8003f380:	0000428c 	lw	v0,0(v0)
8003f384:	04180302 	sllv	v1,v1,s0
8003f388:	24104300 	and	v0,v0,v1
8003f38c:	09004014 	bnez	v0,0x8003f3b4
8003f390:	50036426 	addiu	a0,s3,848
8003f394:	2800a527 	addiu	a1,sp,40
8003f398:	88a0000c 	jal	0x80028220
8003f39c:	01000624 	li	a2,1
8003f3a0:	02000424 	li	a0,2
8003f3a4:	21280000 	move	a1,zero
8003f3a8:	aaa1000c 	jal	0x800286a8
8003f3ac:	2130a000 	move	a2,a1
8003f3b0:	50036426 	addiu	a0,s3,848
8003f3b4:	58036526 	addiu	a1,s3,856
8003f3b8:	21300000 	move	a2,zero
8003f3bc:	2138c000 	move	a3,a2
8003f3c0:	10000224 	li	v0,16
8003f3c4:	d9a0000c 	jal	0x80028364
8003f3c8:	1000a2af 	sw	v0,16(sp)
8003f3cc:	03001026 	addiu	s0,s0,3
8003f3d0:	01003126 	addiu	s1,s1,1
8003f3d4:	50036296 	lhu	v0,848(s3)
8003f3d8:	58036396 	lhu	v1,856(s3)
8003f3dc:	31004224 	addiu	v0,v0,49
8003f3e0:	30006324 	addiu	v1,v1,48
8003f3e4:	500362a6 	sh	v0,848(s3)
8003f3e8:	0600222a 	slti	v0,s1,6
8003f3ec:	e2ff4014 	bnez	v0,0x8003f378
8003f3f0:	580363a6 	sh	v1,856(s3)
8003f3f4:	01009426 	addiu	s4,s4,1
8003f3f8:	52036296 	lhu	v0,850(s3)
8003f3fc:	5a036396 	lhu	v1,858(s3)
8003f400:	19004224 	addiu	v0,v0,25
8003f404:	18006324 	addiu	v1,v1,24
8003f408:	520362a6 	sh	v0,850(s3)
8003f40c:	0200822a 	slti	v0,s4,2
8003f410:	ccff4014 	bnez	v0,0x8003f344
8003f414:	5a0363a6 	sh	v1,858(s3)
8003f418:	01000424 	li	a0,1
8003f41c:	21280000 	move	a1,zero
8003f420:	aaa1000c 	jal	0x800286a8
8003f424:	2130a000 	move	a2,a1
8003f428:	4400bf8f 	lw	ra,68(sp)
8003f42c:	4000b48f 	lw	s4,64(sp)
8003f430:	3c00b38f 	lw	s3,60(sp)
8003f434:	3800b28f 	lw	s2,56(sp)
8003f438:	3400b18f 	lw	s1,52(sp)
8003f43c:	3000b08f 	lw	s0,48(sp)
8003f440:	4800bd27 	addiu	sp,sp,72
8003f444:	0800e003 	jr	ra
8003f448:	00000000 	nop
8003f44c:	c8ffbd27 	addiu	sp,sp,-56
8003f450:	0880023c 	lui	v0,0x8008
8003f454:	3400bfaf 	sw	ra,52(sp)
8003f458:	3000b0af 	sw	s0,48(sp)
8003f45c:	887f4624 	addiu	a2,v0,32648
8003f460:	0300c388 	lwl	v1,3(a2)
8003f464:	0000c398 	lwr	v1,0(a2)
8003f468:	0700c488 	lwl	a0,7(a2)
8003f46c:	0400c498 	lwr	a0,4(a2)
8003f470:	2300a3ab 	swl	v1,35(sp)
8003f474:	2000a3bb 	swr	v1,32(sp)
8003f478:	2700a4ab 	swl	a0,39(sp)
8003f47c:	2400a4bb 	swr	a0,36(sp)
8003f480:	0880023c 	lui	v0,0x8008
8003f484:	907f4624 	addiu	a2,v0,32656
8003f488:	0300c388 	lwl	v1,3(a2)
8003f48c:	0000c398 	lwr	v1,0(a2)
8003f490:	0700c488 	lwl	a0,7(a2)
8003f494:	0400c498 	lwr	a0,4(a2)
8003f498:	2b00a3ab 	swl	v1,43(sp)
8003f49c:	2800a3bb 	swr	v1,40(sp)
8003f4a0:	2f00a4ab 	swl	a0,47(sp)
8003f4a4:	2c00a4bb 	swr	a0,44(sp)
8003f4a8:	315d000c 	jal	0x800174c4
8003f4ac:	801f103c 	lui	s0,0x1f80
8003f4b0:	1d80023c 	lui	v0,0x801d
8003f4b4:	84d14394 	lhu	v1,-11900(v0)
8003f4b8:	00000000 	nop
8003f4bc:	00086230 	andi	v0,v1,0x800
8003f4c0:	05004010 	beqz	v0,0x8003f4d8
8003f4c4:	01000224 	li	v0,1
8003f4c8:	0980013c 	lui	at,0x8009
8003f4cc:	aa8122a4 	sh	v0,-32342(at)
8003f4d0:	3bbf0008 	j	0x8002fcec
8003f4d4:	1d80023c 	lui	v0,0x801d
8003f4d8:	00046230 	andi	v0,v1,0x400
8003f4dc:	03004010 	beqz	v0,0x8003f4ec
8003f4e0:	1d80023c 	lui	v0,0x801d
8003f4e4:	0980013c 	lui	at,0x8009
8003f4e8:	aa8120a4 	sh	zero,-32342(at)
8003f4ec:	84d140a4 	sh	zero,-11900(v0)
8003f4f0:	50000224 	li	v0,80
8003f4f4:	100302a2 	sb	v0,784(s0)
8003f4f8:	000302a2 	sb	v0,768(s0)
8003f4fc:	110302a2 	sb	v0,785(s0)
8003f500:	010302a2 	sb	v0,769(s0)
8003f504:	120302a2 	sb	v0,786(s0)
8003f508:	020302a2 	sb	v0,770(s0)
8003f50c:	49000224 	li	v0,73
8003f510:	030302a2 	sb	v0,771(s0)
8003f514:	e4020292 	lbu	v0,740(s0)
8003f518:	31000324 	li	v1,49
8003f51c:	1000422c 	sltiu	v0,v0,16
8003f520:	05004010 	beqz	v0,0x8003f538
8003f524:	130303a2 	sb	v1,787(s0)
8003f528:	e4020392 	lbu	v1,740(s0)
8003f52c:	08000224 	li	v0,8
8003f530:	51bf0008 	j	0x8002fd44
8003f534:	23104300 	subu	v0,v0,v1
8003f538:	e4020292 	lbu	v0,740(s0)
8003f53c:	00000000 	nop
8003f540:	e8ff4224 	addiu	v0,v0,-24
8003f544:	600302a6 	sh	v0,864(s0)
8003f548:	60030292 	lbu	v0,864(s0)
8003f54c:	60030392 	lbu	v1,864(s0)
8003f550:	2e0300a2 	sb	zero,814(s0)
8003f554:	80100200 	sll	v0,v0,0x2
8003f558:	60004224 	addiu	v0,v0,96
8003f55c:	40180300 	sll	v1,v1,0x1
8003f560:	2c0302a2 	sb	v0,812(s0)
8003f564:	0980023c 	lui	v0,0x8009
8003f568:	92814294 	lhu	v0,-32366(v0)
8003f56c:	30006324 	addiu	v1,v1,48
8003f570:	0e004010 	beqz	v0,0x8003f5ac
8003f574:	2d0303a2 	sb	v1,813(s0)
8003f578:	0980023c 	lui	v0,0x8009
8003f57c:	aa814294 	lhu	v0,-32342(v0)
8003f580:	00000000 	nop
8003f584:	05004014 	bnez	v0,0x8003f59c
8003f588:	2000a427 	addiu	a0,sp,32
8003f58c:	2800a427 	addiu	a0,sp,40
8003f590:	2c030536 	ori	a1,s0,0x32c
8003f594:	69bf0008 	j	0x8002fda4
8003f598:	21300000 	move	a2,zero
8003f59c:	2c030536 	ori	a1,s0,0x32c
8003f5a0:	00080624 	li	a2,2048
8003f5a4:	5ba4000c 	jal	0x8002916c
8003f5a8:	00000000 	nop
8003f5ac:	dc020396 	lhu	v1,732(s0)
8003f5b0:	02000224 	li	v0,2
8003f5b4:	0d006214 	bne	v1,v0,0x8003f5ec
8003f5b8:	0a000224 	li	v0,10
8003f5bc:	c7020392 	lbu	v1,711(s0)
8003f5c0:	00000000 	nop
8003f5c4:	05006210 	beq	v1,v0,0x8003f5dc
8003f5c8:	00000000 	nop
8003f5cc:	26bd000c 	jal	0x8002f498
8003f5d0:	00000000 	nop
8003f5d4:	7dbf0008 	j	0x8002fdf4
8003f5d8:	00000000 	nop
8003f5dc:	5fbe000c 	jal	0x8002f97c
8003f5e0:	00000000 	nop
8003f5e4:	7dbf0008 	j	0x8002fdf4
8003f5e8:	00000000 	nop
8003f5ec:	34b9000c 	jal	0x8002e4d0
8003f5f0:	00000000 	nop
8003f5f4:	0980023c 	lui	v0,0x8009
8003f5f8:	aa814294 	lhu	v0,-32342(v0)
8003f5fc:	00000000 	nop
8003f600:	05004014 	bnez	v0,0x8003f618
8003f604:	00000000 	nop
8003f608:	66bb000c 	jal	0x8002ed98
8003f60c:	00000000 	nop
8003f610:	88bf0008 	j	0x8002fe20
8003f614:	00000000 	nop
8003f618:	53ba000c 	jal	0x8002e94c
8003f61c:	00000000 	nop
8003f620:	24b9000c 	jal	0x8002e490
8003f624:	00000000 	nop
8003f628:	7ab2000c 	jal	0x8002c9e8
8003f62c:	00000000 	nop
8003f630:	a05d000c 	jal	0x80017680
8003f634:	00000000 	nop
8003f638:	3400bf8f 	lw	ra,52(sp)
8003f63c:	3000b08f 	lw	s0,48(sp)
8003f640:	3800bd27 	addiu	sp,sp,56
8003f644:	0800e003 	jr	ra
8003f648:	00000000 	nop
8003f64c:	b8ffbd27 	addiu	sp,sp,-72
8003f650:	0880023c 	lui	v0,0x8008
8003f654:	4400bfaf 	sw	ra,68(sp)
8003f658:	4000b6af 	sw	s6,64(sp)
8003f65c:	3c00b5af 	sw	s5,60(sp)
8003f660:	3800b4af 	sw	s4,56(sp)
8003f664:	3400b3af 	sw	s3,52(sp)
8003f668:	3000b2af 	sw	s2,48(sp)
8003f66c:	2c00b1af 	sw	s1,44(sp)
8003f670:	2800b0af 	sw	s0,40(sp)
8003f674:	987f4624 	addiu	a2,v0,32664
8003f678:	0300c388 	lwl	v1,3(a2)
8003f67c:	0000c398 	lwr	v1,0(a2)
8003f680:	0700c488 	lwl	a0,7(a2)
8003f684:	0400c498 	lwr	a0,4(a2)
8003f688:	1b00a3ab 	swl	v1,27(sp)
8003f68c:	1800a3bb 	swr	v1,24(sp)
8003f690:	1f00a4ab 	swl	a0,31(sp)
8003f694:	1c00a4bb 	swr	a0,28(sp)
8003f698:	0880023c 	lui	v0,0x8008
8003f69c:	a07f4624 	addiu	a2,v0,32672
8003f6a0:	0300c388 	lwl	v1,3(a2)
8003f6a4:	0000c398 	lwr	v1,0(a2)
8003f6a8:	0700c488 	lwl	a0,7(a2)
8003f6ac:	0400c498 	lwr	a0,4(a2)
8003f6b0:	2300a3ab 	swl	v1,35(sp)
8003f6b4:	2000a3bb 	swr	v1,32(sp)
8003f6b8:	2700a4ab 	swl	a0,39(sp)
8003f6bc:	2400a4bb 	swr	a0,36(sp)
8003f6c0:	6666033c 	lui	v1,0x6666
8003f6c4:	801f133c 	lui	s3,0x1f80
8003f6c8:	67666334 	ori	v1,v1,0x6667
8003f6cc:	e0026296 	lhu	v0,736(s3)
8003f6d0:	21206002 	move	a0,s3
8003f6d4:	00140200 	sll	v0,v0,0x10
8003f6d8:	03440200 	sra	t0,v0,0x10
8003f6dc:	18000301 	mult	t0,v1
8003f6e0:	30038434 	ori	a0,a0,0x330
8003f6e4:	21286002 	move	a1,s3
8003f6e8:	2c03a534 	ori	a1,a1,0x32c
8003f6ec:	01020624 	li	a2,513
8003f6f0:	01000724 	li	a3,1
8003f6f4:	60001624 	li	s6,96
8003f6f8:	30001224 	li	s2,48
8003f6fc:	0980013c 	lui	at,0x8009
8003f700:	aa8120a4 	sh	zero,-32342(at)
8003f704:	340376a6 	sh	s6,820(s3)
8003f708:	360372a6 	sh	s2,822(s3)
8003f70c:	c3170200 	sra	v0,v0,0x1f
8003f710:	10480000 	mfhi	t1
8003f714:	43180900 	sra	v1,t1,0x1
8003f718:	23186200 	subu	v1,v1,v0
8003f71c:	80100300 	sll	v0,v1,0x2
8003f720:	21104300 	addu	v0,v0,v1
8003f724:	23400201 	subu	t0,t0,v0
8003f728:	00440800 	sll	t0,t0,0x10
8003f72c:	03440800 	sra	t0,t0,0x10
8003f730:	c0100800 	sll	v0,t0,0x3
8003f734:	23104800 	subu	v0,v0,t0
8003f738:	00110200 	sll	v0,v0,0x4
8003f73c:	30004224 	addiu	v0,v0,48
8003f740:	001c0300 	sll	v1,v1,0x10
8003f744:	031c0300 	sra	v1,v1,0x10
8003f748:	300362a6 	sh	v0,816(s3)
8003f74c:	c0100300 	sll	v0,v1,0x3
8003f750:	23104300 	subu	v0,v0,v1
8003f754:	c0100200 	sll	v0,v0,0x3
8003f758:	20004224 	addiu	v0,v0,32
8003f75c:	469f000c 	jal	0x80027d18
8003f760:	320362a6 	sh	v0,818(s3)
8003f764:	01000424 	li	a0,1
8003f768:	21280000 	move	a1,zero
8003f76c:	aaa1000c 	jal	0x800286a8
8003f770:	2130a000 	move	a2,a1
8003f774:	1800b027 	addiu	s0,sp,24
8003f778:	e2026296 	lhu	v0,738(s3)
8003f77c:	00000000 	nop
8003f780:	00140200 	sll	v0,v0,0x10
8003f784:	06004018 	blez	v0,0x8003f7a0
8003f788:	2000b127 	addiu	s1,sp,32
8003f78c:	21200002 	move	a0,s0
8003f790:	21286002 	move	a1,s3
8003f794:	2c03a534 	ori	a1,a1,0x32c
8003f798:	5ba4000c 	jal	0x8002916c
8003f79c:	000c0624 	li	a2,3072
8003f7a0:	e2026396 	lhu	v1,738(s3)
8003f7a4:	0e006296 	lhu	v0,14(s3)
8003f7a8:	001c0300 	sll	v1,v1,0x10
8003f7ac:	031c0300 	sra	v1,v1,0x10
8003f7b0:	00140200 	sll	v0,v0,0x10
8003f7b4:	03140200 	sra	v0,v0,0x10
8003f7b8:	fdff4224 	addiu	v0,v0,-3
8003f7bc:	2a104300 	slt	v0,v0,v1
8003f7c0:	05004014 	bnez	v0,0x8003f7d8
8003f7c4:	801f053c 	lui	a1,0x1f80
8003f7c8:	21202002 	move	a0,s1
8003f7cc:	2c03a534 	ori	a1,a1,0x32c
8003f7d0:	5ba4000c 	jal	0x8002916c
8003f7d4:	00040624 	li	a2,1024
8003f7d8:	01000424 	li	a0,1
8003f7dc:	21280000 	move	a1,zero
8003f7e0:	aaa1000c 	jal	0x800286a8
8003f7e4:	2130a000 	move	a2,a1
8003f7e8:	e6010524 	li	a1,486
8003f7ec:	d6000624 	li	a2,214
8003f7f0:	801f073c 	lui	a3,0x1f80
8003f7f4:	1003e734 	ori	a3,a3,0x310
8003f7f8:	e2026396 	lhu	v1,738(s3)
8003f7fc:	e0026296 	lhu	v0,736(s3)
8003f800:	001c0300 	sll	v1,v1,0x10
8003f804:	031c0300 	sra	v1,v1,0x10
8003f808:	80200300 	sll	a0,v1,0x2
8003f80c:	21208300 	addu	a0,a0,v1
8003f810:	00140200 	sll	v0,v0,0x10
8003f814:	03140200 	sra	v0,v0,0x10
8003f818:	21808200 	addu	s0,a0,v0
8003f81c:	01000426 	addiu	a0,s0,1
8003f820:	ffff8430 	andi	a0,a0,0xffff
8003f824:	0003033c 	lui	v1,0x300
8003f828:	0800628e 	lw	v0,8(s3)
8003f82c:	00000000 	nop
8003f830:	21105000 	addu	v0,v0,s0
8003f834:	00005190 	lbu	s1,0(v0)
8003f838:	109d000c 	jal	0x80027440
8003f83c:	25208300 	or	a0,a0,v1
8003f840:	0e000424 	li	a0,14
8003f844:	13020524 	li	a1,531
8003f848:	d6000624 	li	a2,214
8003f84c:	801f073c 	lui	a3,0x1f80
8003f850:	b39b000c 	jal	0x80026ecc
8003f854:	0003e734 	ori	a3,a3,0x300
8003f858:	0003043c 	lui	a0,0x300
8003f85c:	96008434 	ori	a0,a0,0x96
8003f860:	27020524 	li	a1,551
8003f864:	d6000624 	li	a2,214
8003f868:	801f073c 	lui	a3,0x1f80
8003f86c:	109d000c 	jal	0x80027440
8003f870:	1003e734 	ori	a3,a3,0x310
8003f874:	0c006296 	lhu	v0,12(s3)
8003f878:	00000000 	nop
8003f87c:	00140200 	sll	v0,v0,0x10
8003f880:	03140200 	sra	v0,v0,0x10
8003f884:	2a100202 	slt	v0,s0,v0
8003f888:	12004010 	beqz	v0,0x8003f8d4
8003f88c:	28000524 	li	a1,40
8003f890:	d6000624 	li	a2,214
8003f894:	801f073c 	lui	a3,0x1f80
8003f898:	03036292 	lbu	v0,771(s3)
8003f89c:	0400638e 	lw	v1,4(s3)
8003f8a0:	80004234 	ori	v0,v0,0x80
8003f8a4:	030362a2 	sb	v0,771(s3)
8003f8a8:	40101100 	sll	v0,s1,0x1
8003f8ac:	21104300 	addu	v0,v0,v1
8003f8b0:	00004494 	lhu	a0,0(v0)
8003f8b4:	0003e734 	ori	a3,a3,0x300
8003f8b8:	000c8424 	addiu	a0,a0,3072
8003f8bc:	cb9c000c 	jal	0x8002732c
8003f8c0:	21206400 	addu	a0,v1,a0
8003f8c4:	03036292 	lbu	v0,771(s3)
8003f8c8:	00000000 	nop
8003f8cc:	7f004230 	andi	v0,v0,0x7f
8003f8d0:	030362a2 	sb	v0,771(s3)
8003f8d4:	20000424 	li	a0,32
8003f8d8:	d2000524 	li	a1,210
8003f8dc:	40020624 	li	a2,576
8003f8e0:	52a5000c 	jal	0x80029548
8003f8e4:	16000724 	li	a3,22
8003f8e8:	21a00000 	move	s4,zero
8003f8ec:	801f153c 	lui	s5,0x1f80
8003f8f0:	5003b536 	ori	s5,s5,0x350
8003f8f4:	e2026296 	lhu	v0,738(s3)
8003f8f8:	20000324 	li	v1,32
8003f8fc:	540376a6 	sh	s6,852(s3)
8003f900:	560372a6 	sh	s2,854(s3)
8003f904:	520363a6 	sh	v1,850(s3)
8003f908:	00140200 	sll	v0,v0,0x10
8003f90c:	03140200 	sra	v0,v0,0x10
8003f910:	80180200 	sll	v1,v0,0x2
8003f914:	21806200 	addu	s0,v1,v0
8003f918:	e2026296 	lhu	v0,738(s3)
8003f91c:	0e006396 	lhu	v1,14(s3)
8003f920:	00140200 	sll	v0,v0,0x10
8003f924:	03140200 	sra	v0,v0,0x10
8003f928:	21105400 	addu	v0,v0,s4
8003f92c:	001c0300 	sll	v1,v1,0x10
8003f930:	031c0300 	sra	v1,v1,0x10
8003f934:	05004314 	bne	v0,v1,0x8003f94c
8003f938:	05001224 	li	s2,5
8003f93c:	10006296 	lhu	v0,16(s3)
8003f940:	00000000 	nop
8003f944:	00140200 	sll	v0,v0,0x10
8003f948:	03940200 	sra	s2,v0,0x10
8003f94c:	30000224 	li	v0,48
8003f950:	500362a6 	sh	v0,848(s3)
8003f954:	2700401a 	blez	s2,0x8003f9f4
8003f958:	21880000 	move	s1,zero
8003f95c:	0c006296 	lhu	v0,12(s3)
8003f960:	00000000 	nop
8003f964:	00140200 	sll	v0,v0,0x10
8003f968:	03140200 	sra	v0,v0,0x10
8003f96c:	2a100202 	slt	v0,s0,v0
8003f970:	19004010 	beqz	v0,0x8003f9d8
8003f974:	2120a002 	move	a0,s5
8003f978:	00036526 	addiu	a1,s3,768
8003f97c:	01020624 	li	a2,513
8003f980:	469f000c 	jal	0x80027d18
8003f984:	01000724 	li	a3,1
8003f988:	8888023c 	lui	v0,0x8888
8003f98c:	89884234 	ori	v0,v0,0x8889
8003f990:	18000202 	mult	s0,v0
8003f994:	10000224 	li	v0,16
8003f998:	1000a2af 	sw	v0,16(sp)
8003f99c:	2120a002 	move	a0,s5
8003f9a0:	21300000 	move	a2,zero
8003f9a4:	2138c000 	move	a3,a2
8003f9a8:	c31f1000 	sra	v1,s0,0x1f
8003f9ac:	10480000 	mfhi	t1
8003f9b0:	21103001 	addu	v0,t1,s0
8003f9b4:	c3100200 	sra	v0,v0,0x3
8003f9b8:	23104300 	subu	v0,v0,v1
8003f9bc:	00290200 	sll	a1,v0,0x4
8003f9c0:	2328a200 	subu	a1,a1,v0
8003f9c4:	23280502 	subu	a1,s0,a1
8003f9c8:	80280500 	sll	a1,a1,0x2
8003f9cc:	1400a524 	addiu	a1,a1,20
8003f9d0:	d9a0000c 	jal	0x80028364
8003f9d4:	21286502 	addu	a1,s3,a1
8003f9d8:	50036296 	lhu	v0,848(s3)
8003f9dc:	01003126 	addiu	s1,s1,1
8003f9e0:	70004224 	addiu	v0,v0,112
8003f9e4:	500362a6 	sh	v0,848(s3)
8003f9e8:	2a103202 	slt	v0,s1,s2
8003f9ec:	dbff4014 	bnez	v0,0x8003f95c
8003f9f0:	01001026 	addiu	s0,s0,1
8003f9f4:	52036296 	lhu	v0,850(s3)
8003f9f8:	01009426 	addiu	s4,s4,1
8003f9fc:	38004224 	addiu	v0,v0,56
8003fa00:	520362a6 	sh	v0,850(s3)
8003fa04:	0300822a 	slti	v0,s4,3
8003fa08:	c3ff4014 	bnez	v0,0x8003f918
8003fa0c:	21200000 	move	a0,zero
8003fa10:	21288000 	move	a1,a0
8003fa14:	aaa1000c 	jal	0x800286a8
8003fa18:	21308000 	move	a2,a0
8003fa1c:	20000424 	li	a0,32
8003fa20:	18000524 	li	a1,24
8003fa24:	40020624 	li	a2,576
8003fa28:	52a5000c 	jal	0x80029548
8003fa2c:	b0000724 	li	a3,176
8003fa30:	4400bf8f 	lw	ra,68(sp)
8003fa34:	4000b68f 	lw	s6,64(sp)
8003fa38:	3c00b58f 	lw	s5,60(sp)
8003fa3c:	3800b48f 	lw	s4,56(sp)
8003fa40:	3400b38f 	lw	s3,52(sp)
8003fa44:	3000b28f 	lw	s2,48(sp)
8003fa48:	2c00b18f 	lw	s1,44(sp)
8003fa4c:	2800b08f 	lw	s0,40(sp)
8003fa50:	4800bd27 	addiu	sp,sp,72
8003fa54:	0800e003 	jr	ra
8003fa58:	00000000 	nop
8003fa5c:	78ffbd27 	addiu	sp,sp,-136
8003fa60:	8400bfaf 	sw	ra,132(sp)
8003fa64:	8000b6af 	sw	s6,128(sp)
8003fa68:	7c00b5af 	sw	s5,124(sp)
8003fa6c:	7800b4af 	sw	s4,120(sp)
8003fa70:	7400b3af 	sw	s3,116(sp)
8003fa74:	7000b2af 	sw	s2,112(sp)
8003fa78:	6c00b1af 	sw	s1,108(sp)
8003fa7c:	6800b0af 	sw	s0,104(sp)
8003fa80:	c0030224 	li	v0,960
8003fa84:	1800a2a7 	sh	v0,24(sp)
8003fa88:	be010224 	li	v0,446
8003fa8c:	1a00a2a7 	sh	v0,26(sp)
8003fa90:	30020224 	li	v0,560
8003fa94:	2000a2a7 	sh	v0,32(sp)
8003fa98:	f2010224 	li	v0,498
8003fa9c:	2200a2a7 	sh	v0,34(sp)
8003faa0:	22000224 	li	v0,34
8003faa4:	2800a2a7 	sh	v0,40(sp)
8003faa8:	9a000224 	li	v0,154
8003faac:	2a00a2a7 	sh	v0,42(sp)
8003fab0:	0880023c 	lui	v0,0x8008
8003fab4:	a87f4624 	addiu	a2,v0,32680
8003fab8:	0300c388 	lwl	v1,3(a2)
8003fabc:	0000c398 	lwr	v1,0(a2)
8003fac0:	0700c488 	lwl	a0,7(a2)
8003fac4:	0400c498 	lwr	a0,4(a2)
8003fac8:	3300a3ab 	swl	v1,51(sp)
8003facc:	3000a3bb 	swr	v1,48(sp)
8003fad0:	3700a4ab 	swl	a0,55(sp)
8003fad4:	3400a4bb 	swr	a0,52(sp)
8003fad8:	0880023c 	lui	v0,0x8008
8003fadc:	b07f4624 	addiu	a2,v0,32688
8003fae0:	0300c388 	lwl	v1,3(a2)
8003fae4:	0000c398 	lwr	v1,0(a2)
8003fae8:	0700c488 	lwl	a0,7(a2)
8003faec:	0400c498 	lwr	a0,4(a2)
8003faf0:	3b00a3ab 	swl	v1,59(sp)
8003faf4:	3800a3bb 	swr	v1,56(sp)
8003faf8:	3f00a4ab 	swl	a0,63(sp)
8003fafc:	3c00a4bb 	swr	a0,60(sp)
8003fb00:	4000a727 	addiu	a3,sp,64
8003fb04:	0180023c 	lui	v0,0x8001
8003fb08:	88134624 	addiu	a2,v0,5000
8003fb0c:	0300c230 	andi	v0,a2,0x3
8003fb10:	17004010 	beqz	v0,0x8003fb70
8003fb14:	801f153c 	lui	s5,0x1f80
8003fb18:	2000c824 	addiu	t0,a2,32
8003fb1c:	0300c288 	lwl	v0,3(a2)
8003fb20:	0000c298 	lwr	v0,0(a2)
8003fb24:	0700c388 	lwl	v1,7(a2)
8003fb28:	0400c398 	lwr	v1,4(a2)
8003fb2c:	0b00c488 	lwl	a0,11(a2)
8003fb30:	0800c498 	lwr	a0,8(a2)
8003fb34:	0f00c588 	lwl	a1,15(a2)
8003fb38:	0c00c598 	lwr	a1,12(a2)
8003fb3c:	0300e2a8 	swl	v0,3(a3)
8003fb40:	0000e2b8 	swr	v0,0(a3)
8003fb44:	0700e3a8 	swl	v1,7(a3)
8003fb48:	0400e3b8 	swr	v1,4(a3)
8003fb4c:	0b00e4a8 	swl	a0,11(a3)
8003fb50:	0800e4b8 	swr	a0,8(a3)
8003fb54:	0f00e5a8 	swl	a1,15(a3)
8003fb58:	0c00e5b8 	swr	a1,12(a3)
8003fb5c:	1000c624 	addiu	a2,a2,16
8003fb60:	eeffc814 	bne	a2,t0,0x8003fb1c
8003fb64:	1000e724 	addiu	a3,a3,16
8003fb68:	e8c00008 	j	0x800303a0
8003fb6c:	00000000 	nop
8003fb70:	2000c824 	addiu	t0,a2,32
8003fb74:	0000c28c 	lw	v0,0(a2)
8003fb78:	0400c38c 	lw	v1,4(a2)
8003fb7c:	0800c48c 	lw	a0,8(a2)
8003fb80:	0c00c58c 	lw	a1,12(a2)
8003fb84:	0000e2ac 	sw	v0,0(a3)
8003fb88:	0400e3ac 	sw	v1,4(a3)
8003fb8c:	0800e4ac 	sw	a0,8(a3)
8003fb90:	0c00e5ac 	sw	a1,12(a3)
8003fb94:	1000c624 	addiu	a2,a2,16
8003fb98:	f6ffc814 	bne	a2,t0,0x8003fb74
8003fb9c:	1000e724 	addiu	a3,a3,16
8003fba0:	0000c284 	lh	v0,0(a2)
8003fba4:	00000000 	nop
8003fba8:	0000e2a4 	sh	v0,0(a3)
8003fbac:	e202a396 	lhu	v1,738(s5)
8003fbb0:	e002a496 	lhu	a0,736(s5)
8003fbb4:	001c0300 	sll	v1,v1,0x10
8003fbb8:	031c0300 	sra	v1,v1,0x10
8003fbbc:	00240400 	sll	a0,a0,0x10
8003fbc0:	03240400 	sra	a0,a0,0x10
8003fbc4:	80100300 	sll	v0,v1,0x2
8003fbc8:	21104300 	addu	v0,v0,v1
8003fbcc:	0800a38e 	lw	v1,8(s5)
8003fbd0:	21104400 	addu	v0,v0,a0
8003fbd4:	21186200 	addu	v1,v1,v0
8003fbd8:	00007090 	lbu	s0,0(v1)
8003fbdc:	1d80033c 	lui	v1,0x801d
8003fbe0:	80d16524 	addiu	a1,v1,-11904
8003fbe4:	0000a38e 	lw	v1,0(s5)
8003fbe8:	0400a494 	lhu	a0,4(a1)
8003fbec:	40101000 	sll	v0,s0,0x1
8003fbf0:	21105000 	addu	v0,v0,s0
8003fbf4:	80100200 	sll	v0,v0,0x2
8003fbf8:	23105000 	subu	v0,v0,s0
8003fbfc:	80100200 	sll	v0,v0,0x2
8003fc00:	21a06200 	addu	s4,v1,v0
8003fc04:	00088230 	andi	v0,a0,0x800
8003fc08:	03004010 	beqz	v0,0x8003fc18
8003fc0c:	01000224 	li	v0,1
8003fc10:	0980013c 	lui	at,0x8009
8003fc14:	aa8122a4 	sh	v0,-32342(at)
8003fc18:	00048230 	andi	v0,a0,0x400
8003fc1c:	03004010 	beqz	v0,0x8003fc2c
8003fc20:	00000000 	nop
8003fc24:	0980013c 	lui	at,0x8009
8003fc28:	aa8120a4 	sh	zero,-32342(at)
8003fc2c:	0980023c 	lui	v0,0x8009
8003fc30:	aa814294 	lhu	v0,-32342(v0)
8003fc34:	00000000 	nop
8003fc38:	05004014 	bnez	v0,0x8003fc50
8003fc3c:	0400a0a4 	sh	zero,4(a1)
8003fc40:	3800a427 	addiu	a0,sp,56
8003fc44:	2c03a536 	ori	a1,s5,0x32c
8003fc48:	17c10008 	j	0x8003045c
8003fc4c:	21300000 	move	a2,zero
8003fc50:	3000a427 	addiu	a0,sp,48
8003fc54:	2c03a536 	ori	a1,s5,0x32c
8003fc58:	00080624 	li	a2,2048
8003fc5c:	5ba4000c 	jal	0x8002916c
8003fc60:	00000000 	nop
8003fc64:	01000424 	li	a0,1
8003fc68:	21280000 	move	a1,zero
8003fc6c:	aaa1000c 	jal	0x800286a8
8003fc70:	2130a000 	move	a2,a1
8003fc74:	20000524 	li	a1,32
8003fc78:	10000624 	li	a2,16
8003fc7c:	0303a292 	lbu	v0,771(s5)
8003fc80:	0400a38e 	lw	v1,4(s5)
8003fc84:	80004234 	ori	v0,v0,0x80
8003fc88:	0303a2a2 	sb	v0,771(s5)
8003fc8c:	40101000 	sll	v0,s0,0x1
8003fc90:	21104300 	addu	v0,v0,v1
8003fc94:	0003b026 	addiu	s0,s5,768
8003fc98:	00004494 	lhu	a0,0(v0)
8003fc9c:	21380002 	move	a3,s0
8003fca0:	000c8424 	addiu	a0,a0,3072
8003fca4:	cb9c000c 	jal	0x8002732c
8003fca8:	21206400 	addu	a0,v1,a0
8003fcac:	0f00033c 	lui	v1,0xf
8003fcb0:	05006334 	ori	v1,v1,0x5
8003fcb4:	2800a427 	addiu	a0,sp,40
8003fcb8:	1800a527 	addiu	a1,sp,24
8003fcbc:	2000a627 	addiu	a2,sp,32
8003fcc0:	0303a292 	lbu	v0,771(s5)
8003fcc4:	21380002 	move	a3,s0
8003fcc8:	1000a3af 	sw	v1,16(sp)
8003fccc:	7f004230 	andi	v0,v0,0x7f
8003fcd0:	7ebc000c 	jal	0x8002f1f8
8003fcd4:	0303a2a2 	sb	v0,771(s5)
8003fcd8:	0980023c 	lui	v0,0x8009
8003fcdc:	aa814294 	lhu	v0,-32342(v0)
8003fce0:	00000000 	nop
8003fce4:	20004010 	beqz	v0,0x8003fd68
8003fce8:	21880000 	move	s1,zero
8003fcec:	1e80023c 	lui	v0,0x801e
8003fcf0:	500d4224 	addiu	v0,v0,3408
8003fcf4:	000c5624 	addiu	s6,v0,3072
8003fcf8:	10001324 	li	s3,16
8003fcfc:	21904000 	move	s2,v0
8003fd00:	50010524 	li	a1,336
8003fd04:	ffff7032 	andi	s0,s3,0xffff
8003fd08:	21300002 	move	a2,s0
8003fd0c:	0003a726 	addiu	a3,s5,768
8003fd10:	0f007326 	addiu	s3,s3,15
8003fd14:	c8004496 	lhu	a0,200(s2)
8003fd18:	02005226 	addiu	s2,s2,2
8003fd1c:	cb9c000c 	jal	0x8002732c
8003fd20:	21209600 	addu	a0,a0,s6
8003fd24:	46020524 	li	a1,582
8003fd28:	21300002 	move	a2,s0
8003fd2c:	1003a726 	addiu	a3,s5,784
8003fd30:	21109102 	addu	v0,s4,s1
8003fd34:	01003126 	addiu	s1,s1,1
8003fd38:	1c004490 	lbu	a0,28(v0)
8003fd3c:	0002023c 	lui	v0,0x200
8003fd40:	00260400 	sll	a0,a0,0x18
8003fd44:	03260400 	sra	a0,a0,0x18
8003fd48:	ffff8430 	andi	a0,a0,0xffff
8003fd4c:	109d000c 	jal	0x80027440
8003fd50:	25208200 	or	a0,a0,v0
8003fd54:	0e00222a 	slti	v0,s1,14
8003fd58:	eaff4014 	bnez	v0,0x8003fd04
8003fd5c:	50010524 	li	a1,336
8003fd60:	81c20008 	j	0x80030a04
8003fd64:	5003b026 	addiu	s0,s5,848
8003fd68:	1e80023c 	lui	v0,0x801e
8003fd6c:	500d4224 	addiu	v0,v0,3408
8003fd70:	000c5324 	addiu	s3,v0,3072
8003fd74:	10001224 	li	s2,16
8003fd78:	21804000 	move	s0,v0
8003fd7c:	50010524 	li	a1,336
8003fd80:	ffff4632 	andi	a2,s2,0xffff
8003fd84:	0003a726 	addiu	a3,s5,768
8003fd88:	0f005226 	addiu	s2,s2,15
8003fd8c:	ea000496 	lhu	a0,234(s0)
8003fd90:	02001026 	addiu	s0,s0,2
8003fd94:	01003126 	addiu	s1,s1,1
8003fd98:	cb9c000c 	jal	0x8002732c
8003fd9c:	21209300 	addu	a0,a0,s3
8003fda0:	0a00222a 	slti	v0,s1,10
8003fda4:	f6ff4014 	bnez	v0,0x8003fd80
8003fda8:	50010524 	li	a1,336
8003fdac:	00008292 	lbu	v0,0(s4)
8003fdb0:	00000000 	nop
8003fdb4:	1100422c 	sltiu	v0,v0,17
8003fdb8:	10004010 	beqz	v0,0x8003fdfc
8003fdbc:	10000624 	li	a2,16
8003fdc0:	0003a736 	ori	a3,s5,0x300
8003fdc4:	1e80043c 	lui	a0,0x801e
8003fdc8:	00008392 	lbu	v1,0(s4)
8003fdcc:	500d8424 	addiu	a0,a0,3408
8003fdd0:	40180300 	sll	v1,v1,0x1
8003fdd4:	21106400 	addu	v0,v1,a0
8003fdd8:	2c014294 	lhu	v0,300(v0)
8003fddc:	000c8424 	addiu	a0,a0,3072
8003fde0:	21204400 	addu	a0,v0,a0
8003fde4:	2110a303 	addu	v0,sp,v1
8003fde8:	40004294 	lhu	v0,64(v0)
8003fdec:	5e020524 	li	a1,606
8003fdf0:	2328a200 	subu	a1,a1,v0
8003fdf4:	cb9c000c 	jal	0x8002732c
8003fdf8:	ffffa530 	andi	a1,a1,0xffff
8003fdfc:	2e020524 	li	a1,558
8003fe00:	1f000624 	li	a2,31
8003fe04:	1003b226 	addiu	s2,s5,784
8003fe08:	21384002 	move	a3,s2
8003fe0c:	02008496 	lhu	a0,2(s4)
8003fe10:	0004113c 	lui	s1,0x400
8003fe14:	109d000c 	jal	0x80027440
8003fe18:	25209100 	or	a0,a0,s1
8003fe1c:	46020524 	li	a1,582
8003fe20:	2e000624 	li	a2,46
8003fe24:	21384002 	move	a3,s2
8003fe28:	01008492 	lbu	a0,1(s4)
8003fe2c:	0002103c 	lui	s0,0x200
8003fe30:	109d000c 	jal	0x80027440
8003fe34:	25209000 	or	a0,a0,s0
8003fe38:	002b043c 	lui	a0,0x2b00
8003fe3c:	04008386 	lh	v1,4(s4)
8003fe40:	03ac8434 	ori	a0,a0,0xac03
8003fe44:	80100300 	sll	v0,v1,0x2
8003fe48:	21104300 	addu	v0,v0,v1
8003fe4c:	40100200 	sll	v0,v0,0x1
8003fe50:	18004400 	mult	v0,a0
8003fe54:	0a020524 	li	a1,522
8003fe58:	3d000624 	li	a2,61
8003fe5c:	21384002 	move	a3,s2
8003fe60:	c3170200 	sra	v0,v0,0x1f
8003fe64:	10180000 	mfhi	v1
8003fe68:	431a0300 	sra	v1,v1,0x9
8003fe6c:	23186200 	subu	v1,v1,v0
8003fe70:	0980013c 	lui	at,0x8009
8003fe74:	9e8123a4 	sh	v1,-32354(at)
8003fe78:	0980043c 	lui	a0,0x8009
8003fe7c:	9e818494 	lhu	a0,-32354(a0)
8003fe80:	0003133c 	lui	s3,0x300
8003fe84:	109d000c 	jal	0x80027440
8003fe88:	25209300 	or	a0,a0,s3
8003fe8c:	37000424 	li	a0,55
8003fe90:	2f020524 	li	a1,559
8003fe94:	3d000624 	li	a2,61
8003fe98:	b39b000c 	jal	0x80026ecc
8003fe9c:	21384002 	move	a3,s2
8003fea0:	04008286 	lh	v0,4(s4)
8003fea4:	00000000 	nop
8003fea8:	80200200 	sll	a0,v0,0x2
8003feac:	21208200 	addu	a0,a0,v0
8003feb0:	0980023c 	lui	v0,0x8009
8003feb4:	9e814294 	lhu	v0,-32354(v0)
8003feb8:	40200400 	sll	a0,a0,0x1
8003febc:	40180200 	sll	v1,v0,0x1
8003fec0:	21186200 	addu	v1,v1,v0
8003fec4:	c0110300 	sll	v0,v1,0x7
8003fec8:	23104300 	subu	v0,v0,v1
8003fecc:	c0100200 	sll	v0,v0,0x3
8003fed0:	23208200 	subu	a0,a0,v0
8003fed4:	ffff8430 	andi	a0,a0,0xffff
8003fed8:	42200400 	srl	a0,a0,0x1
8003fedc:	0281023c 	lui	v0,0x8102
8003fee0:	09044234 	ori	v0,v0,0x409
8003fee4:	19008200 	multu	a0,v0
8003fee8:	3a020524 	li	a1,570
8003feec:	3d000624 	li	a2,61
8003fef0:	21384002 	move	a3,s2
8003fef4:	10100000 	mfhi	v0
8003fef8:	82210200 	srl	a0,v0,0x6
8003fefc:	ffff8430 	andi	a0,a0,0xffff
8003ff00:	109d000c 	jal	0x80027440
8003ff04:	25209000 	or	a0,a0,s0
8003ff08:	36000424 	li	a0,54
8003ff0c:	53020524 	li	a1,595
8003ff10:	3d000624 	li	a2,61
8003ff14:	b39b000c 	jal	0x80026ecc
8003ff18:	21384002 	move	a3,s2
8003ff1c:	1624053c 	lui	a1,0x2416
8003ff20:	06008286 	lh	v0,6(s4)
8003ff24:	198ea534 	ori	a1,a1,0x8e19
8003ff28:	40200200 	sll	a0,v0,0x1
8003ff2c:	21208200 	addu	a0,a0,v0
8003ff30:	c0200400 	sll	a0,a0,0x3
8003ff34:	21208200 	addu	a0,a0,v0
8003ff38:	80200400 	sll	a0,a0,0x2
8003ff3c:	18008500 	mult	a0,a1
8003ff40:	40190200 	sll	v1,v0,0x5
8003ff44:	23186200 	subu	v1,v1,v0
8003ff48:	80180300 	sll	v1,v1,0x2
8003ff4c:	10400000 	mfhi	t0
8003ff50:	21186200 	addu	v1,v1,v0
8003ff54:	c0180300 	sll	v1,v1,0x3
8003ff58:	18006500 	mult	v1,a1
8003ff5c:	4c000624 	li	a2,76
8003ff60:	21384002 	move	a3,s2
8003ff64:	c3270400 	sra	a0,a0,0x1f
8003ff68:	0a020524 	li	a1,522
8003ff6c:	83110800 	sra	v0,t0,0x6
8003ff70:	23104400 	subu	v0,v0,a0
8003ff74:	0980013c 	lui	at,0x8009
8003ff78:	9e8122a4 	sh	v0,-32354(at)
8003ff7c:	0980043c 	lui	a0,0x8009
8003ff80:	9e818494 	lhu	a0,-32354(a0)
8003ff84:	c31f0300 	sra	v1,v1,0x1f
8003ff88:	10500000 	mfhi	t2
8003ff8c:	83110a00 	sra	v0,t2,0x6
8003ff90:	23104300 	subu	v0,v0,v1
8003ff94:	0980013c 	lui	at,0x8009
8003ff98:	888122a4 	sh	v0,-32376(at)
8003ff9c:	109d000c 	jal	0x80027440
8003ffa0:	25209100 	or	a0,a0,s1
8003ffa4:	12000424 	li	a0,18
8003ffa8:	3e020524 	li	a1,574
8003ffac:	4c000624 	li	a2,76
8003ffb0:	b39b000c 	jal	0x80026ecc
8003ffb4:	21384002 	move	a3,s2
8003ffb8:	46020524 	li	a1,582
8003ffbc:	4c000624 	li	a2,76
8003ffc0:	21384002 	move	a3,s2
8003ffc4:	0980033c 	lui	v1,0x8009
8003ffc8:	9e816394 	lhu	v1,-32354(v1)
8003ffcc:	0980043c 	lui	a0,0x8009
8003ffd0:	88818494 	lhu	a0,-32376(a0)
8003ffd4:	80100300 	sll	v0,v1,0x2
8003ffd8:	21104300 	addu	v0,v0,v1
8003ffdc:	40100200 	sll	v0,v0,0x1
8003ffe0:	23208200 	subu	a0,a0,v0
8003ffe4:	ffff8430 	andi	a0,a0,0xffff
8003ffe8:	0001023c 	lui	v0,0x100
8003ffec:	109d000c 	jal	0x80027440
8003fff0:	25208200 	or	a0,a0,v0
8003fff4:	35000424 	li	a0,53
8003fff8:	52020524 	li	a1,594
8003fffc:	4c000624 	li	a2,76
